
TaikoSensors.elf:     file format elf32-littlearm

Sections:
Idx Name          Size      VMA       LMA       File off  Algn
  0 .isr_vector   0000010c  08000000  08000000  00010000  2**0
                  CONTENTS, ALLOC, LOAD, READONLY, DATA
  1 .text         000084b0  0800010c  0800010c  0001010c  2**2
                  CONTENTS, ALLOC, LOAD, READONLY, CODE
  2 .rodata       00000de8  080085bc  080085bc  000185bc  2**2
                  CONTENTS, ALLOC, LOAD, READONLY, DATA
  3 .ARM.extab    00000000  080093a4  080093a4  000204b0  2**0
                  CONTENTS
  4 .ARM          00000000  080093a4  080093a4  000204b0  2**0
                  CONTENTS
  5 .preinit_array 00000000  080093a4  080093a4  000204b0  2**0
                  CONTENTS, ALLOC, LOAD, DATA
  6 .init_array   00000004  080093a4  080093a4  000193a4  2**2
                  CONTENTS, ALLOC, LOAD, DATA
  7 .fini_array   00000004  080093a8  080093a8  000193a8  2**2
                  CONTENTS, ALLOC, LOAD, DATA
  8 .data         000004b0  20000000  080093ac  00020000  2**2
                  CONTENTS, ALLOC, LOAD, DATA
  9 .bss          000028ac  200004b0  0800985c  000204b0  2**3
                  ALLOC
 10 ._user_heap_stack 00000804  20002d5c  0800985c  00022d5c  2**0
                  ALLOC
 11 .ARM.attributes 00000029  00000000  00000000  000204b0  2**0
                  CONTENTS, READONLY
 12 .comment      00000053  00000000  00000000  000204d9  2**0
                  CONTENTS, READONLY
 13 .debug_frame  00000678  00000000  00000000  0002052c  2**2
                  CONTENTS, READONLY, DEBUGGING, OCTETS

Disassembly of section .text:

0800010c <__do_global_dtors_aux>:
 800010c:	b510      	push	{r4, lr}
 800010e:	4c05      	ldr	r4, [pc, #20]	; (8000124 <__do_global_dtors_aux+0x18>)
 8000110:	7823      	ldrb	r3, [r4, #0]
 8000112:	b933      	cbnz	r3, 8000122 <__do_global_dtors_aux+0x16>
 8000114:	4b04      	ldr	r3, [pc, #16]	; (8000128 <__do_global_dtors_aux+0x1c>)
 8000116:	b113      	cbz	r3, 800011e <__do_global_dtors_aux+0x12>
 8000118:	4804      	ldr	r0, [pc, #16]	; (800012c <__do_global_dtors_aux+0x20>)
 800011a:	f3af 8000 	nop.w
 800011e:	2301      	movs	r3, #1
 8000120:	7023      	strb	r3, [r4, #0]
 8000122:	bd10      	pop	{r4, pc}
 8000124:	200004b0 	.word	0x200004b0
 8000128:	00000000 	.word	0x00000000
 800012c:	080085a4 	.word	0x080085a4

08000130 <frame_dummy>:
 8000130:	b508      	push	{r3, lr}
 8000132:	4b03      	ldr	r3, [pc, #12]	; (8000140 <frame_dummy+0x10>)
 8000134:	b11b      	cbz	r3, 800013e <frame_dummy+0xe>
 8000136:	4903      	ldr	r1, [pc, #12]	; (8000144 <frame_dummy+0x14>)
 8000138:	4803      	ldr	r0, [pc, #12]	; (8000148 <frame_dummy+0x18>)
 800013a:	f3af 8000 	nop.w
 800013e:	bd08      	pop	{r3, pc}
 8000140:	00000000 	.word	0x00000000
 8000144:	200004b4 	.word	0x200004b4
 8000148:	080085a4 	.word	0x080085a4

0800014c <strcmp>:
 800014c:	f810 2b01 	ldrb.w	r2, [r0], #1
 8000150:	f811 3b01 	ldrb.w	r3, [r1], #1
 8000154:	2a01      	cmp	r2, #1
 8000156:	bf28      	it	cs
 8000158:	429a      	cmpcs	r2, r3
 800015a:	d0f7      	beq.n	800014c <strcmp>
 800015c:	1ad0      	subs	r0, r2, r3
 800015e:	4770      	bx	lr

08000160 <strlen>:
 8000160:	4603      	mov	r3, r0
 8000162:	f813 2b01 	ldrb.w	r2, [r3], #1
 8000166:	2a00      	cmp	r2, #0
 8000168:	d1fb      	bne.n	8000162 <strlen+0x2>
 800016a:	1a18      	subs	r0, r3, r0
 800016c:	3801      	subs	r0, #1
 800016e:	4770      	bx	lr

08000170 <__aeabi_frsub>:
 8000170:	f080 4000 	eor.w	r0, r0, #2147483648	; 0x80000000
 8000174:	e002      	b.n	800017c <__addsf3>
 8000176:	bf00      	nop

08000178 <__aeabi_fsub>:
 8000178:	f081 4100 	eor.w	r1, r1, #2147483648	; 0x80000000

0800017c <__addsf3>:
 800017c:	0042      	lsls	r2, r0, #1
 800017e:	bf1f      	itttt	ne
 8000180:	ea5f 0341 	movsne.w	r3, r1, lsl #1
 8000184:	ea92 0f03 	teqne	r2, r3
 8000188:	ea7f 6c22 	mvnsne.w	ip, r2, asr #24
 800018c:	ea7f 6c23 	mvnsne.w	ip, r3, asr #24
 8000190:	d06a      	beq.n	8000268 <__addsf3+0xec>
 8000192:	ea4f 6212 	mov.w	r2, r2, lsr #24
 8000196:	ebd2 6313 	rsbs	r3, r2, r3, lsr #24
 800019a:	bfc1      	itttt	gt
 800019c:	18d2      	addgt	r2, r2, r3
 800019e:	4041      	eorgt	r1, r0
 80001a0:	4048      	eorgt	r0, r1
 80001a2:	4041      	eorgt	r1, r0
 80001a4:	bfb8      	it	lt
 80001a6:	425b      	neglt	r3, r3
 80001a8:	2b19      	cmp	r3, #25
 80001aa:	bf88      	it	hi
 80001ac:	4770      	bxhi	lr
 80001ae:	f010 4f00 	tst.w	r0, #2147483648	; 0x80000000
 80001b2:	f440 0000 	orr.w	r0, r0, #8388608	; 0x800000
 80001b6:	f020 407f 	bic.w	r0, r0, #4278190080	; 0xff000000
 80001ba:	bf18      	it	ne
 80001bc:	4240      	negne	r0, r0
 80001be:	f011 4f00 	tst.w	r1, #2147483648	; 0x80000000
 80001c2:	f441 0100 	orr.w	r1, r1, #8388608	; 0x800000
 80001c6:	f021 417f 	bic.w	r1, r1, #4278190080	; 0xff000000
 80001ca:	bf18      	it	ne
 80001cc:	4249      	negne	r1, r1
 80001ce:	ea92 0f03 	teq	r2, r3
 80001d2:	d03f      	beq.n	8000254 <__addsf3+0xd8>
 80001d4:	f1a2 0201 	sub.w	r2, r2, #1
 80001d8:	fa41 fc03 	asr.w	ip, r1, r3
 80001dc:	eb10 000c 	adds.w	r0, r0, ip
 80001e0:	f1c3 0320 	rsb	r3, r3, #32
 80001e4:	fa01 f103 	lsl.w	r1, r1, r3
 80001e8:	f000 4300 	and.w	r3, r0, #2147483648	; 0x80000000
 80001ec:	d502      	bpl.n	80001f4 <__addsf3+0x78>
 80001ee:	4249      	negs	r1, r1
 80001f0:	eb60 0040 	sbc.w	r0, r0, r0, lsl #1
 80001f4:	f5b0 0f00 	cmp.w	r0, #8388608	; 0x800000
 80001f8:	d313      	bcc.n	8000222 <__addsf3+0xa6>
 80001fa:	f1b0 7f80 	cmp.w	r0, #16777216	; 0x1000000
 80001fe:	d306      	bcc.n	800020e <__addsf3+0x92>
 8000200:	0840      	lsrs	r0, r0, #1
 8000202:	ea4f 0131 	mov.w	r1, r1, rrx
 8000206:	f102 0201 	add.w	r2, r2, #1
 800020a:	2afe      	cmp	r2, #254	; 0xfe
 800020c:	d251      	bcs.n	80002b2 <__addsf3+0x136>
 800020e:	f1b1 4f00 	cmp.w	r1, #2147483648	; 0x80000000
 8000212:	eb40 50c2 	adc.w	r0, r0, r2, lsl #23
 8000216:	bf08      	it	eq
 8000218:	f020 0001 	biceq.w	r0, r0, #1
 800021c:	ea40 0003 	orr.w	r0, r0, r3
 8000220:	4770      	bx	lr
 8000222:	0049      	lsls	r1, r1, #1
 8000224:	eb40 0000 	adc.w	r0, r0, r0
 8000228:	3a01      	subs	r2, #1
 800022a:	bf28      	it	cs
 800022c:	f5b0 0f00 	cmpcs.w	r0, #8388608	; 0x800000
 8000230:	d2ed      	bcs.n	800020e <__addsf3+0x92>
 8000232:	fab0 fc80 	clz	ip, r0
 8000236:	f1ac 0c08 	sub.w	ip, ip, #8
 800023a:	ebb2 020c 	subs.w	r2, r2, ip
 800023e:	fa00 f00c 	lsl.w	r0, r0, ip
 8000242:	bfaa      	itet	ge
 8000244:	eb00 50c2 	addge.w	r0, r0, r2, lsl #23
 8000248:	4252      	neglt	r2, r2
 800024a:	4318      	orrge	r0, r3
 800024c:	bfbc      	itt	lt
 800024e:	40d0      	lsrlt	r0, r2
 8000250:	4318      	orrlt	r0, r3
 8000252:	4770      	bx	lr
 8000254:	f092 0f00 	teq	r2, #0
 8000258:	f481 0100 	eor.w	r1, r1, #8388608	; 0x800000
 800025c:	bf06      	itte	eq
 800025e:	f480 0000 	eoreq.w	r0, r0, #8388608	; 0x800000
 8000262:	3201      	addeq	r2, #1
 8000264:	3b01      	subne	r3, #1
 8000266:	e7b5      	b.n	80001d4 <__addsf3+0x58>
 8000268:	ea4f 0341 	mov.w	r3, r1, lsl #1
 800026c:	ea7f 6c22 	mvns.w	ip, r2, asr #24
 8000270:	bf18      	it	ne
 8000272:	ea7f 6c23 	mvnsne.w	ip, r3, asr #24
 8000276:	d021      	beq.n	80002bc <__addsf3+0x140>
 8000278:	ea92 0f03 	teq	r2, r3
 800027c:	d004      	beq.n	8000288 <__addsf3+0x10c>
 800027e:	f092 0f00 	teq	r2, #0
 8000282:	bf08      	it	eq
 8000284:	4608      	moveq	r0, r1
 8000286:	4770      	bx	lr
 8000288:	ea90 0f01 	teq	r0, r1
 800028c:	bf1c      	itt	ne
 800028e:	2000      	movne	r0, #0
 8000290:	4770      	bxne	lr
 8000292:	f012 4f7f 	tst.w	r2, #4278190080	; 0xff000000
 8000296:	d104      	bne.n	80002a2 <__addsf3+0x126>
 8000298:	0040      	lsls	r0, r0, #1
 800029a:	bf28      	it	cs
 800029c:	f040 4000 	orrcs.w	r0, r0, #2147483648	; 0x80000000
 80002a0:	4770      	bx	lr
 80002a2:	f112 7200 	adds.w	r2, r2, #33554432	; 0x2000000
 80002a6:	bf3c      	itt	cc
 80002a8:	f500 0000 	addcc.w	r0, r0, #8388608	; 0x800000
 80002ac:	4770      	bxcc	lr
 80002ae:	f000 4300 	and.w	r3, r0, #2147483648	; 0x80000000
 80002b2:	f043 40fe 	orr.w	r0, r3, #2130706432	; 0x7f000000
 80002b6:	f440 0000 	orr.w	r0, r0, #8388608	; 0x800000
 80002ba:	4770      	bx	lr
 80002bc:	ea7f 6222 	mvns.w	r2, r2, asr #24
 80002c0:	bf16      	itet	ne
 80002c2:	4608      	movne	r0, r1
 80002c4:	ea7f 6323 	mvnseq.w	r3, r3, asr #24
 80002c8:	4601      	movne	r1, r0
 80002ca:	0242      	lsls	r2, r0, #9
 80002cc:	bf06      	itte	eq
 80002ce:	ea5f 2341 	movseq.w	r3, r1, lsl #9
 80002d2:	ea90 0f01 	teqeq	r0, r1
 80002d6:	f440 0080 	orrne.w	r0, r0, #4194304	; 0x400000
 80002da:	4770      	bx	lr

080002dc <__aeabi_ui2f>:
 80002dc:	f04f 0300 	mov.w	r3, #0
 80002e0:	e004      	b.n	80002ec <__aeabi_i2f+0x8>
 80002e2:	bf00      	nop

080002e4 <__aeabi_i2f>:
 80002e4:	f010 4300 	ands.w	r3, r0, #2147483648	; 0x80000000
 80002e8:	bf48      	it	mi
 80002ea:	4240      	negmi	r0, r0
 80002ec:	ea5f 0c00 	movs.w	ip, r0
 80002f0:	bf08      	it	eq
 80002f2:	4770      	bxeq	lr
 80002f4:	f043 4396 	orr.w	r3, r3, #1258291200	; 0x4b000000
 80002f8:	4601      	mov	r1, r0
 80002fa:	f04f 0000 	mov.w	r0, #0
 80002fe:	e01c      	b.n	800033a <__aeabi_l2f+0x2a>

08000300 <__aeabi_ul2f>:
 8000300:	ea50 0201 	orrs.w	r2, r0, r1
 8000304:	bf08      	it	eq
 8000306:	4770      	bxeq	lr
 8000308:	f04f 0300 	mov.w	r3, #0
 800030c:	e00a      	b.n	8000324 <__aeabi_l2f+0x14>
 800030e:	bf00      	nop

08000310 <__aeabi_l2f>:
 8000310:	ea50 0201 	orrs.w	r2, r0, r1
 8000314:	bf08      	it	eq
 8000316:	4770      	bxeq	lr
 8000318:	f011 4300 	ands.w	r3, r1, #2147483648	; 0x80000000
 800031c:	d502      	bpl.n	8000324 <__aeabi_l2f+0x14>
 800031e:	4240      	negs	r0, r0
 8000320:	eb61 0141 	sbc.w	r1, r1, r1, lsl #1
 8000324:	ea5f 0c01 	movs.w	ip, r1
 8000328:	bf02      	ittt	eq
 800032a:	4684      	moveq	ip, r0
 800032c:	4601      	moveq	r1, r0
 800032e:	2000      	moveq	r0, #0
 8000330:	f043 43b6 	orr.w	r3, r3, #1526726656	; 0x5b000000
 8000334:	bf08      	it	eq
 8000336:	f1a3 5380 	subeq.w	r3, r3, #268435456	; 0x10000000
 800033a:	f5a3 0300 	sub.w	r3, r3, #8388608	; 0x800000
 800033e:	fabc f28c 	clz	r2, ip
 8000342:	3a08      	subs	r2, #8
 8000344:	eba3 53c2 	sub.w	r3, r3, r2, lsl #23
 8000348:	db10      	blt.n	800036c <__aeabi_l2f+0x5c>
 800034a:	fa01 fc02 	lsl.w	ip, r1, r2
 800034e:	4463      	add	r3, ip
 8000350:	fa00 fc02 	lsl.w	ip, r0, r2
 8000354:	f1c2 0220 	rsb	r2, r2, #32
 8000358:	f1bc 4f00 	cmp.w	ip, #2147483648	; 0x80000000
 800035c:	fa20 f202 	lsr.w	r2, r0, r2
 8000360:	eb43 0002 	adc.w	r0, r3, r2
 8000364:	bf08      	it	eq
 8000366:	f020 0001 	biceq.w	r0, r0, #1
 800036a:	4770      	bx	lr
 800036c:	f102 0220 	add.w	r2, r2, #32
 8000370:	fa01 fc02 	lsl.w	ip, r1, r2
 8000374:	f1c2 0220 	rsb	r2, r2, #32
 8000378:	ea50 004c 	orrs.w	r0, r0, ip, lsl #1
 800037c:	fa21 f202 	lsr.w	r2, r1, r2
 8000380:	eb43 0002 	adc.w	r0, r3, r2
 8000384:	bf08      	it	eq
 8000386:	ea20 70dc 	biceq.w	r0, r0, ip, lsr #31
 800038a:	4770      	bx	lr

0800038c <__aeabi_fmul>:
 800038c:	f04f 0cff 	mov.w	ip, #255	; 0xff
 8000390:	ea1c 52d0 	ands.w	r2, ip, r0, lsr #23
 8000394:	bf1e      	ittt	ne
 8000396:	ea1c 53d1 	andsne.w	r3, ip, r1, lsr #23
 800039a:	ea92 0f0c 	teqne	r2, ip
 800039e:	ea93 0f0c 	teqne	r3, ip
 80003a2:	d06f      	beq.n	8000484 <__aeabi_fmul+0xf8>
 80003a4:	441a      	add	r2, r3
 80003a6:	ea80 0c01 	eor.w	ip, r0, r1
 80003aa:	0240      	lsls	r0, r0, #9
 80003ac:	bf18      	it	ne
 80003ae:	ea5f 2141 	movsne.w	r1, r1, lsl #9
 80003b2:	d01e      	beq.n	80003f2 <__aeabi_fmul+0x66>
 80003b4:	f04f 6300 	mov.w	r3, #134217728	; 0x8000000
 80003b8:	ea43 1050 	orr.w	r0, r3, r0, lsr #5
 80003bc:	ea43 1151 	orr.w	r1, r3, r1, lsr #5
 80003c0:	fba0 3101 	umull	r3, r1, r0, r1
 80003c4:	f00c 4000 	and.w	r0, ip, #2147483648	; 0x80000000
 80003c8:	f5b1 0f00 	cmp.w	r1, #8388608	; 0x800000
 80003cc:	bf3e      	ittt	cc
 80003ce:	0049      	lslcc	r1, r1, #1
 80003d0:	ea41 71d3 	orrcc.w	r1, r1, r3, lsr #31
 80003d4:	005b      	lslcc	r3, r3, #1
 80003d6:	ea40 0001 	orr.w	r0, r0, r1
 80003da:	f162 027f 	sbc.w	r2, r2, #127	; 0x7f
 80003de:	2afd      	cmp	r2, #253	; 0xfd
 80003e0:	d81d      	bhi.n	800041e <__aeabi_fmul+0x92>
 80003e2:	f1b3 4f00 	cmp.w	r3, #2147483648	; 0x80000000
 80003e6:	eb40 50c2 	adc.w	r0, r0, r2, lsl #23
 80003ea:	bf08      	it	eq
 80003ec:	f020 0001 	biceq.w	r0, r0, #1
 80003f0:	4770      	bx	lr
 80003f2:	f090 0f00 	teq	r0, #0
 80003f6:	f00c 4c00 	and.w	ip, ip, #2147483648	; 0x80000000
 80003fa:	bf08      	it	eq
 80003fc:	0249      	lsleq	r1, r1, #9
 80003fe:	ea4c 2050 	orr.w	r0, ip, r0, lsr #9
 8000402:	ea40 2051 	orr.w	r0, r0, r1, lsr #9
 8000406:	3a7f      	subs	r2, #127	; 0x7f
 8000408:	bfc2      	ittt	gt
 800040a:	f1d2 03ff 	rsbsgt	r3, r2, #255	; 0xff
 800040e:	ea40 50c2 	orrgt.w	r0, r0, r2, lsl #23
 8000412:	4770      	bxgt	lr
 8000414:	f440 0000 	orr.w	r0, r0, #8388608	; 0x800000
 8000418:	f04f 0300 	mov.w	r3, #0
 800041c:	3a01      	subs	r2, #1
 800041e:	dc5d      	bgt.n	80004dc <__aeabi_fmul+0x150>
 8000420:	f112 0f19 	cmn.w	r2, #25
 8000424:	bfdc      	itt	le
 8000426:	f000 4000 	andle.w	r0, r0, #2147483648	; 0x80000000
 800042a:	4770      	bxle	lr
 800042c:	f1c2 0200 	rsb	r2, r2, #0
 8000430:	0041      	lsls	r1, r0, #1
 8000432:	fa21 f102 	lsr.w	r1, r1, r2
 8000436:	f1c2 0220 	rsb	r2, r2, #32
 800043a:	fa00 fc02 	lsl.w	ip, r0, r2
 800043e:	ea5f 0031 	movs.w	r0, r1, rrx
 8000442:	f140 0000 	adc.w	r0, r0, #0
 8000446:	ea53 034c 	orrs.w	r3, r3, ip, lsl #1
 800044a:	bf08      	it	eq
 800044c:	ea20 70dc 	biceq.w	r0, r0, ip, lsr #31
 8000450:	4770      	bx	lr
 8000452:	f092 0f00 	teq	r2, #0
 8000456:	f000 4c00 	and.w	ip, r0, #2147483648	; 0x80000000
 800045a:	bf02      	ittt	eq
 800045c:	0040      	lsleq	r0, r0, #1
 800045e:	f410 0f00 	tsteq.w	r0, #8388608	; 0x800000
 8000462:	3a01      	subeq	r2, #1
 8000464:	d0f9      	beq.n	800045a <__aeabi_fmul+0xce>
 8000466:	ea40 000c 	orr.w	r0, r0, ip
 800046a:	f093 0f00 	teq	r3, #0
 800046e:	f001 4c00 	and.w	ip, r1, #2147483648	; 0x80000000
 8000472:	bf02      	ittt	eq
 8000474:	0049      	lsleq	r1, r1, #1
 8000476:	f411 0f00 	tsteq.w	r1, #8388608	; 0x800000
 800047a:	3b01      	subeq	r3, #1
 800047c:	d0f9      	beq.n	8000472 <__aeabi_fmul+0xe6>
 800047e:	ea41 010c 	orr.w	r1, r1, ip
 8000482:	e78f      	b.n	80003a4 <__aeabi_fmul+0x18>
 8000484:	ea0c 53d1 	and.w	r3, ip, r1, lsr #23
 8000488:	ea92 0f0c 	teq	r2, ip
 800048c:	bf18      	it	ne
 800048e:	ea93 0f0c 	teqne	r3, ip
 8000492:	d00a      	beq.n	80004aa <__aeabi_fmul+0x11e>
 8000494:	f030 4c00 	bics.w	ip, r0, #2147483648	; 0x80000000
 8000498:	bf18      	it	ne
 800049a:	f031 4c00 	bicsne.w	ip, r1, #2147483648	; 0x80000000
 800049e:	d1d8      	bne.n	8000452 <__aeabi_fmul+0xc6>
 80004a0:	ea80 0001 	eor.w	r0, r0, r1
 80004a4:	f000 4000 	and.w	r0, r0, #2147483648	; 0x80000000
 80004a8:	4770      	bx	lr
 80004aa:	f090 0f00 	teq	r0, #0
 80004ae:	bf17      	itett	ne
 80004b0:	f090 4f00 	teqne	r0, #2147483648	; 0x80000000
 80004b4:	4608      	moveq	r0, r1
 80004b6:	f091 0f00 	teqne	r1, #0
 80004ba:	f091 4f00 	teqne	r1, #2147483648	; 0x80000000
 80004be:	d014      	beq.n	80004ea <__aeabi_fmul+0x15e>
 80004c0:	ea92 0f0c 	teq	r2, ip
 80004c4:	d101      	bne.n	80004ca <__aeabi_fmul+0x13e>
 80004c6:	0242      	lsls	r2, r0, #9
 80004c8:	d10f      	bne.n	80004ea <__aeabi_fmul+0x15e>
 80004ca:	ea93 0f0c 	teq	r3, ip
 80004ce:	d103      	bne.n	80004d8 <__aeabi_fmul+0x14c>
 80004d0:	024b      	lsls	r3, r1, #9
 80004d2:	bf18      	it	ne
 80004d4:	4608      	movne	r0, r1
 80004d6:	d108      	bne.n	80004ea <__aeabi_fmul+0x15e>
 80004d8:	ea80 0001 	eor.w	r0, r0, r1
 80004dc:	f000 4000 	and.w	r0, r0, #2147483648	; 0x80000000
 80004e0:	f040 40fe 	orr.w	r0, r0, #2130706432	; 0x7f000000
 80004e4:	f440 0000 	orr.w	r0, r0, #8388608	; 0x800000
 80004e8:	4770      	bx	lr
 80004ea:	f040 40fe 	orr.w	r0, r0, #2130706432	; 0x7f000000
 80004ee:	f440 0040 	orr.w	r0, r0, #12582912	; 0xc00000
 80004f2:	4770      	bx	lr

080004f4 <__aeabi_fdiv>:
 80004f4:	f04f 0cff 	mov.w	ip, #255	; 0xff
 80004f8:	ea1c 52d0 	ands.w	r2, ip, r0, lsr #23
 80004fc:	bf1e      	ittt	ne
 80004fe:	ea1c 53d1 	andsne.w	r3, ip, r1, lsr #23
 8000502:	ea92 0f0c 	teqne	r2, ip
 8000506:	ea93 0f0c 	teqne	r3, ip
 800050a:	d069      	beq.n	80005e0 <__aeabi_fdiv+0xec>
 800050c:	eba2 0203 	sub.w	r2, r2, r3
 8000510:	ea80 0c01 	eor.w	ip, r0, r1
 8000514:	0249      	lsls	r1, r1, #9
 8000516:	ea4f 2040 	mov.w	r0, r0, lsl #9
 800051a:	d037      	beq.n	800058c <__aeabi_fdiv+0x98>
 800051c:	f04f 5380 	mov.w	r3, #268435456	; 0x10000000
 8000520:	ea43 1111 	orr.w	r1, r3, r1, lsr #4
 8000524:	ea43 1310 	orr.w	r3, r3, r0, lsr #4
 8000528:	f00c 4000 	and.w	r0, ip, #2147483648	; 0x80000000
 800052c:	428b      	cmp	r3, r1
 800052e:	bf38      	it	cc
 8000530:	005b      	lslcc	r3, r3, #1
 8000532:	f142 027d 	adc.w	r2, r2, #125	; 0x7d
 8000536:	f44f 0c00 	mov.w	ip, #8388608	; 0x800000
 800053a:	428b      	cmp	r3, r1
 800053c:	bf24      	itt	cs
 800053e:	1a5b      	subcs	r3, r3, r1
 8000540:	ea40 000c 	orrcs.w	r0, r0, ip
 8000544:	ebb3 0f51 	cmp.w	r3, r1, lsr #1
 8000548:	bf24      	itt	cs
 800054a:	eba3 0351 	subcs.w	r3, r3, r1, lsr #1
 800054e:	ea40 005c 	orrcs.w	r0, r0, ip, lsr #1
 8000552:	ebb3 0f91 	cmp.w	r3, r1, lsr #2
 8000556:	bf24      	itt	cs
 8000558:	eba3 0391 	subcs.w	r3, r3, r1, lsr #2
 800055c:	ea40 009c 	orrcs.w	r0, r0, ip, lsr #2
 8000560:	ebb3 0fd1 	cmp.w	r3, r1, lsr #3
 8000564:	bf24      	itt	cs
 8000566:	eba3 03d1 	subcs.w	r3, r3, r1, lsr #3
 800056a:	ea40 00dc 	orrcs.w	r0, r0, ip, lsr #3
 800056e:	011b      	lsls	r3, r3, #4
 8000570:	bf18      	it	ne
 8000572:	ea5f 1c1c 	movsne.w	ip, ip, lsr #4
 8000576:	d1e0      	bne.n	800053a <__aeabi_fdiv+0x46>
 8000578:	2afd      	cmp	r2, #253	; 0xfd
 800057a:	f63f af50 	bhi.w	800041e <__aeabi_fmul+0x92>
 800057e:	428b      	cmp	r3, r1
 8000580:	eb40 50c2 	adc.w	r0, r0, r2, lsl #23
 8000584:	bf08      	it	eq
 8000586:	f020 0001 	biceq.w	r0, r0, #1
 800058a:	4770      	bx	lr
 800058c:	f00c 4c00 	and.w	ip, ip, #2147483648	; 0x80000000
 8000590:	ea4c 2050 	orr.w	r0, ip, r0, lsr #9
 8000594:	327f      	adds	r2, #127	; 0x7f
 8000596:	bfc2      	ittt	gt
 8000598:	f1d2 03ff 	rsbsgt	r3, r2, #255	; 0xff
 800059c:	ea40 50c2 	orrgt.w	r0, r0, r2, lsl #23
 80005a0:	4770      	bxgt	lr
 80005a2:	f440 0000 	orr.w	r0, r0, #8388608	; 0x800000
 80005a6:	f04f 0300 	mov.w	r3, #0
 80005aa:	3a01      	subs	r2, #1
 80005ac:	e737      	b.n	800041e <__aeabi_fmul+0x92>
 80005ae:	f092 0f00 	teq	r2, #0
 80005b2:	f000 4c00 	and.w	ip, r0, #2147483648	; 0x80000000
 80005b6:	bf02      	ittt	eq
 80005b8:	0040      	lsleq	r0, r0, #1
 80005ba:	f410 0f00 	tsteq.w	r0, #8388608	; 0x800000
 80005be:	3a01      	subeq	r2, #1
 80005c0:	d0f9      	beq.n	80005b6 <__aeabi_fdiv+0xc2>
 80005c2:	ea40 000c 	orr.w	r0, r0, ip
 80005c6:	f093 0f00 	teq	r3, #0
 80005ca:	f001 4c00 	and.w	ip, r1, #2147483648	; 0x80000000
 80005ce:	bf02      	ittt	eq
 80005d0:	0049      	lsleq	r1, r1, #1
 80005d2:	f411 0f00 	tsteq.w	r1, #8388608	; 0x800000
 80005d6:	3b01      	subeq	r3, #1
 80005d8:	d0f9      	beq.n	80005ce <__aeabi_fdiv+0xda>
 80005da:	ea41 010c 	orr.w	r1, r1, ip
 80005de:	e795      	b.n	800050c <__aeabi_fdiv+0x18>
 80005e0:	ea0c 53d1 	and.w	r3, ip, r1, lsr #23
 80005e4:	ea92 0f0c 	teq	r2, ip
 80005e8:	d108      	bne.n	80005fc <__aeabi_fdiv+0x108>
 80005ea:	0242      	lsls	r2, r0, #9
 80005ec:	f47f af7d 	bne.w	80004ea <__aeabi_fmul+0x15e>
 80005f0:	ea93 0f0c 	teq	r3, ip
 80005f4:	f47f af70 	bne.w	80004d8 <__aeabi_fmul+0x14c>
 80005f8:	4608      	mov	r0, r1
 80005fa:	e776      	b.n	80004ea <__aeabi_fmul+0x15e>
 80005fc:	ea93 0f0c 	teq	r3, ip
 8000600:	d104      	bne.n	800060c <__aeabi_fdiv+0x118>
 8000602:	024b      	lsls	r3, r1, #9
 8000604:	f43f af4c 	beq.w	80004a0 <__aeabi_fmul+0x114>
 8000608:	4608      	mov	r0, r1
 800060a:	e76e      	b.n	80004ea <__aeabi_fmul+0x15e>
 800060c:	f030 4c00 	bics.w	ip, r0, #2147483648	; 0x80000000
 8000610:	bf18      	it	ne
 8000612:	f031 4c00 	bicsne.w	ip, r1, #2147483648	; 0x80000000
 8000616:	d1ca      	bne.n	80005ae <__aeabi_fdiv+0xba>
 8000618:	f030 4200 	bics.w	r2, r0, #2147483648	; 0x80000000
 800061c:	f47f af5c 	bne.w	80004d8 <__aeabi_fmul+0x14c>
 8000620:	f031 4300 	bics.w	r3, r1, #2147483648	; 0x80000000
 8000624:	f47f af3c 	bne.w	80004a0 <__aeabi_fmul+0x114>
 8000628:	e75f      	b.n	80004ea <__aeabi_fmul+0x15e>
 800062a:	bf00      	nop

0800062c <__gesf2>:
 800062c:	f04f 3cff 	mov.w	ip, #4294967295
 8000630:	e006      	b.n	8000640 <__cmpsf2+0x4>
 8000632:	bf00      	nop

08000634 <__lesf2>:
 8000634:	f04f 0c01 	mov.w	ip, #1
 8000638:	e002      	b.n	8000640 <__cmpsf2+0x4>
 800063a:	bf00      	nop

0800063c <__cmpsf2>:
 800063c:	f04f 0c01 	mov.w	ip, #1
 8000640:	f84d cd04 	str.w	ip, [sp, #-4]!
 8000644:	ea4f 0240 	mov.w	r2, r0, lsl #1
 8000648:	ea4f 0341 	mov.w	r3, r1, lsl #1
 800064c:	ea7f 6c22 	mvns.w	ip, r2, asr #24
 8000650:	bf18      	it	ne
 8000652:	ea7f 6c23 	mvnsne.w	ip, r3, asr #24
 8000656:	d011      	beq.n	800067c <__cmpsf2+0x40>
 8000658:	b001      	add	sp, #4
 800065a:	ea52 0c53 	orrs.w	ip, r2, r3, lsr #1
 800065e:	bf18      	it	ne
 8000660:	ea90 0f01 	teqne	r0, r1
 8000664:	bf58      	it	pl
 8000666:	ebb2 0003 	subspl.w	r0, r2, r3
 800066a:	bf88      	it	hi
 800066c:	17c8      	asrhi	r0, r1, #31
 800066e:	bf38      	it	cc
 8000670:	ea6f 70e1 	mvncc.w	r0, r1, asr #31
 8000674:	bf18      	it	ne
 8000676:	f040 0001 	orrne.w	r0, r0, #1
 800067a:	4770      	bx	lr
 800067c:	ea7f 6c22 	mvns.w	ip, r2, asr #24
 8000680:	d102      	bne.n	8000688 <__cmpsf2+0x4c>
 8000682:	ea5f 2c40 	movs.w	ip, r0, lsl #9
 8000686:	d105      	bne.n	8000694 <__cmpsf2+0x58>
 8000688:	ea7f 6c23 	mvns.w	ip, r3, asr #24
 800068c:	d1e4      	bne.n	8000658 <__cmpsf2+0x1c>
 800068e:	ea5f 2c41 	movs.w	ip, r1, lsl #9
 8000692:	d0e1      	beq.n	8000658 <__cmpsf2+0x1c>
 8000694:	f85d 0b04 	ldr.w	r0, [sp], #4
 8000698:	4770      	bx	lr
 800069a:	bf00      	nop

0800069c <__aeabi_cfrcmple>:
 800069c:	4684      	mov	ip, r0
 800069e:	4608      	mov	r0, r1
 80006a0:	4661      	mov	r1, ip
 80006a2:	e7ff      	b.n	80006a4 <__aeabi_cfcmpeq>

080006a4 <__aeabi_cfcmpeq>:
 80006a4:	b50f      	push	{r0, r1, r2, r3, lr}
 80006a6:	f7ff ffc9 	bl	800063c <__cmpsf2>
 80006aa:	2800      	cmp	r0, #0
 80006ac:	bf48      	it	mi
 80006ae:	f110 0f00 	cmnmi.w	r0, #0
 80006b2:	bd0f      	pop	{r0, r1, r2, r3, pc}

080006b4 <__aeabi_fcmpeq>:
 80006b4:	f84d ed08 	str.w	lr, [sp, #-8]!
 80006b8:	f7ff fff4 	bl	80006a4 <__aeabi_cfcmpeq>
 80006bc:	bf0c      	ite	eq
 80006be:	2001      	moveq	r0, #1
 80006c0:	2000      	movne	r0, #0
 80006c2:	f85d fb08 	ldr.w	pc, [sp], #8
 80006c6:	bf00      	nop

080006c8 <__aeabi_fcmplt>:
 80006c8:	f84d ed08 	str.w	lr, [sp, #-8]!
 80006cc:	f7ff ffea 	bl	80006a4 <__aeabi_cfcmpeq>
 80006d0:	bf34      	ite	cc
 80006d2:	2001      	movcc	r0, #1
 80006d4:	2000      	movcs	r0, #0
 80006d6:	f85d fb08 	ldr.w	pc, [sp], #8
 80006da:	bf00      	nop

080006dc <__aeabi_fcmple>:
 80006dc:	f84d ed08 	str.w	lr, [sp, #-8]!
 80006e0:	f7ff ffe0 	bl	80006a4 <__aeabi_cfcmpeq>
 80006e4:	bf94      	ite	ls
 80006e6:	2001      	movls	r0, #1
 80006e8:	2000      	movhi	r0, #0
 80006ea:	f85d fb08 	ldr.w	pc, [sp], #8
 80006ee:	bf00      	nop

080006f0 <__aeabi_fcmpge>:
 80006f0:	f84d ed08 	str.w	lr, [sp, #-8]!
 80006f4:	f7ff ffd2 	bl	800069c <__aeabi_cfrcmple>
 80006f8:	bf94      	ite	ls
 80006fa:	2001      	movls	r0, #1
 80006fc:	2000      	movhi	r0, #0
 80006fe:	f85d fb08 	ldr.w	pc, [sp], #8
 8000702:	bf00      	nop

08000704 <__aeabi_fcmpgt>:
 8000704:	f84d ed08 	str.w	lr, [sp, #-8]!
 8000708:	f7ff ffc8 	bl	800069c <__aeabi_cfrcmple>
 800070c:	bf34      	ite	cc
 800070e:	2001      	movcc	r0, #1
 8000710:	2000      	movcs	r0, #0
 8000712:	f85d fb08 	ldr.w	pc, [sp], #8
 8000716:	bf00      	nop

08000718 <__aeabi_f2iz>:
 8000718:	ea4f 0240 	mov.w	r2, r0, lsl #1
 800071c:	f1b2 4ffe 	cmp.w	r2, #2130706432	; 0x7f000000
 8000720:	d30f      	bcc.n	8000742 <__aeabi_f2iz+0x2a>
 8000722:	f04f 039e 	mov.w	r3, #158	; 0x9e
 8000726:	ebb3 6212 	subs.w	r2, r3, r2, lsr #24
 800072a:	d90d      	bls.n	8000748 <__aeabi_f2iz+0x30>
 800072c:	ea4f 2300 	mov.w	r3, r0, lsl #8
 8000730:	f043 4300 	orr.w	r3, r3, #2147483648	; 0x80000000
 8000734:	f010 4f00 	tst.w	r0, #2147483648	; 0x80000000
 8000738:	fa23 f002 	lsr.w	r0, r3, r2
 800073c:	bf18      	it	ne
 800073e:	4240      	negne	r0, r0
 8000740:	4770      	bx	lr
 8000742:	f04f 0000 	mov.w	r0, #0
 8000746:	4770      	bx	lr
 8000748:	f112 0f61 	cmn.w	r2, #97	; 0x61
 800074c:	d101      	bne.n	8000752 <__aeabi_f2iz+0x3a>
 800074e:	0242      	lsls	r2, r0, #9
 8000750:	d105      	bne.n	800075e <__aeabi_f2iz+0x46>
 8000752:	f010 4000 	ands.w	r0, r0, #2147483648	; 0x80000000
 8000756:	bf08      	it	eq
 8000758:	f06f 4000 	mvneq.w	r0, #2147483648	; 0x80000000
 800075c:	4770      	bx	lr
 800075e:	f04f 0000 	mov.w	r0, #0
 8000762:	4770      	bx	lr

08000764 <__aeabi_f2uiz>:
 8000764:	0042      	lsls	r2, r0, #1
 8000766:	d20e      	bcs.n	8000786 <__aeabi_f2uiz+0x22>
 8000768:	f1b2 4ffe 	cmp.w	r2, #2130706432	; 0x7f000000
 800076c:	d30b      	bcc.n	8000786 <__aeabi_f2uiz+0x22>
 800076e:	f04f 039e 	mov.w	r3, #158	; 0x9e
 8000772:	ebb3 6212 	subs.w	r2, r3, r2, lsr #24
 8000776:	d409      	bmi.n	800078c <__aeabi_f2uiz+0x28>
 8000778:	ea4f 2300 	mov.w	r3, r0, lsl #8
 800077c:	f043 4300 	orr.w	r3, r3, #2147483648	; 0x80000000
 8000780:	fa23 f002 	lsr.w	r0, r3, r2
 8000784:	4770      	bx	lr
 8000786:	f04f 0000 	mov.w	r0, #0
 800078a:	4770      	bx	lr
 800078c:	f112 0f61 	cmn.w	r2, #97	; 0x61
 8000790:	d101      	bne.n	8000796 <__aeabi_f2uiz+0x32>
 8000792:	0242      	lsls	r2, r0, #9
 8000794:	d102      	bne.n	800079c <__aeabi_f2uiz+0x38>
 8000796:	f04f 30ff 	mov.w	r0, #4294967295
 800079a:	4770      	bx	lr
 800079c:	f04f 0000 	mov.w	r0, #0
 80007a0:	4770      	bx	lr
 80007a2:	bf00      	nop

080007a4 <xgood_led_blink_handler>:
 80007a4:	b538      	push	{r3, r4, r5, lr}
 80007a6:	4604      	mov	r4, r0
 80007a8:	f001 fda4 	bl	80022f4 <sensor_config_load_failed>
 80007ac:	b190      	cbz	r0, 80007d4 <xgood_led_blink_handler+0x30>
 80007ae:	4d1b      	ldr	r5, [pc, #108]	; (800081c <xgood_led_blink_handler+0x78>)
 80007b0:	682b      	ldr	r3, [r5, #0]
 80007b2:	792a      	ldrb	r2, [r5, #4]
 80007b4:	1ae3      	subs	r3, r4, r3
 80007b6:	b112      	cbz	r2, 80007be <xgood_led_blink_handler+0x1a>
 80007b8:	2bc7      	cmp	r3, #199	; 0xc7
 80007ba:	d825      	bhi.n	8000808 <xgood_led_blink_handler+0x64>
 80007bc:	bd38      	pop	{r3, r4, r5, pc}
 80007be:	f5b3 7f48 	cmp.w	r3, #800	; 0x320
 80007c2:	d3fb      	bcc.n	80007bc <xgood_led_blink_handler+0x18>
 80007c4:	2120      	movs	r1, #32
 80007c6:	4816      	ldr	r0, [pc, #88]	; (8000820 <xgood_led_blink_handler+0x7c>)
 80007c8:	f003 fade 	bl	8003d88 <HAL_GPIO_WritePin>
 80007cc:	2301      	movs	r3, #1
 80007ce:	602c      	str	r4, [r5, #0]
 80007d0:	712b      	strb	r3, [r5, #4]
 80007d2:	bd38      	pop	{r3, r4, r5, pc}
 80007d4:	4b13      	ldr	r3, [pc, #76]	; (8000824 <xgood_led_blink_handler+0x80>)
 80007d6:	781b      	ldrb	r3, [r3, #0]
 80007d8:	2b01      	cmp	r3, #1
 80007da:	d10e      	bne.n	80007fa <xgood_led_blink_handler+0x56>
 80007dc:	4d0f      	ldr	r5, [pc, #60]	; (800081c <xgood_led_blink_handler+0x78>)
 80007de:	682b      	ldr	r3, [r5, #0]
 80007e0:	1ae3      	subs	r3, r4, r3
 80007e2:	2b63      	cmp	r3, #99	; 0x63
 80007e4:	d9ea      	bls.n	80007bc <xgood_led_blink_handler+0x18>
 80007e6:	792a      	ldrb	r2, [r5, #4]
 80007e8:	2120      	movs	r1, #32
 80007ea:	f082 0201 	eor.w	r2, r2, #1
 80007ee:	480c      	ldr	r0, [pc, #48]	; (8000820 <xgood_led_blink_handler+0x7c>)
 80007f0:	712a      	strb	r2, [r5, #4]
 80007f2:	f003 fac9 	bl	8003d88 <HAL_GPIO_WritePin>
 80007f6:	602c      	str	r4, [r5, #0]
 80007f8:	bd38      	pop	{r3, r4, r5, pc}
 80007fa:	4602      	mov	r2, r0
 80007fc:	e8bd 4038 	ldmia.w	sp!, {r3, r4, r5, lr}
 8000800:	2120      	movs	r1, #32
 8000802:	4807      	ldr	r0, [pc, #28]	; (8000820 <xgood_led_blink_handler+0x7c>)
 8000804:	f003 bac0 	b.w	8003d88 <HAL_GPIO_WritePin>
 8000808:	2201      	movs	r2, #1
 800080a:	2120      	movs	r1, #32
 800080c:	4804      	ldr	r0, [pc, #16]	; (8000820 <xgood_led_blink_handler+0x7c>)
 800080e:	f003 fabb 	bl	8003d88 <HAL_GPIO_WritePin>
 8000812:	2300      	movs	r3, #0
 8000814:	602c      	str	r4, [r5, #0]
 8000816:	712b      	strb	r3, [r5, #4]
 8000818:	bd38      	pop	{r3, r4, r5, pc}
 800081a:	bf00      	nop
 800081c:	2000088c 	.word	0x2000088c
 8000820:	40010c00 	.word	0x40010c00
 8000824:	20001ba9 	.word	0x20001ba9

08000828 <SystemClock_Config>:
 8000828:	b570      	push	{r4, r5, r6, lr}
 800082a:	2300      	movs	r3, #0
 800082c:	2401      	movs	r4, #1
 800082e:	f44f 3280 	mov.w	r2, #65536	; 0x10000
 8000832:	f44f 3600 	mov.w	r6, #131072	; 0x20000
 8000836:	2502      	movs	r5, #2
 8000838:	f44f 1180 	mov.w	r1, #1048576	; 0x100000
 800083c:	b094      	sub	sp, #80	; 0x50
 800083e:	a80a      	add	r0, sp, #40	; 0x28
 8000840:	e9cd 330f 	strd	r3, r3, [sp, #60]	; 0x3c
 8000844:	e9cd 3306 	strd	r3, r3, [sp, #24]
 8000848:	e9cd 3308 	strd	r3, r3, [sp, #32]
 800084c:	e9cd 3302 	strd	r3, r3, [sp, #8]
 8000850:	930d      	str	r3, [sp, #52]	; 0x34
 8000852:	9305      	str	r3, [sp, #20]
 8000854:	9301      	str	r3, [sp, #4]
 8000856:	9304      	str	r3, [sp, #16]
 8000858:	940a      	str	r4, [sp, #40]	; 0x28
 800085a:	940e      	str	r4, [sp, #56]	; 0x38
 800085c:	920b      	str	r2, [sp, #44]	; 0x2c
 800085e:	9212      	str	r2, [sp, #72]	; 0x48
 8000860:	960c      	str	r6, [sp, #48]	; 0x30
 8000862:	9511      	str	r5, [sp, #68]	; 0x44
 8000864:	9113      	str	r1, [sp, #76]	; 0x4c
 8000866:	f004 f9ed 	bl	8004c44 <HAL_RCC_OscConfig>
 800086a:	b108      	cbz	r0, 8000870 <SystemClock_Config+0x48>
 800086c:	b672      	cpsid	i
 800086e:	e7fe      	b.n	800086e <SystemClock_Config+0x46>
 8000870:	4603      	mov	r3, r0
 8000872:	260f      	movs	r6, #15
 8000874:	f44f 6280 	mov.w	r2, #1024	; 0x400
 8000878:	4621      	mov	r1, r4
 800087a:	a805      	add	r0, sp, #20
 800087c:	e9cd 5306 	strd	r5, r3, [sp, #24]
 8000880:	9309      	str	r3, [sp, #36]	; 0x24
 8000882:	9605      	str	r6, [sp, #20]
 8000884:	9208      	str	r2, [sp, #32]
 8000886:	f004 fc0b 	bl	80050a0 <HAL_RCC_ClockConfig>
 800088a:	b108      	cbz	r0, 8000890 <SystemClock_Config+0x68>
 800088c:	b672      	cpsid	i
 800088e:	e7fe      	b.n	800088e <SystemClock_Config+0x66>
 8000890:	2112      	movs	r1, #18
 8000892:	f44f 4280 	mov.w	r2, #16384	; 0x4000
 8000896:	f44f 0380 	mov.w	r3, #4194304	; 0x400000
 800089a:	a801      	add	r0, sp, #4
 800089c:	e9cd 2303 	strd	r2, r3, [sp, #12]
 80008a0:	9101      	str	r1, [sp, #4]
 80008a2:	f004 fcbd 	bl	8005220 <HAL_RCCEx_PeriphCLKConfig>
 80008a6:	b108      	cbz	r0, 80008ac <SystemClock_Config+0x84>
 80008a8:	b672      	cpsid	i
 80008aa:	e7fe      	b.n	80008aa <SystemClock_Config+0x82>
 80008ac:	b014      	add	sp, #80	; 0x50
 80008ae:	bd70      	pop	{r4, r5, r6, pc}

080008b0 <main>:
 80008b0:	e92d 41f0 	stmdb	sp!, {r4, r5, r6, r7, r8, lr}
 80008b4:	2400      	movs	r4, #0
 80008b6:	b08a      	sub	sp, #40	; 0x28
 80008b8:	f002 fba2 	bl	8003000 <HAL_Init>
 80008bc:	f7ff ffb4 	bl	8000828 <SystemClock_Config>
 80008c0:	200a      	movs	r0, #10
 80008c2:	f002 fbc1 	bl	8003048 <HAL_Delay>
 80008c6:	e9cd 4406 	strd	r4, r4, [sp, #24]
 80008ca:	e9cd 4408 	strd	r4, r4, [sp, #32]
 80008ce:	4da3      	ldr	r5, [pc, #652]	; (8000b5c <main+0x2ac>)
 80008d0:	4622      	mov	r2, r4
 80008d2:	69ab      	ldr	r3, [r5, #24]
 80008d4:	f24f 0120 	movw	r1, #61472	; 0xf020
 80008d8:	f043 0320 	orr.w	r3, r3, #32
 80008dc:	61ab      	str	r3, [r5, #24]
 80008de:	69ab      	ldr	r3, [r5, #24]
 80008e0:	489f      	ldr	r0, [pc, #636]	; (8000b60 <main+0x2b0>)
 80008e2:	f003 0320 	and.w	r3, r3, #32
 80008e6:	9301      	str	r3, [sp, #4]
 80008e8:	9b01      	ldr	r3, [sp, #4]
 80008ea:	69ab      	ldr	r3, [r5, #24]
 80008ec:	2601      	movs	r6, #1
 80008ee:	f043 0304 	orr.w	r3, r3, #4
 80008f2:	61ab      	str	r3, [r5, #24]
 80008f4:	69ab      	ldr	r3, [r5, #24]
 80008f6:	2702      	movs	r7, #2
 80008f8:	f003 0304 	and.w	r3, r3, #4
 80008fc:	9302      	str	r3, [sp, #8]
 80008fe:	9b02      	ldr	r3, [sp, #8]
 8000900:	69ab      	ldr	r3, [r5, #24]
 8000902:	f04f 0805 	mov.w	r8, #5
 8000906:	f043 0308 	orr.w	r3, r3, #8
 800090a:	61ab      	str	r3, [r5, #24]
 800090c:	69ab      	ldr	r3, [r5, #24]
 800090e:	f003 0308 	and.w	r3, r3, #8
 8000912:	9303      	str	r3, [sp, #12]
 8000914:	9b03      	ldr	r3, [sp, #12]
 8000916:	f003 fa37 	bl	8003d88 <HAL_GPIO_WritePin>
 800091a:	f24f 0320 	movw	r3, #61472	; 0xf020
 800091e:	4890      	ldr	r0, [pc, #576]	; (8000b60 <main+0x2b0>)
 8000920:	a906      	add	r1, sp, #24
 8000922:	e9cd 3606 	strd	r3, r6, [sp, #24]
 8000926:	9408      	str	r4, [sp, #32]
 8000928:	9709      	str	r7, [sp, #36]	; 0x24
 800092a:	f003 f917 	bl	8003b5c <HAL_GPIO_Init>
 800092e:	f44f 4300 	mov.w	r3, #32768	; 0x8000
 8000932:	488c      	ldr	r0, [pc, #560]	; (8000b64 <main+0x2b4>)
 8000934:	a906      	add	r1, sp, #24
 8000936:	9306      	str	r3, [sp, #24]
 8000938:	e9cd 4607 	strd	r4, r6, [sp, #28]
 800093c:	f003 f90e 	bl	8003b5c <HAL_GPIO_Init>
 8000940:	2318      	movs	r3, #24
 8000942:	4887      	ldr	r0, [pc, #540]	; (8000b60 <main+0x2b0>)
 8000944:	eb0d 0103 	add.w	r1, sp, r3
 8000948:	9306      	str	r3, [sp, #24]
 800094a:	e9cd 4607 	strd	r4, r6, [sp, #28]
 800094e:	f003 f905 	bl	8003b5c <HAL_GPIO_Init>
 8000952:	696b      	ldr	r3, [r5, #20]
 8000954:	4622      	mov	r2, r4
 8000956:	4333      	orrs	r3, r6
 8000958:	616b      	str	r3, [r5, #20]
 800095a:	696b      	ldr	r3, [r5, #20]
 800095c:	4621      	mov	r1, r4
 800095e:	4033      	ands	r3, r6
 8000960:	200b      	movs	r0, #11
 8000962:	9300      	str	r3, [sp, #0]
 8000964:	9b00      	ldr	r3, [sp, #0]
 8000966:	f002 fdf3 	bl	8003550 <HAL_NVIC_SetPriority>
 800096a:	200b      	movs	r0, #11
 800096c:	f002 fe28 	bl	80035c0 <HAL_NVIC_EnableIRQ>
 8000970:	4622      	mov	r2, r4
 8000972:	4621      	mov	r1, r4
 8000974:	200d      	movs	r0, #13
 8000976:	f002 fdeb 	bl	8003550 <HAL_NVIC_SetPriority>
 800097a:	200d      	movs	r0, #13
 800097c:	f002 fe20 	bl	80035c0 <HAL_NVIC_EnableIRQ>
 8000980:	f44f 7280 	mov.w	r2, #256	; 0x100
 8000984:	f44f 2300 	mov.w	r3, #524288	; 0x80000
 8000988:	4d77      	ldr	r5, [pc, #476]	; (8000b68 <main+0x2b8>)
 800098a:	4978      	ldr	r1, [pc, #480]	; (8000b6c <main+0x2bc>)
 800098c:	4628      	mov	r0, r5
 800098e:	e9cd 4406 	strd	r4, r4, [sp, #24]
 8000992:	e9c5 1400 	strd	r1, r4, [r5]
 8000996:	9408      	str	r4, [sp, #32]
 8000998:	732c      	strb	r4, [r5, #12]
 800099a:	752c      	strb	r4, [r5, #20]
 800099c:	60aa      	str	r2, [r5, #8]
 800099e:	61eb      	str	r3, [r5, #28]
 80009a0:	f8c5 8010 	str.w	r8, [r5, #16]
 80009a4:	f002 fd24 	bl	80033f0 <HAL_ADC_Init>
 80009a8:	b108      	cbz	r0, 80009ae <main+0xfe>
 80009aa:	b672      	cpsid	i
 80009ac:	e7fe      	b.n	80009ac <main+0xfc>
 80009ae:	4603      	mov	r3, r0
 80009b0:	a906      	add	r1, sp, #24
 80009b2:	4628      	mov	r0, r5
 80009b4:	e9cd 3606 	strd	r3, r6, [sp, #24]
 80009b8:	9308      	str	r3, [sp, #32]
 80009ba:	f002 fb95 	bl	80030e8 <HAL_ADC_ConfigChannel>
 80009be:	b108      	cbz	r0, 80009c4 <main+0x114>
 80009c0:	b672      	cpsid	i
 80009c2:	e7fe      	b.n	80009c2 <main+0x112>
 80009c4:	4628      	mov	r0, r5
 80009c6:	a906      	add	r1, sp, #24
 80009c8:	e9cd 6706 	strd	r6, r7, [sp, #24]
 80009cc:	f002 fb8c 	bl	80030e8 <HAL_ADC_ConfigChannel>
 80009d0:	b108      	cbz	r0, 80009d6 <main+0x126>
 80009d2:	b672      	cpsid	i
 80009d4:	e7fe      	b.n	80009d4 <main+0x124>
 80009d6:	2603      	movs	r6, #3
 80009d8:	4628      	mov	r0, r5
 80009da:	a906      	add	r1, sp, #24
 80009dc:	e9cd 7606 	strd	r7, r6, [sp, #24]
 80009e0:	f002 fb82 	bl	80030e8 <HAL_ADC_ConfigChannel>
 80009e4:	b108      	cbz	r0, 80009ea <main+0x13a>
 80009e6:	b672      	cpsid	i
 80009e8:	e7fe      	b.n	80009e8 <main+0x138>
 80009ea:	2404      	movs	r4, #4
 80009ec:	4628      	mov	r0, r5
 80009ee:	a906      	add	r1, sp, #24
 80009f0:	e9cd 6406 	strd	r6, r4, [sp, #24]
 80009f4:	f002 fb78 	bl	80030e8 <HAL_ADC_ConfigChannel>
 80009f8:	b108      	cbz	r0, 80009fe <main+0x14e>
 80009fa:	b672      	cpsid	i
 80009fc:	e7fe      	b.n	80009fc <main+0x14c>
 80009fe:	4628      	mov	r0, r5
 8000a00:	a906      	add	r1, sp, #24
 8000a02:	e9cd 4806 	strd	r4, r8, [sp, #24]
 8000a06:	f002 fb6f 	bl	80030e8 <HAL_ADC_ConfigChannel>
 8000a0a:	4603      	mov	r3, r0
 8000a0c:	b108      	cbz	r0, 8000a12 <main+0x162>
 8000a0e:	b672      	cpsid	i
 8000a10:	e7fe      	b.n	8000a10 <main+0x160>
 8000a12:	220c      	movs	r2, #12
 8000a14:	f44f 34e1 	mov.w	r4, #115200	; 0x1c200
 8000a18:	4855      	ldr	r0, [pc, #340]	; (8000b70 <main+0x2c0>)
 8000a1a:	4956      	ldr	r1, [pc, #344]	; (8000b74 <main+0x2c4>)
 8000a1c:	e9c0 4301 	strd	r4, r3, [r0, #4]
 8000a20:	e9c0 3303 	strd	r3, r3, [r0, #12]
 8000a24:	e9c0 3306 	strd	r3, r3, [r0, #24]
 8000a28:	6001      	str	r1, [r0, #0]
 8000a2a:	6142      	str	r2, [r0, #20]
 8000a2c:	f004 fea2 	bl	8005774 <HAL_UART_Init>
 8000a30:	4603      	mov	r3, r0
 8000a32:	b108      	cbz	r0, 8000a38 <main+0x188>
 8000a34:	b672      	cpsid	i
 8000a36:	e7fe      	b.n	8000a36 <main+0x186>
 8000a38:	252f      	movs	r5, #47	; 0x2f
 8000a3a:	f240 11f3 	movw	r1, #499	; 0x1f3
 8000a3e:	2280      	movs	r2, #128	; 0x80
 8000a40:	4c4d      	ldr	r4, [pc, #308]	; (8000b78 <main+0x2c8>)
 8000a42:	484e      	ldr	r0, [pc, #312]	; (8000b7c <main+0x2cc>)
 8000a44:	e9cd 3306 	strd	r3, r3, [sp, #24]
 8000a48:	6020      	str	r0, [r4, #0]
 8000a4a:	4620      	mov	r0, r4
 8000a4c:	e9cd 3308 	strd	r3, r3, [sp, #32]
 8000a50:	e9c4 5301 	strd	r5, r3, [r4, #4]
 8000a54:	e9c4 3304 	strd	r3, r3, [r4, #16]
 8000a58:	9304      	str	r3, [sp, #16]
 8000a5a:	60e1      	str	r1, [r4, #12]
 8000a5c:	61a2      	str	r2, [r4, #24]
 8000a5e:	9305      	str	r3, [sp, #20]
 8000a60:	f004 fd7e 	bl	8005560 <HAL_TIM_Base_Init>
 8000a64:	b108      	cbz	r0, 8000a6a <main+0x1ba>
 8000a66:	b672      	cpsid	i
 8000a68:	e7fe      	b.n	8000a68 <main+0x1b8>
 8000a6a:	f44f 5380 	mov.w	r3, #4096	; 0x1000
 8000a6e:	4620      	mov	r0, r4
 8000a70:	a906      	add	r1, sp, #24
 8000a72:	9306      	str	r3, [sp, #24]
 8000a74:	f004 fc80 	bl	8005378 <HAL_TIM_ConfigClockSource>
 8000a78:	4603      	mov	r3, r0
 8000a7a:	b108      	cbz	r0, 8000a80 <main+0x1d0>
 8000a7c:	b672      	cpsid	i
 8000a7e:	e7fe      	b.n	8000a7e <main+0x1ce>
 8000a80:	4620      	mov	r0, r4
 8000a82:	a904      	add	r1, sp, #16
 8000a84:	e9cd 3304 	strd	r3, r3, [sp, #16]
 8000a88:	f004 fd98 	bl	80055bc <HAL_TIMEx_MasterConfigSynchronization>
 8000a8c:	b108      	cbz	r0, 8000a92 <main+0x1e2>
 8000a8e:	b672      	cpsid	i
 8000a90:	e7fe      	b.n	8000a90 <main+0x1e0>
 8000a92:	2300      	movs	r3, #0
 8000a94:	2063      	movs	r0, #99	; 0x63
 8000a96:	2109      	movs	r1, #9
 8000a98:	2280      	movs	r2, #128	; 0x80
 8000a9a:	4c39      	ldr	r4, [pc, #228]	; (8000b80 <main+0x2d0>)
 8000a9c:	e9cd 3306 	strd	r3, r3, [sp, #24]
 8000aa0:	e9cd 3308 	strd	r3, r3, [sp, #32]
 8000aa4:	e9cd 3304 	strd	r3, r3, [sp, #16]
 8000aa8:	60a3      	str	r3, [r4, #8]
 8000aaa:	6123      	str	r3, [r4, #16]
 8000aac:	4b35      	ldr	r3, [pc, #212]	; (8000b84 <main+0x2d4>)
 8000aae:	60e1      	str	r1, [r4, #12]
 8000ab0:	e9c4 3000 	strd	r3, r0, [r4]
 8000ab4:	4620      	mov	r0, r4
 8000ab6:	61a2      	str	r2, [r4, #24]
 8000ab8:	f004 fd52 	bl	8005560 <HAL_TIM_Base_Init>
 8000abc:	b108      	cbz	r0, 8000ac2 <main+0x212>
 8000abe:	b672      	cpsid	i
 8000ac0:	e7fe      	b.n	8000ac0 <main+0x210>
 8000ac2:	f44f 5380 	mov.w	r3, #4096	; 0x1000
 8000ac6:	4620      	mov	r0, r4
 8000ac8:	a906      	add	r1, sp, #24
 8000aca:	9306      	str	r3, [sp, #24]
 8000acc:	f004 fc54 	bl	8005378 <HAL_TIM_ConfigClockSource>
 8000ad0:	4603      	mov	r3, r0
 8000ad2:	b108      	cbz	r0, 8000ad8 <main+0x228>
 8000ad4:	b672      	cpsid	i
 8000ad6:	e7fe      	b.n	8000ad6 <main+0x226>
 8000ad8:	2220      	movs	r2, #32
 8000ada:	4620      	mov	r0, r4
 8000adc:	a904      	add	r1, sp, #16
 8000ade:	e9cd 2304 	strd	r2, r3, [sp, #16]
 8000ae2:	f004 fd6b 	bl	80055bc <HAL_TIMEx_MasterConfigSynchronization>
 8000ae6:	b108      	cbz	r0, 8000aec <main+0x23c>
 8000ae8:	b672      	cpsid	i
 8000aea:	e7fe      	b.n	8000aea <main+0x23a>
 8000aec:	f44f 4100 	mov.w	r1, #32768	; 0x8000
 8000af0:	481c      	ldr	r0, [pc, #112]	; (8000b64 <main+0x2b4>)
 8000af2:	f003 f943 	bl	8003d7c <HAL_GPIO_ReadPin>
 8000af6:	2108      	movs	r1, #8
 8000af8:	4605      	mov	r5, r0
 8000afa:	4819      	ldr	r0, [pc, #100]	; (8000b60 <main+0x2b0>)
 8000afc:	f003 f93e 	bl	8003d7c <HAL_GPIO_ReadPin>
 8000b00:	2110      	movs	r1, #16
 8000b02:	4604      	mov	r4, r0
 8000b04:	4816      	ldr	r0, [pc, #88]	; (8000b60 <main+0x2b0>)
 8000b06:	f003 f939 	bl	8003d7c <HAL_GPIO_ReadPin>
 8000b0a:	b32d      	cbz	r5, 8000b58 <main+0x2a8>
 8000b0c:	b324      	cbz	r4, 8000b58 <main+0x2a8>
 8000b0e:	fab0 f380 	clz	r3, r0
 8000b12:	095b      	lsrs	r3, r3, #5
 8000b14:	4a1c      	ldr	r2, [pc, #112]	; (8000b88 <main+0x2d8>)
 8000b16:	4c1d      	ldr	r4, [pc, #116]	; (8000b8c <main+0x2dc>)
 8000b18:	7013      	strb	r3, [r2, #0]
 8000b1a:	f006 fd91 	bl	8007640 <MX_USB_DEVICE_Init>
 8000b1e:	f44f 72f0 	mov.w	r2, #480	; 0x1e0
 8000b22:	491b      	ldr	r1, [pc, #108]	; (8000b90 <main+0x2e0>)
 8000b24:	4810      	ldr	r0, [pc, #64]	; (8000b68 <main+0x2b8>)
 8000b26:	f002 fbaf 	bl	8003288 <HAL_ADC_Start_DMA>
 8000b2a:	4815      	ldr	r0, [pc, #84]	; (8000b80 <main+0x2d0>)
 8000b2c:	f004 fbf8 	bl	8005320 <HAL_TIM_Base_Start_IT>
 8000b30:	f000 f8b0 	bl	8000c94 <piezosensor_init>
 8000b34:	f000 fd60 	bl	80015f8 <debug_init>
 8000b38:	f000 fe72 	bl	8001820 <sensor_config_init>
 8000b3c:	2200      	movs	r2, #0
 8000b3e:	2120      	movs	r1, #32
 8000b40:	4807      	ldr	r0, [pc, #28]	; (8000b60 <main+0x2b0>)
 8000b42:	f003 f921 	bl	8003d88 <HAL_GPIO_WritePin>
 8000b46:	6820      	ldr	r0, [r4, #0]
 8000b48:	f001 fd78 	bl	800263c <uart_terminal_tick>
 8000b4c:	f001 fe52 	bl	80027f4 <usb_cdc_process>
 8000b50:	6820      	ldr	r0, [r4, #0]
 8000b52:	f7ff fe27 	bl	80007a4 <xgood_led_blink_handler>
 8000b56:	e7f6      	b.n	8000b46 <main+0x296>
 8000b58:	2301      	movs	r3, #1
 8000b5a:	e7db      	b.n	8000b14 <main+0x264>
 8000b5c:	40021000 	.word	0x40021000
 8000b60:	40010c00 	.word	0x40010c00
 8000b64:	40010800 	.word	0x40010800
 8000b68:	200020c8 	.word	0x200020c8
 8000b6c:	40012400 	.word	0x40012400
 8000b70:	20002038 	.word	0x20002038
 8000b74:	40004800 	.word	0x40004800
 8000b78:	2000213c 	.word	0x2000213c
 8000b7c:	40012c00 	.word	0x40012c00
 8000b80:	20002080 	.word	0x20002080
 8000b84:	40000400 	.word	0x40000400
 8000b88:	20001ba9 	.word	0x20001ba9
 8000b8c:	200011ec 	.word	0x200011ec
 8000b90:	200004cc 	.word	0x200004cc

08000b94 <HAL_ADC_ConvHalfCpltCallback>:
 8000b94:	4b0f      	ldr	r3, [pc, #60]	; (8000bd4 <HAL_ADC_ConvHalfCpltCallback+0x40>)
 8000b96:	6802      	ldr	r2, [r0, #0]
 8000b98:	429a      	cmp	r2, r3
 8000b9a:	d000      	beq.n	8000b9e <HAL_ADC_ConvHalfCpltCallback+0xa>
 8000b9c:	4770      	bx	lr
 8000b9e:	b510      	push	{r4, lr}
 8000ba0:	4c0d      	ldr	r4, [pc, #52]	; (8000bd8 <HAL_ADC_ConvHalfCpltCallback+0x44>)
 8000ba2:	2100      	movs	r1, #0
 8000ba4:	480d      	ldr	r0, [pc, #52]	; (8000bdc <HAL_ADC_ConvHalfCpltCallback+0x48>)
 8000ba6:	f000 f921 	bl	8000dec <extract_envelope_from_samples>
 8000baa:	f000 fa1f 	bl	8000fec <trigger_fsm_process>
 8000bae:	f000 f9c5 	bl	8000f3c <cooldown_fsm_process>
 8000bb2:	f000 fcb5 	bl	8001520 <decay_adjusted_threshold>
 8000bb6:	f000 fcf9 	bl	80015ac <increment_system_ms>
 8000bba:	6820      	ldr	r0, [r4, #0]
 8000bbc:	f000 fcfe 	bl	80015bc <led_check_turn_off>
 8000bc0:	6820      	ldr	r0, [r4, #0]
 8000bc2:	f000 fd25 	bl	8001610 <debug_output_if_needed>
 8000bc6:	f000 fc57 	bl	8001478 <hid_process_afterglow>
 8000bca:	e8bd 4010 	ldmia.w	sp!, {r4, lr}
 8000bce:	f000 bbe9 	b.w	80013a4 <hid_send_buffered_reports>
 8000bd2:	bf00      	nop
 8000bd4:	40012400 	.word	0x40012400
 8000bd8:	200011ec 	.word	0x200011ec
 8000bdc:	200004cc 	.word	0x200004cc

08000be0 <HAL_ADC_ConvCpltCallback>:
 8000be0:	4b0f      	ldr	r3, [pc, #60]	; (8000c20 <HAL_ADC_ConvCpltCallback+0x40>)
 8000be2:	6802      	ldr	r2, [r0, #0]
 8000be4:	429a      	cmp	r2, r3
 8000be6:	d000      	beq.n	8000bea <HAL_ADC_ConvCpltCallback+0xa>
 8000be8:	4770      	bx	lr
 8000bea:	b510      	push	{r4, lr}
 8000bec:	4c0d      	ldr	r4, [pc, #52]	; (8000c24 <HAL_ADC_ConvCpltCallback+0x44>)
 8000bee:	21f0      	movs	r1, #240	; 0xf0
 8000bf0:	480d      	ldr	r0, [pc, #52]	; (8000c28 <HAL_ADC_ConvCpltCallback+0x48>)
 8000bf2:	f000 f8fb 	bl	8000dec <extract_envelope_from_samples>
 8000bf6:	f000 f9f9 	bl	8000fec <trigger_fsm_process>
 8000bfa:	f000 f99f 	bl	8000f3c <cooldown_fsm_process>
 8000bfe:	f000 fc8f 	bl	8001520 <decay_adjusted_threshold>
 8000c02:	f000 fcd3 	bl	80015ac <increment_system_ms>
 8000c06:	6820      	ldr	r0, [r4, #0]
 8000c08:	f000 fcd8 	bl	80015bc <led_check_turn_off>
 8000c0c:	6820      	ldr	r0, [r4, #0]
 8000c0e:	f000 fcff 	bl	8001610 <debug_output_if_needed>
 8000c12:	f000 fc31 	bl	8001478 <hid_process_afterglow>
 8000c16:	e8bd 4010 	ldmia.w	sp!, {r4, lr}
 8000c1a:	f000 bbc3 	b.w	80013a4 <hid_send_buffered_reports>
 8000c1e:	bf00      	nop
 8000c20:	40012400 	.word	0x40012400
 8000c24:	200011ec 	.word	0x200011ec
 8000c28:	200004cc 	.word	0x200004cc

08000c2c <Error_Handler>:
 8000c2c:	b672      	cpsid	i
 8000c2e:	e7fe      	b.n	8000c2e <Error_Handler+0x2>

08000c30 <schedule_key_press.part.0>:
 8000c30:	b430      	push	{r4, r5}
 8000c32:	f44f 7514 	mov.w	r5, #592	; 0x250
 8000c36:	2101      	movs	r1, #1
 8000c38:	4c08      	ldr	r4, [pc, #32]	; (8000c5c <schedule_key_press.part.0+0x2c>)
 8000c3a:	4a09      	ldr	r2, [pc, #36]	; (8000c60 <schedule_key_press.part.0+0x30>)
 8000c3c:	4b09      	ldr	r3, [pc, #36]	; (8000c64 <schedule_key_press.part.0+0x34>)
 8000c3e:	fb05 4000 	mla	r0, r5, r0, r4
 8000c42:	8a1b      	ldrh	r3, [r3, #16]
 8000c44:	6814      	ldr	r4, [r2, #0]
 8000c46:	6812      	ldr	r2, [r2, #0]
 8000c48:	f8c0 423c 	str.w	r4, [r0, #572]	; 0x23c
 8000c4c:	4413      	add	r3, r2
 8000c4e:	f8c0 3240 	str.w	r3, [r0, #576]	; 0x240
 8000c52:	f880 1238 	strb.w	r1, [r0, #568]	; 0x238
 8000c56:	bc30      	pop	{r4, r5}
 8000c58:	4770      	bx	lr
 8000c5a:	bf00      	nop
 8000c5c:	200008ac 	.word	0x200008ac
 8000c60:	200011ec 	.word	0x200011ec
 8000c64:	200011fc 	.word	0x200011fc

08000c68 <led_set_sensor_triggered.part.0>:
 8000c68:	f44f 7314 	mov.w	r3, #592	; 0x250
 8000c6c:	b510      	push	{r4, lr}
 8000c6e:	4c07      	ldr	r4, [pc, #28]	; (8000c8c <led_set_sensor_triggered.part.0+0x24>)
 8000c70:	2200      	movs	r2, #0
 8000c72:	fb03 4400 	mla	r4, r3, r0, r4
 8000c76:	f8b4 1220 	ldrh.w	r1, [r4, #544]	; 0x220
 8000c7a:	f8d4 0224 	ldr.w	r0, [r4, #548]	; 0x224
 8000c7e:	f003 f883 	bl	8003d88 <HAL_GPIO_WritePin>
 8000c82:	4b03      	ldr	r3, [pc, #12]	; (8000c90 <led_set_sensor_triggered.part.0+0x28>)
 8000c84:	681b      	ldr	r3, [r3, #0]
 8000c86:	f8c4 3228 	str.w	r3, [r4, #552]	; 0x228
 8000c8a:	bd10      	pop	{r4, pc}
 8000c8c:	200008ac 	.word	0x200008ac
 8000c90:	200011ec 	.word	0x200011ec

08000c94 <piezosensor_init>:
 8000c94:	e92d 4ff8 	stmdb	sp!, {r3, r4, r5, r6, r7, r8, r9, sl, fp, lr}
 8000c98:	2600      	movs	r6, #0
 8000c9a:	f04f 597e 	mov.w	r9, #1065353216	; 0x3f800000
 8000c9e:	4635      	mov	r5, r6
 8000ca0:	4c4d      	ldr	r4, [pc, #308]	; (8000dd8 <piezosensor_init+0x144>)
 8000ca2:	f8df 8140 	ldr.w	r8, [pc, #320]	; 8000de4 <piezosensor_init+0x150>
 8000ca6:	f8df a140 	ldr.w	sl, [pc, #320]	; 8000de8 <piezosensor_init+0x154>
 8000caa:	1ea7      	subs	r7, r4, #2
 8000cac:	f44f 7200 	mov.w	r2, #512	; 0x200
 8000cb0:	2100      	movs	r1, #0
 8000cb2:	4620      	mov	r0, r4
 8000cb4:	f804 5c02 	strb.w	r5, [r4, #-2]
 8000cb8:	f8c4 5206 	str.w	r5, [r4, #518]	; 0x206
 8000cbc:	f007 f80c 	bl	8007cd8 <memset>
 8000cc0:	f8b8 001a 	ldrh.w	r0, [r8, #26]
 8000cc4:	f8a4 5200 	strh.w	r5, [r4, #512]	; 0x200
 8000cc8:	f8a4 5202 	strh.w	r5, [r4, #514]	; 0x202
 8000ccc:	f8a4 5204 	strh.w	r5, [r4, #516]	; 0x204
 8000cd0:	f8c4 520e 	str.w	r5, [r4, #526]	; 0x20e
 8000cd4:	f8a4 5212 	strh.w	r5, [r4, #530]	; 0x212
 8000cd8:	f8c4 5216 	str.w	r5, [r4, #534]	; 0x216
 8000cdc:	f8c4 9246 	str.w	r9, [r4, #582]	; 0x246
 8000ce0:	f7ff fafc 	bl	80002dc <__aeabi_ui2f>
 8000ce4:	f04f 0b00 	mov.w	fp, #0
 8000ce8:	f8c4 522a 	str.w	r5, [r4, #554]	; 0x22a
 8000cec:	f8c4 024a 	str.w	r0, [r4, #586]	; 0x24a
 8000cf0:	f8c4 522e 	str.w	r5, [r4, #558]	; 0x22e
 8000cf4:	b39e      	cbz	r6, 8000d5e <piezosensor_init+0xca>
 8000cf6:	2e01      	cmp	r6, #1
 8000cf8:	d052      	beq.n	8000da0 <piezosensor_init+0x10c>
 8000cfa:	2e02      	cmp	r6, #2
 8000cfc:	d05e      	beq.n	8000dbc <piezosensor_init+0x128>
 8000cfe:	2107      	movs	r1, #7
 8000d00:	2240      	movs	r2, #64	; 0x40
 8000d02:	f44f 4300 	mov.w	r3, #32768	; 0x8000
 8000d06:	f887 190c 	strb.w	r1, [r7, #2316]	; 0x90c
 8000d0a:	f8a7 290e 	strh.w	r2, [r7, #2318]	; 0x90e
 8000d0e:	f8c7 a914 	str.w	sl, [r7, #2324]	; 0x914
 8000d12:	f8a7 3910 	strh.w	r3, [r7, #2320]	; 0x910
 8000d16:	2201      	movs	r2, #1
 8000d18:	f8b4 121e 	ldrh.w	r1, [r4, #542]	; 0x21e
 8000d1c:	f8d4 0222 	ldr.w	r0, [r4, #546]	; 0x222
 8000d20:	f003 f832 	bl	8003d88 <HAL_GPIO_WritePin>
 8000d24:	2e03      	cmp	r6, #3
 8000d26:	f8c4 5226 	str.w	r5, [r4, #550]	; 0x226
 8000d2a:	f884 5236 	strb.w	r5, [r4, #566]	; 0x236
 8000d2e:	f8c4 523a 	str.w	r5, [r4, #570]	; 0x23a
 8000d32:	f8c4 523e 	str.w	r5, [r4, #574]	; 0x23e
 8000d36:	f8a4 5242 	strh.w	r5, [r4, #578]	; 0x242
 8000d3a:	d12d      	bne.n	8000d98 <piezosensor_init+0x104>
 8000d3c:	4b27      	ldr	r3, [pc, #156]	; (8000ddc <piezosensor_init+0x148>)
 8000d3e:	f898 1010 	ldrb.w	r1, [r8, #16]
 8000d42:	f898 0011 	ldrb.w	r0, [r8, #17]
 8000d46:	4a26      	ldr	r2, [pc, #152]	; (8000de0 <piezosensor_init+0x14c>)
 8000d48:	e9c3 5500 	strd	r5, r5, [r3]
 8000d4c:	ea41 2100 	orr.w	r1, r1, r0, lsl #8
 8000d50:	f882 b000 	strb.w	fp, [r2]
 8000d54:	8115      	strh	r5, [r2, #8]
 8000d56:	609d      	str	r5, [r3, #8]
 8000d58:	8151      	strh	r1, [r2, #10]
 8000d5a:	e8bd 8ff8 	ldmia.w	sp!, {r3, r4, r5, r6, r7, r8, r9, sl, fp, pc}
 8000d5e:	210e      	movs	r1, #14
 8000d60:	2280      	movs	r2, #128	; 0x80
 8000d62:	f44f 5380 	mov.w	r3, #4096	; 0x1000
 8000d66:	f8c7 a224 	str.w	sl, [r7, #548]	; 0x224
 8000d6a:	f887 121c 	strb.w	r1, [r7, #540]	; 0x21c
 8000d6e:	f8a7 221e 	strh.w	r2, [r7, #542]	; 0x21e
 8000d72:	f8a7 3220 	strh.w	r3, [r7, #544]	; 0x220
 8000d76:	2201      	movs	r2, #1
 8000d78:	f8b4 121e 	ldrh.w	r1, [r4, #542]	; 0x21e
 8000d7c:	f8d4 0222 	ldr.w	r0, [r4, #546]	; 0x222
 8000d80:	f003 f802 	bl	8003d88 <HAL_GPIO_WritePin>
 8000d84:	f8c4 5226 	str.w	r5, [r4, #550]	; 0x226
 8000d88:	f884 5236 	strb.w	r5, [r4, #566]	; 0x236
 8000d8c:	f8c4 523a 	str.w	r5, [r4, #570]	; 0x23a
 8000d90:	f8c4 523e 	str.w	r5, [r4, #574]	; 0x23e
 8000d94:	f8a4 5242 	strh.w	r5, [r4, #578]	; 0x242
 8000d98:	3601      	adds	r6, #1
 8000d9a:	f504 7414 	add.w	r4, r4, #592	; 0x250
 8000d9e:	e785      	b.n	8000cac <piezosensor_init+0x18>
 8000da0:	210d      	movs	r1, #13
 8000da2:	f44f 6200 	mov.w	r2, #2048	; 0x800
 8000da6:	f44f 5300 	mov.w	r3, #8192	; 0x2000
 8000daa:	f8c7 a474 	str.w	sl, [r7, #1140]	; 0x474
 8000dae:	f887 146c 	strb.w	r1, [r7, #1132]	; 0x46c
 8000db2:	f8a7 246e 	strh.w	r2, [r7, #1134]	; 0x46e
 8000db6:	f8a7 3470 	strh.w	r3, [r7, #1136]	; 0x470
 8000dba:	e7dc      	b.n	8000d76 <piezosensor_init+0xe2>
 8000dbc:	2109      	movs	r1, #9
 8000dbe:	f44f 6280 	mov.w	r2, #1024	; 0x400
 8000dc2:	f44f 4380 	mov.w	r3, #16384	; 0x4000
 8000dc6:	f8c7 a6c4 	str.w	sl, [r7, #1732]	; 0x6c4
 8000dca:	f887 16bc 	strb.w	r1, [r7, #1724]	; 0x6bc
 8000dce:	f8a7 26be 	strh.w	r2, [r7, #1726]	; 0x6be
 8000dd2:	f8a7 36c0 	strh.w	r3, [r7, #1728]	; 0x6c0
 8000dd6:	e7ce      	b.n	8000d76 <piezosensor_init+0xe2>
 8000dd8:	200008ae 	.word	0x200008ae
 8000ddc:	200011f0 	.word	0x200011f0
 8000de0:	200011fc 	.word	0x200011fc
 8000de4:	2000121c 	.word	0x2000121c
 8000de8:	40010c00 	.word	0x40010c00

08000dec <extract_envelope_from_samples>:
 8000dec:	e92d 4ff0 	stmdb	sp!, {r4, r5, r6, r7, r8, r9, sl, fp, lr}
 8000df0:	2600      	movs	r6, #0
 8000df2:	460b      	mov	r3, r1
 8000df4:	f8df c13c 	ldr.w	ip, [pc, #316]	; 8000f34 <extract_envelope_from_samples+0x148>
 8000df8:	4602      	mov	r2, r0
 8000dfa:	46b0      	mov	r8, r6
 8000dfc:	4660      	mov	r0, ip
 8000dfe:	f44f 7a94 	mov.w	sl, #296	; 0x128
 8000e02:	b085      	sub	sp, #20
 8000e04:	3305      	adds	r3, #5
 8000e06:	f8df 9130 	ldr.w	r9, [pc, #304]	; 8000f38 <extract_envelope_from_samples+0x14c>
 8000e0a:	9100      	str	r1, [sp, #0]
 8000e0c:	9301      	str	r3, [sp, #4]
 8000e0e:	2700      	movs	r7, #0
 8000e10:	9900      	ldr	r1, [sp, #0]
 8000e12:	b2b3      	uxth	r3, r6
 8000e14:	1859      	adds	r1, r3, r1
 8000e16:	9c01      	ldr	r4, [sp, #4]
 8000e18:	b289      	uxth	r1, r1
 8000e1a:	f832 1011 	ldrh.w	r1, [r2, r1, lsl #1]
 8000e1e:	4423      	add	r3, r4
 8000e20:	463d      	mov	r5, r7
 8000e22:	e9cd 8802 	strd	r8, r8, [sp, #8]
 8000e26:	b289      	uxth	r1, r1
 8000e28:	b29b      	uxth	r3, r3
 8000e2a:	e012      	b.n	8000e52 <extract_envelope_from_samples+0x66>
 8000e2c:	9c03      	ldr	r4, [sp, #12]
 8000e2e:	42a1      	cmp	r1, r4
 8000e30:	d871      	bhi.n	8000f16 <extract_envelope_from_samples+0x12a>
 8000e32:	3501      	adds	r5, #1
 8000e34:	2d30      	cmp	r5, #48	; 0x30
 8000e36:	d019      	beq.n	8000e6c <extract_envelope_from_samples+0x80>
 8000e38:	2d2f      	cmp	r5, #47	; 0x2f
 8000e3a:	f832 1013 	ldrh.w	r1, [r2, r3, lsl #1]
 8000e3e:	bf08      	it	eq
 8000e40:	f832 4013 	ldrheq.w	r4, [r2, r3, lsl #1]
 8000e44:	f103 0305 	add.w	r3, r3, #5
 8000e48:	b289      	uxth	r1, r1
 8000e4a:	bf08      	it	eq
 8000e4c:	f8a0 4244 	strheq.w	r4, [r0, #580]	; 0x244
 8000e50:	b29b      	uxth	r3, r3
 8000e52:	42b9      	cmp	r1, r7
 8000e54:	d9ea      	bls.n	8000e2c <extract_envelope_from_samples+0x40>
 8000e56:	2400      	movs	r4, #0
 8000e58:	9703      	str	r7, [sp, #12]
 8000e5a:	af04      	add	r7, sp, #16
 8000e5c:	eb07 0484 	add.w	r4, r7, r4, lsl #2
 8000e60:	3501      	adds	r5, #1
 8000e62:	f844 1c08 	str.w	r1, [r4, #-8]
 8000e66:	2d30      	cmp	r5, #48	; 0x30
 8000e68:	9f02      	ldr	r7, [sp, #8]
 8000e6a:	d1e5      	bne.n	8000e38 <extract_envelope_from_samples+0x4c>
 8000e6c:	4930      	ldr	r1, [pc, #192]	; (8000f30 <extract_envelope_from_samples+0x144>)
 8000e6e:	9b03      	ldr	r3, [sp, #12]
 8000e70:	eb01 0146 	add.w	r1, r1, r6, lsl #1
 8000e74:	88cd      	ldrh	r5, [r1, #6]
 8000e76:	443b      	add	r3, r7
 8000e78:	f3c3 034f 	ubfx	r3, r3, #1, #16
 8000e7c:	fb05 f503 	mul.w	r5, r5, r3
 8000e80:	f64f 73ff 	movw	r3, #65535	; 0xffff
 8000e84:	09ad      	lsrs	r5, r5, #6
 8000e86:	429d      	cmp	r5, r3
 8000e88:	bf28      	it	cs
 8000e8a:	461d      	movcs	r5, r3
 8000e8c:	2e04      	cmp	r6, #4
 8000e8e:	b2ad      	uxth	r5, r5
 8000e90:	d04a      	beq.n	8000f28 <extract_envelope_from_samples+0x13c>
 8000e92:	f8b0 3202 	ldrh.w	r3, [r0, #514]	; 0x202
 8000e96:	fb0a 3106 	mla	r1, sl, r6, r3
 8000e9a:	eb0c 0141 	add.w	r1, ip, r1, lsl #1
 8000e9e:	804d      	strh	r5, [r1, #2]
 8000ea0:	3301      	adds	r3, #1
 8000ea2:	b29b      	uxth	r3, r3
 8000ea4:	f8b0 e206 	ldrh.w	lr, [r0, #518]	; 0x206
 8000ea8:	2bff      	cmp	r3, #255	; 0xff
 8000eaa:	bf94      	ite	ls
 8000eac:	f8a0 3202 	strhls.w	r3, [r0, #514]	; 0x202
 8000eb0:	f8a0 8202 	strhhi.w	r8, [r0, #514]	; 0x202
 8000eb4:	f1be 0fff 	cmp.w	lr, #255	; 0xff
 8000eb8:	d92f      	bls.n	8000f1a <extract_envelope_from_samples+0x12e>
 8000eba:	f8b0 3204 	ldrh.w	r3, [r0, #516]	; 0x204
 8000ebe:	3301      	adds	r3, #1
 8000ec0:	b29b      	uxth	r3, r3
 8000ec2:	2bff      	cmp	r3, #255	; 0xff
 8000ec4:	f8a0 3204 	strh.w	r3, [r0, #516]	; 0x204
 8000ec8:	d901      	bls.n	8000ece <extract_envelope_from_samples+0xe2>
 8000eca:	f8a0 8204 	strh.w	r8, [r0, #516]	; 0x204
 8000ece:	2400      	movs	r4, #0
 8000ed0:	f8b0 3204 	ldrh.w	r3, [r0, #516]	; 0x204
 8000ed4:	fb0a fb06 	mul.w	fp, sl, r6
 8000ed8:	eb03 070e 	add.w	r7, r3, lr
 8000edc:	b2bf      	uxth	r7, r7
 8000ede:	b2d9      	uxtb	r1, r3
 8000ee0:	4459      	add	r1, fp
 8000ee2:	eb0c 0141 	add.w	r1, ip, r1, lsl #1
 8000ee6:	3301      	adds	r3, #1
 8000ee8:	8849      	ldrh	r1, [r1, #2]
 8000eea:	b29b      	uxth	r3, r3
 8000eec:	429f      	cmp	r7, r3
 8000eee:	440c      	add	r4, r1
 8000ef0:	d1f5      	bne.n	8000ede <extract_envelope_from_samples+0xf2>
 8000ef2:	eb04 0384 	add.w	r3, r4, r4, lsl #2
 8000ef6:	005b      	lsls	r3, r3, #1
 8000ef8:	fbb3 f3fe 	udiv	r3, r3, lr
 8000efc:	f839 1016 	ldrh.w	r1, [r9, r6, lsl #1]
 8000f00:	f8c0 3208 	str.w	r3, [r0, #520]	; 0x208
 8000f04:	b28b      	uxth	r3, r1
 8000f06:	429d      	cmp	r5, r3
 8000f08:	d901      	bls.n	8000f0e <extract_envelope_from_samples+0x122>
 8000f0a:	f829 5016 	strh.w	r5, [r9, r6, lsl #1]
 8000f0e:	3601      	adds	r6, #1
 8000f10:	f500 7014 	add.w	r0, r0, #592	; 0x250
 8000f14:	e77b      	b.n	8000e0e <extract_envelope_from_samples+0x22>
 8000f16:	2401      	movs	r4, #1
 8000f18:	e79f      	b.n	8000e5a <extract_envelope_from_samples+0x6e>
 8000f1a:	f10e 0e01 	add.w	lr, lr, #1
 8000f1e:	fa1f fe8e 	uxth.w	lr, lr
 8000f22:	f8a0 e206 	strh.w	lr, [r0, #518]	; 0x206
 8000f26:	e7d2      	b.n	8000ece <extract_envelope_from_samples+0xe2>
 8000f28:	b005      	add	sp, #20
 8000f2a:	e8bd 8ff0 	ldmia.w	sp!, {r4, r5, r6, r7, r8, r9, sl, fp, pc}
 8000f2e:	bf00      	nop
 8000f30:	2000121c 	.word	0x2000121c
 8000f34:	200008ac 	.word	0x200008ac
 8000f38:	20000894 	.word	0x20000894

08000f3c <cooldown_fsm_process>:
 8000f3c:	e92d 4ff0 	stmdb	sp!, {r4, r5, r6, r7, r8, r9, sl, fp, lr}
 8000f40:	2500      	movs	r5, #0
 8000f42:	4e26      	ldr	r6, [pc, #152]	; (8000fdc <cooldown_fsm_process+0xa0>)
 8000f44:	462f      	mov	r7, r5
 8000f46:	4634      	mov	r4, r6
 8000f48:	f44f 7994 	mov.w	r9, #296	; 0x128
 8000f4c:	f04f 5b7e 	mov.w	fp, #1065353216	; 0x3f800000
 8000f50:	4a23      	ldr	r2, [pc, #140]	; (8000fe0 <cooldown_fsm_process+0xa4>)
 8000f52:	4b24      	ldr	r3, [pc, #144]	; (8000fe4 <cooldown_fsm_process+0xa8>)
 8000f54:	f8b2 a00e 	ldrh.w	sl, [r2, #14]
 8000f58:	8b59      	ldrh	r1, [r3, #26]
 8000f5a:	f8df 808c 	ldr.w	r8, [pc, #140]	; 8000fe8 <cooldown_fsm_process+0xac>
 8000f5e:	b083      	sub	sp, #12
 8000f60:	7823      	ldrb	r3, [r4, #0]
 8000f62:	2b01      	cmp	r3, #1
 8000f64:	d007      	beq.n	8000f76 <cooldown_fsm_process+0x3a>
 8000f66:	3501      	adds	r5, #1
 8000f68:	2d04      	cmp	r5, #4
 8000f6a:	f504 7414 	add.w	r4, r4, #592	; 0x250
 8000f6e:	d1f7      	bne.n	8000f60 <cooldown_fsm_process+0x24>
 8000f70:	b003      	add	sp, #12
 8000f72:	e8bd 8ff0 	ldmia.w	sp!, {r4, r5, r6, r7, r8, r9, sl, fp, pc}
 8000f76:	f8b4 3206 	ldrh.w	r3, [r4, #518]	; 0x206
 8000f7a:	b15b      	cbz	r3, 8000f94 <cooldown_fsm_process+0x58>
 8000f7c:	f8b4 3202 	ldrh.w	r3, [r4, #514]	; 0x202
 8000f80:	bb43      	cbnz	r3, 8000fd4 <cooldown_fsm_process+0x98>
 8000f82:	23ff      	movs	r3, #255	; 0xff
 8000f84:	fb09 3305 	mla	r3, r9, r5, r3
 8000f88:	eb06 0343 	add.w	r3, r6, r3, lsl #1
 8000f8c:	885b      	ldrh	r3, [r3, #2]
 8000f8e:	eb03 0383 	add.w	r3, r3, r3, lsl #2
 8000f92:	005b      	lsls	r3, r3, #1
 8000f94:	f8d4 2208 	ldr.w	r2, [r4, #520]	; 0x208
 8000f98:	429a      	cmp	r2, r3
 8000f9a:	d918      	bls.n	8000fce <cooldown_fsm_process+0x92>
 8000f9c:	f8d4 2230 	ldr.w	r2, [r4, #560]	; 0x230
 8000fa0:	b91a      	cbnz	r2, 8000faa <cooldown_fsm_process+0x6e>
 8000fa2:	f8d8 2000 	ldr.w	r2, [r8]
 8000fa6:	f8c4 2230 	str.w	r2, [r4, #560]	; 0x230
 8000faa:	f8d8 3000 	ldr.w	r3, [r8]
 8000fae:	1a9b      	subs	r3, r3, r2
 8000fb0:	459a      	cmp	sl, r3
 8000fb2:	d8d8      	bhi.n	8000f66 <cooldown_fsm_process+0x2a>
 8000fb4:	4608      	mov	r0, r1
 8000fb6:	7027      	strb	r7, [r4, #0]
 8000fb8:	f8c4 b248 	str.w	fp, [r4, #584]	; 0x248
 8000fbc:	9101      	str	r1, [sp, #4]
 8000fbe:	f7ff f98d 	bl	80002dc <__aeabi_ui2f>
 8000fc2:	9901      	ldr	r1, [sp, #4]
 8000fc4:	f8c4 7230 	str.w	r7, [r4, #560]	; 0x230
 8000fc8:	f8c4 024c 	str.w	r0, [r4, #588]	; 0x24c
 8000fcc:	e7cb      	b.n	8000f66 <cooldown_fsm_process+0x2a>
 8000fce:	f8c4 7230 	str.w	r7, [r4, #560]	; 0x230
 8000fd2:	e7c8      	b.n	8000f66 <cooldown_fsm_process+0x2a>
 8000fd4:	3b01      	subs	r3, #1
 8000fd6:	b29b      	uxth	r3, r3
 8000fd8:	e7d4      	b.n	8000f84 <cooldown_fsm_process+0x48>
 8000fda:	bf00      	nop
 8000fdc:	200008ac 	.word	0x200008ac
 8000fe0:	200011fc 	.word	0x200011fc
 8000fe4:	2000121c 	.word	0x2000121c
 8000fe8:	200011ec 	.word	0x200011ec

08000fec <trigger_fsm_process>:
 8000fec:	e92d 4ff0 	stmdb	sp!, {r4, r5, r6, r7, r8, r9, sl, fp, lr}
 8000ff0:	4fbe      	ldr	r7, [pc, #760]	; (80012ec <trigger_fsm_process+0x300>)
 8000ff2:	b083      	sub	sp, #12
 8000ff4:	783c      	ldrb	r4, [r7, #0]
 8000ff6:	2c01      	cmp	r4, #1
 8000ff8:	d007      	beq.n	800100a <trigger_fsm_process+0x1e>
 8000ffa:	2c02      	cmp	r4, #2
 8000ffc:	f000 80d3 	beq.w	80011a6 <trigger_fsm_process+0x1ba>
 8001000:	2c00      	cmp	r4, #0
 8001002:	d07d      	beq.n	8001100 <trigger_fsm_process+0x114>
 8001004:	b003      	add	sp, #12
 8001006:	e8bd 8ff0 	ldmia.w	sp!, {r4, r5, r6, r7, r8, r9, sl, fp, pc}
 800100a:	4db9      	ldr	r5, [pc, #740]	; (80012f0 <trigger_fsm_process+0x304>)
 800100c:	f895 e004 	ldrb.w	lr, [r5, #4]
 8001010:	f1be 0f00 	cmp.w	lr, #0
 8001014:	f000 8158 	beq.w	80012c8 <trigger_fsm_process+0x2dc>
 8001018:	4620      	mov	r0, r4
 800101a:	46ac      	mov	ip, r5
 800101c:	462c      	mov	r4, r5
 800101e:	f44f 7114 	mov.w	r1, #592	; 0x250
 8001022:	f44f 7994 	mov.w	r9, #296	; 0x128
 8001026:	4eb3      	ldr	r6, [pc, #716]	; (80012f4 <trigger_fsm_process+0x308>)
 8001028:	eb05 080e 	add.w	r8, r5, lr
 800102c:	f814 3b01 	ldrb.w	r3, [r4], #1
 8001030:	fb01 6203 	mla	r2, r1, r3, r6
 8001034:	f8b2 a214 	ldrh.w	sl, [r2, #532]	; 0x214
 8001038:	4693      	mov	fp, r2
 800103a:	f1ba 0f00 	cmp.w	sl, #0
 800103e:	d105      	bne.n	800104c <trigger_fsm_process+0x60>
 8001040:	f8b2 a20c 	ldrh.w	sl, [r2, #524]	; 0x20c
 8001044:	f8a2 0214 	strh.w	r0, [r2, #532]	; 0x214
 8001048:	f8c2 a210 	str.w	sl, [r2, #528]	; 0x210
 800104c:	f8bb 2206 	ldrh.w	r2, [fp, #518]	; 0x206
 8001050:	2a00      	cmp	r2, #0
 8001052:	f000 811c 	beq.w	800128e <trigger_fsm_process+0x2a2>
 8001056:	f8bb a202 	ldrh.w	sl, [fp, #514]	; 0x202
 800105a:	f10a 32ff 	add.w	r2, sl, #4294967295
 800105e:	f1ba 0f00 	cmp.w	sl, #0
 8001062:	f000 8116 	beq.w	8001292 <trigger_fsm_process+0x2a6>
 8001066:	b292      	uxth	r2, r2
 8001068:	fb09 2203 	mla	r2, r9, r3, r2
 800106c:	eb06 0242 	add.w	r2, r6, r2, lsl #1
 8001070:	f8b2 a002 	ldrh.w	sl, [r2, #2]
 8001074:	fb01 6303 	mla	r3, r1, r3, r6
 8001078:	f8d3 2210 	ldr.w	r2, [r3, #528]	; 0x210
 800107c:	f8b3 b214 	ldrh.w	fp, [r3, #532]	; 0x214
 8001080:	4452      	add	r2, sl
 8001082:	f10b 0b01 	add.w	fp, fp, #1
 8001086:	4544      	cmp	r4, r8
 8001088:	f8c3 2210 	str.w	r2, [r3, #528]	; 0x210
 800108c:	f8a3 b214 	strh.w	fp, [r3, #532]	; 0x214
 8001090:	d1cc      	bne.n	800102c <trigger_fsm_process+0x40>
 8001092:	4b99      	ldr	r3, [pc, #612]	; (80012f8 <trigger_fsm_process+0x30c>)
 8001094:	6879      	ldr	r1, [r7, #4]
 8001096:	681b      	ldr	r3, [r3, #0]
 8001098:	89ba      	ldrh	r2, [r7, #12]
 800109a:	1a5b      	subs	r3, r3, r1
 800109c:	429a      	cmp	r2, r3
 800109e:	d8b1      	bhi.n	8001004 <trigger_fsm_process+0x18>
 80010a0:	f04f 0900 	mov.w	r9, #0
 80010a4:	f44f 7814 	mov.w	r8, #592	; 0x250
 80010a8:	4648      	mov	r0, r9
 80010aa:	68a9      	ldr	r1, [r5, #8]
 80010ac:	f895 a005 	ldrb.w	sl, [r5, #5]
 80010b0:	f81c 3b01 	ldrb.w	r3, [ip], #1
 80010b4:	fb08 6303 	mla	r3, r8, r3, r6
 80010b8:	f8b3 b214 	ldrh.w	fp, [r3, #532]	; 0x214
 80010bc:	f1bb 0f00 	cmp.w	fp, #0
 80010c0:	d010      	beq.n	80010e4 <trigger_fsm_process+0xf8>
 80010c2:	f8d3 2210 	ldr.w	r2, [r3, #528]	; 0x210
 80010c6:	f8d3 4234 	ldr.w	r4, [r3, #564]	; 0x234
 80010ca:	fb04 f202 	mul.w	r2, r4, r2
 80010ce:	fbb2 f2fb 	udiv	r2, r2, fp
 80010d2:	428a      	cmp	r2, r1
 80010d4:	f8c3 2218 	str.w	r2, [r3, #536]	; 0x218
 80010d8:	d904      	bls.n	80010e4 <trigger_fsm_process+0xf8>
 80010da:	4611      	mov	r1, r2
 80010dc:	f04f 0901 	mov.w	r9, #1
 80010e0:	fa5f fa80 	uxtb.w	sl, r0
 80010e4:	3001      	adds	r0, #1
 80010e6:	4570      	cmp	r0, lr
 80010e8:	dbe2      	blt.n	80010b0 <trigger_fsm_process+0xc4>
 80010ea:	f1b9 0f00 	cmp.w	r9, #0
 80010ee:	d002      	beq.n	80010f6 <trigger_fsm_process+0x10a>
 80010f0:	60a9      	str	r1, [r5, #8]
 80010f2:	f885 a005 	strb.w	sl, [r5, #5]
 80010f6:	2302      	movs	r3, #2
 80010f8:	703b      	strb	r3, [r7, #0]
 80010fa:	b003      	add	sp, #12
 80010fc:	e8bd 8ff0 	ldmia.w	sp!, {r4, r5, r6, r7, r8, r9, sl, fp, pc}
 8001100:	f8df 81f0 	ldr.w	r8, [pc, #496]	; 80012f4 <trigger_fsm_process+0x308>
 8001104:	4621      	mov	r1, r4
 8001106:	4646      	mov	r6, r8
 8001108:	4642      	mov	r2, r8
 800110a:	f44f 7594 	mov.w	r5, #296	; 0x128
 800110e:	f8b2 3206 	ldrh.w	r3, [r2, #518]	; 0x206
 8001112:	b16b      	cbz	r3, 8001130 <trigger_fsm_process+0x144>
 8001114:	f8b2 0202 	ldrh.w	r0, [r2, #514]	; 0x202
 8001118:	1e43      	subs	r3, r0, #1
 800111a:	2800      	cmp	r0, #0
 800111c:	d041      	beq.n	80011a2 <trigger_fsm_process+0x1b6>
 800111e:	b29b      	uxth	r3, r3
 8001120:	fb05 3301 	mla	r3, r5, r1, r3
 8001124:	eb06 0343 	add.w	r3, r6, r3, lsl #1
 8001128:	885b      	ldrh	r3, [r3, #2]
 800112a:	429c      	cmp	r4, r3
 800112c:	bf38      	it	cc
 800112e:	461c      	movcc	r4, r3
 8001130:	3101      	adds	r1, #1
 8001132:	2904      	cmp	r1, #4
 8001134:	f502 7214 	add.w	r2, r2, #592	; 0x250
 8001138:	d1e9      	bne.n	800110e <trigger_fsm_process+0x122>
 800113a:	f04f 0900 	mov.w	r9, #0
 800113e:	f44f 7b94 	mov.w	fp, #296	; 0x128
 8001142:	ebc4 0ac4 	rsb	sl, r4, r4, lsl #3
 8001146:	ea4f 03ea 	mov.w	r3, sl, asr #3
 800114a:	4d6a      	ldr	r5, [pc, #424]	; (80012f4 <trigger_fsm_process+0x308>)
 800114c:	9301      	str	r3, [sp, #4]
 800114e:	782b      	ldrb	r3, [r5, #0]
 8001150:	b9eb      	cbnz	r3, 800118e <trigger_fsm_process+0x1a2>
 8001152:	f8b5 3206 	ldrh.w	r3, [r5, #518]	; 0x206
 8001156:	2b00      	cmp	r3, #0
 8001158:	d052      	beq.n	8001200 <trigger_fsm_process+0x214>
 800115a:	f8b5 2202 	ldrh.w	r2, [r5, #514]	; 0x202
 800115e:	1e53      	subs	r3, r2, #1
 8001160:	2a00      	cmp	r2, #0
 8001162:	d057      	beq.n	8001214 <trigger_fsm_process+0x228>
 8001164:	b29b      	uxth	r3, r3
 8001166:	fb0b 3309 	mla	r3, fp, r9, r3
 800116a:	eb06 0343 	add.w	r3, r6, r3, lsl #1
 800116e:	f8b3 a002 	ldrh.w	sl, [r3, #2]
 8001172:	4650      	mov	r0, sl
 8001174:	f8a5 a20c 	strh.w	sl, [r5, #524]	; 0x20c
 8001178:	f7ff f8b4 	bl	80002e4 <__aeabi_i2f>
 800117c:	f8d5 124c 	ldr.w	r1, [r5, #588]	; 0x24c
 8001180:	f7ff fac0 	bl	8000704 <__aeabi_fcmpgt>
 8001184:	b118      	cbz	r0, 800118e <trigger_fsm_process+0x1a2>
 8001186:	9b01      	ldr	r3, [sp, #4]
 8001188:	459a      	cmp	sl, r3
 800118a:	f300 80c8 	bgt.w	800131e <trigger_fsm_process+0x332>
 800118e:	f109 0901 	add.w	r9, r9, #1
 8001192:	f1b9 0f04 	cmp.w	r9, #4
 8001196:	f505 7514 	add.w	r5, r5, #592	; 0x250
 800119a:	d1d8      	bne.n	800114e <trigger_fsm_process+0x162>
 800119c:	b003      	add	sp, #12
 800119e:	e8bd 8ff0 	ldmia.w	sp!, {r4, r5, r6, r7, r8, r9, sl, fp, pc}
 80011a2:	23ff      	movs	r3, #255	; 0xff
 80011a4:	e7bc      	b.n	8001120 <trigger_fsm_process+0x134>
 80011a6:	2300      	movs	r3, #0
 80011a8:	4d51      	ldr	r5, [pc, #324]	; (80012f0 <trigger_fsm_process+0x304>)
 80011aa:	727b      	strb	r3, [r7, #9]
 80011ac:	796b      	ldrb	r3, [r5, #5]
 80011ae:	f815 8003 	ldrb.w	r8, [r5, r3]
 80011b2:	f1b8 0f00 	cmp.w	r8, #0
 80011b6:	d12f      	bne.n	8001218 <trigger_fsm_process+0x22c>
 80011b8:	792a      	ldrb	r2, [r5, #4]
 80011ba:	2a01      	cmp	r2, #1
 80011bc:	d945      	bls.n	800124a <trigger_fsm_process+0x25e>
 80011be:	462b      	mov	r3, r5
 80011c0:	442a      	add	r2, r5
 80011c2:	e001      	b.n	80011c8 <trigger_fsm_process+0x1dc>
 80011c4:	4293      	cmp	r3, r2
 80011c6:	d040      	beq.n	800124a <trigger_fsm_process+0x25e>
 80011c8:	f813 4b01 	ldrb.w	r4, [r3], #1
 80011cc:	2c03      	cmp	r4, #3
 80011ce:	d1f9      	bne.n	80011c4 <trigger_fsm_process+0x1d8>
 80011d0:	4e48      	ldr	r6, [pc, #288]	; (80012f4 <trigger_fsm_process+0x308>)
 80011d2:	68ab      	ldr	r3, [r5, #8]
 80011d4:	f8d6 2908 	ldr.w	r2, [r6, #2312]	; 0x908
 80011d8:	eb03 0343 	add.w	r3, r3, r3, lsl #1
 80011dc:	ebb2 0f93 	cmp.w	r2, r3, lsr #2
 80011e0:	d334      	bcc.n	800124c <trigger_fsm_process+0x260>
 80011e2:	2301      	movs	r3, #1
 80011e4:	727b      	strb	r3, [r7, #9]
 80011e6:	4640      	mov	r0, r8
 80011e8:	f7ff fd22 	bl	8000c30 <schedule_key_press.part.0>
 80011ec:	4620      	mov	r0, r4
 80011ee:	f7ff fd1f 	bl	8000c30 <schedule_key_press.part.0>
 80011f2:	4640      	mov	r0, r8
 80011f4:	f7ff fd38 	bl	8000c68 <led_set_sensor_triggered.part.0>
 80011f8:	4620      	mov	r0, r4
 80011fa:	f7ff fd35 	bl	8000c68 <led_set_sensor_triggered.part.0>
 80011fe:	e02b      	b.n	8001258 <trigger_fsm_process+0x26c>
 8001200:	f109 0901 	add.w	r9, r9, #1
 8001204:	f1b9 0f04 	cmp.w	r9, #4
 8001208:	f8a5 320c 	strh.w	r3, [r5, #524]	; 0x20c
 800120c:	f505 7514 	add.w	r5, r5, #592	; 0x250
 8001210:	d19d      	bne.n	800114e <trigger_fsm_process+0x162>
 8001212:	e7c3      	b.n	800119c <trigger_fsm_process+0x1b0>
 8001214:	23ff      	movs	r3, #255	; 0xff
 8001216:	e7a6      	b.n	8001166 <trigger_fsm_process+0x17a>
 8001218:	f1b8 0f03 	cmp.w	r8, #3
 800121c:	d13b      	bne.n	8001296 <trigger_fsm_process+0x2aa>
 800121e:	792a      	ldrb	r2, [r5, #4]
 8001220:	2a01      	cmp	r2, #1
 8001222:	d912      	bls.n	800124a <trigger_fsm_process+0x25e>
 8001224:	462b      	mov	r3, r5
 8001226:	442a      	add	r2, r5
 8001228:	e001      	b.n	800122e <trigger_fsm_process+0x242>
 800122a:	429a      	cmp	r2, r3
 800122c:	d00d      	beq.n	800124a <trigger_fsm_process+0x25e>
 800122e:	f813 4b01 	ldrb.w	r4, [r3], #1
 8001232:	2c00      	cmp	r4, #0
 8001234:	d1f9      	bne.n	800122a <trigger_fsm_process+0x23e>
 8001236:	4e2f      	ldr	r6, [pc, #188]	; (80012f4 <trigger_fsm_process+0x308>)
 8001238:	68ab      	ldr	r3, [r5, #8]
 800123a:	f8d6 2218 	ldr.w	r2, [r6, #536]	; 0x218
 800123e:	eb03 0343 	add.w	r3, r3, r3, lsl #1
 8001242:	ebb2 0f93 	cmp.w	r2, r3, lsr #2
 8001246:	d301      	bcc.n	800124c <trigger_fsm_process+0x260>
 8001248:	e7cb      	b.n	80011e2 <trigger_fsm_process+0x1f6>
 800124a:	4e2a      	ldr	r6, [pc, #168]	; (80012f4 <trigger_fsm_process+0x308>)
 800124c:	4640      	mov	r0, r8
 800124e:	f7ff fcef 	bl	8000c30 <schedule_key_press.part.0>
 8001252:	4640      	mov	r0, r8
 8001254:	f7ff fd08 	bl	8000c68 <led_set_sensor_triggered.part.0>
 8001258:	2501      	movs	r5, #1
 800125a:	2100      	movs	r1, #0
 800125c:	4b25      	ldr	r3, [pc, #148]	; (80012f4 <trigger_fsm_process+0x308>)
 800125e:	4c26      	ldr	r4, [pc, #152]	; (80012f8 <trigger_fsm_process+0x30c>)
 8001260:	f503 6014 	add.w	r0, r3, #2368	; 0x940
 8001264:	6822      	ldr	r2, [r4, #0]
 8001266:	701d      	strb	r5, [r3, #0]
 8001268:	e9c3 218b 	strd	r2, r1, [r3, #556]	; 0x22c
 800126c:	f503 7314 	add.w	r3, r3, #592	; 0x250
 8001270:	4283      	cmp	r3, r0
 8001272:	d1f7      	bne.n	8001264 <trigger_fsm_process+0x278>
 8001274:	230a      	movs	r3, #10
 8001276:	7039      	strb	r1, [r7, #0]
 8001278:	f8c6 3234 	str.w	r3, [r6, #564]	; 0x234
 800127c:	f8c6 3484 	str.w	r3, [r6, #1156]	; 0x484
 8001280:	f8c6 36d4 	str.w	r3, [r6, #1748]	; 0x6d4
 8001284:	f8c6 3924 	str.w	r3, [r6, #2340]	; 0x924
 8001288:	b003      	add	sp, #12
 800128a:	e8bd 8ff0 	ldmia.w	sp!, {r4, r5, r6, r7, r8, r9, sl, fp, pc}
 800128e:	4692      	mov	sl, r2
 8001290:	e6f0      	b.n	8001074 <trigger_fsm_process+0x88>
 8001292:	22ff      	movs	r2, #255	; 0xff
 8001294:	e6e8      	b.n	8001068 <trigger_fsm_process+0x7c>
 8001296:	f1b8 0f01 	cmp.w	r8, #1
 800129a:	d11e      	bne.n	80012da <trigger_fsm_process+0x2ee>
 800129c:	792a      	ldrb	r2, [r5, #4]
 800129e:	2a01      	cmp	r2, #1
 80012a0:	d9d3      	bls.n	800124a <trigger_fsm_process+0x25e>
 80012a2:	462b      	mov	r3, r5
 80012a4:	442a      	add	r2, r5
 80012a6:	e001      	b.n	80012ac <trigger_fsm_process+0x2c0>
 80012a8:	429a      	cmp	r2, r3
 80012aa:	d0ce      	beq.n	800124a <trigger_fsm_process+0x25e>
 80012ac:	f813 4b01 	ldrb.w	r4, [r3], #1
 80012b0:	2c02      	cmp	r4, #2
 80012b2:	d1f9      	bne.n	80012a8 <trigger_fsm_process+0x2bc>
 80012b4:	4e0f      	ldr	r6, [pc, #60]	; (80012f4 <trigger_fsm_process+0x308>)
 80012b6:	68ab      	ldr	r3, [r5, #8]
 80012b8:	f8d6 26b8 	ldr.w	r2, [r6, #1720]	; 0x6b8
 80012bc:	eb03 0343 	add.w	r3, r3, r3, lsl #1
 80012c0:	ebb2 0f93 	cmp.w	r2, r3, lsr #2
 80012c4:	d3c2      	bcc.n	800124c <trigger_fsm_process+0x260>
 80012c6:	e78c      	b.n	80011e2 <trigger_fsm_process+0x1f6>
 80012c8:	4b0b      	ldr	r3, [pc, #44]	; (80012f8 <trigger_fsm_process+0x30c>)
 80012ca:	6879      	ldr	r1, [r7, #4]
 80012cc:	681b      	ldr	r3, [r3, #0]
 80012ce:	89ba      	ldrh	r2, [r7, #12]
 80012d0:	1a5b      	subs	r3, r3, r1
 80012d2:	429a      	cmp	r2, r3
 80012d4:	f67f af0f 	bls.w	80010f6 <trigger_fsm_process+0x10a>
 80012d8:	e694      	b.n	8001004 <trigger_fsm_process+0x18>
 80012da:	f1b8 0f02 	cmp.w	r8, #2
 80012de:	d150      	bne.n	8001382 <trigger_fsm_process+0x396>
 80012e0:	792a      	ldrb	r2, [r5, #4]
 80012e2:	2a01      	cmp	r2, #1
 80012e4:	d9b1      	bls.n	800124a <trigger_fsm_process+0x25e>
 80012e6:	462b      	mov	r3, r5
 80012e8:	442a      	add	r2, r5
 80012ea:	e009      	b.n	8001300 <trigger_fsm_process+0x314>
 80012ec:	200011fc 	.word	0x200011fc
 80012f0:	200011f0 	.word	0x200011f0
 80012f4:	200008ac 	.word	0x200008ac
 80012f8:	200011ec 	.word	0x200011ec
 80012fc:	429a      	cmp	r2, r3
 80012fe:	d0a4      	beq.n	800124a <trigger_fsm_process+0x25e>
 8001300:	f813 4b01 	ldrb.w	r4, [r3], #1
 8001304:	2c01      	cmp	r4, #1
 8001306:	d1f9      	bne.n	80012fc <trigger_fsm_process+0x310>
 8001308:	4e21      	ldr	r6, [pc, #132]	; (8001390 <trigger_fsm_process+0x3a4>)
 800130a:	68ab      	ldr	r3, [r5, #8]
 800130c:	f8d6 2468 	ldr.w	r2, [r6, #1128]	; 0x468
 8001310:	eb03 0343 	add.w	r3, r3, r3, lsl #1
 8001314:	ebb2 0f93 	cmp.w	r2, r3, lsr #2
 8001318:	d398      	bcc.n	800124c <trigger_fsm_process+0x260>
 800131a:	727c      	strb	r4, [r7, #9]
 800131c:	e763      	b.n	80011e6 <trigger_fsm_process+0x1fa>
 800131e:	f44f 7214 	mov.w	r2, #592	; 0x250
 8001322:	4b1c      	ldr	r3, [pc, #112]	; (8001394 <trigger_fsm_process+0x3a8>)
 8001324:	491c      	ldr	r1, [pc, #112]	; (8001398 <trigger_fsm_process+0x3ac>)
 8001326:	f8d3 0022 	ldr.w	r0, [r3, #34]	; 0x22
 800132a:	fb02 6609 	mla	r6, r2, r9, r6
 800132e:	f7ff f82d 	bl	800038c <__aeabi_fmul>
 8001332:	f7ff fa17 	bl	8000764 <__aeabi_f2uiz>
 8001336:	f04f 0900 	mov.w	r9, #0
 800133a:	2201      	movs	r2, #1
 800133c:	4b17      	ldr	r3, [pc, #92]	; (800139c <trigger_fsm_process+0x3b0>)
 800133e:	4d18      	ldr	r5, [pc, #96]	; (80013a0 <trigger_fsm_process+0x3b4>)
 8001340:	681b      	ldr	r3, [r3, #0]
 8001342:	703a      	strb	r2, [r7, #0]
 8001344:	607b      	str	r3, [r7, #4]
 8001346:	f8c6 0234 	str.w	r0, [r6, #564]	; 0x234
 800134a:	f885 9005 	strb.w	r9, [r5, #5]
 800134e:	4620      	mov	r0, r4
 8001350:	f8c5 9008 	str.w	r9, [r5, #8]
 8001354:	f7fe ffc2 	bl	80002dc <__aeabi_ui2f>
 8001358:	6979      	ldr	r1, [r7, #20]
 800135a:	f7ff f817 	bl	800038c <__aeabi_fmul>
 800135e:	464b      	mov	r3, r9
 8001360:	4629      	mov	r1, r5
 8001362:	464a      	mov	r2, r9
 8001364:	f801 3b01 	strb.w	r3, [r1], #1
 8001368:	3301      	adds	r3, #1
 800136a:	2b04      	cmp	r3, #4
 800136c:	f8c8 2210 	str.w	r2, [r8, #528]	; 0x210
 8001370:	f8a8 2214 	strh.w	r2, [r8, #532]	; 0x214
 8001374:	f8c8 024c 	str.w	r0, [r8, #588]	; 0x24c
 8001378:	f508 7814 	add.w	r8, r8, #592	; 0x250
 800137c:	d1f2      	bne.n	8001364 <trigger_fsm_process+0x378>
 800137e:	712b      	strb	r3, [r5, #4]
 8001380:	e640      	b.n	8001004 <trigger_fsm_process+0x18>
 8001382:	f1b8 0f03 	cmp.w	r8, #3
 8001386:	4e02      	ldr	r6, [pc, #8]	; (8001390 <trigger_fsm_process+0x3a4>)
 8001388:	f63f af66 	bhi.w	8001258 <trigger_fsm_process+0x26c>
 800138c:	e75e      	b.n	800124c <trigger_fsm_process+0x260>
 800138e:	bf00      	nop
 8001390:	200008ac 	.word	0x200008ac
 8001394:	2000121c 	.word	0x2000121c
 8001398:	41200000 	.word	0x41200000
 800139c:	200011ec 	.word	0x200011ec
 80013a0:	200011f0 	.word	0x200011f0

080013a4 <hid_send_buffered_reports>:
 80013a4:	b5f8      	push	{r3, r4, r5, r6, r7, lr}
 80013a6:	4b2e      	ldr	r3, [pc, #184]	; (8001460 <hid_send_buffered_reports+0xbc>)
 80013a8:	781b      	ldrb	r3, [r3, #0]
 80013aa:	2b01      	cmp	r3, #1
 80013ac:	d11c      	bne.n	80013e8 <hid_send_buffered_reports+0x44>
 80013ae:	4619      	mov	r1, r3
 80013b0:	4b2c      	ldr	r3, [pc, #176]	; (8001464 <hid_send_buffered_reports+0xc0>)
 80013b2:	4c2d      	ldr	r4, [pc, #180]	; (8001468 <hid_send_buffered_reports+0xc4>)
 80013b4:	4d2d      	ldr	r5, [pc, #180]	; (800146c <hid_send_buffered_reports+0xc8>)
 80013b6:	f503 6014 	add.w	r0, r3, #2368	; 0x940
 80013ba:	f893 2238 	ldrb.w	r2, [r3, #568]	; 0x238
 80013be:	b14a      	cbz	r2, 80013d4 <hid_send_buffered_reports+0x30>
 80013c0:	882e      	ldrh	r6, [r5, #0]
 80013c2:	f8b3 221e 	ldrh.w	r2, [r3, #542]	; 0x21e
 80013c6:	4232      	tst	r2, r6
 80013c8:	d104      	bne.n	80013d4 <hid_send_buffered_reports+0x30>
 80013ca:	882e      	ldrh	r6, [r5, #0]
 80013cc:	b2b6      	uxth	r6, r6
 80013ce:	4332      	orrs	r2, r6
 80013d0:	802a      	strh	r2, [r5, #0]
 80013d2:	7021      	strb	r1, [r4, #0]
 80013d4:	f503 7314 	add.w	r3, r3, #592	; 0x250
 80013d8:	4298      	cmp	r0, r3
 80013da:	d1ee      	bne.n	80013ba <hid_send_buffered_reports+0x16>
 80013dc:	7823      	ldrb	r3, [r4, #0]
 80013de:	f003 06ff 	and.w	r6, r3, #255	; 0xff
 80013e2:	bb73      	cbnz	r3, 8001442 <hid_send_buffered_reports+0x9e>
 80013e4:	4630      	mov	r0, r6
 80013e6:	bdf8      	pop	{r3, r4, r5, r6, r7, pc}
 80013e8:	2600      	movs	r6, #0
 80013ea:	f04f 0c01 	mov.w	ip, #1
 80013ee:	4a1d      	ldr	r2, [pc, #116]	; (8001464 <hid_send_buffered_reports+0xc0>)
 80013f0:	4c1d      	ldr	r4, [pc, #116]	; (8001468 <hid_send_buffered_reports+0xc4>)
 80013f2:	481f      	ldr	r0, [pc, #124]	; (8001470 <hid_send_buffered_reports+0xcc>)
 80013f4:	f502 6714 	add.w	r7, r2, #2368	; 0x940
 80013f8:	f892 3238 	ldrb.w	r3, [r2, #568]	; 0x238
 80013fc:	b97b      	cbnz	r3, 800141e <hid_send_buffered_reports+0x7a>
 80013fe:	f502 7214 	add.w	r2, r2, #592	; 0x250
 8001402:	4297      	cmp	r7, r2
 8001404:	d1f8      	bne.n	80013f8 <hid_send_buffered_reports+0x54>
 8001406:	7823      	ldrb	r3, [r4, #0]
 8001408:	2b00      	cmp	r3, #0
 800140a:	d0eb      	beq.n	80013e4 <hid_send_buffered_reports+0x40>
 800140c:	2208      	movs	r2, #8
 800140e:	4918      	ldr	r1, [pc, #96]	; (8001470 <hid_send_buffered_reports+0xcc>)
 8001410:	4818      	ldr	r0, [pc, #96]	; (8001474 <hid_send_buffered_reports+0xd0>)
 8001412:	f005 fcdf 	bl	8006dd4 <USBD_HID_SendReport>
 8001416:	2300      	movs	r3, #0
 8001418:	4630      	mov	r0, r6
 800141a:	7023      	strb	r3, [r4, #0]
 800141c:	bdf8      	pop	{r3, r4, r5, r6, r7, pc}
 800141e:	2302      	movs	r3, #2
 8001420:	f892 521c 	ldrb.w	r5, [r2, #540]	; 0x21c
 8001424:	5cc1      	ldrb	r1, [r0, r3]
 8001426:	3301      	adds	r3, #1
 8001428:	42a9      	cmp	r1, r5
 800142a:	d0e8      	beq.n	80013fe <hid_send_buffered_reports+0x5a>
 800142c:	2b08      	cmp	r3, #8
 800142e:	d1f9      	bne.n	8001424 <hid_send_buffered_reports+0x80>
 8001430:	2302      	movs	r3, #2
 8001432:	5cc1      	ldrb	r1, [r0, r3]
 8001434:	b171      	cbz	r1, 8001454 <hid_send_buffered_reports+0xb0>
 8001436:	3301      	adds	r3, #1
 8001438:	2b08      	cmp	r3, #8
 800143a:	d1fa      	bne.n	8001432 <hid_send_buffered_reports+0x8e>
 800143c:	2e05      	cmp	r6, #5
 800143e:	d9de      	bls.n	80013fe <hid_send_buffered_reports+0x5a>
 8001440:	e7e1      	b.n	8001406 <hid_send_buffered_reports+0x62>
 8001442:	2600      	movs	r6, #0
 8001444:	2208      	movs	r2, #8
 8001446:	4909      	ldr	r1, [pc, #36]	; (800146c <hid_send_buffered_reports+0xc8>)
 8001448:	480a      	ldr	r0, [pc, #40]	; (8001474 <hid_send_buffered_reports+0xd0>)
 800144a:	f001 fd79 	bl	8002f40 <USBD_DrumController_SendReport>
 800144e:	4630      	mov	r0, r6
 8001450:	7026      	strb	r6, [r4, #0]
 8001452:	bdf8      	pop	{r3, r4, r5, r6, r7, pc}
 8001454:	3601      	adds	r6, #1
 8001456:	54c5      	strb	r5, [r0, r3]
 8001458:	b2f6      	uxtb	r6, r6
 800145a:	f884 c000 	strb.w	ip, [r4]
 800145e:	e7ed      	b.n	800143c <hid_send_buffered_reports+0x98>
 8001460:	20001ba9 	.word	0x20001ba9
 8001464:	200008ac 	.word	0x200008ac
 8001468:	20001baa 	.word	0x20001baa
 800146c:	20000000 	.word	0x20000000
 8001470:	200008a4 	.word	0x200008a4
 8001474:	200027a8 	.word	0x200027a8

08001478 <hid_process_afterglow>:
 8001478:	e92d 43f0 	stmdb	sp!, {r4, r5, r6, r7, r8, r9, lr}
 800147c:	2000      	movs	r0, #0
 800147e:	f04f 0e01 	mov.w	lr, #1
 8001482:	4a21      	ldr	r2, [pc, #132]	; (8001508 <hid_process_afterglow+0x90>)
 8001484:	4b21      	ldr	r3, [pc, #132]	; (800150c <hid_process_afterglow+0x94>)
 8001486:	7816      	ldrb	r6, [r2, #0]
 8001488:	4c21      	ldr	r4, [pc, #132]	; (8001510 <hid_process_afterglow+0x98>)
 800148a:	f8df c08c 	ldr.w	ip, [pc, #140]	; 8001518 <hid_process_afterglow+0xa0>
 800148e:	f8df 808c 	ldr.w	r8, [pc, #140]	; 800151c <hid_process_afterglow+0xa4>
 8001492:	4f20      	ldr	r7, [pc, #128]	; (8001514 <hid_process_afterglow+0x9c>)
 8001494:	f503 6114 	add.w	r1, r3, #2368	; 0x940
 8001498:	f893 2238 	ldrb.w	r2, [r3, #568]	; 0x238
 800149c:	b162      	cbz	r2, 80014b8 <hid_process_afterglow+0x40>
 800149e:	f8d3 2240 	ldr.w	r2, [r3, #576]	; 0x240
 80014a2:	b14a      	cbz	r2, 80014b8 <hid_process_afterglow+0x40>
 80014a4:	6825      	ldr	r5, [r4, #0]
 80014a6:	42aa      	cmp	r2, r5
 80014a8:	d806      	bhi.n	80014b8 <hid_process_afterglow+0x40>
 80014aa:	e9c3 008f 	strd	r0, r0, [r3, #572]	; 0x23c
 80014ae:	f883 0238 	strb.w	r0, [r3, #568]	; 0x238
 80014b2:	b13e      	cbz	r6, 80014c4 <hid_process_afterglow+0x4c>
 80014b4:	2e01      	cmp	r6, #1
 80014b6:	d013      	beq.n	80014e0 <hid_process_afterglow+0x68>
 80014b8:	f503 7314 	add.w	r3, r3, #592	; 0x250
 80014bc:	428b      	cmp	r3, r1
 80014be:	d1eb      	bne.n	8001498 <hid_process_afterglow+0x20>
 80014c0:	e8bd 83f0 	ldmia.w	sp!, {r4, r5, r6, r7, r8, r9, pc}
 80014c4:	2202      	movs	r2, #2
 80014c6:	f893 921c 	ldrb.w	r9, [r3, #540]	; 0x21c
 80014ca:	5cbd      	ldrb	r5, [r7, r2]
 80014cc:	454d      	cmp	r5, r9
 80014ce:	d017      	beq.n	8001500 <hid_process_afterglow+0x88>
 80014d0:	3201      	adds	r2, #1
 80014d2:	2a08      	cmp	r2, #8
 80014d4:	d1f9      	bne.n	80014ca <hid_process_afterglow+0x52>
 80014d6:	f503 7314 	add.w	r3, r3, #592	; 0x250
 80014da:	428b      	cmp	r3, r1
 80014dc:	d1dc      	bne.n	8001498 <hid_process_afterglow+0x20>
 80014de:	e7ef      	b.n	80014c0 <hid_process_afterglow+0x48>
 80014e0:	f8bc 2000 	ldrh.w	r2, [ip]
 80014e4:	f8b3 521e 	ldrh.w	r5, [r3, #542]	; 0x21e
 80014e8:	4215      	tst	r5, r2
 80014ea:	d0e5      	beq.n	80014b8 <hid_process_afterglow+0x40>
 80014ec:	f8bc 2000 	ldrh.w	r2, [ip]
 80014f0:	b292      	uxth	r2, r2
 80014f2:	ea22 0205 	bic.w	r2, r2, r5
 80014f6:	f8ac 2000 	strh.w	r2, [ip]
 80014fa:	f888 6000 	strb.w	r6, [r8]
 80014fe:	e7db      	b.n	80014b8 <hid_process_afterglow+0x40>
 8001500:	54b8      	strb	r0, [r7, r2]
 8001502:	f888 e000 	strb.w	lr, [r8]
 8001506:	e7d7      	b.n	80014b8 <hid_process_afterglow+0x40>
 8001508:	20001ba9 	.word	0x20001ba9
 800150c:	200008ac 	.word	0x200008ac
 8001510:	200011ec 	.word	0x200011ec
 8001514:	200008a4 	.word	0x200008a4
 8001518:	20000000 	.word	0x20000000
 800151c:	20001baa 	.word	0x20001baa

08001520 <decay_adjusted_threshold>:
 8001520:	e92d 4ff0 	stmdb	sp!, {r4, r5, r6, r7, r8, r9, sl, fp, lr}
 8001524:	4b1e      	ldr	r3, [pc, #120]	; (80015a0 <decay_adjusted_threshold+0x80>)
 8001526:	b083      	sub	sp, #12
 8001528:	8b5b      	ldrh	r3, [r3, #26]
 800152a:	f04f 0800 	mov.w	r8, #0
 800152e:	4618      	mov	r0, r3
 8001530:	9301      	str	r3, [sp, #4]
 8001532:	f7fe fed7 	bl	80002e4 <__aeabi_i2f>
 8001536:	f04f 5a7e 	mov.w	sl, #1065353216	; 0x3f800000
 800153a:	4606      	mov	r6, r0
 800153c:	4b19      	ldr	r3, [pc, #100]	; (80015a4 <decay_adjusted_threshold+0x84>)
 800153e:	4c1a      	ldr	r4, [pc, #104]	; (80015a8 <decay_adjusted_threshold+0x88>)
 8001540:	f8d3 9018 	ldr.w	r9, [r3, #24]
 8001544:	f504 6714 	add.w	r7, r4, #2368	; 0x940
 8001548:	f8d4 b24c 	ldr.w	fp, [r4, #588]	; 0x24c
 800154c:	4631      	mov	r1, r6
 800154e:	4658      	mov	r0, fp
 8001550:	f7fe fe12 	bl	8000178 <__aeabi_fsub>
 8001554:	4641      	mov	r1, r8
 8001556:	4605      	mov	r5, r0
 8001558:	f7ff f8d4 	bl	8000704 <__aeabi_fcmpgt>
 800155c:	b190      	cbz	r0, 8001584 <decay_adjusted_threshold+0x64>
 800155e:	4649      	mov	r1, r9
 8001560:	4650      	mov	r0, sl
 8001562:	f7fe fe09 	bl	8000178 <__aeabi_fsub>
 8001566:	4629      	mov	r1, r5
 8001568:	f7fe ff10 	bl	800038c <__aeabi_fmul>
 800156c:	4601      	mov	r1, r0
 800156e:	4658      	mov	r0, fp
 8001570:	f7fe fe02 	bl	8000178 <__aeabi_fsub>
 8001574:	4605      	mov	r5, r0
 8001576:	4630      	mov	r0, r6
 8001578:	4629      	mov	r1, r5
 800157a:	f7ff f8c3 	bl	8000704 <__aeabi_fcmpgt>
 800157e:	b940      	cbnz	r0, 8001592 <decay_adjusted_threshold+0x72>
 8001580:	f8c4 524c 	str.w	r5, [r4, #588]	; 0x24c
 8001584:	f504 7414 	add.w	r4, r4, #592	; 0x250
 8001588:	42bc      	cmp	r4, r7
 800158a:	d1dd      	bne.n	8001548 <decay_adjusted_threshold+0x28>
 800158c:	b003      	add	sp, #12
 800158e:	e8bd 8ff0 	ldmia.w	sp!, {r4, r5, r6, r7, r8, r9, sl, fp, pc}
 8001592:	9801      	ldr	r0, [sp, #4]
 8001594:	f7fe fea2 	bl	80002dc <__aeabi_ui2f>
 8001598:	f8c4 024c 	str.w	r0, [r4, #588]	; 0x24c
 800159c:	e7f2      	b.n	8001584 <decay_adjusted_threshold+0x64>
 800159e:	bf00      	nop
 80015a0:	2000121c 	.word	0x2000121c
 80015a4:	200011fc 	.word	0x200011fc
 80015a8:	200008ac 	.word	0x200008ac

080015ac <increment_system_ms>:
 80015ac:	4a02      	ldr	r2, [pc, #8]	; (80015b8 <increment_system_ms+0xc>)
 80015ae:	6813      	ldr	r3, [r2, #0]
 80015b0:	3301      	adds	r3, #1
 80015b2:	6013      	str	r3, [r2, #0]
 80015b4:	4770      	bx	lr
 80015b6:	bf00      	nop
 80015b8:	200011ec 	.word	0x200011ec

080015bc <led_check_turn_off>:
 80015bc:	b5f8      	push	{r3, r4, r5, r6, r7, lr}
 80015be:	2700      	movs	r7, #0
 80015c0:	4605      	mov	r5, r0
 80015c2:	4c0c      	ldr	r4, [pc, #48]	; (80015f4 <led_check_turn_off+0x38>)
 80015c4:	f504 6614 	add.w	r6, r4, #2368	; 0x940
 80015c8:	f8d4 3228 	ldr.w	r3, [r4, #552]	; 0x228
 80015cc:	1aea      	subs	r2, r5, r3
 80015ce:	b10b      	cbz	r3, 80015d4 <led_check_turn_off+0x18>
 80015d0:	2a13      	cmp	r2, #19
 80015d2:	d804      	bhi.n	80015de <led_check_turn_off+0x22>
 80015d4:	f504 7414 	add.w	r4, r4, #592	; 0x250
 80015d8:	42b4      	cmp	r4, r6
 80015da:	d1f5      	bne.n	80015c8 <led_check_turn_off+0xc>
 80015dc:	bdf8      	pop	{r3, r4, r5, r6, r7, pc}
 80015de:	2201      	movs	r2, #1
 80015e0:	f8b4 1220 	ldrh.w	r1, [r4, #544]	; 0x220
 80015e4:	f8d4 0224 	ldr.w	r0, [r4, #548]	; 0x224
 80015e8:	f002 fbce 	bl	8003d88 <HAL_GPIO_WritePin>
 80015ec:	f8c4 7228 	str.w	r7, [r4, #552]	; 0x228
 80015f0:	e7f0      	b.n	80015d4 <led_check_turn_off+0x18>
 80015f2:	bf00      	nop
 80015f4:	200008ac 	.word	0x200008ac

080015f8 <debug_init>:
 80015f8:	2200      	movs	r2, #0
 80015fa:	4b04      	ldr	r3, [pc, #16]	; (800160c <debug_init+0x14>)
 80015fc:	801a      	strh	r2, [r3, #0]
 80015fe:	805a      	strh	r2, [r3, #2]
 8001600:	809a      	strh	r2, [r3, #4]
 8001602:	80da      	strh	r2, [r3, #6]
 8001604:	811a      	strh	r2, [r3, #8]
 8001606:	60da      	str	r2, [r3, #12]
 8001608:	4770      	bx	lr
 800160a:	bf00      	nop
 800160c:	20000894 	.word	0x20000894

08001610 <debug_output_if_needed>:
 8001610:	4770      	bx	lr
 8001612:	bf00      	nop

08001614 <parse_simple_float>:
 8001614:	e92d 43f8 	stmdb	sp!, {r3, r4, r5, r6, r7, r8, r9, lr}
 8001618:	4689      	mov	r9, r1
 800161a:	7803      	ldrb	r3, [r0, #0]
 800161c:	4602      	mov	r2, r0
 800161e:	2b20      	cmp	r3, #32
 8001620:	f100 0001 	add.w	r0, r0, #1
 8001624:	d0f9      	beq.n	800161a <parse_simple_float+0x6>
 8001626:	2b09      	cmp	r3, #9
 8001628:	d0f7      	beq.n	800161a <parse_simple_float+0x6>
 800162a:	2b00      	cmp	r3, #0
 800162c:	d04a      	beq.n	80016c4 <parse_simple_float+0xb0>
 800162e:	2400      	movs	r4, #0
 8001630:	4621      	mov	r1, r4
 8001632:	4627      	mov	r7, r4
 8001634:	4620      	mov	r0, r4
 8001636:	46a0      	mov	r8, r4
 8001638:	e00d      	b.n	8001656 <parse_simple_float+0x42>
 800163a:	b3a7      	cbz	r7, 80016a6 <parse_simple_float+0x92>
 800163c:	2901      	cmp	r1, #1
 800163e:	dc04      	bgt.n	800164a <parse_simple_float+0x36>
 8001640:	eb00 0080 	add.w	r0, r0, r0, lsl #2
 8001644:	eb05 0040 	add.w	r0, r5, r0, lsl #1
 8001648:	3101      	adds	r1, #1
 800164a:	f812 3f01 	ldrb.w	r3, [r2, #1]!
 800164e:	3401      	adds	r4, #1
 8001650:	b173      	cbz	r3, 8001670 <parse_simple_float+0x5c>
 8001652:	2c0a      	cmp	r4, #10
 8001654:	d00c      	beq.n	8001670 <parse_simple_float+0x5c>
 8001656:	f1a3 0530 	sub.w	r5, r3, #48	; 0x30
 800165a:	b2ee      	uxtb	r6, r5
 800165c:	2e09      	cmp	r6, #9
 800165e:	d9ec      	bls.n	800163a <parse_simple_float+0x26>
 8001660:	2b2e      	cmp	r3, #46	; 0x2e
 8001662:	d125      	bne.n	80016b0 <parse_simple_float+0x9c>
 8001664:	bb27      	cbnz	r7, 80016b0 <parse_simple_float+0x9c>
 8001666:	f812 3f01 	ldrb.w	r3, [r2, #1]!
 800166a:	2701      	movs	r7, #1
 800166c:	2b00      	cmp	r3, #0
 800166e:	d1f0      	bne.n	8001652 <parse_simple_float+0x3e>
 8001670:	f1b8 0f63 	cmp.w	r8, #99	; 0x63
 8001674:	dc1c      	bgt.n	80016b0 <parse_simple_float+0x9c>
 8001676:	b1f1      	cbz	r1, 80016b6 <parse_simple_float+0xa2>
 8001678:	2901      	cmp	r1, #1
 800167a:	bf04      	itt	eq
 800167c:	eb00 0080 	addeq.w	r0, r0, r0, lsl #2
 8001680:	0040      	lsleq	r0, r0, #1
 8001682:	f7fe fe2f 	bl	80002e4 <__aeabi_i2f>
 8001686:	4910      	ldr	r1, [pc, #64]	; (80016c8 <parse_simple_float+0xb4>)
 8001688:	f7fe ff34 	bl	80004f4 <__aeabi_fdiv>
 800168c:	4604      	mov	r4, r0
 800168e:	4640      	mov	r0, r8
 8001690:	f7fe fe28 	bl	80002e4 <__aeabi_i2f>
 8001694:	4601      	mov	r1, r0
 8001696:	4620      	mov	r0, r4
 8001698:	f7fe fd70 	bl	800017c <__addsf3>
 800169c:	f8c9 0000 	str.w	r0, [r9]
 80016a0:	2001      	movs	r0, #1
 80016a2:	e8bd 83f8 	ldmia.w	sp!, {r3, r4, r5, r6, r7, r8, r9, pc}
 80016a6:	eb08 0888 	add.w	r8, r8, r8, lsl #2
 80016aa:	eb05 0848 	add.w	r8, r5, r8, lsl #1
 80016ae:	e7cc      	b.n	800164a <parse_simple_float+0x36>
 80016b0:	2000      	movs	r0, #0
 80016b2:	e8bd 83f8 	ldmia.w	sp!, {r3, r4, r5, r6, r7, r8, r9, pc}
 80016b6:	4640      	mov	r0, r8
 80016b8:	f7fe fe14 	bl	80002e4 <__aeabi_i2f>
 80016bc:	2100      	movs	r1, #0
 80016be:	f7fe fd5d 	bl	800017c <__addsf3>
 80016c2:	e7eb      	b.n	800169c <parse_simple_float+0x88>
 80016c4:	2000      	movs	r0, #0
 80016c6:	e7e9      	b.n	800169c <parse_simple_float+0x88>
 80016c8:	42c80000 	.word	0x42c80000

080016cc <parse_uint16>:
 80016cc:	b410      	push	{r4}
 80016ce:	7803      	ldrb	r3, [r0, #0]
 80016d0:	4604      	mov	r4, r0
 80016d2:	2b20      	cmp	r3, #32
 80016d4:	f100 0001 	add.w	r0, r0, #1
 80016d8:	d0f9      	beq.n	80016ce <parse_uint16+0x2>
 80016da:	2b09      	cmp	r3, #9
 80016dc:	d0f7      	beq.n	80016ce <parse_uint16+0x2>
 80016de:	b1a3      	cbz	r3, 800170a <parse_uint16+0x3e>
 80016e0:	2200      	movs	r2, #0
 80016e2:	e005      	b.n	80016f0 <parse_uint16+0x24>
 80016e4:	f5b2 3f80 	cmp.w	r2, #65536	; 0x10000
 80016e8:	d20b      	bcs.n	8001702 <parse_uint16+0x36>
 80016ea:	f814 3f01 	ldrb.w	r3, [r4, #1]!
 80016ee:	b15b      	cbz	r3, 8001708 <parse_uint16+0x3c>
 80016f0:	eb02 0282 	add.w	r2, r2, r2, lsl #2
 80016f4:	eb03 0242 	add.w	r2, r3, r2, lsl #1
 80016f8:	3b30      	subs	r3, #48	; 0x30
 80016fa:	2b09      	cmp	r3, #9
 80016fc:	f1a2 0230 	sub.w	r2, r2, #48	; 0x30
 8001700:	d9f0      	bls.n	80016e4 <parse_uint16+0x18>
 8001702:	2000      	movs	r0, #0
 8001704:	bc10      	pop	{r4}
 8001706:	4770      	bx	lr
 8001708:	b293      	uxth	r3, r2
 800170a:	2001      	movs	r0, #1
 800170c:	bc10      	pop	{r4}
 800170e:	800b      	strh	r3, [r1, #0]
 8001710:	4770      	bx	lr
 8001712:	bf00      	nop

08001714 <sensor_config_load_from_flash.part.0>:
 8001714:	4920      	ldr	r1, [pc, #128]	; (8001798 <sensor_config_load_from_flash.part.0+0x84>)
 8001716:	e92d 41f0 	stmdb	sp!, {r4, r5, r6, r7, r8, lr}
 800171a:	888c      	ldrh	r4, [r1, #4]
 800171c:	1e63      	subs	r3, r4, #1
 800171e:	2b01      	cmp	r3, #1
 8001720:	d81e      	bhi.n	8001760 <sensor_config_load_from_flash.part.0+0x4c>
 8001722:	460a      	mov	r2, r1
 8001724:	2300      	movs	r3, #0
 8001726:	8d4d      	ldrh	r5, [r1, #42]	; 0x2a
 8001728:	481c      	ldr	r0, [pc, #112]	; (800179c <sensor_config_load_from_flash.part.0+0x88>)
 800172a:	f812 1b01 	ldrb.w	r1, [r2], #1
 800172e:	440b      	add	r3, r1
 8001730:	4282      	cmp	r2, r0
 8001732:	b29b      	uxth	r3, r3
 8001734:	d1f9      	bne.n	800172a <sensor_config_load_from_flash.part.0+0x16>
 8001736:	429d      	cmp	r5, r3
 8001738:	d112      	bne.n	8001760 <sensor_config_load_from_flash.part.0+0x4c>
 800173a:	2c01      	cmp	r4, #1
 800173c:	4e18      	ldr	r6, [pc, #96]	; (80017a0 <sensor_config_load_from_flash.part.0+0x8c>)
 800173e:	d012      	beq.n	8001766 <sensor_config_load_from_flash.part.0+0x52>
 8001740:	4634      	mov	r4, r6
 8001742:	4d15      	ldr	r5, [pc, #84]	; (8001798 <sensor_config_load_from_flash.part.0+0x84>)
 8001744:	cd0f      	ldmia	r5!, {r0, r1, r2, r3}
 8001746:	c40f      	stmia	r4!, {r0, r1, r2, r3}
 8001748:	cd0f      	ldmia	r5!, {r0, r1, r2, r3}
 800174a:	c40f      	stmia	r4!, {r0, r1, r2, r3}
 800174c:	e895 0007 	ldmia.w	r5, {r0, r1, r2}
 8001750:	e884 0007 	stmia.w	r4, {r0, r1, r2}
 8001754:	8a32      	ldrh	r2, [r6, #16]
 8001756:	4b13      	ldr	r3, [pc, #76]	; (80017a4 <sensor_config_load_from_flash.part.0+0x90>)
 8001758:	2001      	movs	r0, #1
 800175a:	815a      	strh	r2, [r3, #10]
 800175c:	e8bd 81f0 	ldmia.w	sp!, {r4, r5, r6, r7, r8, pc}
 8001760:	2000      	movs	r0, #0
 8001762:	e8bd 81f0 	ldmia.w	sp!, {r4, r5, r6, r7, r8, pc}
 8001766:	4635      	mov	r5, r6
 8001768:	f04f 08c8 	mov.w	r8, #200	; 0xc8
 800176c:	f04f 0e32 	mov.w	lr, #50	; 0x32
 8001770:	f643 7c78 	movw	ip, #16248	; 0x3f78
 8001774:	4f08      	ldr	r7, [pc, #32]	; (8001798 <sensor_config_load_from_flash.part.0+0x84>)
 8001776:	cf0f      	ldmia	r7!, {r0, r1, r2, r3}
 8001778:	c50f      	stmia	r5!, {r0, r1, r2, r3}
 800177a:	e897 0007 	ldmia.w	r7, {r0, r1, r2}
 800177e:	c503      	stmia	r5!, {r0, r1}
 8001780:	4b09      	ldr	r3, [pc, #36]	; (80017a8 <sensor_config_load_from_flash.part.0+0x94>)
 8001782:	490a      	ldr	r1, [pc, #40]	; (80017ac <sensor_config_load_from_flash.part.0+0x98>)
 8001784:	802a      	strh	r2, [r5, #0]
 8001786:	80b4      	strh	r4, [r6, #4]
 8001788:	e9c6 1e07 	strd	r1, lr, [r6, #28]
 800178c:	f8a6 801a 	strh.w	r8, [r6, #26]
 8001790:	6273      	str	r3, [r6, #36]	; 0x24
 8001792:	f8a6 c028 	strh.w	ip, [r6, #40]	; 0x28
 8001796:	e7dd      	b.n	8001754 <sensor_config_load_from_flash.part.0+0x40>
 8001798:	0801fc00 	.word	0x0801fc00
 800179c:	0801fc2a 	.word	0x0801fc2a
 80017a0:	2000121c 	.word	0x2000121c
 80017a4:	200011fc 	.word	0x200011fc
 80017a8:	51ec4000 	.word	0x51ec4000
 80017ac:	000f0004 	.word	0x000f0004

080017b0 <sensor_config_set_defaults>:
 80017b0:	f04f 0c32 	mov.w	ip, #50	; 0x32
 80017b4:	e92d 41f0 	stmdb	sp!, {r4, r5, r6, r7, r8, lr}
 80017b8:	f04f 16c8 	mov.w	r6, #13107400	; 0xc800c8
 80017bc:	f04f 1878 	mov.w	r8, #7864440	; 0x780078
 80017c0:	f04f 1e50 	mov.w	lr, #5242960	; 0x500050
 80017c4:	f643 7778 	movw	r7, #16248	; 0x3f78
 80017c8:	4c10      	ldr	r4, [pc, #64]	; (800180c <sensor_config_set_defaults+0x5c>)
 80017ca:	4811      	ldr	r0, [pc, #68]	; (8001810 <sensor_config_set_defaults+0x60>)
 80017cc:	4625      	mov	r5, r4
 80017ce:	6020      	str	r0, [r4, #0]
 80017d0:	4810      	ldr	r0, [pc, #64]	; (8001814 <sensor_config_set_defaults+0x64>)
 80017d2:	4622      	mov	r2, r4
 80017d4:	6060      	str	r0, [r4, #4]
 80017d6:	4810      	ldr	r0, [pc, #64]	; (8001818 <sensor_config_set_defaults+0x68>)
 80017d8:	2146      	movs	r1, #70	; 0x46
 80017da:	e9c4 0c07 	strd	r0, ip, [r4, #28]
 80017de:	480f      	ldr	r0, [pc, #60]	; (800181c <sensor_config_set_defaults+0x6c>)
 80017e0:	2300      	movs	r3, #0
 80017e2:	6260      	str	r0, [r4, #36]	; 0x24
 80017e4:	e9c4 6604 	strd	r6, r6, [r4, #16]
 80017e8:	f8c4 8008 	str.w	r8, [r4, #8]
 80017ec:	f8c4 e00c 	str.w	lr, [r4, #12]
 80017f0:	8527      	strh	r7, [r4, #40]	; 0x28
 80017f2:	f104 0029 	add.w	r0, r4, #41	; 0x29
 80017f6:	61a6      	str	r6, [r4, #24]
 80017f8:	e001      	b.n	80017fe <sensor_config_set_defaults+0x4e>
 80017fa:	f812 1f01 	ldrb.w	r1, [r2, #1]!
 80017fe:	440b      	add	r3, r1
 8001800:	4282      	cmp	r2, r0
 8001802:	b29b      	uxth	r3, r3
 8001804:	d1f9      	bne.n	80017fa <sensor_config_set_defaults+0x4a>
 8001806:	856b      	strh	r3, [r5, #42]	; 0x2a
 8001808:	e8bd 81f0 	ldmia.w	sp!, {r4, r5, r6, r7, r8, pc}
 800180c:	2000121c 	.word	0x2000121c
 8001810:	434f4e46 	.word	0x434f4e46
 8001814:	00500002 	.word	0x00500002
 8001818:	000f0004 	.word	0x000f0004
 800181c:	51ec4000 	.word	0x51ec4000

08001820 <sensor_config_init>:
 8001820:	4a13      	ldr	r2, [pc, #76]	; (8001870 <sensor_config_init+0x50>)
 8001822:	4b14      	ldr	r3, [pc, #80]	; (8001874 <sensor_config_init+0x54>)
 8001824:	6812      	ldr	r2, [r2, #0]
 8001826:	b570      	push	{r4, r5, r6, lr}
 8001828:	429a      	cmp	r2, r3
 800182a:	d102      	bne.n	8001832 <sensor_config_init+0x12>
 800182c:	f7ff ff72 	bl	8001714 <sensor_config_load_from_flash.part.0>
 8001830:	b9c8      	cbnz	r0, 8001866 <sensor_config_init+0x46>
 8001832:	2201      	movs	r2, #1
 8001834:	4b10      	ldr	r3, [pc, #64]	; (8001878 <sensor_config_init+0x58>)
 8001836:	701a      	strb	r2, [r3, #0]
 8001838:	f7ff ffba 	bl	80017b0 <sensor_config_set_defaults>
 800183c:	4a0f      	ldr	r2, [pc, #60]	; (800187c <sensor_config_init+0x5c>)
 800183e:	4b10      	ldr	r3, [pc, #64]	; (8001880 <sensor_config_init+0x60>)
 8001840:	f8d2 5022 	ldr.w	r5, [r2, #34]	; 0x22
 8001844:	f8d2 4026 	ldr.w	r4, [r2, #38]	; 0x26
 8001848:	8a16      	ldrh	r6, [r2, #16]
 800184a:	69d1      	ldr	r1, [r2, #28]
 800184c:	8c10      	ldrh	r0, [r2, #32]
 800184e:	815e      	strh	r6, [r3, #10]
 8001850:	60d9      	str	r1, [r3, #12]
 8001852:	8218      	strh	r0, [r3, #16]
 8001854:	615d      	str	r5, [r3, #20]
 8001856:	619c      	str	r4, [r3, #24]
 8001858:	2201      	movs	r2, #1
 800185a:	e8bd 4070 	ldmia.w	sp!, {r4, r5, r6, lr}
 800185e:	4909      	ldr	r1, [pc, #36]	; (8001884 <sensor_config_init+0x64>)
 8001860:	4809      	ldr	r0, [pc, #36]	; (8001888 <sensor_config_init+0x68>)
 8001862:	f004 b815 	b.w	8005890 <HAL_UART_Receive_IT>
 8001866:	2200      	movs	r2, #0
 8001868:	4b03      	ldr	r3, [pc, #12]	; (8001878 <sensor_config_init+0x58>)
 800186a:	701a      	strb	r2, [r3, #0]
 800186c:	e7e6      	b.n	800183c <sensor_config_init+0x1c>
 800186e:	bf00      	nop
 8001870:	0801fc00 	.word	0x0801fc00
 8001874:	434f4e46 	.word	0x434f4e46
 8001878:	20001218 	.word	0x20001218
 800187c:	2000121c 	.word	0x2000121c
 8001880:	200011fc 	.word	0x200011fc
 8001884:	2000124c 	.word	0x2000124c
 8001888:	20002038 	.word	0x20002038

0800188c <sensor_config_save_to_flash>:
 800188c:	2300      	movs	r3, #0
 800188e:	e92d 41f0 	stmdb	sp!, {r4, r5, r6, r7, r8, lr}
 8001892:	4a22      	ldr	r2, [pc, #136]	; (800191c <sensor_config_save_to_flash+0x90>)
 8001894:	b086      	sub	sp, #24
 8001896:	1c55      	adds	r5, r2, #1
 8001898:	f102 002a 	add.w	r0, r2, #42	; 0x2a
 800189c:	f812 1f01 	ldrb.w	r1, [r2, #1]!
 80018a0:	440b      	add	r3, r1
 80018a2:	4282      	cmp	r2, r0
 80018a4:	b29b      	uxth	r3, r3
 80018a6:	d1f9      	bne.n	800189c <sensor_config_save_to_flash+0x10>
 80018a8:	856b      	strh	r3, [r5, #42]	; 0x2a
 80018aa:	f3ef 8610 	mrs	r6, PRIMASK
 80018ae:	b672      	cpsid	i
 80018b0:	f002 f858 	bl	8003964 <HAL_FLASH_Unlock>
 80018b4:	4604      	mov	r4, r0
 80018b6:	b128      	cbz	r0, 80018c4 <sensor_config_save_to_flash+0x38>
 80018b8:	f386 8810 	msr	PRIMASK, r6
 80018bc:	2000      	movs	r0, #0
 80018be:	b006      	add	sp, #24
 80018c0:	e8bd 81f0 	ldmia.w	sp!, {r4, r5, r6, r7, r8, pc}
 80018c4:	2034      	movs	r0, #52	; 0x34
 80018c6:	2201      	movs	r2, #1
 80018c8:	4915      	ldr	r1, [pc, #84]	; (8001920 <sensor_config_save_to_flash+0x94>)
 80018ca:	4b16      	ldr	r3, [pc, #88]	; (8001924 <sensor_config_save_to_flash+0x98>)
 80018cc:	60c8      	str	r0, [r1, #12]
 80018ce:	a901      	add	r1, sp, #4
 80018d0:	a802      	add	r0, sp, #8
 80018d2:	e9cd 4401 	strd	r4, r4, [sp, #4]
 80018d6:	9205      	str	r2, [sp, #20]
 80018d8:	9304      	str	r3, [sp, #16]
 80018da:	f002 f8dd 	bl	8003a98 <HAL_FLASHEx_Erase>
 80018de:	b9d0      	cbnz	r0, 8001916 <sensor_config_save_to_flash+0x8a>
 80018e0:	f8df 8048 	ldr.w	r8, [pc, #72]	; 800192c <sensor_config_save_to_flash+0xa0>
 80018e4:	4f10      	ldr	r7, [pc, #64]	; (8001928 <sensor_config_save_to_flash+0x9c>)
 80018e6:	f1a8 042c 	sub.w	r4, r8, #44	; 0x2c
 80018ea:	1b7f      	subs	r7, r7, r5
 80018ec:	f854 2b04 	ldr.w	r2, [r4], #4
 80018f0:	2300      	movs	r3, #0
 80018f2:	2002      	movs	r0, #2
 80018f4:	1939      	adds	r1, r7, r4
 80018f6:	f002 f87f 	bl	80039f8 <HAL_FLASH_Program>
 80018fa:	b960      	cbnz	r0, 8001916 <sensor_config_save_to_flash+0x8a>
 80018fc:	4544      	cmp	r4, r8
 80018fe:	d1f5      	bne.n	80018ec <sensor_config_save_to_flash+0x60>
 8001900:	f002 f844 	bl	800398c <HAL_FLASH_Lock>
 8001904:	b662      	cpsie	i
 8001906:	f386 8810 	msr	PRIMASK, r6
 800190a:	fab0 f080 	clz	r0, r0
 800190e:	0940      	lsrs	r0, r0, #5
 8001910:	b006      	add	sp, #24
 8001912:	e8bd 81f0 	ldmia.w	sp!, {r4, r5, r6, r7, r8, pc}
 8001916:	f002 f839 	bl	800398c <HAL_FLASH_Lock>
 800191a:	e7cd      	b.n	80018b8 <sensor_config_save_to_flash+0x2c>
 800191c:	2000121b 	.word	0x2000121b
 8001920:	40022000 	.word	0x40022000
 8001924:	0801fc00 	.word	0x0801fc00
 8001928:	0801fbfc 	.word	0x0801fbfc
 800192c:	20001248 	.word	0x20001248

08001930 <HAL_UART_RxCpltCallback>:
 8001930:	4b08      	ldr	r3, [pc, #32]	; (8001954 <HAL_UART_RxCpltCallback+0x24>)
 8001932:	6802      	ldr	r2, [r0, #0]
 8001934:	429a      	cmp	r2, r3
 8001936:	d000      	beq.n	800193a <HAL_UART_RxCpltCallback+0xa>
 8001938:	4770      	bx	lr
 800193a:	b510      	push	{r4, lr}
 800193c:	4c06      	ldr	r4, [pc, #24]	; (8001958 <HAL_UART_RxCpltCallback+0x28>)
 800193e:	7820      	ldrb	r0, [r4, #0]
 8001940:	f000 fe40 	bl	80025c4 <uart_terminal_receive_byte>
 8001944:	4621      	mov	r1, r4
 8001946:	e8bd 4010 	ldmia.w	sp!, {r4, lr}
 800194a:	2201      	movs	r2, #1
 800194c:	4803      	ldr	r0, [pc, #12]	; (800195c <HAL_UART_RxCpltCallback+0x2c>)
 800194e:	f003 bf9f 	b.w	8005890 <HAL_UART_Receive_IT>
 8001952:	bf00      	nop
 8001954:	40004800 	.word	0x40004800
 8001958:	2000124c 	.word	0x2000124c
 800195c:	20002038 	.word	0x20002038

08001960 <HAL_UART_ErrorCallback>:
 8001960:	4770      	bx	lr
 8001962:	bf00      	nop

08001964 <sensor_config_send_float>:
 8001964:	b570      	push	{r4, r5, r6, lr}
 8001966:	4605      	mov	r5, r0
 8001968:	b08a      	sub	sp, #40	; 0x28
 800196a:	4608      	mov	r0, r1
 800196c:	460c      	mov	r4, r1
 800196e:	f7fe fed3 	bl	8000718 <__aeabi_f2iz>
 8001972:	4606      	mov	r6, r0
 8001974:	f7fe fcb6 	bl	80002e4 <__aeabi_i2f>
 8001978:	4601      	mov	r1, r0
 800197a:	4620      	mov	r0, r4
 800197c:	f7fe fbfc 	bl	8000178 <__aeabi_fsub>
 8001980:	4920      	ldr	r1, [pc, #128]	; (8001a04 <sensor_config_send_float+0xa0>)
 8001982:	4604      	mov	r4, r0
 8001984:	f7fe fea0 	bl	80006c8 <__aeabi_fcmplt>
 8001988:	b9f0      	cbnz	r0, 80019c8 <sensor_config_send_float+0x64>
 800198a:	491f      	ldr	r1, [pc, #124]	; (8001a08 <sensor_config_send_float+0xa4>)
 800198c:	4620      	mov	r0, r4
 800198e:	f7fe fcfd 	bl	800038c <__aeabi_fmul>
 8001992:	f04f 517c 	mov.w	r1, #1056964608	; 0x3f000000
 8001996:	f7fe fbf1 	bl	800017c <__addsf3>
 800199a:	f7fe febd 	bl	8000718 <__aeabi_f2iz>
 800199e:	2863      	cmp	r0, #99	; 0x63
 80019a0:	dc10      	bgt.n	80019c4 <sensor_config_send_float+0x60>
 80019a2:	2809      	cmp	r0, #9
 80019a4:	dd1e      	ble.n	80019e4 <sensor_config_send_float+0x80>
 80019a6:	ac02      	add	r4, sp, #8
 80019a8:	462b      	mov	r3, r5
 80019aa:	e9cd 6000 	strd	r6, r0, [sp]
 80019ae:	4a17      	ldr	r2, [pc, #92]	; (8001a0c <sensor_config_send_float+0xa8>)
 80019b0:	4620      	mov	r0, r4
 80019b2:	2120      	movs	r1, #32
 80019b4:	f006 f998 	bl	8007ce8 <sniprintf>
 80019b8:	b281      	uxth	r1, r0
 80019ba:	4620      	mov	r0, r4
 80019bc:	f000 fdee 	bl	800259c <uart_terminal_send>
 80019c0:	b00a      	add	sp, #40	; 0x28
 80019c2:	bd70      	pop	{r4, r5, r6, pc}
 80019c4:	2063      	movs	r0, #99	; 0x63
 80019c6:	e7ee      	b.n	80019a6 <sensor_config_send_float+0x42>
 80019c8:	ac02      	add	r4, sp, #8
 80019ca:	462b      	mov	r3, r5
 80019cc:	4a10      	ldr	r2, [pc, #64]	; (8001a10 <sensor_config_send_float+0xac>)
 80019ce:	4620      	mov	r0, r4
 80019d0:	2120      	movs	r1, #32
 80019d2:	9600      	str	r6, [sp, #0]
 80019d4:	f006 f988 	bl	8007ce8 <sniprintf>
 80019d8:	b281      	uxth	r1, r0
 80019da:	4620      	mov	r0, r4
 80019dc:	f000 fdde 	bl	800259c <uart_terminal_send>
 80019e0:	b00a      	add	sp, #40	; 0x28
 80019e2:	bd70      	pop	{r4, r5, r6, pc}
 80019e4:	ac02      	add	r4, sp, #8
 80019e6:	462b      	mov	r3, r5
 80019e8:	e9cd 6000 	strd	r6, r0, [sp]
 80019ec:	4a09      	ldr	r2, [pc, #36]	; (8001a14 <sensor_config_send_float+0xb0>)
 80019ee:	4620      	mov	r0, r4
 80019f0:	2120      	movs	r1, #32
 80019f2:	f006 f979 	bl	8007ce8 <sniprintf>
 80019f6:	b281      	uxth	r1, r0
 80019f8:	4620      	mov	r0, r4
 80019fa:	f000 fdcf 	bl	800259c <uart_terminal_send>
 80019fe:	b00a      	add	sp, #40	; 0x28
 8001a00:	bd70      	pop	{r4, r5, r6, pc}
 8001a02:	bf00      	nop
 8001a04:	3ba3d70a 	.word	0x3ba3d70a
 8001a08:	42c80000 	.word	0x42c80000
 8001a0c:	080085e0 	.word	0x080085e0
 8001a10:	080085c4 	.word	0x080085c4
 8001a14:	080085d0 	.word	0x080085d0

08001a18 <sensor_config_send_uint16>:
 8001a18:	b500      	push	{lr}
 8001a1a:	b08b      	sub	sp, #44	; 0x2c
 8001a1c:	4603      	mov	r3, r0
 8001a1e:	4a07      	ldr	r2, [pc, #28]	; (8001a3c <sensor_config_send_uint16+0x24>)
 8001a20:	9100      	str	r1, [sp, #0]
 8001a22:	a802      	add	r0, sp, #8
 8001a24:	2120      	movs	r1, #32
 8001a26:	f006 f95f 	bl	8007ce8 <sniprintf>
 8001a2a:	4601      	mov	r1, r0
 8001a2c:	a802      	add	r0, sp, #8
 8001a2e:	b289      	uxth	r1, r1
 8001a30:	f000 fdb4 	bl	800259c <uart_terminal_send>
 8001a34:	b00b      	add	sp, #44	; 0x2c
 8001a36:	f85d fb04 	ldr.w	pc, [sp], #4
 8001a3a:	bf00      	nop
 8001a3c:	080085f0 	.word	0x080085f0

08001a40 <sensor_config_process_command>:
 8001a40:	e92d 41f0 	stmdb	sp!, {r4, r5, r6, r7, r8, lr}
 8001a44:	4ba9      	ldr	r3, [pc, #676]	; (8001cec <sensor_config_process_command+0x2ac>)
 8001a46:	460d      	mov	r5, r1
 8001a48:	781a      	ldrb	r2, [r3, #0]
 8001a4a:	4601      	mov	r1, r0
 8001a4c:	b0a6      	sub	sp, #152	; 0x98
 8001a4e:	b90a      	cbnz	r2, 8001a54 <sensor_config_process_command+0x14>
 8001a50:	2201      	movs	r2, #1
 8001a52:	701a      	strb	r2, [r3, #0]
 8001a54:	2d3f      	cmp	r5, #63	; 0x3f
 8001a56:	462c      	mov	r4, r5
 8001a58:	bf28      	it	cs
 8001a5a:	243f      	movcs	r4, #63	; 0x3f
 8001a5c:	a806      	add	r0, sp, #24
 8001a5e:	4622      	mov	r2, r4
 8001a60:	f006 f92c 	bl	8007cbc <memcpy>
 8001a64:	2100      	movs	r1, #0
 8001a66:	ab26      	add	r3, sp, #152	; 0x98
 8001a68:	4423      	add	r3, r4
 8001a6a:	f803 1c80 	strb.w	r1, [r3, #-128]
 8001a6e:	b16d      	cbz	r5, 8001a8c <sensor_config_process_command+0x4c>
 8001a70:	3c01      	subs	r4, #1
 8001a72:	ab26      	add	r3, sp, #152	; 0x98
 8001a74:	4423      	add	r3, r4
 8001a76:	f813 2c80 	ldrb.w	r2, [r3, #-128]
 8001a7a:	b2a4      	uxth	r4, r4
 8001a7c:	2a0d      	cmp	r2, #13
 8001a7e:	d001      	beq.n	8001a84 <sensor_config_process_command+0x44>
 8001a80:	2a0a      	cmp	r2, #10
 8001a82:	d106      	bne.n	8001a92 <sensor_config_process_command+0x52>
 8001a84:	f803 1c80 	strb.w	r1, [r3, #-128]
 8001a88:	2c00      	cmp	r4, #0
 8001a8a:	d1f1      	bne.n	8001a70 <sensor_config_process_command+0x30>
 8001a8c:	b026      	add	sp, #152	; 0x98
 8001a8e:	e8bd 81f0 	ldmia.w	sp!, {r4, r5, r6, r7, r8, pc}
 8001a92:	4a97      	ldr	r2, [pc, #604]	; (8001cf0 <sensor_config_process_command+0x2b0>)
 8001a94:	9b06      	ldr	r3, [sp, #24]
 8001a96:	4293      	cmp	r3, r2
 8001a98:	d03e      	beq.n	8001b18 <sensor_config_process_command+0xd8>
 8001a9a:	f8bd 2018 	ldrh.w	r2, [sp, #24]
 8001a9e:	2a3f      	cmp	r2, #63	; 0x3f
 8001aa0:	d04c      	beq.n	8001b3c <sensor_config_process_command+0xfc>
 8001aa2:	4994      	ldr	r1, [pc, #592]	; (8001cf4 <sensor_config_process_command+0x2b4>)
 8001aa4:	428b      	cmp	r3, r1
 8001aa6:	d045      	beq.n	8001b34 <sensor_config_process_command+0xf4>
 8001aa8:	2a68      	cmp	r2, #104	; 0x68
 8001aaa:	d047      	beq.n	8001b3c <sensor_config_process_command+0xfc>
 8001aac:	213d      	movs	r1, #61	; 0x3d
 8001aae:	a806      	add	r0, sp, #24
 8001ab0:	f006 f94e 	bl	8007d50 <strchr>
 8001ab4:	4604      	mov	r4, r0
 8001ab6:	2800      	cmp	r0, #0
 8001ab8:	f000 817e 	beq.w	8001db8 <sensor_config_process_command+0x378>
 8001abc:	2300      	movs	r3, #0
 8001abe:	a806      	add	r0, sp, #24
 8001ac0:	f804 3b01 	strb.w	r3, [r4], #1
 8001ac4:	f7fe fb4c 	bl	8000160 <strlen>
 8001ac8:	2805      	cmp	r0, #5
 8001aca:	f000 82a7 	beq.w	800201c <sensor_config_process_command+0x5dc>
 8001ace:	2803      	cmp	r0, #3
 8001ad0:	f040 81de 	bne.w	8001e90 <sensor_config_process_command+0x450>
 8001ad4:	f89d 3018 	ldrb.w	r3, [sp, #24]
 8001ad8:	2b74      	cmp	r3, #116	; 0x74
 8001ada:	f040 81d9 	bne.w	8001e90 <sensor_config_process_command+0x450>
 8001ade:	f89d 3019 	ldrb.w	r3, [sp, #25]
 8001ae2:	2b68      	cmp	r3, #104	; 0x68
 8001ae4:	f040 81d4 	bne.w	8001e90 <sensor_config_process_command+0x450>
 8001ae8:	f89d 501a 	ldrb.w	r5, [sp, #26]
 8001aec:	f1a5 0630 	sub.w	r6, r5, #48	; 0x30
 8001af0:	2e04      	cmp	r6, #4
 8001af2:	f200 81cd 	bhi.w	8001e90 <sensor_config_process_command+0x450>
 8001af6:	4620      	mov	r0, r4
 8001af8:	a902      	add	r1, sp, #8
 8001afa:	f7ff fde7 	bl	80016cc <parse_uint16>
 8001afe:	2800      	cmp	r0, #0
 8001b00:	f000 81c6 	beq.w	8001e90 <sensor_config_process_command+0x450>
 8001b04:	f8bd 3008 	ldrh.w	r3, [sp, #8]
 8001b08:	4a7b      	ldr	r2, [pc, #492]	; (8001cf8 <sensor_config_process_command+0x2b8>)
 8001b0a:	3d28      	subs	r5, #40	; 0x28
 8001b0c:	f822 3015 	strh.w	r3, [r2, r5, lsl #1]
 8001b10:	b95e      	cbnz	r6, 8001b2a <sensor_config_process_command+0xea>
 8001b12:	4a7a      	ldr	r2, [pc, #488]	; (8001cfc <sensor_config_process_command+0x2bc>)
 8001b14:	8153      	strh	r3, [r2, #10]
 8001b16:	e008      	b.n	8001b2a <sensor_config_process_command+0xea>
 8001b18:	f89d 201c 	ldrb.w	r2, [sp, #28]
 8001b1c:	2a00      	cmp	r2, #0
 8001b1e:	d1bc      	bne.n	8001a9a <sensor_config_process_command+0x5a>
 8001b20:	f7ff feb4 	bl	800188c <sensor_config_save_to_flash>
 8001b24:	2800      	cmp	r0, #0
 8001b26:	f000 81f8 	beq.w	8001f1a <sensor_config_process_command+0x4da>
 8001b2a:	2104      	movs	r1, #4
 8001b2c:	4874      	ldr	r0, [pc, #464]	; (8001d00 <sensor_config_process_command+0x2c0>)
 8001b2e:	f000 fd35 	bl	800259c <uart_terminal_send>
 8001b32:	e7ab      	b.n	8001a8c <sensor_config_process_command+0x4c>
 8001b34:	f89d 301c 	ldrb.w	r3, [sp, #28]
 8001b38:	2b00      	cmp	r3, #0
 8001b3a:	d1b5      	bne.n	8001aa8 <sensor_config_process_command+0x68>
 8001b3c:	212c      	movs	r1, #44	; 0x2c
 8001b3e:	4871      	ldr	r0, [pc, #452]	; (8001d04 <sensor_config_process_command+0x2c4>)
 8001b40:	f000 fd2c 	bl	800259c <uart_terminal_send>
 8001b44:	2127      	movs	r1, #39	; 0x27
 8001b46:	4870      	ldr	r0, [pc, #448]	; (8001d08 <sensor_config_process_command+0x2c8>)
 8001b48:	f000 fd28 	bl	800259c <uart_terminal_send>
 8001b4c:	212c      	movs	r1, #44	; 0x2c
 8001b4e:	486f      	ldr	r0, [pc, #444]	; (8001d0c <sensor_config_process_command+0x2cc>)
 8001b50:	f000 fd24 	bl	800259c <uart_terminal_send>
 8001b54:	2111      	movs	r1, #17
 8001b56:	486e      	ldr	r0, [pc, #440]	; (8001d10 <sensor_config_process_command+0x2d0>)
 8001b58:	f000 fd20 	bl	800259c <uart_terminal_send>
 8001b5c:	212f      	movs	r1, #47	; 0x2f
 8001b5e:	486d      	ldr	r0, [pc, #436]	; (8001d14 <sensor_config_process_command+0x2d4>)
 8001b60:	f000 fd1c 	bl	800259c <uart_terminal_send>
 8001b64:	212b      	movs	r1, #43	; 0x2b
 8001b66:	486c      	ldr	r0, [pc, #432]	; (8001d18 <sensor_config_process_command+0x2d8>)
 8001b68:	f000 fd18 	bl	800259c <uart_terminal_send>
 8001b6c:	2128      	movs	r1, #40	; 0x28
 8001b6e:	486b      	ldr	r0, [pc, #428]	; (8001d1c <sensor_config_process_command+0x2dc>)
 8001b70:	f000 fd14 	bl	800259c <uart_terminal_send>
 8001b74:	212e      	movs	r1, #46	; 0x2e
 8001b76:	486a      	ldr	r0, [pc, #424]	; (8001d20 <sensor_config_process_command+0x2e0>)
 8001b78:	f000 fd10 	bl	800259c <uart_terminal_send>
 8001b7c:	2120      	movs	r1, #32
 8001b7e:	4869      	ldr	r0, [pc, #420]	; (8001d24 <sensor_config_process_command+0x2e4>)
 8001b80:	f000 fd0c 	bl	800259c <uart_terminal_send>
 8001b84:	2145      	movs	r1, #69	; 0x45
 8001b86:	4868      	ldr	r0, [pc, #416]	; (8001d28 <sensor_config_process_command+0x2e8>)
 8001b88:	f000 fd08 	bl	800259c <uart_terminal_send>
 8001b8c:	2142      	movs	r1, #66	; 0x42
 8001b8e:	4867      	ldr	r0, [pc, #412]	; (8001d2c <sensor_config_process_command+0x2ec>)
 8001b90:	f000 fd04 	bl	800259c <uart_terminal_send>
 8001b94:	2102      	movs	r1, #2
 8001b96:	4866      	ldr	r0, [pc, #408]	; (8001d30 <sensor_config_process_command+0x2f0>)
 8001b98:	f000 fd00 	bl	800259c <uart_terminal_send>
 8001b9c:	211a      	movs	r1, #26
 8001b9e:	4865      	ldr	r0, [pc, #404]	; (8001d34 <sensor_config_process_command+0x2f4>)
 8001ba0:	f000 fcfc 	bl	800259c <uart_terminal_send>
 8001ba4:	2146      	movs	r1, #70	; 0x46
 8001ba6:	4864      	ldr	r0, [pc, #400]	; (8001d38 <sensor_config_process_command+0x2f8>)
 8001ba8:	f000 fcf8 	bl	800259c <uart_terminal_send>
 8001bac:	2102      	movs	r1, #2
 8001bae:	4860      	ldr	r0, [pc, #384]	; (8001d30 <sensor_config_process_command+0x2f0>)
 8001bb0:	f000 fcf4 	bl	800259c <uart_terminal_send>
 8001bb4:	211f      	movs	r1, #31
 8001bb6:	4861      	ldr	r0, [pc, #388]	; (8001d3c <sensor_config_process_command+0x2fc>)
 8001bb8:	f000 fcf0 	bl	800259c <uart_terminal_send>
 8001bbc:	2136      	movs	r1, #54	; 0x36
 8001bbe:	4860      	ldr	r0, [pc, #384]	; (8001d40 <sensor_config_process_command+0x300>)
 8001bc0:	f000 fcec 	bl	800259c <uart_terminal_send>
 8001bc4:	2138      	movs	r1, #56	; 0x38
 8001bc6:	485f      	ldr	r0, [pc, #380]	; (8001d44 <sensor_config_process_command+0x304>)
 8001bc8:	f000 fce8 	bl	800259c <uart_terminal_send>
 8001bcc:	2136      	movs	r1, #54	; 0x36
 8001bce:	485e      	ldr	r0, [pc, #376]	; (8001d48 <sensor_config_process_command+0x308>)
 8001bd0:	f000 fce4 	bl	800259c <uart_terminal_send>
 8001bd4:	2102      	movs	r1, #2
 8001bd6:	4856      	ldr	r0, [pc, #344]	; (8001d30 <sensor_config_process_command+0x2f0>)
 8001bd8:	f000 fce0 	bl	800259c <uart_terminal_send>
 8001bdc:	2115      	movs	r1, #21
 8001bde:	485b      	ldr	r0, [pc, #364]	; (8001d4c <sensor_config_process_command+0x30c>)
 8001be0:	f000 fcdc 	bl	800259c <uart_terminal_send>
 8001be4:	2142      	movs	r1, #66	; 0x42
 8001be6:	485a      	ldr	r0, [pc, #360]	; (8001d50 <sensor_config_process_command+0x310>)
 8001be8:	f000 fcd8 	bl	800259c <uart_terminal_send>
 8001bec:	2141      	movs	r1, #65	; 0x41
 8001bee:	4859      	ldr	r0, [pc, #356]	; (8001d54 <sensor_config_process_command+0x314>)
 8001bf0:	f000 fcd4 	bl	800259c <uart_terminal_send>
 8001bf4:	2102      	movs	r1, #2
 8001bf6:	484e      	ldr	r0, [pc, #312]	; (8001d30 <sensor_config_process_command+0x2f0>)
 8001bf8:	f000 fcd0 	bl	800259c <uart_terminal_send>
 8001bfc:	212b      	movs	r1, #43	; 0x2b
 8001bfe:	4856      	ldr	r0, [pc, #344]	; (8001d58 <sensor_config_process_command+0x318>)
 8001c00:	f000 fccc 	bl	800259c <uart_terminal_send>
 8001c04:	2132      	movs	r1, #50	; 0x32
 8001c06:	4855      	ldr	r0, [pc, #340]	; (8001d5c <sensor_config_process_command+0x31c>)
 8001c08:	f000 fcc8 	bl	800259c <uart_terminal_send>
 8001c0c:	212c      	movs	r1, #44	; 0x2c
 8001c0e:	4854      	ldr	r0, [pc, #336]	; (8001d60 <sensor_config_process_command+0x320>)
 8001c10:	f000 fcc4 	bl	800259c <uart_terminal_send>
 8001c14:	212b      	movs	r1, #43	; 0x2b
 8001c16:	4853      	ldr	r0, [pc, #332]	; (8001d64 <sensor_config_process_command+0x324>)
 8001c18:	f000 fcc0 	bl	800259c <uart_terminal_send>
 8001c1c:	2129      	movs	r1, #41	; 0x29
 8001c1e:	4852      	ldr	r0, [pc, #328]	; (8001d68 <sensor_config_process_command+0x328>)
 8001c20:	f000 fcbc 	bl	800259c <uart_terminal_send>
 8001c24:	2123      	movs	r1, #35	; 0x23
 8001c26:	4851      	ldr	r0, [pc, #324]	; (8001d6c <sensor_config_process_command+0x32c>)
 8001c28:	f000 fcb8 	bl	800259c <uart_terminal_send>
 8001c2c:	2127      	movs	r1, #39	; 0x27
 8001c2e:	4850      	ldr	r0, [pc, #320]	; (8001d70 <sensor_config_process_command+0x330>)
 8001c30:	f000 fcb4 	bl	800259c <uart_terminal_send>
 8001c34:	2102      	movs	r1, #2
 8001c36:	483e      	ldr	r0, [pc, #248]	; (8001d30 <sensor_config_process_command+0x2f0>)
 8001c38:	f000 fcb0 	bl	800259c <uart_terminal_send>
 8001c3c:	212a      	movs	r1, #42	; 0x2a
 8001c3e:	484d      	ldr	r0, [pc, #308]	; (8001d74 <sensor_config_process_command+0x334>)
 8001c40:	f000 fcac 	bl	800259c <uart_terminal_send>
 8001c44:	210d      	movs	r1, #13
 8001c46:	484c      	ldr	r0, [pc, #304]	; (8001d78 <sensor_config_process_command+0x338>)
 8001c48:	f000 fca8 	bl	800259c <uart_terminal_send>
 8001c4c:	2135      	movs	r1, #53	; 0x35
 8001c4e:	484b      	ldr	r0, [pc, #300]	; (8001d7c <sensor_config_process_command+0x33c>)
 8001c50:	f000 fca4 	bl	800259c <uart_terminal_send>
 8001c54:	2132      	movs	r1, #50	; 0x32
 8001c56:	484a      	ldr	r0, [pc, #296]	; (8001d80 <sensor_config_process_command+0x340>)
 8001c58:	f000 fca0 	bl	800259c <uart_terminal_send>
 8001c5c:	212e      	movs	r1, #46	; 0x2e
 8001c5e:	4849      	ldr	r0, [pc, #292]	; (8001d84 <sensor_config_process_command+0x344>)
 8001c60:	f000 fc9c 	bl	800259c <uart_terminal_send>
 8001c64:	2130      	movs	r1, #48	; 0x30
 8001c66:	4848      	ldr	r0, [pc, #288]	; (8001d88 <sensor_config_process_command+0x348>)
 8001c68:	f000 fc98 	bl	800259c <uart_terminal_send>
 8001c6c:	2134      	movs	r1, #52	; 0x34
 8001c6e:	4847      	ldr	r0, [pc, #284]	; (8001d8c <sensor_config_process_command+0x34c>)
 8001c70:	f000 fc94 	bl	800259c <uart_terminal_send>
 8001c74:	2102      	movs	r1, #2
 8001c76:	482e      	ldr	r0, [pc, #184]	; (8001d30 <sensor_config_process_command+0x2f0>)
 8001c78:	f000 fc90 	bl	800259c <uart_terminal_send>
 8001c7c:	210c      	movs	r1, #12
 8001c7e:	4844      	ldr	r0, [pc, #272]	; (8001d90 <sensor_config_process_command+0x350>)
 8001c80:	f000 fc8c 	bl	800259c <uart_terminal_send>
 8001c84:	212c      	movs	r1, #44	; 0x2c
 8001c86:	4843      	ldr	r0, [pc, #268]	; (8001d94 <sensor_config_process_command+0x354>)
 8001c88:	f000 fc88 	bl	800259c <uart_terminal_send>
 8001c8c:	2128      	movs	r1, #40	; 0x28
 8001c8e:	4842      	ldr	r0, [pc, #264]	; (8001d98 <sensor_config_process_command+0x358>)
 8001c90:	f000 fc84 	bl	800259c <uart_terminal_send>
 8001c94:	212f      	movs	r1, #47	; 0x2f
 8001c96:	4841      	ldr	r0, [pc, #260]	; (8001d9c <sensor_config_process_command+0x35c>)
 8001c98:	f000 fc80 	bl	800259c <uart_terminal_send>
 8001c9c:	2102      	movs	r1, #2
 8001c9e:	4824      	ldr	r0, [pc, #144]	; (8001d30 <sensor_config_process_command+0x2f0>)
 8001ca0:	f000 fc7c 	bl	800259c <uart_terminal_send>
 8001ca4:	210c      	movs	r1, #12
 8001ca6:	483e      	ldr	r0, [pc, #248]	; (8001da0 <sensor_config_process_command+0x360>)
 8001ca8:	f000 fc78 	bl	800259c <uart_terminal_send>
 8001cac:	2127      	movs	r1, #39	; 0x27
 8001cae:	483d      	ldr	r0, [pc, #244]	; (8001da4 <sensor_config_process_command+0x364>)
 8001cb0:	f000 fc74 	bl	800259c <uart_terminal_send>
 8001cb4:	212d      	movs	r1, #45	; 0x2d
 8001cb6:	483c      	ldr	r0, [pc, #240]	; (8001da8 <sensor_config_process_command+0x368>)
 8001cb8:	f000 fc70 	bl	800259c <uart_terminal_send>
 8001cbc:	2123      	movs	r1, #35	; 0x23
 8001cbe:	483b      	ldr	r0, [pc, #236]	; (8001dac <sensor_config_process_command+0x36c>)
 8001cc0:	f000 fc6c 	bl	800259c <uart_terminal_send>
 8001cc4:	2123      	movs	r1, #35	; 0x23
 8001cc6:	483a      	ldr	r0, [pc, #232]	; (8001db0 <sensor_config_process_command+0x370>)
 8001cc8:	f000 fc68 	bl	800259c <uart_terminal_send>
 8001ccc:	2102      	movs	r1, #2
 8001cce:	4818      	ldr	r0, [pc, #96]	; (8001d30 <sensor_config_process_command+0x2f0>)
 8001cd0:	f000 fc64 	bl	800259c <uart_terminal_send>
 8001cd4:	2122      	movs	r1, #34	; 0x22
 8001cd6:	4837      	ldr	r0, [pc, #220]	; (8001db4 <sensor_config_process_command+0x374>)
 8001cd8:	f000 fc60 	bl	800259c <uart_terminal_send>
 8001cdc:	212c      	movs	r1, #44	; 0x2c
 8001cde:	480b      	ldr	r0, [pc, #44]	; (8001d0c <sensor_config_process_command+0x2cc>)
 8001ce0:	f000 fc5c 	bl	800259c <uart_terminal_send>
 8001ce4:	b026      	add	sp, #152	; 0x98
 8001ce6:	e8bd 81f0 	ldmia.w	sp!, {r4, r5, r6, r7, r8, pc}
 8001cea:	bf00      	nop
 8001cec:	20001248 	.word	0x20001248
 8001cf0:	65766173 	.word	0x65766173
 8001cf4:	706c6568 	.word	0x706c6568
 8001cf8:	2000121c 	.word	0x2000121c
 8001cfc:	200011fc 	.word	0x200011fc
 8001d00:	080085bc 	.word	0x080085bc
 8001d04:	08008620 	.word	0x08008620
 8001d08:	08008650 	.word	0x08008650
 8001d0c:	08008678 	.word	0x08008678
 8001d10:	080086a8 	.word	0x080086a8
 8001d14:	080086bc 	.word	0x080086bc
 8001d18:	080086ec 	.word	0x080086ec
 8001d1c:	08008718 	.word	0x08008718
 8001d20:	08008744 	.word	0x08008744
 8001d24:	08008774 	.word	0x08008774
 8001d28:	08008798 	.word	0x08008798
 8001d2c:	080087e0 	.word	0x080087e0
 8001d30:	08008a50 	.word	0x08008a50
 8001d34:	08008824 	.word	0x08008824
 8001d38:	08008840 	.word	0x08008840
 8001d3c:	08008888 	.word	0x08008888
 8001d40:	080088a8 	.word	0x080088a8
 8001d44:	080088e0 	.word	0x080088e0
 8001d48:	0800891c 	.word	0x0800891c
 8001d4c:	08008954 	.word	0x08008954
 8001d50:	0800896c 	.word	0x0800896c
 8001d54:	080089b0 	.word	0x080089b0
 8001d58:	080089f4 	.word	0x080089f4
 8001d5c:	08008a20 	.word	0x08008a20
 8001d60:	08008a54 	.word	0x08008a54
 8001d64:	08008a84 	.word	0x08008a84
 8001d68:	08008ab0 	.word	0x08008ab0
 8001d6c:	08008adc 	.word	0x08008adc
 8001d70:	08008b00 	.word	0x08008b00
 8001d74:	08008b28 	.word	0x08008b28
 8001d78:	08008b54 	.word	0x08008b54
 8001d7c:	08008b64 	.word	0x08008b64
 8001d80:	08008b9c 	.word	0x08008b9c
 8001d84:	08008bd0 	.word	0x08008bd0
 8001d88:	08008c00 	.word	0x08008c00
 8001d8c:	08008c34 	.word	0x08008c34
 8001d90:	08008c6c 	.word	0x08008c6c
 8001d94:	08008c7c 	.word	0x08008c7c
 8001d98:	08008cac 	.word	0x08008cac
 8001d9c:	08008cd8 	.word	0x08008cd8
 8001da0:	08008d08 	.word	0x08008d08
 8001da4:	08008d18 	.word	0x08008d18
 8001da8:	08008d40 	.word	0x08008d40
 8001dac:	08008d70 	.word	0x08008d70
 8001db0:	08008d94 	.word	0x08008d94
 8001db4:	08008db8 	.word	0x08008db8
 8001db8:	213f      	movs	r1, #63	; 0x3f
 8001dba:	a806      	add	r0, sp, #24
 8001dbc:	f005 ffc8 	bl	8007d50 <strchr>
 8001dc0:	2800      	cmp	r0, #0
 8001dc2:	f000 81de 	beq.w	8002182 <sensor_config_process_command+0x742>
 8001dc6:	7004      	strb	r4, [r0, #0]
 8001dc8:	9a06      	ldr	r2, [sp, #24]
 8001dca:	4bb9      	ldr	r3, [pc, #740]	; (80020b0 <sensor_config_process_command+0x670>)
 8001dcc:	429a      	cmp	r2, r3
 8001dce:	f000 80d7 	beq.w	8001f80 <sensor_config_process_command+0x540>
 8001dd2:	f8bd 3018 	ldrh.w	r3, [sp, #24]
 8001dd6:	2b68      	cmp	r3, #104	; 0x68
 8001dd8:	f000 80d7 	beq.w	8001f8a <sensor_config_process_command+0x54a>
 8001ddc:	a806      	add	r0, sp, #24
 8001dde:	f7fe f9bf 	bl	8000160 <strlen>
 8001de2:	2805      	cmp	r0, #5
 8001de4:	f000 81e7 	beq.w	80021b6 <sensor_config_process_command+0x776>
 8001de8:	2803      	cmp	r0, #3
 8001dea:	d10e      	bne.n	8001e0a <sensor_config_process_command+0x3ca>
 8001dec:	f89d 3018 	ldrb.w	r3, [sp, #24]
 8001df0:	2b74      	cmp	r3, #116	; 0x74
 8001df2:	d10a      	bne.n	8001e0a <sensor_config_process_command+0x3ca>
 8001df4:	f89d 3019 	ldrb.w	r3, [sp, #25]
 8001df8:	2b68      	cmp	r3, #104	; 0x68
 8001dfa:	d106      	bne.n	8001e0a <sensor_config_process_command+0x3ca>
 8001dfc:	f89d 201a 	ldrb.w	r2, [sp, #26]
 8001e00:	f1a2 0330 	sub.w	r3, r2, #48	; 0x30
 8001e04:	2b04      	cmp	r3, #4
 8001e06:	f240 8242 	bls.w	800228e <sensor_config_process_command+0x84e>
 8001e0a:	49aa      	ldr	r1, [pc, #680]	; (80020b4 <sensor_config_process_command+0x674>)
 8001e0c:	a806      	add	r0, sp, #24
 8001e0e:	f7fe f99d 	bl	800014c <strcmp>
 8001e12:	2800      	cmp	r0, #0
 8001e14:	f000 8204 	beq.w	8002220 <sensor_config_process_command+0x7e0>
 8001e18:	49a7      	ldr	r1, [pc, #668]	; (80020b8 <sensor_config_process_command+0x678>)
 8001e1a:	a806      	add	r0, sp, #24
 8001e1c:	f7fe f996 	bl	800014c <strcmp>
 8001e20:	2800      	cmp	r0, #0
 8001e22:	f000 8203 	beq.w	800222c <sensor_config_process_command+0x7ec>
 8001e26:	49a5      	ldr	r1, [pc, #660]	; (80020bc <sensor_config_process_command+0x67c>)
 8001e28:	a806      	add	r0, sp, #24
 8001e2a:	f7fe f98f 	bl	800014c <strcmp>
 8001e2e:	2800      	cmp	r0, #0
 8001e30:	f000 8208 	beq.w	8002244 <sensor_config_process_command+0x804>
 8001e34:	49a2      	ldr	r1, [pc, #648]	; (80020c0 <sensor_config_process_command+0x680>)
 8001e36:	a806      	add	r0, sp, #24
 8001e38:	f7fe f988 	bl	800014c <strcmp>
 8001e3c:	2800      	cmp	r0, #0
 8001e3e:	f000 81fb 	beq.w	8002238 <sensor_config_process_command+0x7f8>
 8001e42:	49a0      	ldr	r1, [pc, #640]	; (80020c4 <sensor_config_process_command+0x684>)
 8001e44:	a806      	add	r0, sp, #24
 8001e46:	f7fe f981 	bl	800014c <strcmp>
 8001e4a:	2800      	cmp	r0, #0
 8001e4c:	f000 8217 	beq.w	800227e <sensor_config_process_command+0x83e>
 8001e50:	499d      	ldr	r1, [pc, #628]	; (80020c8 <sensor_config_process_command+0x688>)
 8001e52:	a806      	add	r0, sp, #24
 8001e54:	f7fe f97a 	bl	800014c <strcmp>
 8001e58:	2800      	cmp	r0, #0
 8001e5a:	d159      	bne.n	8001f10 <sensor_config_process_command+0x4d0>
 8001e5c:	4b9b      	ldr	r3, [pc, #620]	; (80020cc <sensor_config_process_command+0x68c>)
 8001e5e:	489a      	ldr	r0, [pc, #616]	; (80020c8 <sensor_config_process_command+0x688>)
 8001e60:	f8d3 1026 	ldr.w	r1, [r3, #38]	; 0x26
 8001e64:	f7ff fd7e 	bl	8001964 <sensor_config_send_float>
 8001e68:	e610      	b.n	8001a8c <sensor_config_process_command+0x4c>
 8001e6a:	b130      	cbz	r0, 8001e7a <sensor_config_process_command+0x43a>
 8001e6c:	2801      	cmp	r0, #1
 8001e6e:	f000 8217 	beq.w	80022a0 <sensor_config_process_command+0x860>
 8001e72:	2802      	cmp	r0, #2
 8001e74:	bf0c      	ite	eq
 8001e76:	4628      	moveq	r0, r5
 8001e78:	2063      	movne	r0, #99	; 0x63
 8001e7a:	2564      	movs	r5, #100	; 0x64
 8001e7c:	fb05 0507 	mla	r5, r5, r7, r0
 8001e80:	f1b8 0f00 	cmp.w	r8, #0
 8001e84:	d000      	beq.n	8001e88 <sensor_config_process_command+0x448>
 8001e86:	426d      	negs	r5, r5
 8001e88:	f5b5 2fc8 	cmp.w	r5, #409600	; 0x64000
 8001e8c:	f240 81e5 	bls.w	800225a <sensor_config_process_command+0x81a>
 8001e90:	4988      	ldr	r1, [pc, #544]	; (80020b4 <sensor_config_process_command+0x674>)
 8001e92:	a806      	add	r0, sp, #24
 8001e94:	f7fe f95a 	bl	800014c <strcmp>
 8001e98:	2800      	cmp	r0, #0
 8001e9a:	f000 8149 	beq.w	8002130 <sensor_config_process_command+0x6f0>
 8001e9e:	4986      	ldr	r1, [pc, #536]	; (80020b8 <sensor_config_process_command+0x678>)
 8001ea0:	a806      	add	r0, sp, #24
 8001ea2:	f7fe f953 	bl	800014c <strcmp>
 8001ea6:	2800      	cmp	r0, #0
 8001ea8:	f000 8159 	beq.w	800215e <sensor_config_process_command+0x71e>
 8001eac:	4983      	ldr	r1, [pc, #524]	; (80020bc <sensor_config_process_command+0x67c>)
 8001eae:	a806      	add	r0, sp, #24
 8001eb0:	f7fe f94c 	bl	800014c <strcmp>
 8001eb4:	2800      	cmp	r0, #0
 8001eb6:	f000 8169 	beq.w	800218c <sensor_config_process_command+0x74c>
 8001eba:	4981      	ldr	r1, [pc, #516]	; (80020c0 <sensor_config_process_command+0x680>)
 8001ebc:	a806      	add	r0, sp, #24
 8001ebe:	f7fe f945 	bl	800014c <strcmp>
 8001ec2:	b378      	cbz	r0, 8001f24 <sensor_config_process_command+0x4e4>
 8001ec4:	497f      	ldr	r1, [pc, #508]	; (80020c4 <sensor_config_process_command+0x684>)
 8001ec6:	a806      	add	r0, sp, #24
 8001ec8:	f7fe f940 	bl	800014c <strcmp>
 8001ecc:	2800      	cmp	r0, #0
 8001ece:	d03a      	beq.n	8001f46 <sensor_config_process_command+0x506>
 8001ed0:	497d      	ldr	r1, [pc, #500]	; (80020c8 <sensor_config_process_command+0x688>)
 8001ed2:	a806      	add	r0, sp, #24
 8001ed4:	f7fe f93a 	bl	800014c <strcmp>
 8001ed8:	b9d0      	cbnz	r0, 8001f10 <sensor_config_process_command+0x4d0>
 8001eda:	4620      	mov	r0, r4
 8001edc:	a916      	add	r1, sp, #88	; 0x58
 8001ede:	f7ff fb99 	bl	8001614 <parse_simple_float>
 8001ee2:	b1a8      	cbz	r0, 8001f10 <sensor_config_process_command+0x4d0>
 8001ee4:	9c16      	ldr	r4, [sp, #88]	; 0x58
 8001ee6:	2100      	movs	r1, #0
 8001ee8:	4620      	mov	r0, r4
 8001eea:	f7fe fc0b 	bl	8000704 <__aeabi_fcmpgt>
 8001eee:	b178      	cbz	r0, 8001f10 <sensor_config_process_command+0x4d0>
 8001ef0:	f04f 517e 	mov.w	r1, #1065353216	; 0x3f800000
 8001ef4:	4620      	mov	r0, r4
 8001ef6:	f7fe fbe7 	bl	80006c8 <__aeabi_fcmplt>
 8001efa:	b148      	cbz	r0, 8001f10 <sensor_config_process_command+0x4d0>
 8001efc:	4a73      	ldr	r2, [pc, #460]	; (80020cc <sensor_config_process_command+0x68c>)
 8001efe:	4b74      	ldr	r3, [pc, #464]	; (80020d0 <sensor_config_process_command+0x690>)
 8001f00:	2104      	movs	r1, #4
 8001f02:	4874      	ldr	r0, [pc, #464]	; (80020d4 <sensor_config_process_command+0x694>)
 8001f04:	f8c2 4026 	str.w	r4, [r2, #38]	; 0x26
 8001f08:	619c      	str	r4, [r3, #24]
 8001f0a:	f000 fb47 	bl	800259c <uart_terminal_send>
 8001f0e:	e5bd      	b.n	8001a8c <sensor_config_process_command+0x4c>
 8001f10:	2119      	movs	r1, #25
 8001f12:	4871      	ldr	r0, [pc, #452]	; (80020d8 <sensor_config_process_command+0x698>)
 8001f14:	f000 fb42 	bl	800259c <uart_terminal_send>
 8001f18:	e5b8      	b.n	8001a8c <sensor_config_process_command+0x4c>
 8001f1a:	2114      	movs	r1, #20
 8001f1c:	486f      	ldr	r0, [pc, #444]	; (80020dc <sensor_config_process_command+0x69c>)
 8001f1e:	f000 fb3d 	bl	800259c <uart_terminal_send>
 8001f22:	e5b3      	b.n	8001a8c <sensor_config_process_command+0x4c>
 8001f24:	4620      	mov	r0, r4
 8001f26:	a902      	add	r1, sp, #8
 8001f28:	f7ff fbd0 	bl	80016cc <parse_uint16>
 8001f2c:	2800      	cmp	r0, #0
 8001f2e:	d0c9      	beq.n	8001ec4 <sensor_config_process_command+0x484>
 8001f30:	f8bd 3008 	ldrh.w	r3, [sp, #8]
 8001f34:	4c65      	ldr	r4, [pc, #404]	; (80020cc <sensor_config_process_command+0x68c>)
 8001f36:	4a66      	ldr	r2, [pc, #408]	; (80020d0 <sensor_config_process_command+0x690>)
 8001f38:	2104      	movs	r1, #4
 8001f3a:	4866      	ldr	r0, [pc, #408]	; (80020d4 <sensor_config_process_command+0x694>)
 8001f3c:	8423      	strh	r3, [r4, #32]
 8001f3e:	8213      	strh	r3, [r2, #16]
 8001f40:	f000 fb2c 	bl	800259c <uart_terminal_send>
 8001f44:	e5a2      	b.n	8001a8c <sensor_config_process_command+0x4c>
 8001f46:	4620      	mov	r0, r4
 8001f48:	a916      	add	r1, sp, #88	; 0x58
 8001f4a:	f7ff fb63 	bl	8001614 <parse_simple_float>
 8001f4e:	2800      	cmp	r0, #0
 8001f50:	d0be      	beq.n	8001ed0 <sensor_config_process_command+0x490>
 8001f52:	9d16      	ldr	r5, [sp, #88]	; 0x58
 8001f54:	2100      	movs	r1, #0
 8001f56:	4628      	mov	r0, r5
 8001f58:	f7fe fbd4 	bl	8000704 <__aeabi_fcmpgt>
 8001f5c:	2800      	cmp	r0, #0
 8001f5e:	d0b7      	beq.n	8001ed0 <sensor_config_process_command+0x490>
 8001f60:	4628      	mov	r0, r5
 8001f62:	495f      	ldr	r1, [pc, #380]	; (80020e0 <sensor_config_process_command+0x6a0>)
 8001f64:	f7fe fbba 	bl	80006dc <__aeabi_fcmple>
 8001f68:	2800      	cmp	r0, #0
 8001f6a:	d0b1      	beq.n	8001ed0 <sensor_config_process_command+0x490>
 8001f6c:	4a57      	ldr	r2, [pc, #348]	; (80020cc <sensor_config_process_command+0x68c>)
 8001f6e:	4b58      	ldr	r3, [pc, #352]	; (80020d0 <sensor_config_process_command+0x690>)
 8001f70:	2104      	movs	r1, #4
 8001f72:	4858      	ldr	r0, [pc, #352]	; (80020d4 <sensor_config_process_command+0x694>)
 8001f74:	f8c2 5022 	str.w	r5, [r2, #34]	; 0x22
 8001f78:	615d      	str	r5, [r3, #20]
 8001f7a:	f000 fb0f 	bl	800259c <uart_terminal_send>
 8001f7e:	e585      	b.n	8001a8c <sensor_config_process_command+0x4c>
 8001f80:	f89d 301c 	ldrb.w	r3, [sp, #28]
 8001f84:	2b00      	cmp	r3, #0
 8001f86:	f47f af24 	bne.w	8001dd2 <sensor_config_process_command+0x392>
 8001f8a:	2130      	movs	r1, #48	; 0x30
 8001f8c:	4855      	ldr	r0, [pc, #340]	; (80020e4 <sensor_config_process_command+0x6a4>)
 8001f8e:	f000 fb05 	bl	800259c <uart_terminal_send>
 8001f92:	213c      	movs	r1, #60	; 0x3c
 8001f94:	4854      	ldr	r0, [pc, #336]	; (80020e8 <sensor_config_process_command+0x6a8>)
 8001f96:	f000 fb01 	bl	800259c <uart_terminal_send>
 8001f9a:	2146      	movs	r1, #70	; 0x46
 8001f9c:	4853      	ldr	r0, [pc, #332]	; (80020ec <sensor_config_process_command+0x6ac>)
 8001f9e:	f000 fafd 	bl	800259c <uart_terminal_send>
 8001fa2:	2143      	movs	r1, #67	; 0x43
 8001fa4:	4852      	ldr	r0, [pc, #328]	; (80020f0 <sensor_config_process_command+0x6b0>)
 8001fa6:	f000 faf9 	bl	800259c <uart_terminal_send>
 8001faa:	2140      	movs	r1, #64	; 0x40
 8001fac:	4851      	ldr	r0, [pc, #324]	; (80020f4 <sensor_config_process_command+0x6b4>)
 8001fae:	f000 faf5 	bl	800259c <uart_terminal_send>
 8001fb2:	2144      	movs	r1, #68	; 0x44
 8001fb4:	4850      	ldr	r0, [pc, #320]	; (80020f8 <sensor_config_process_command+0x6b8>)
 8001fb6:	f000 faf1 	bl	800259c <uart_terminal_send>
 8001fba:	2143      	movs	r1, #67	; 0x43
 8001fbc:	484f      	ldr	r0, [pc, #316]	; (80020fc <sensor_config_process_command+0x6bc>)
 8001fbe:	f000 faed 	bl	800259c <uart_terminal_send>
 8001fc2:	2145      	movs	r1, #69	; 0x45
 8001fc4:	484e      	ldr	r0, [pc, #312]	; (8002100 <sensor_config_process_command+0x6c0>)
 8001fc6:	f000 fae9 	bl	800259c <uart_terminal_send>
 8001fca:	2143      	movs	r1, #67	; 0x43
 8001fcc:	484d      	ldr	r0, [pc, #308]	; (8002104 <sensor_config_process_command+0x6c4>)
 8001fce:	f000 fae5 	bl	800259c <uart_terminal_send>
 8001fd2:	2145      	movs	r1, #69	; 0x45
 8001fd4:	484c      	ldr	r0, [pc, #304]	; (8002108 <sensor_config_process_command+0x6c8>)
 8001fd6:	f000 fae1 	bl	800259c <uart_terminal_send>
 8001fda:	2146      	movs	r1, #70	; 0x46
 8001fdc:	484b      	ldr	r0, [pc, #300]	; (800210c <sensor_config_process_command+0x6cc>)
 8001fde:	f000 fadd 	bl	800259c <uart_terminal_send>
 8001fe2:	2102      	movs	r1, #2
 8001fe4:	484a      	ldr	r0, [pc, #296]	; (8002110 <sensor_config_process_command+0x6d0>)
 8001fe6:	f000 fad9 	bl	800259c <uart_terminal_send>
 8001fea:	2138      	movs	r1, #56	; 0x38
 8001fec:	4849      	ldr	r0, [pc, #292]	; (8002114 <sensor_config_process_command+0x6d4>)
 8001fee:	f000 fad5 	bl	800259c <uart_terminal_send>
 8001ff2:	2132      	movs	r1, #50	; 0x32
 8001ff4:	4848      	ldr	r0, [pc, #288]	; (8002118 <sensor_config_process_command+0x6d8>)
 8001ff6:	f000 fad1 	bl	800259c <uart_terminal_send>
 8001ffa:	2135      	movs	r1, #53	; 0x35
 8001ffc:	4847      	ldr	r0, [pc, #284]	; (800211c <sensor_config_process_command+0x6dc>)
 8001ffe:	f000 facd 	bl	800259c <uart_terminal_send>
 8002002:	2133      	movs	r1, #51	; 0x33
 8002004:	4846      	ldr	r0, [pc, #280]	; (8002120 <sensor_config_process_command+0x6e0>)
 8002006:	f000 fac9 	bl	800259c <uart_terminal_send>
 800200a:	2133      	movs	r1, #51	; 0x33
 800200c:	4845      	ldr	r0, [pc, #276]	; (8002124 <sensor_config_process_command+0x6e4>)
 800200e:	f000 fac5 	bl	800259c <uart_terminal_send>
 8002012:	2131      	movs	r1, #49	; 0x31
 8002014:	4844      	ldr	r0, [pc, #272]	; (8002128 <sensor_config_process_command+0x6e8>)
 8002016:	f000 fac1 	bl	800259c <uart_terminal_send>
 800201a:	e537      	b.n	8001a8c <sensor_config_process_command+0x4c>
 800201c:	2204      	movs	r2, #4
 800201e:	4943      	ldr	r1, [pc, #268]	; (800212c <sensor_config_process_command+0x6ec>)
 8002020:	a806      	add	r0, sp, #24
 8002022:	f005 fea2 	bl	8007d6a <strncmp>
 8002026:	4605      	mov	r5, r0
 8002028:	2800      	cmp	r0, #0
 800202a:	f47f af31 	bne.w	8001e90 <sensor_config_process_command+0x450>
 800202e:	f89d e01c 	ldrb.w	lr, [sp, #28]
 8002032:	f1ae 0e30 	sub.w	lr, lr, #48	; 0x30
 8002036:	f1be 0f04 	cmp.w	lr, #4
 800203a:	f63f af29 	bhi.w	8001e90 <sensor_config_process_command+0x450>
 800203e:	4621      	mov	r1, r4
 8002040:	460a      	mov	r2, r1
 8002042:	f811 3b01 	ldrb.w	r3, [r1], #1
 8002046:	2b20      	cmp	r3, #32
 8002048:	d0fa      	beq.n	8002040 <sensor_config_process_command+0x600>
 800204a:	2b09      	cmp	r3, #9
 800204c:	d0f8      	beq.n	8002040 <sensor_config_process_command+0x600>
 800204e:	2b2d      	cmp	r3, #45	; 0x2d
 8002050:	f000 810d 	beq.w	800226e <sensor_config_process_command+0x82e>
 8002054:	2b2b      	cmp	r3, #43	; 0x2b
 8002056:	f000 80fb 	beq.w	8002250 <sensor_config_process_command+0x810>
 800205a:	2b00      	cmp	r3, #0
 800205c:	f000 80fd 	beq.w	800225a <sensor_config_process_command+0x81a>
 8002060:	f04f 0800 	mov.w	r8, #0
 8002064:	2700      	movs	r7, #0
 8002066:	4638      	mov	r0, r7
 8002068:	46bc      	mov	ip, r7
 800206a:	e011      	b.n	8002090 <sensor_config_process_command+0x650>
 800206c:	eb07 0387 	add.w	r3, r7, r7, lsl #2
 8002070:	f1bc 0f00 	cmp.w	ip, #0
 8002074:	f000 809c 	beq.w	80021b0 <sensor_config_process_command+0x770>
 8002078:	2801      	cmp	r0, #1
 800207a:	eb05 0385 	add.w	r3, r5, r5, lsl #2
 800207e:	dc02      	bgt.n	8002086 <sensor_config_process_command+0x646>
 8002080:	eb01 0543 	add.w	r5, r1, r3, lsl #1
 8002084:	3001      	adds	r0, #1
 8002086:	f812 3f01 	ldrb.w	r3, [r2, #1]!
 800208a:	2b00      	cmp	r3, #0
 800208c:	f43f aeed 	beq.w	8001e6a <sensor_config_process_command+0x42a>
 8002090:	f1a3 0130 	sub.w	r1, r3, #48	; 0x30
 8002094:	b2ce      	uxtb	r6, r1
 8002096:	2e09      	cmp	r6, #9
 8002098:	d9e8      	bls.n	800206c <sensor_config_process_command+0x62c>
 800209a:	2b2e      	cmp	r3, #46	; 0x2e
 800209c:	f47f aef8 	bne.w	8001e90 <sensor_config_process_command+0x450>
 80020a0:	f1bc 0f00 	cmp.w	ip, #0
 80020a4:	f47f aef4 	bne.w	8001e90 <sensor_config_process_command+0x450>
 80020a8:	f04f 0c01 	mov.w	ip, #1
 80020ac:	e7eb      	b.n	8002086 <sensor_config_process_command+0x646>
 80020ae:	bf00      	nop
 80020b0:	706c6568 	.word	0x706c6568
 80020b4:	08008de4 	.word	0x08008de4
 80020b8:	08008dec 	.word	0x08008dec
 80020bc:	08008df8 	.word	0x08008df8
 80020c0:	08008e04 	.word	0x08008e04
 80020c4:	08008e0c 	.word	0x08008e0c
 80020c8:	08008e18 	.word	0x08008e18
 80020cc:	2000121c 	.word	0x2000121c
 80020d0:	200011fc 	.word	0x200011fc
 80020d4:	080085bc 	.word	0x080085bc
 80020d8:	08008e24 	.word	0x08008e24
 80020dc:	080085f8 	.word	0x080085f8
 80020e0:	41200000 	.word	0x41200000
 80020e4:	08008e40 	.word	0x08008e40
 80020e8:	08008e74 	.word	0x08008e74
 80020ec:	08008eb4 	.word	0x08008eb4
 80020f0:	08008efc 	.word	0x08008efc
 80020f4:	08008f40 	.word	0x08008f40
 80020f8:	08008f84 	.word	0x08008f84
 80020fc:	08008fcc 	.word	0x08008fcc
 8002100:	08009010 	.word	0x08009010
 8002104:	08009058 	.word	0x08009058
 8002108:	0800909c 	.word	0x0800909c
 800210c:	080090e4 	.word	0x080090e4
 8002110:	08008a50 	.word	0x08008a50
 8002114:	0800912c 	.word	0x0800912c
 8002118:	08009168 	.word	0x08009168
 800211c:	0800919c 	.word	0x0800919c
 8002120:	080091d4 	.word	0x080091d4
 8002124:	08009208 	.word	0x08009208
 8002128:	0800923c 	.word	0x0800923c
 800212c:	08008ddc 	.word	0x08008ddc
 8002130:	4620      	mov	r0, r4
 8002132:	a902      	add	r1, sp, #8
 8002134:	f7ff faca 	bl	80016cc <parse_uint16>
 8002138:	2800      	cmp	r0, #0
 800213a:	f43f aeb0 	beq.w	8001e9e <sensor_config_process_command+0x45e>
 800213e:	f8bd 3008 	ldrh.w	r3, [sp, #8]
 8002142:	4a5c      	ldr	r2, [pc, #368]	; (80022b4 <sensor_config_process_command+0x874>)
 8002144:	4c5c      	ldr	r4, [pc, #368]	; (80022b8 <sensor_config_process_command+0x878>)
 8002146:	2104      	movs	r1, #4
 8002148:	485c      	ldr	r0, [pc, #368]	; (80022bc <sensor_config_process_command+0x87c>)
 800214a:	8163      	strh	r3, [r4, #10]
 800214c:	8353      	strh	r3, [r2, #26]
 800214e:	8213      	strh	r3, [r2, #16]
 8002150:	8253      	strh	r3, [r2, #18]
 8002152:	8293      	strh	r3, [r2, #20]
 8002154:	82d3      	strh	r3, [r2, #22]
 8002156:	8313      	strh	r3, [r2, #24]
 8002158:	f000 fa20 	bl	800259c <uart_terminal_send>
 800215c:	e496      	b.n	8001a8c <sensor_config_process_command+0x4c>
 800215e:	4620      	mov	r0, r4
 8002160:	a902      	add	r1, sp, #8
 8002162:	f7ff fab3 	bl	80016cc <parse_uint16>
 8002166:	2800      	cmp	r0, #0
 8002168:	f43f aea0 	beq.w	8001eac <sensor_config_process_command+0x46c>
 800216c:	f8bd 3008 	ldrh.w	r3, [sp, #8]
 8002170:	4c50      	ldr	r4, [pc, #320]	; (80022b4 <sensor_config_process_command+0x874>)
 8002172:	4a51      	ldr	r2, [pc, #324]	; (80022b8 <sensor_config_process_command+0x878>)
 8002174:	2104      	movs	r1, #4
 8002176:	4851      	ldr	r0, [pc, #324]	; (80022bc <sensor_config_process_command+0x87c>)
 8002178:	83a3      	strh	r3, [r4, #28]
 800217a:	8193      	strh	r3, [r2, #12]
 800217c:	f000 fa0e 	bl	800259c <uart_terminal_send>
 8002180:	e484      	b.n	8001a8c <sensor_config_process_command+0x4c>
 8002182:	2118      	movs	r1, #24
 8002184:	484e      	ldr	r0, [pc, #312]	; (80022c0 <sensor_config_process_command+0x880>)
 8002186:	f000 fa09 	bl	800259c <uart_terminal_send>
 800218a:	e47f      	b.n	8001a8c <sensor_config_process_command+0x4c>
 800218c:	4620      	mov	r0, r4
 800218e:	a902      	add	r1, sp, #8
 8002190:	f7ff fa9c 	bl	80016cc <parse_uint16>
 8002194:	2800      	cmp	r0, #0
 8002196:	f43f ae90 	beq.w	8001eba <sensor_config_process_command+0x47a>
 800219a:	f8bd 3008 	ldrh.w	r3, [sp, #8]
 800219e:	4c45      	ldr	r4, [pc, #276]	; (80022b4 <sensor_config_process_command+0x874>)
 80021a0:	4a45      	ldr	r2, [pc, #276]	; (80022b8 <sensor_config_process_command+0x878>)
 80021a2:	2104      	movs	r1, #4
 80021a4:	4845      	ldr	r0, [pc, #276]	; (80022bc <sensor_config_process_command+0x87c>)
 80021a6:	83e3      	strh	r3, [r4, #30]
 80021a8:	81d3      	strh	r3, [r2, #14]
 80021aa:	f000 f9f7 	bl	800259c <uart_terminal_send>
 80021ae:	e46d      	b.n	8001a8c <sensor_config_process_command+0x4c>
 80021b0:	eb01 0743 	add.w	r7, r1, r3, lsl #1
 80021b4:	e767      	b.n	8002086 <sensor_config_process_command+0x646>
 80021b6:	2204      	movs	r2, #4
 80021b8:	4942      	ldr	r1, [pc, #264]	; (80022c4 <sensor_config_process_command+0x884>)
 80021ba:	a806      	add	r0, sp, #24
 80021bc:	f005 fdd5 	bl	8007d6a <strncmp>
 80021c0:	2800      	cmp	r0, #0
 80021c2:	f47f ae22 	bne.w	8001e0a <sensor_config_process_command+0x3ca>
 80021c6:	f89d 501c 	ldrb.w	r5, [sp, #28]
 80021ca:	3d30      	subs	r5, #48	; 0x30
 80021cc:	2d04      	cmp	r5, #4
 80021ce:	f63f ae1c 	bhi.w	8001e0a <sensor_config_process_command+0x3ca>
 80021d2:	2064      	movs	r0, #100	; 0x64
 80021d4:	4a37      	ldr	r2, [pc, #220]	; (80022b4 <sensor_config_process_command+0x874>)
 80021d6:	4b3c      	ldr	r3, [pc, #240]	; (80022c8 <sensor_config_process_command+0x888>)
 80021d8:	eb02 0245 	add.w	r2, r2, r5, lsl #1
 80021dc:	88d1      	ldrh	r1, [r2, #6]
 80021de:	ac02      	add	r4, sp, #8
 80021e0:	fba3 2301 	umull	r2, r3, r3, r1
 80021e4:	095a      	lsrs	r2, r3, #5
 80021e6:	fb00 1212 	mls	r2, r0, r2, r1
 80021ea:	b292      	uxth	r2, r2
 80021ec:	095b      	lsrs	r3, r3, #5
 80021ee:	2a00      	cmp	r2, #0
 80021f0:	d05a      	beq.n	80022a8 <sensor_config_process_command+0x868>
 80021f2:	2a09      	cmp	r2, #9
 80021f4:	9200      	str	r2, [sp, #0]
 80021f6:	4620      	mov	r0, r4
 80021f8:	f04f 0110 	mov.w	r1, #16
 80021fc:	bf94      	ite	ls
 80021fe:	4a33      	ldrls	r2, [pc, #204]	; (80022cc <sensor_config_process_command+0x88c>)
 8002200:	4a33      	ldrhi	r2, [pc, #204]	; (80022d0 <sensor_config_process_command+0x890>)
 8002202:	f005 fd71 	bl	8007ce8 <sniprintf>
 8002206:	462b      	mov	r3, r5
 8002208:	2140      	movs	r1, #64	; 0x40
 800220a:	4a32      	ldr	r2, [pc, #200]	; (80022d4 <sensor_config_process_command+0x894>)
 800220c:	9400      	str	r4, [sp, #0]
 800220e:	a816      	add	r0, sp, #88	; 0x58
 8002210:	f005 fd6a 	bl	8007ce8 <sniprintf>
 8002214:	4601      	mov	r1, r0
 8002216:	a816      	add	r0, sp, #88	; 0x58
 8002218:	b289      	uxth	r1, r1
 800221a:	f000 f9bf 	bl	800259c <uart_terminal_send>
 800221e:	e435      	b.n	8001a8c <sensor_config_process_command+0x4c>
 8002220:	4b24      	ldr	r3, [pc, #144]	; (80022b4 <sensor_config_process_command+0x874>)
 8002222:	482d      	ldr	r0, [pc, #180]	; (80022d8 <sensor_config_process_command+0x898>)
 8002224:	8b59      	ldrh	r1, [r3, #26]
 8002226:	f7ff fbf7 	bl	8001a18 <sensor_config_send_uint16>
 800222a:	e42f      	b.n	8001a8c <sensor_config_process_command+0x4c>
 800222c:	4b21      	ldr	r3, [pc, #132]	; (80022b4 <sensor_config_process_command+0x874>)
 800222e:	482b      	ldr	r0, [pc, #172]	; (80022dc <sensor_config_process_command+0x89c>)
 8002230:	8b99      	ldrh	r1, [r3, #28]
 8002232:	f7ff fbf1 	bl	8001a18 <sensor_config_send_uint16>
 8002236:	e429      	b.n	8001a8c <sensor_config_process_command+0x4c>
 8002238:	4b1e      	ldr	r3, [pc, #120]	; (80022b4 <sensor_config_process_command+0x874>)
 800223a:	4829      	ldr	r0, [pc, #164]	; (80022e0 <sensor_config_process_command+0x8a0>)
 800223c:	8c19      	ldrh	r1, [r3, #32]
 800223e:	f7ff fbeb 	bl	8001a18 <sensor_config_send_uint16>
 8002242:	e423      	b.n	8001a8c <sensor_config_process_command+0x4c>
 8002244:	4b1b      	ldr	r3, [pc, #108]	; (80022b4 <sensor_config_process_command+0x874>)
 8002246:	4827      	ldr	r0, [pc, #156]	; (80022e4 <sensor_config_process_command+0x8a4>)
 8002248:	8bd9      	ldrh	r1, [r3, #30]
 800224a:	f7ff fbe5 	bl	8001a18 <sensor_config_send_uint16>
 800224e:	e41d      	b.n	8001a8c <sensor_config_process_command+0x4c>
 8002250:	7853      	ldrb	r3, [r2, #1]
 8002252:	3201      	adds	r2, #1
 8002254:	2b00      	cmp	r3, #0
 8002256:	f47f af03 	bne.w	8002060 <sensor_config_process_command+0x620>
 800225a:	4b16      	ldr	r3, [pc, #88]	; (80022b4 <sensor_config_process_command+0x874>)
 800225c:	2104      	movs	r1, #4
 800225e:	eb03 0e4e 	add.w	lr, r3, lr, lsl #1
 8002262:	4816      	ldr	r0, [pc, #88]	; (80022bc <sensor_config_process_command+0x87c>)
 8002264:	f8ae 5006 	strh.w	r5, [lr, #6]
 8002268:	f000 f998 	bl	800259c <uart_terminal_send>
 800226c:	e40e      	b.n	8001a8c <sensor_config_process_command+0x4c>
 800226e:	7853      	ldrb	r3, [r2, #1]
 8002270:	f04f 0801 	mov.w	r8, #1
 8002274:	460a      	mov	r2, r1
 8002276:	2b00      	cmp	r3, #0
 8002278:	f47f aef4 	bne.w	8002064 <sensor_config_process_command+0x624>
 800227c:	e603      	b.n	8001e86 <sensor_config_process_command+0x446>
 800227e:	4b0d      	ldr	r3, [pc, #52]	; (80022b4 <sensor_config_process_command+0x874>)
 8002280:	4819      	ldr	r0, [pc, #100]	; (80022e8 <sensor_config_process_command+0x8a8>)
 8002282:	f8d3 1022 	ldr.w	r1, [r3, #34]	; 0x22
 8002286:	f7ff fb6d 	bl	8001964 <sensor_config_send_float>
 800228a:	f7ff bbff 	b.w	8001a8c <sensor_config_process_command+0x4c>
 800228e:	4909      	ldr	r1, [pc, #36]	; (80022b4 <sensor_config_process_command+0x874>)
 8002290:	3a28      	subs	r2, #40	; 0x28
 8002292:	f831 2012 	ldrh.w	r2, [r1, r2, lsl #1]
 8002296:	a816      	add	r0, sp, #88	; 0x58
 8002298:	9200      	str	r2, [sp, #0]
 800229a:	2120      	movs	r1, #32
 800229c:	4a13      	ldr	r2, [pc, #76]	; (80022ec <sensor_config_process_command+0x8ac>)
 800229e:	e7b7      	b.n	8002210 <sensor_config_process_command+0x7d0>
 80022a0:	200a      	movs	r0, #10
 80022a2:	fb00 f005 	mul.w	r0, r0, r5
 80022a6:	e5e8      	b.n	8001e7a <sensor_config_process_command+0x43a>
 80022a8:	4620      	mov	r0, r4
 80022aa:	2110      	movs	r1, #16
 80022ac:	4a10      	ldr	r2, [pc, #64]	; (80022f0 <sensor_config_process_command+0x8b0>)
 80022ae:	f005 fd1b 	bl	8007ce8 <sniprintf>
 80022b2:	e7a8      	b.n	8002206 <sensor_config_process_command+0x7c6>
 80022b4:	2000121c 	.word	0x2000121c
 80022b8:	200011fc 	.word	0x200011fc
 80022bc:	080085bc 	.word	0x080085bc
 80022c0:	08009298 	.word	0x08009298
 80022c4:	08008ddc 	.word	0x08008ddc
 80022c8:	51eb851f 	.word	0x51eb851f
 80022cc:	08009270 	.word	0x08009270
 80022d0:	08009278 	.word	0x08009278
 80022d4:	08009280 	.word	0x08009280
 80022d8:	08008de4 	.word	0x08008de4
 80022dc:	08008dec 	.word	0x08008dec
 80022e0:	08008e04 	.word	0x08008e04
 80022e4:	08008df8 	.word	0x08008df8
 80022e8:	08008e0c 	.word	0x08008e0c
 80022ec:	0800928c 	.word	0x0800928c
 80022f0:	08009274 	.word	0x08009274

080022f4 <sensor_config_load_failed>:
 80022f4:	4b01      	ldr	r3, [pc, #4]	; (80022fc <sensor_config_load_failed+0x8>)
 80022f6:	7818      	ldrb	r0, [r3, #0]
 80022f8:	4770      	bx	lr
 80022fa:	bf00      	nop
 80022fc:	20001218 	.word	0x20001218

08002300 <HAL_MspInit>:
 8002300:	4b0e      	ldr	r3, [pc, #56]	; (800233c <HAL_MspInit+0x3c>)
 8002302:	b082      	sub	sp, #8
 8002304:	699a      	ldr	r2, [r3, #24]
 8002306:	490e      	ldr	r1, [pc, #56]	; (8002340 <HAL_MspInit+0x40>)
 8002308:	f042 0201 	orr.w	r2, r2, #1
 800230c:	619a      	str	r2, [r3, #24]
 800230e:	699a      	ldr	r2, [r3, #24]
 8002310:	f002 0201 	and.w	r2, r2, #1
 8002314:	9200      	str	r2, [sp, #0]
 8002316:	9a00      	ldr	r2, [sp, #0]
 8002318:	69da      	ldr	r2, [r3, #28]
 800231a:	f042 5280 	orr.w	r2, r2, #268435456	; 0x10000000
 800231e:	61da      	str	r2, [r3, #28]
 8002320:	69db      	ldr	r3, [r3, #28]
 8002322:	f003 5380 	and.w	r3, r3, #268435456	; 0x10000000
 8002326:	9301      	str	r3, [sp, #4]
 8002328:	9b01      	ldr	r3, [sp, #4]
 800232a:	684b      	ldr	r3, [r1, #4]
 800232c:	f023 63e0 	bic.w	r3, r3, #117440512	; 0x7000000
 8002330:	f043 7300 	orr.w	r3, r3, #33554432	; 0x2000000
 8002334:	604b      	str	r3, [r1, #4]
 8002336:	b002      	add	sp, #8
 8002338:	4770      	bx	lr
 800233a:	bf00      	nop
 800233c:	40021000 	.word	0x40021000
 8002340:	40010000 	.word	0x40010000

08002344 <HAL_ADC_MspInit>:
 8002344:	b5f0      	push	{r4, r5, r6, r7, lr}
 8002346:	2400      	movs	r4, #0
 8002348:	6802      	ldr	r2, [r0, #0]
 800234a:	4b22      	ldr	r3, [pc, #136]	; (80023d4 <HAL_ADC_MspInit+0x90>)
 800234c:	b087      	sub	sp, #28
 800234e:	429a      	cmp	r2, r3
 8002350:	e9cd 4402 	strd	r4, r4, [sp, #8]
 8002354:	e9cd 4404 	strd	r4, r4, [sp, #16]
 8002358:	d001      	beq.n	800235e <HAL_ADC_MspInit+0x1a>
 800235a:	b007      	add	sp, #28
 800235c:	bdf0      	pop	{r4, r5, r6, r7, pc}
 800235e:	4605      	mov	r5, r0
 8002360:	201f      	movs	r0, #31
 8002362:	2603      	movs	r6, #3
 8002364:	f503 436c 	add.w	r3, r3, #60416	; 0xec00
 8002368:	699a      	ldr	r2, [r3, #24]
 800236a:	a902      	add	r1, sp, #8
 800236c:	f442 7200 	orr.w	r2, r2, #512	; 0x200
 8002370:	619a      	str	r2, [r3, #24]
 8002372:	699a      	ldr	r2, [r3, #24]
 8002374:	f44f 7780 	mov.w	r7, #256	; 0x100
 8002378:	f402 7200 	and.w	r2, r2, #512	; 0x200
 800237c:	9200      	str	r2, [sp, #0]
 800237e:	9a00      	ldr	r2, [sp, #0]
 8002380:	699a      	ldr	r2, [r3, #24]
 8002382:	f042 0204 	orr.w	r2, r2, #4
 8002386:	619a      	str	r2, [r3, #24]
 8002388:	699b      	ldr	r3, [r3, #24]
 800238a:	9002      	str	r0, [sp, #8]
 800238c:	f003 0304 	and.w	r3, r3, #4
 8002390:	4811      	ldr	r0, [pc, #68]	; (80023d8 <HAL_ADC_MspInit+0x94>)
 8002392:	9301      	str	r3, [sp, #4]
 8002394:	9b01      	ldr	r3, [sp, #4]
 8002396:	9603      	str	r6, [sp, #12]
 8002398:	f001 fbe0 	bl	8003b5c <HAL_GPIO_Init>
 800239c:	2080      	movs	r0, #128	; 0x80
 800239e:	f44f 6180 	mov.w	r1, #1024	; 0x400
 80023a2:	2220      	movs	r2, #32
 80023a4:	f44f 5300 	mov.w	r3, #8192	; 0x2000
 80023a8:	4e0c      	ldr	r6, [pc, #48]	; (80023dc <HAL_ADC_MspInit+0x98>)
 80023aa:	60f0      	str	r0, [r6, #12]
 80023ac:	480c      	ldr	r0, [pc, #48]	; (80023e0 <HAL_ADC_MspInit+0x9c>)
 80023ae:	e9c6 4401 	strd	r4, r4, [r6, #4]
 80023b2:	6030      	str	r0, [r6, #0]
 80023b4:	4630      	mov	r0, r6
 80023b6:	e9c6 1205 	strd	r1, r2, [r6, #20]
 80023ba:	6137      	str	r7, [r6, #16]
 80023bc:	61f3      	str	r3, [r6, #28]
 80023be:	f001 f925 	bl	800360c <HAL_DMA_Init>
 80023c2:	b918      	cbnz	r0, 80023cc <HAL_ADC_MspInit+0x88>
 80023c4:	622e      	str	r6, [r5, #32]
 80023c6:	6275      	str	r5, [r6, #36]	; 0x24
 80023c8:	b007      	add	sp, #28
 80023ca:	bdf0      	pop	{r4, r5, r6, r7, pc}
 80023cc:	f7fe fc2e 	bl	8000c2c <Error_Handler>
 80023d0:	e7f8      	b.n	80023c4 <HAL_ADC_MspInit+0x80>
 80023d2:	bf00      	nop
 80023d4:	40012400 	.word	0x40012400
 80023d8:	40010800 	.word	0x40010800
 80023dc:	200020f8 	.word	0x200020f8
 80023e0:	40020008 	.word	0x40020008

080023e4 <HAL_TIM_Base_MspInit>:
 80023e4:	4a10      	ldr	r2, [pc, #64]	; (8002428 <HAL_TIM_Base_MspInit+0x44>)
 80023e6:	6803      	ldr	r3, [r0, #0]
 80023e8:	b082      	sub	sp, #8
 80023ea:	4293      	cmp	r3, r2
 80023ec:	d010      	beq.n	8002410 <HAL_TIM_Base_MspInit+0x2c>
 80023ee:	4a0f      	ldr	r2, [pc, #60]	; (800242c <HAL_TIM_Base_MspInit+0x48>)
 80023f0:	4293      	cmp	r3, r2
 80023f2:	d001      	beq.n	80023f8 <HAL_TIM_Base_MspInit+0x14>
 80023f4:	b002      	add	sp, #8
 80023f6:	4770      	bx	lr
 80023f8:	4b0d      	ldr	r3, [pc, #52]	; (8002430 <HAL_TIM_Base_MspInit+0x4c>)
 80023fa:	69da      	ldr	r2, [r3, #28]
 80023fc:	f042 0202 	orr.w	r2, r2, #2
 8002400:	61da      	str	r2, [r3, #28]
 8002402:	69db      	ldr	r3, [r3, #28]
 8002404:	f003 0302 	and.w	r3, r3, #2
 8002408:	9301      	str	r3, [sp, #4]
 800240a:	9b01      	ldr	r3, [sp, #4]
 800240c:	b002      	add	sp, #8
 800240e:	4770      	bx	lr
 8002410:	4b07      	ldr	r3, [pc, #28]	; (8002430 <HAL_TIM_Base_MspInit+0x4c>)
 8002412:	699a      	ldr	r2, [r3, #24]
 8002414:	f442 6200 	orr.w	r2, r2, #2048	; 0x800
 8002418:	619a      	str	r2, [r3, #24]
 800241a:	699b      	ldr	r3, [r3, #24]
 800241c:	f403 6300 	and.w	r3, r3, #2048	; 0x800
 8002420:	9300      	str	r3, [sp, #0]
 8002422:	9b00      	ldr	r3, [sp, #0]
 8002424:	b002      	add	sp, #8
 8002426:	4770      	bx	lr
 8002428:	40012c00 	.word	0x40012c00
 800242c:	40000400 	.word	0x40000400
 8002430:	40021000 	.word	0x40021000

08002434 <HAL_UART_MspInit>:
 8002434:	b570      	push	{r4, r5, r6, lr}
 8002436:	2400      	movs	r4, #0
 8002438:	6802      	ldr	r2, [r0, #0]
 800243a:	4b29      	ldr	r3, [pc, #164]	; (80024e0 <HAL_UART_MspInit+0xac>)
 800243c:	b086      	sub	sp, #24
 800243e:	429a      	cmp	r2, r3
 8002440:	e9cd 4402 	strd	r4, r4, [sp, #8]
 8002444:	e9cd 4404 	strd	r4, r4, [sp, #16]
 8002448:	d001      	beq.n	800244e <HAL_UART_MspInit+0x1a>
 800244a:	b006      	add	sp, #24
 800244c:	bd70      	pop	{r4, r5, r6, pc}
 800244e:	f44f 6180 	mov.w	r1, #1024	; 0x400
 8002452:	4605      	mov	r5, r0
 8002454:	2002      	movs	r0, #2
 8002456:	2603      	movs	r6, #3
 8002458:	f503 33e4 	add.w	r3, r3, #116736	; 0x1c800
 800245c:	69da      	ldr	r2, [r3, #28]
 800245e:	f442 2280 	orr.w	r2, r2, #262144	; 0x40000
 8002462:	61da      	str	r2, [r3, #28]
 8002464:	69da      	ldr	r2, [r3, #28]
 8002466:	f402 2280 	and.w	r2, r2, #262144	; 0x40000
 800246a:	9200      	str	r2, [sp, #0]
 800246c:	9a00      	ldr	r2, [sp, #0]
 800246e:	699a      	ldr	r2, [r3, #24]
 8002470:	f042 0208 	orr.w	r2, r2, #8
 8002474:	619a      	str	r2, [r3, #24]
 8002476:	699b      	ldr	r3, [r3, #24]
 8002478:	9102      	str	r1, [sp, #8]
 800247a:	f003 0308 	and.w	r3, r3, #8
 800247e:	9301      	str	r3, [sp, #4]
 8002480:	a902      	add	r1, sp, #8
 8002482:	9003      	str	r0, [sp, #12]
 8002484:	4817      	ldr	r0, [pc, #92]	; (80024e4 <HAL_UART_MspInit+0xb0>)
 8002486:	9b01      	ldr	r3, [sp, #4]
 8002488:	9605      	str	r6, [sp, #20]
 800248a:	f001 fb67 	bl	8003b5c <HAL_GPIO_Init>
 800248e:	f44f 6300 	mov.w	r3, #2048	; 0x800
 8002492:	4814      	ldr	r0, [pc, #80]	; (80024e4 <HAL_UART_MspInit+0xb0>)
 8002494:	a902      	add	r1, sp, #8
 8002496:	9302      	str	r3, [sp, #8]
 8002498:	e9cd 4403 	strd	r4, r4, [sp, #12]
 800249c:	f001 fb5e 	bl	8003b5c <HAL_GPIO_Init>
 80024a0:	2180      	movs	r1, #128	; 0x80
 80024a2:	f44f 5380 	mov.w	r3, #4096	; 0x1000
 80024a6:	4e10      	ldr	r6, [pc, #64]	; (80024e8 <HAL_UART_MspInit+0xb4>)
 80024a8:	4a10      	ldr	r2, [pc, #64]	; (80024ec <HAL_UART_MspInit+0xb8>)
 80024aa:	4630      	mov	r0, r6
 80024ac:	e9c6 4401 	strd	r4, r4, [r6, #4]
 80024b0:	e9c6 4404 	strd	r4, r4, [r6, #16]
 80024b4:	60f1      	str	r1, [r6, #12]
 80024b6:	61b4      	str	r4, [r6, #24]
 80024b8:	6032      	str	r2, [r6, #0]
 80024ba:	61f3      	str	r3, [r6, #28]
 80024bc:	f001 f8a6 	bl	800360c <HAL_DMA_Init>
 80024c0:	b958      	cbnz	r0, 80024da <HAL_UART_MspInit+0xa6>
 80024c2:	2200      	movs	r2, #0
 80024c4:	2104      	movs	r1, #4
 80024c6:	2027      	movs	r0, #39	; 0x27
 80024c8:	63ee      	str	r6, [r5, #60]	; 0x3c
 80024ca:	6275      	str	r5, [r6, #36]	; 0x24
 80024cc:	f001 f840 	bl	8003550 <HAL_NVIC_SetPriority>
 80024d0:	2027      	movs	r0, #39	; 0x27
 80024d2:	f001 f875 	bl	80035c0 <HAL_NVIC_EnableIRQ>
 80024d6:	b006      	add	sp, #24
 80024d8:	bd70      	pop	{r4, r5, r6, pc}
 80024da:	f7fe fba7 	bl	8000c2c <Error_Handler>
 80024de:	e7f0      	b.n	80024c2 <HAL_UART_MspInit+0x8e>
 80024e0:	40004800 	.word	0x40004800
 80024e4:	40010c00 	.word	0x40010c00
 80024e8:	20001ff4 	.word	0x20001ff4
 80024ec:	40020030 	.word	0x40020030

080024f0 <NMI_Handler>:
 80024f0:	e7fe      	b.n	80024f0 <NMI_Handler>
 80024f2:	bf00      	nop

080024f4 <HardFault_Handler>:
 80024f4:	e7fe      	b.n	80024f4 <HardFault_Handler>
 80024f6:	bf00      	nop

080024f8 <MemManage_Handler>:
 80024f8:	e7fe      	b.n	80024f8 <MemManage_Handler>
 80024fa:	bf00      	nop

080024fc <BusFault_Handler>:
 80024fc:	e7fe      	b.n	80024fc <BusFault_Handler>
 80024fe:	bf00      	nop

08002500 <UsageFault_Handler>:
 8002500:	e7fe      	b.n	8002500 <UsageFault_Handler>
 8002502:	bf00      	nop

08002504 <SVC_Handler>:
 8002504:	4770      	bx	lr
 8002506:	bf00      	nop

08002508 <DebugMon_Handler>:
 8002508:	4770      	bx	lr
 800250a:	bf00      	nop

0800250c <PendSV_Handler>:
 800250c:	4770      	bx	lr
 800250e:	bf00      	nop

08002510 <SysTick_Handler>:
 8002510:	f000 bd88 	b.w	8003024 <HAL_IncTick>

08002514 <DMA1_Channel1_IRQHandler>:
 8002514:	4801      	ldr	r0, [pc, #4]	; (800251c <DMA1_Channel1_IRQHandler+0x8>)
 8002516:	f001 b965 	b.w	80037e4 <HAL_DMA_IRQHandler>
 800251a:	bf00      	nop
 800251c:	200020f8 	.word	0x200020f8

08002520 <DMA1_Channel3_IRQHandler>:
 8002520:	4801      	ldr	r0, [pc, #4]	; (8002528 <DMA1_Channel3_IRQHandler+0x8>)
 8002522:	f001 b95f 	b.w	80037e4 <HAL_DMA_IRQHandler>
 8002526:	bf00      	nop
 8002528:	20001ff4 	.word	0x20001ff4

0800252c <USB_LP_CAN1_RX0_IRQHandler>:
 800252c:	4801      	ldr	r0, [pc, #4]	; (8002534 <USB_LP_CAN1_RX0_IRQHandler+0x8>)
 800252e:	f001 bcad 	b.w	8003e8c <HAL_PCD_IRQHandler>
 8002532:	bf00      	nop
 8002534:	20002a74 	.word	0x20002a74

08002538 <USART3_IRQHandler>:
 8002538:	4801      	ldr	r0, [pc, #4]	; (8002540 <USART3_IRQHandler+0x8>)
 800253a:	f003 ba41 	b.w	80059c0 <HAL_UART_IRQHandler>
 800253e:	bf00      	nop
 8002540:	20002038 	.word	0x20002038

08002544 <_sbrk>:
 8002544:	490d      	ldr	r1, [pc, #52]	; (800257c <_sbrk+0x38>)
 8002546:	4603      	mov	r3, r0
 8002548:	b510      	push	{r4, lr}
 800254a:	4a0d      	ldr	r2, [pc, #52]	; (8002580 <_sbrk+0x3c>)
 800254c:	4c0d      	ldr	r4, [pc, #52]	; (8002584 <_sbrk+0x40>)
 800254e:	6808      	ldr	r0, [r1, #0]
 8002550:	1b12      	subs	r2, r2, r4
 8002552:	b120      	cbz	r0, 800255e <_sbrk+0x1a>
 8002554:	4403      	add	r3, r0
 8002556:	4293      	cmp	r3, r2
 8002558:	d807      	bhi.n	800256a <_sbrk+0x26>
 800255a:	600b      	str	r3, [r1, #0]
 800255c:	bd10      	pop	{r4, pc}
 800255e:	4c0a      	ldr	r4, [pc, #40]	; (8002588 <_sbrk+0x44>)
 8002560:	4620      	mov	r0, r4
 8002562:	4403      	add	r3, r0
 8002564:	4293      	cmp	r3, r2
 8002566:	600c      	str	r4, [r1, #0]
 8002568:	d9f7      	bls.n	800255a <_sbrk+0x16>
 800256a:	f005 fb7d 	bl	8007c68 <__errno>
 800256e:	220c      	movs	r2, #12
 8002570:	4603      	mov	r3, r0
 8002572:	f04f 30ff 	mov.w	r0, #4294967295
 8002576:	601a      	str	r2, [r3, #0]
 8002578:	bd10      	pop	{r4, pc}
 800257a:	bf00      	nop
 800257c:	20001250 	.word	0x20001250
 8002580:	20005000 	.word	0x20005000
 8002584:	00000400 	.word	0x00000400
 8002588:	20002d60 	.word	0x20002d60

0800258c <SystemInit>:
 800258c:	4770      	bx	lr
 800258e:	bf00      	nop

08002590 <uart_terminal_get_input_mode>:
 8002590:	4b01      	ldr	r3, [pc, #4]	; (8002598 <uart_terminal_get_input_mode+0x8>)
 8002592:	f893 004a 	ldrb.w	r0, [r3, #74]	; 0x4a
 8002596:	4770      	bx	lr
 8002598:	20001254 	.word	0x20001254

0800259c <uart_terminal_send>:
 800259c:	b410      	push	{r4}
 800259e:	4a07      	ldr	r2, [pc, #28]	; (80025bc <uart_terminal_send+0x20>)
 80025a0:	f892 429c 	ldrb.w	r4, [r2, #668]	; 0x29c
 80025a4:	2c03      	cmp	r4, #3
 80025a6:	d006      	beq.n	80025b6 <uart_terminal_send+0x1a>
 80025a8:	460a      	mov	r2, r1
 80025aa:	2364      	movs	r3, #100	; 0x64
 80025ac:	4601      	mov	r1, r0
 80025ae:	bc10      	pop	{r4}
 80025b0:	4803      	ldr	r0, [pc, #12]	; (80025c0 <uart_terminal_send+0x24>)
 80025b2:	f003 b911 	b.w	80057d8 <HAL_UART_Transmit>
 80025b6:	bc10      	pop	{r4}
 80025b8:	f000 b8e6 	b.w	8002788 <usb_cdc_enqueue_tx>
 80025bc:	200027a8 	.word	0x200027a8
 80025c0:	20002038 	.word	0x20002038

080025c4 <uart_terminal_receive_byte>:
 80025c4:	b530      	push	{r4, r5, lr}
 80025c6:	4c1b      	ldr	r4, [pc, #108]	; (8002634 <uart_terminal_receive_byte+0x70>)
 80025c8:	4605      	mov	r5, r0
 80025ca:	f894 3048 	ldrb.w	r3, [r4, #72]	; 0x48
 80025ce:	b083      	sub	sp, #12
 80025d0:	b913      	cbnz	r3, 80025d8 <uart_terminal_receive_byte+0x14>
 80025d2:	2301      	movs	r3, #1
 80025d4:	f884 3048 	strb.w	r3, [r4, #72]	; 0x48
 80025d8:	f000 fd30 	bl	800303c <HAL_GetTick>
 80025dc:	2300      	movs	r3, #0
 80025de:	2d0a      	cmp	r5, #10
 80025e0:	6460      	str	r0, [r4, #68]	; 0x44
 80025e2:	f884 3049 	strb.w	r3, [r4, #73]	; 0x49
 80025e6:	d00b      	beq.n	8002600 <uart_terminal_receive_byte+0x3c>
 80025e8:	2d0d      	cmp	r5, #13
 80025ea:	d009      	beq.n	8002600 <uart_terminal_receive_byte+0x3c>
 80025ec:	f8b4 3040 	ldrh.w	r3, [r4, #64]	; 0x40
 80025f0:	2b3e      	cmp	r3, #62	; 0x3e
 80025f2:	d803      	bhi.n	80025fc <uart_terminal_receive_byte+0x38>
 80025f4:	1c5a      	adds	r2, r3, #1
 80025f6:	54e5      	strb	r5, [r4, r3]
 80025f8:	f8a4 2040 	strh.w	r2, [r4, #64]	; 0x40
 80025fc:	b003      	add	sp, #12
 80025fe:	bd30      	pop	{r4, r5, pc}
 8002600:	2300      	movs	r3, #0
 8002602:	f8b4 1040 	ldrh.w	r1, [r4, #64]	; 0x40
 8002606:	5463      	strb	r3, [r4, r1]
 8002608:	b979      	cbnz	r1, 800262a <uart_terminal_receive_byte+0x66>
 800260a:	2200      	movs	r2, #0
 800260c:	4b0a      	ldr	r3, [pc, #40]	; (8002638 <uart_terminal_receive_byte+0x74>)
 800260e:	2102      	movs	r1, #2
 8002610:	681b      	ldr	r3, [r3, #0]
 8002612:	a801      	add	r0, sp, #4
 8002614:	0c1d      	lsrs	r5, r3, #16
 8002616:	f8ad 3004 	strh.w	r3, [sp, #4]
 800261a:	f88d 5006 	strb.w	r5, [sp, #6]
 800261e:	f8a4 2040 	strh.w	r2, [r4, #64]	; 0x40
 8002622:	f7ff ffbb 	bl	800259c <uart_terminal_send>
 8002626:	b003      	add	sp, #12
 8002628:	bd30      	pop	{r4, r5, pc}
 800262a:	4802      	ldr	r0, [pc, #8]	; (8002634 <uart_terminal_receive_byte+0x70>)
 800262c:	f7ff fa08 	bl	8001a40 <sensor_config_process_command>
 8002630:	e7eb      	b.n	800260a <uart_terminal_receive_byte+0x46>
 8002632:	bf00      	nop
 8002634:	20001254 	.word	0x20001254
 8002638:	08008a50 	.word	0x08008a50

0800263c <uart_terminal_tick>:
 800263c:	b538      	push	{r3, r4, r5, lr}
 800263e:	4c0b      	ldr	r4, [pc, #44]	; (800266c <uart_terminal_tick+0x30>)
 8002640:	f8b4 1040 	ldrh.w	r1, [r4, #64]	; 0x40
 8002644:	b131      	cbz	r1, 8002654 <uart_terminal_tick+0x18>
 8002646:	f894 5049 	ldrb.w	r5, [r4, #73]	; 0x49
 800264a:	b91d      	cbnz	r5, 8002654 <uart_terminal_tick+0x18>
 800264c:	6c63      	ldr	r3, [r4, #68]	; 0x44
 800264e:	1ac3      	subs	r3, r0, r3
 8002650:	2b31      	cmp	r3, #49	; 0x31
 8002652:	d800      	bhi.n	8002656 <uart_terminal_tick+0x1a>
 8002654:	bd38      	pop	{r3, r4, r5, pc}
 8002656:	2301      	movs	r3, #1
 8002658:	4620      	mov	r0, r4
 800265a:	5465      	strb	r5, [r4, r1]
 800265c:	f884 3049 	strb.w	r3, [r4, #73]	; 0x49
 8002660:	f7ff f9ee 	bl	8001a40 <sensor_config_process_command>
 8002664:	f8a4 5040 	strh.w	r5, [r4, #64]	; 0x40
 8002668:	bd38      	pop	{r3, r4, r5, pc}
 800266a:	bf00      	nop
 800266c:	20001254 	.word	0x20001254

08002670 <uart_terminal_process_idle>:
 8002670:	b508      	push	{r3, lr}
 8002672:	f000 fce3 	bl	800303c <HAL_GetTick>
 8002676:	e8bd 4008 	ldmia.w	sp!, {r3, lr}
 800267a:	f7ff bfdf 	b.w	800263c <uart_terminal_tick>
 800267e:	bf00      	nop

08002680 <CDC_Itf_DeInit>:
 8002680:	2000      	movs	r0, #0
 8002682:	4770      	bx	lr

08002684 <CDC_Itf_Receive>:
 8002684:	b5f8      	push	{r3, r4, r5, r6, r7, lr}
 8002686:	4606      	mov	r6, r0
 8002688:	460c      	mov	r4, r1
 800268a:	f7ff ff81 	bl	8002590 <uart_terminal_get_input_mode>
 800268e:	2801      	cmp	r0, #1
 8002690:	d125      	bne.n	80026de <CDC_Itf_Receive+0x5a>
 8002692:	6820      	ldr	r0, [r4, #0]
 8002694:	b1d0      	cbz	r0, 80026cc <CDC_Itf_Receive+0x48>
 8002696:	1e75      	subs	r5, r6, #1
 8002698:	4a13      	ldr	r2, [pc, #76]	; (80026e8 <CDC_Itf_Receive+0x64>)
 800269a:	4428      	add	r0, r5
 800269c:	f8b2 3100 	ldrh.w	r3, [r2, #256]	; 0x100
 80026a0:	f8b2 4102 	ldrh.w	r4, [r2, #258]	; 0x102
 80026a4:	3301      	adds	r3, #1
 80026a6:	f003 03ff 	and.w	r3, r3, #255	; 0xff
 80026aa:	b2a4      	uxth	r4, r4
 80026ac:	42a3      	cmp	r3, r4
 80026ae:	f815 7f01 	ldrb.w	r7, [r5, #1]!
 80026b2:	d009      	beq.n	80026c8 <CDC_Itf_Receive+0x44>
 80026b4:	f8b2 1100 	ldrh.w	r1, [r2, #256]	; 0x100
 80026b8:	f8b2 3100 	ldrh.w	r3, [r2, #256]	; 0x100
 80026bc:	b289      	uxth	r1, r1
 80026be:	3301      	adds	r3, #1
 80026c0:	b2db      	uxtb	r3, r3
 80026c2:	5457      	strb	r7, [r2, r1]
 80026c4:	f8a2 3100 	strh.w	r3, [r2, #256]	; 0x100
 80026c8:	4285      	cmp	r5, r0
 80026ca:	d1e7      	bne.n	800269c <CDC_Itf_Receive+0x18>
 80026cc:	4631      	mov	r1, r6
 80026ce:	4807      	ldr	r0, [pc, #28]	; (80026ec <CDC_Itf_Receive+0x68>)
 80026d0:	f005 f94c 	bl	800796c <USBD_CDC_SetRxBuffer>
 80026d4:	4805      	ldr	r0, [pc, #20]	; (80026ec <CDC_Itf_Receive+0x68>)
 80026d6:	f005 f96b 	bl	80079b0 <USBD_CDC_ReceivePacket>
 80026da:	2000      	movs	r0, #0
 80026dc:	bdf8      	pop	{r3, r4, r5, r6, r7, pc}
 80026de:	f7ff ff57 	bl	8002590 <uart_terminal_get_input_mode>
 80026e2:	2800      	cmp	r0, #0
 80026e4:	d0d5      	beq.n	8002692 <CDC_Itf_Receive+0xe>
 80026e6:	e7f1      	b.n	80026cc <CDC_Itf_Receive+0x48>
 80026e8:	200012a0 	.word	0x200012a0
 80026ec:	200027a8 	.word	0x200027a8

080026f0 <CDC_Itf_Init>:
 80026f0:	b510      	push	{r4, lr}
 80026f2:	4c0c      	ldr	r4, [pc, #48]	; (8002724 <CDC_Itf_Init+0x34>)
 80026f4:	2200      	movs	r2, #0
 80026f6:	4620      	mov	r0, r4
 80026f8:	490b      	ldr	r1, [pc, #44]	; (8002728 <CDC_Itf_Init+0x38>)
 80026fa:	f005 f92f 	bl	800795c <USBD_CDC_SetTxBuffer>
 80026fe:	4620      	mov	r0, r4
 8002700:	490a      	ldr	r1, [pc, #40]	; (800272c <CDC_Itf_Init+0x3c>)
 8002702:	f005 f933 	bl	800796c <USBD_CDC_SetRxBuffer>
 8002706:	2000      	movs	r0, #0
 8002708:	4a09      	ldr	r2, [pc, #36]	; (8002730 <CDC_Itf_Init+0x40>)
 800270a:	4b0a      	ldr	r3, [pc, #40]	; (8002734 <CDC_Itf_Init+0x44>)
 800270c:	490a      	ldr	r1, [pc, #40]	; (8002738 <CDC_Itf_Init+0x48>)
 800270e:	f8a2 0800 	strh.w	r0, [r2, #2048]	; 0x800
 8002712:	f8a2 0802 	strh.w	r0, [r2, #2050]	; 0x802
 8002716:	f8a3 0100 	strh.w	r0, [r3, #256]	; 0x100
 800271a:	f8a3 0102 	strh.w	r0, [r3, #258]	; 0x102
 800271e:	7008      	strb	r0, [r1, #0]
 8002720:	bd10      	pop	{r4, pc}
 8002722:	bf00      	nop
 8002724:	200027a8 	.word	0x200027a8
 8002728:	20002384 	.word	0x20002384
 800272c:	20002184 	.word	0x20002184
 8002730:	200013a4 	.word	0x200013a4
 8002734:	200012a0 	.word	0x200012a0
 8002738:	20001ba8 	.word	0x20001ba8

0800273c <CDC_Itf_Control>:
 800273c:	2820      	cmp	r0, #32
 800273e:	b430      	push	{r4, r5}
 8002740:	d013      	beq.n	800276a <CDC_Itf_Control+0x2e>
 8002742:	2821      	cmp	r0, #33	; 0x21
 8002744:	d10e      	bne.n	8002764 <CDC_Itf_Control+0x28>
 8002746:	4a0f      	ldr	r2, [pc, #60]	; (8002784 <CDC_Itf_Control+0x48>)
 8002748:	6813      	ldr	r3, [r2, #0]
 800274a:	7914      	ldrb	r4, [r2, #4]
 800274c:	0a1d      	lsrs	r5, r3, #8
 800274e:	7950      	ldrb	r0, [r2, #5]
 8002750:	7992      	ldrb	r2, [r2, #6]
 8002752:	700b      	strb	r3, [r1, #0]
 8002754:	704d      	strb	r5, [r1, #1]
 8002756:	0c1d      	lsrs	r5, r3, #16
 8002758:	0e1b      	lsrs	r3, r3, #24
 800275a:	708d      	strb	r5, [r1, #2]
 800275c:	70cb      	strb	r3, [r1, #3]
 800275e:	710c      	strb	r4, [r1, #4]
 8002760:	7148      	strb	r0, [r1, #5]
 8002762:	718a      	strb	r2, [r1, #6]
 8002764:	2000      	movs	r0, #0
 8002766:	bc30      	pop	{r4, r5}
 8002768:	4770      	bx	lr
 800276a:	4b06      	ldr	r3, [pc, #24]	; (8002784 <CDC_Itf_Control+0x48>)
 800276c:	790c      	ldrb	r4, [r1, #4]
 800276e:	7948      	ldrb	r0, [r1, #5]
 8002770:	798a      	ldrb	r2, [r1, #6]
 8002772:	680d      	ldr	r5, [r1, #0]
 8002774:	7158      	strb	r0, [r3, #5]
 8002776:	711c      	strb	r4, [r3, #4]
 8002778:	719a      	strb	r2, [r3, #6]
 800277a:	2000      	movs	r0, #0
 800277c:	601d      	str	r5, [r3, #0]
 800277e:	bc30      	pop	{r4, r5}
 8002780:	4770      	bx	lr
 8002782:	bf00      	nop
 8002784:	2000000c 	.word	0x2000000c

08002788 <usb_cdc_enqueue_tx>:
 8002788:	b470      	push	{r4, r5, r6}
 800278a:	f3ef 8410 	mrs	r4, PRIMASK
 800278e:	b672      	cpsid	i
 8002790:	4a17      	ldr	r2, [pc, #92]	; (80027f0 <usb_cdc_enqueue_tx+0x68>)
 8002792:	f8b2 5800 	ldrh.w	r5, [r2, #2048]	; 0x800
 8002796:	f8b2 3802 	ldrh.w	r3, [r2, #2050]	; 0x802
 800279a:	b2ad      	uxth	r5, r5
 800279c:	b29b      	uxth	r3, r3
 800279e:	429d      	cmp	r5, r3
 80027a0:	bf2c      	ite	cs
 80027a2:	f203 73ff 	addwcs	r3, r3, #2047	; 0x7ff
 80027a6:	f103 33ff 	addcc.w	r3, r3, #4294967295
 80027aa:	1b5b      	subs	r3, r3, r5
 80027ac:	b29b      	uxth	r3, r3
 80027ae:	4299      	cmp	r1, r3
 80027b0:	d818      	bhi.n	80027e4 <usb_cdc_enqueue_tx+0x5c>
 80027b2:	b191      	cbz	r1, 80027da <usb_cdc_enqueue_tx+0x52>
 80027b4:	3901      	subs	r1, #1
 80027b6:	b289      	uxth	r1, r1
 80027b8:	4401      	add	r1, r0
 80027ba:	3801      	subs	r0, #1
 80027bc:	f8b2 5800 	ldrh.w	r5, [r2, #2048]	; 0x800
 80027c0:	f8b2 3800 	ldrh.w	r3, [r2, #2048]	; 0x800
 80027c4:	f810 6f01 	ldrb.w	r6, [r0, #1]!
 80027c8:	3301      	adds	r3, #1
 80027ca:	b2ad      	uxth	r5, r5
 80027cc:	f3c3 030a 	ubfx	r3, r3, #0, #11
 80027d0:	4288      	cmp	r0, r1
 80027d2:	5556      	strb	r6, [r2, r5]
 80027d4:	f8a2 3800 	strh.w	r3, [r2, #2048]	; 0x800
 80027d8:	d1f0      	bne.n	80027bc <usb_cdc_enqueue_tx+0x34>
 80027da:	f384 8810 	msr	PRIMASK, r4
 80027de:	bc70      	pop	{r4, r5, r6}
 80027e0:	2001      	movs	r0, #1
 80027e2:	4770      	bx	lr
 80027e4:	f384 8810 	msr	PRIMASK, r4
 80027e8:	2000      	movs	r0, #0
 80027ea:	bc70      	pop	{r4, r5, r6}
 80027ec:	4770      	bx	lr
 80027ee:	bf00      	nop
 80027f0:	200013a4 	.word	0x200013a4

080027f4 <usb_cdc_process>:
 80027f4:	b5f0      	push	{r4, r5, r6, r7, lr}
 80027f6:	4c33      	ldr	r4, [pc, #204]	; (80028c4 <usb_cdc_process+0xd0>)
 80027f8:	4e33      	ldr	r6, [pc, #204]	; (80028c8 <usb_cdc_process+0xd4>)
 80027fa:	f8b4 2100 	ldrh.w	r2, [r4, #256]	; 0x100
 80027fe:	f8b4 3102 	ldrh.w	r3, [r4, #258]	; 0x102
 8002802:	b292      	uxth	r2, r2
 8002804:	b29b      	uxth	r3, r3
 8002806:	429a      	cmp	r2, r3
 8002808:	f8d6 52c4 	ldr.w	r5, [r6, #708]	; 0x2c4
 800280c:	b091      	sub	sp, #68	; 0x44
 800280e:	d01c      	beq.n	800284a <usb_cdc_process+0x56>
 8002810:	f8b4 2102 	ldrh.w	r2, [r4, #258]	; 0x102
 8002814:	f8b4 3102 	ldrh.w	r3, [r4, #258]	; 0x102
 8002818:	b292      	uxth	r2, r2
 800281a:	3301      	adds	r3, #1
 800281c:	b2db      	uxtb	r3, r3
 800281e:	5ca0      	ldrb	r0, [r4, r2]
 8002820:	f8a4 3102 	strh.w	r3, [r4, #258]	; 0x102
 8002824:	f7ff fece 	bl	80025c4 <uart_terminal_receive_byte>
 8002828:	f8b4 2100 	ldrh.w	r2, [r4, #256]	; 0x100
 800282c:	f8b4 3102 	ldrh.w	r3, [r4, #258]	; 0x102
 8002830:	b292      	uxth	r2, r2
 8002832:	b29b      	uxth	r3, r3
 8002834:	429a      	cmp	r2, r3
 8002836:	d1eb      	bne.n	8002810 <usb_cdc_process+0x1c>
 8002838:	b12d      	cbz	r5, 8002846 <usb_cdc_process+0x52>
 800283a:	f8d5 3214 	ldr.w	r3, [r5, #532]	; 0x214
 800283e:	b913      	cbnz	r3, 8002846 <usb_cdc_process+0x52>
 8002840:	4d22      	ldr	r5, [pc, #136]	; (80028cc <usb_cdc_process+0xd8>)
 8002842:	782b      	ldrb	r3, [r5, #0]
 8002844:	b123      	cbz	r3, 8002850 <usb_cdc_process+0x5c>
 8002846:	b011      	add	sp, #68	; 0x44
 8002848:	bdf0      	pop	{r4, r5, r6, r7, pc}
 800284a:	f7ff ff11 	bl	8002670 <uart_terminal_process_idle>
 800284e:	e7f3      	b.n	8002838 <usb_cdc_process+0x44>
 8002850:	491f      	ldr	r1, [pc, #124]	; (80028d0 <usb_cdc_process+0xdc>)
 8002852:	f8b1 3800 	ldrh.w	r3, [r1, #2048]	; 0x800
 8002856:	f8b1 2802 	ldrh.w	r2, [r1, #2050]	; 0x802
 800285a:	b29b      	uxth	r3, r3
 800285c:	b290      	uxth	r0, r2
 800285e:	4283      	cmp	r3, r0
 8002860:	d323      	bcc.n	80028aa <usb_cdc_process+0xb6>
 8002862:	1a1b      	subs	r3, r3, r0
 8002864:	b29a      	uxth	r2, r3
 8002866:	2a00      	cmp	r2, #0
 8002868:	d0ed      	beq.n	8002846 <usb_cdc_process+0x52>
 800286a:	2a40      	cmp	r2, #64	; 0x40
 800286c:	bf28      	it	cs
 800286e:	2240      	movcs	r2, #64	; 0x40
 8002870:	466c      	mov	r4, sp
 8002872:	eb0d 0702 	add.w	r7, sp, r2
 8002876:	f8b1 0802 	ldrh.w	r0, [r1, #2050]	; 0x802
 800287a:	f8b1 3802 	ldrh.w	r3, [r1, #2050]	; 0x802
 800287e:	b280      	uxth	r0, r0
 8002880:	5c08      	ldrb	r0, [r1, r0]
 8002882:	3301      	adds	r3, #1
 8002884:	f804 0b01 	strb.w	r0, [r4], #1
 8002888:	f3c3 030a 	ubfx	r3, r3, #0, #11
 800288c:	42bc      	cmp	r4, r7
 800288e:	f8a1 3802 	strh.w	r3, [r1, #2050]	; 0x802
 8002892:	d1f0      	bne.n	8002876 <usb_cdc_process+0x82>
 8002894:	2101      	movs	r1, #1
 8002896:	f8d6 32c4 	ldr.w	r3, [r6, #708]	; 0x2c4
 800289a:	7029      	strb	r1, [r5, #0]
 800289c:	b113      	cbz	r3, 80028a4 <usb_cdc_process+0xb0>
 800289e:	f8d3 3214 	ldr.w	r3, [r3, #532]	; 0x214
 80028a2:	b13b      	cbz	r3, 80028b4 <usb_cdc_process+0xc0>
 80028a4:	2300      	movs	r3, #0
 80028a6:	702b      	strb	r3, [r5, #0]
 80028a8:	e7cd      	b.n	8002846 <usb_cdc_process+0x52>
 80028aa:	f503 6200 	add.w	r2, r3, #2048	; 0x800
 80028ae:	1a12      	subs	r2, r2, r0
 80028b0:	b292      	uxth	r2, r2
 80028b2:	e7d8      	b.n	8002866 <usb_cdc_process+0x72>
 80028b4:	4669      	mov	r1, sp
 80028b6:	4804      	ldr	r0, [pc, #16]	; (80028c8 <usb_cdc_process+0xd4>)
 80028b8:	f005 f850 	bl	800795c <USBD_CDC_SetTxBuffer>
 80028bc:	4802      	ldr	r0, [pc, #8]	; (80028c8 <usb_cdc_process+0xd4>)
 80028be:	f005 f85b 	bl	8007978 <USBD_CDC_TransmitPacket>
 80028c2:	e7ef      	b.n	80028a4 <usb_cdc_process+0xb0>
 80028c4:	200012a0 	.word	0x200012a0
 80028c8:	200027a8 	.word	0x200027a8
 80028cc:	20001ba8 	.word	0x20001ba8
 80028d0:	200013a4 	.word	0x200013a4

080028d4 <USBD_FS_DeviceDescriptor>:
 80028d4:	2312      	movs	r3, #18
 80028d6:	4801      	ldr	r0, [pc, #4]	; (80028dc <USBD_FS_DeviceDescriptor+0x8>)
 80028d8:	800b      	strh	r3, [r1, #0]
 80028da:	4770      	bx	lr
 80028dc:	200000ac 	.word	0x200000ac

080028e0 <USBD_FS_LangIDStrDescriptor>:
 80028e0:	2304      	movs	r3, #4
 80028e2:	4801      	ldr	r0, [pc, #4]	; (80028e8 <USBD_FS_LangIDStrDescriptor+0x8>)
 80028e4:	800b      	strh	r3, [r1, #0]
 80028e6:	4770      	bx	lr
 80028e8:	200000c0 	.word	0x200000c0

080028ec <IntTo_Unicode>:
 80028ec:	2300      	movs	r3, #0
 80028ee:	b4f0      	push	{r4, r5, r6, r7}
 80028f0:	461f      	mov	r7, r3
 80028f2:	0052      	lsls	r2, r2, #1
 80028f4:	1c4e      	adds	r6, r1, #1
 80028f6:	f1b0 4f20 	cmp.w	r0, #2684354560	; 0xa0000000
 80028fa:	ea4f 7410 	mov.w	r4, r0, lsr #28
 80028fe:	f104 0530 	add.w	r5, r4, #48	; 0x30
 8002902:	bf2a      	itet	cs
 8002904:	3437      	addcs	r4, #55	; 0x37
 8002906:	54cd      	strbcc	r5, [r1, r3]
 8002908:	54cc      	strbcs	r4, [r1, r3]
 800290a:	54f7      	strb	r7, [r6, r3]
 800290c:	3302      	adds	r3, #2
 800290e:	429a      	cmp	r2, r3
 8002910:	ea4f 1000 	mov.w	r0, r0, lsl #4
 8002914:	d1ef      	bne.n	80028f6 <IntTo_Unicode+0xa>
 8002916:	bcf0      	pop	{r4, r5, r6, r7}
 8002918:	4770      	bx	lr
 800291a:	bf00      	nop

0800291c <USBD_FS_SerialStrDescriptor>:
 800291c:	221a      	movs	r2, #26
 800291e:	480b      	ldr	r0, [pc, #44]	; (800294c <USBD_FS_SerialStrDescriptor+0x30>)
 8002920:	4b0b      	ldr	r3, [pc, #44]	; (8002950 <USBD_FS_SerialStrDescriptor+0x34>)
 8002922:	6800      	ldr	r0, [r0, #0]
 8002924:	681b      	ldr	r3, [r3, #0]
 8002926:	800a      	strh	r2, [r1, #0]
 8002928:	18c0      	adds	r0, r0, r3
 800292a:	d101      	bne.n	8002930 <USBD_FS_SerialStrDescriptor+0x14>
 800292c:	4809      	ldr	r0, [pc, #36]	; (8002954 <USBD_FS_SerialStrDescriptor+0x38>)
 800292e:	4770      	bx	lr
 8002930:	b510      	push	{r4, lr}
 8002932:	4b09      	ldr	r3, [pc, #36]	; (8002958 <USBD_FS_SerialStrDescriptor+0x3c>)
 8002934:	2208      	movs	r2, #8
 8002936:	681c      	ldr	r4, [r3, #0]
 8002938:	4908      	ldr	r1, [pc, #32]	; (800295c <USBD_FS_SerialStrDescriptor+0x40>)
 800293a:	f7ff ffd7 	bl	80028ec <IntTo_Unicode>
 800293e:	4620      	mov	r0, r4
 8002940:	2204      	movs	r2, #4
 8002942:	4907      	ldr	r1, [pc, #28]	; (8002960 <USBD_FS_SerialStrDescriptor+0x44>)
 8002944:	f7ff ffd2 	bl	80028ec <IntTo_Unicode>
 8002948:	4802      	ldr	r0, [pc, #8]	; (8002954 <USBD_FS_SerialStrDescriptor+0x38>)
 800294a:	bd10      	pop	{r4, pc}
 800294c:	1ffff7e8 	.word	0x1ffff7e8
 8002950:	1ffff7f0 	.word	0x1ffff7f0
 8002954:	200000c4 	.word	0x200000c4
 8002958:	1ffff7ec 	.word	0x1ffff7ec
 800295c:	200000c6 	.word	0x200000c6
 8002960:	200000d6 	.word	0x200000d6

08002964 <USBD_FS_ManufacturerStrDescriptor>:
 8002964:	b510      	push	{r4, lr}
 8002966:	4c04      	ldr	r4, [pc, #16]	; (8002978 <USBD_FS_ManufacturerStrDescriptor+0x14>)
 8002968:	460a      	mov	r2, r1
 800296a:	4804      	ldr	r0, [pc, #16]	; (800297c <USBD_FS_ManufacturerStrDescriptor+0x18>)
 800296c:	4621      	mov	r1, r4
 800296e:	f004 fdf9 	bl	8007564 <USBD_GetString>
 8002972:	4620      	mov	r0, r4
 8002974:	bd10      	pop	{r4, pc}
 8002976:	bf00      	nop
 8002978:	20002584 	.word	0x20002584
 800297c:	080092d4 	.word	0x080092d4

08002980 <USBD_FS_ProductStrDescriptor>:
 8002980:	b510      	push	{r4, lr}
 8002982:	4c04      	ldr	r4, [pc, #16]	; (8002994 <USBD_FS_ProductStrDescriptor+0x14>)
 8002984:	460a      	mov	r2, r1
 8002986:	4804      	ldr	r0, [pc, #16]	; (8002998 <USBD_FS_ProductStrDescriptor+0x18>)
 8002988:	4621      	mov	r1, r4
 800298a:	f004 fdeb 	bl	8007564 <USBD_GetString>
 800298e:	4620      	mov	r0, r4
 8002990:	bd10      	pop	{r4, pc}
 8002992:	bf00      	nop
 8002994:	20002584 	.word	0x20002584
 8002998:	080092e0 	.word	0x080092e0

0800299c <USBD_FS_ConfigStrDescriptor>:
 800299c:	b510      	push	{r4, lr}
 800299e:	4c04      	ldr	r4, [pc, #16]	; (80029b0 <USBD_FS_ConfigStrDescriptor+0x14>)
 80029a0:	460a      	mov	r2, r1
 80029a2:	4804      	ldr	r0, [pc, #16]	; (80029b4 <USBD_FS_ConfigStrDescriptor+0x18>)
 80029a4:	4621      	mov	r1, r4
 80029a6:	f004 fddd 	bl	8007564 <USBD_GetString>
 80029aa:	4620      	mov	r0, r4
 80029ac:	bd10      	pop	{r4, pc}
 80029ae:	bf00      	nop
 80029b0:	20002584 	.word	0x20002584
 80029b4:	080092f0 	.word	0x080092f0

080029b8 <USBD_FS_InterfaceStrDescriptor>:
 80029b8:	460a      	mov	r2, r1
 80029ba:	b508      	push	{r3, lr}
 80029bc:	b928      	cbnz	r0, 80029ca <USBD_FS_InterfaceStrDescriptor+0x12>
 80029be:	4b0c      	ldr	r3, [pc, #48]	; (80029f0 <USBD_FS_InterfaceStrDescriptor+0x38>)
 80029c0:	f893 32ac 	ldrb.w	r3, [r3, #684]	; 0x2ac
 80029c4:	b13b      	cbz	r3, 80029d6 <USBD_FS_InterfaceStrDescriptor+0x1e>
 80029c6:	2b01      	cmp	r3, #1
 80029c8:	d00b      	beq.n	80029e2 <USBD_FS_InterfaceStrDescriptor+0x2a>
 80029ca:	490a      	ldr	r1, [pc, #40]	; (80029f4 <USBD_FS_InterfaceStrDescriptor+0x3c>)
 80029cc:	480a      	ldr	r0, [pc, #40]	; (80029f8 <USBD_FS_InterfaceStrDescriptor+0x40>)
 80029ce:	f004 fdc9 	bl	8007564 <USBD_GetString>
 80029d2:	4808      	ldr	r0, [pc, #32]	; (80029f4 <USBD_FS_InterfaceStrDescriptor+0x3c>)
 80029d4:	bd08      	pop	{r3, pc}
 80029d6:	4907      	ldr	r1, [pc, #28]	; (80029f4 <USBD_FS_InterfaceStrDescriptor+0x3c>)
 80029d8:	4808      	ldr	r0, [pc, #32]	; (80029fc <USBD_FS_InterfaceStrDescriptor+0x44>)
 80029da:	f004 fdc3 	bl	8007564 <USBD_GetString>
 80029de:	4805      	ldr	r0, [pc, #20]	; (80029f4 <USBD_FS_InterfaceStrDescriptor+0x3c>)
 80029e0:	bd08      	pop	{r3, pc}
 80029e2:	4904      	ldr	r1, [pc, #16]	; (80029f4 <USBD_FS_InterfaceStrDescriptor+0x3c>)
 80029e4:	4806      	ldr	r0, [pc, #24]	; (8002a00 <USBD_FS_InterfaceStrDescriptor+0x48>)
 80029e6:	f004 fdbd 	bl	8007564 <USBD_GetString>
 80029ea:	4802      	ldr	r0, [pc, #8]	; (80029f4 <USBD_FS_InterfaceStrDescriptor+0x3c>)
 80029ec:	bd08      	pop	{r3, pc}
 80029ee:	bf00      	nop
 80029f0:	200027a8 	.word	0x200027a8
 80029f4:	20002584 	.word	0x20002584
 80029f8:	08009314 	.word	0x08009314
 80029fc:	080092fc 	.word	0x080092fc
 8002a00:	08009308 	.word	0x08009308

08002a04 <USBD_Composite_EP0_TxSent>:
 8002a04:	b538      	push	{r3, r4, r5, lr}
 8002a06:	4b0b      	ldr	r3, [pc, #44]	; (8002a34 <USBD_Composite_EP0_TxSent+0x30>)
 8002a08:	4604      	mov	r4, r0
 8002a0a:	781b      	ldrb	r3, [r3, #0]
 8002a0c:	f8d0 52b8 	ldr.w	r5, [r0, #696]	; 0x2b8
 8002a10:	b963      	cbnz	r3, 8002a2c <USBD_Composite_EP0_TxSent+0x28>
 8002a12:	4b09      	ldr	r3, [pc, #36]	; (8002a38 <USBD_Composite_EP0_TxSent+0x34>)
 8002a14:	68db      	ldr	r3, [r3, #12]
 8002a16:	b103      	cbz	r3, 8002a1a <USBD_Composite_EP0_TxSent+0x16>
 8002a18:	4798      	blx	r3
 8002a1a:	4a08      	ldr	r2, [pc, #32]	; (8002a3c <USBD_Composite_EP0_TxSent+0x38>)
 8002a1c:	f505 7309 	add.w	r3, r5, #548	; 0x224
 8002a20:	68d2      	ldr	r2, [r2, #12]
 8002a22:	f8c4 32b8 	str.w	r3, [r4, #696]	; 0x2b8
 8002a26:	b10a      	cbz	r2, 8002a2c <USBD_Composite_EP0_TxSent+0x28>
 8002a28:	4620      	mov	r0, r4
 8002a2a:	4790      	blx	r2
 8002a2c:	2000      	movs	r0, #0
 8002a2e:	f8c4 52b8 	str.w	r5, [r4, #696]	; 0x2b8
 8002a32:	bd38      	pop	{r3, r4, r5, pc}
 8002a34:	20001ba9 	.word	0x20001ba9
 8002a38:	2000033c 	.word	0x2000033c
 8002a3c:	20000280 	.word	0x20000280

08002a40 <USBD_Composite_EP0_RxReady>:
 8002a40:	b5f8      	push	{r3, r4, r5, r6, r7, lr}
 8002a42:	4b0d      	ldr	r3, [pc, #52]	; (8002a78 <USBD_Composite_EP0_RxReady+0x38>)
 8002a44:	4604      	mov	r4, r0
 8002a46:	781d      	ldrb	r5, [r3, #0]
 8002a48:	f8d0 62b8 	ldr.w	r6, [r0, #696]	; 0x2b8
 8002a4c:	b97d      	cbnz	r5, 8002a6e <USBD_Composite_EP0_RxReady+0x2e>
 8002a4e:	4b0b      	ldr	r3, [pc, #44]	; (8002a7c <USBD_Composite_EP0_RxReady+0x3c>)
 8002a50:	4f0b      	ldr	r7, [pc, #44]	; (8002a80 <USBD_Composite_EP0_RxReady+0x40>)
 8002a52:	f8c0 32bc 	str.w	r3, [r0, #700]	; 0x2bc
 8002a56:	693b      	ldr	r3, [r7, #16]
 8002a58:	4798      	blx	r3
 8002a5a:	4a0a      	ldr	r2, [pc, #40]	; (8002a84 <USBD_Composite_EP0_RxReady+0x44>)
 8002a5c:	f506 7309 	add.w	r3, r6, #548	; 0x224
 8002a60:	6912      	ldr	r2, [r2, #16]
 8002a62:	e9c4 35ae 	strd	r3, r5, [r4, #696]	; 0x2b8
 8002a66:	b112      	cbz	r2, 8002a6e <USBD_Composite_EP0_RxReady+0x2e>
 8002a68:	4620      	mov	r0, r4
 8002a6a:	693b      	ldr	r3, [r7, #16]
 8002a6c:	4798      	blx	r3
 8002a6e:	2000      	movs	r0, #0
 8002a70:	f8c4 62b8 	str.w	r6, [r4, #696]	; 0x2b8
 8002a74:	bdf8      	pop	{r3, r4, r5, r6, r7, pc}
 8002a76:	bf00      	nop
 8002a78:	20001ba9 	.word	0x20001ba9
 8002a7c:	20000014 	.word	0x20000014
 8002a80:	2000033c 	.word	0x2000033c
 8002a84:	20000280 	.word	0x20000280

08002a88 <USBD_Composite_DataIn>:
 8002a88:	1e8a      	subs	r2, r1, #2
 8002a8a:	2a01      	cmp	r2, #1
 8002a8c:	b538      	push	{r3, r4, r5, lr}
 8002a8e:	4604      	mov	r4, r0
 8002a90:	f8d0 52b8 	ldr.w	r5, [r0, #696]	; 0x2b8
 8002a94:	d913      	bls.n	8002abe <USBD_Composite_DataIn+0x36>
 8002a96:	2901      	cmp	r1, #1
 8002a98:	d003      	beq.n	8002aa2 <USBD_Composite_DataIn+0x1a>
 8002a9a:	2000      	movs	r0, #0
 8002a9c:	f8c4 52b8 	str.w	r5, [r4, #696]	; 0x2b8
 8002aa0:	bd38      	pop	{r3, r4, r5, pc}
 8002aa2:	4b0a      	ldr	r3, [pc, #40]	; (8002acc <USBD_Composite_DataIn+0x44>)
 8002aa4:	781b      	ldrb	r3, [r3, #0]
 8002aa6:	2b00      	cmp	r3, #0
 8002aa8:	d1f7      	bne.n	8002a9a <USBD_Composite_DataIn+0x12>
 8002aaa:	4a09      	ldr	r2, [pc, #36]	; (8002ad0 <USBD_Composite_DataIn+0x48>)
 8002aac:	f505 7309 	add.w	r3, r5, #548	; 0x224
 8002ab0:	6952      	ldr	r2, [r2, #20]
 8002ab2:	f8c0 32b8 	str.w	r3, [r0, #696]	; 0x2b8
 8002ab6:	4790      	blx	r2
 8002ab8:	f8c4 52b8 	str.w	r5, [r4, #696]	; 0x2b8
 8002abc:	bd38      	pop	{r3, r4, r5, pc}
 8002abe:	4b05      	ldr	r3, [pc, #20]	; (8002ad4 <USBD_Composite_DataIn+0x4c>)
 8002ac0:	695b      	ldr	r3, [r3, #20]
 8002ac2:	4798      	blx	r3
 8002ac4:	f8c4 52b8 	str.w	r5, [r4, #696]	; 0x2b8
 8002ac8:	bd38      	pop	{r3, r4, r5, pc}
 8002aca:	bf00      	nop
 8002acc:	20001ba9 	.word	0x20001ba9
 8002ad0:	20000280 	.word	0x20000280
 8002ad4:	2000033c 	.word	0x2000033c

08002ad8 <USBD_Composite_DataOut>:
 8002ad8:	2901      	cmp	r1, #1
 8002ada:	b538      	push	{r3, r4, r5, lr}
 8002adc:	4604      	mov	r4, r0
 8002ade:	f8d0 52b8 	ldr.w	r5, [r0, #696]	; 0x2b8
 8002ae2:	d003      	beq.n	8002aec <USBD_Composite_DataOut+0x14>
 8002ae4:	2000      	movs	r0, #0
 8002ae6:	f8c4 52b8 	str.w	r5, [r4, #696]	; 0x2b8
 8002aea:	bd38      	pop	{r3, r4, r5, pc}
 8002aec:	4b02      	ldr	r3, [pc, #8]	; (8002af8 <USBD_Composite_DataOut+0x20>)
 8002aee:	699b      	ldr	r3, [r3, #24]
 8002af0:	4798      	blx	r3
 8002af2:	f8c4 52b8 	str.w	r5, [r4, #696]	; 0x2b8
 8002af6:	bd38      	pop	{r3, r4, r5, pc}
 8002af8:	2000033c 	.word	0x2000033c

08002afc <USBD_Composite_SOF>:
 8002afc:	b538      	push	{r3, r4, r5, lr}
 8002afe:	4b0a      	ldr	r3, [pc, #40]	; (8002b28 <USBD_Composite_SOF+0x2c>)
 8002b00:	4604      	mov	r4, r0
 8002b02:	781b      	ldrb	r3, [r3, #0]
 8002b04:	f8d0 52b8 	ldr.w	r5, [r0, #696]	; 0x2b8
 8002b08:	b953      	cbnz	r3, 8002b20 <USBD_Composite_SOF+0x24>
 8002b0a:	4a08      	ldr	r2, [pc, #32]	; (8002b2c <USBD_Composite_SOF+0x30>)
 8002b0c:	f505 7309 	add.w	r3, r5, #548	; 0x224
 8002b10:	69d2      	ldr	r2, [r2, #28]
 8002b12:	f8c0 32b8 	str.w	r3, [r0, #696]	; 0x2b8
 8002b16:	b11a      	cbz	r2, 8002b20 <USBD_Composite_SOF+0x24>
 8002b18:	4790      	blx	r2
 8002b1a:	f8c4 52b8 	str.w	r5, [r4, #696]	; 0x2b8
 8002b1e:	bd38      	pop	{r3, r4, r5, pc}
 8002b20:	2000      	movs	r0, #0
 8002b22:	f8c4 52b8 	str.w	r5, [r4, #696]	; 0x2b8
 8002b26:	bd38      	pop	{r3, r4, r5, pc}
 8002b28:	20001ba9 	.word	0x20001ba9
 8002b2c:	20000280 	.word	0x20000280

08002b30 <USBD_Composite_GetFSConfigDescriptor>:
 8002b30:	4603      	mov	r3, r0
 8002b32:	226c      	movs	r2, #108	; 0x6c
 8002b34:	4801      	ldr	r0, [pc, #4]	; (8002b3c <USBD_Composite_GetFSConfigDescriptor+0xc>)
 8002b36:	801a      	strh	r2, [r3, #0]
 8002b38:	4770      	bx	lr
 8002b3a:	bf00      	nop
 8002b3c:	20000040 	.word	0x20000040

08002b40 <USBD_Composite_GetDeviceQualifierDescriptor>:
 8002b40:	4603      	mov	r3, r0
 8002b42:	220a      	movs	r2, #10
 8002b44:	2000      	movs	r0, #0
 8002b46:	801a      	strh	r2, [r3, #0]
 8002b48:	4770      	bx	lr
 8002b4a:	bf00      	nop

08002b4c <USBD_Composite_Setup>:
 8002b4c:	b538      	push	{r3, r4, r5, lr}
 8002b4e:	790b      	ldrb	r3, [r1, #4]
 8002b50:	4604      	mov	r4, r0
 8002b52:	1e5a      	subs	r2, r3, #1
 8002b54:	2a01      	cmp	r2, #1
 8002b56:	f8d0 52b8 	ldr.w	r5, [r0, #696]	; 0x2b8
 8002b5a:	d90f      	bls.n	8002b7c <USBD_Composite_Setup+0x30>
 8002b5c:	b9cb      	cbnz	r3, 8002b92 <USBD_Composite_Setup+0x46>
 8002b5e:	4a10      	ldr	r2, [pc, #64]	; (8002ba0 <USBD_Composite_Setup+0x54>)
 8002b60:	7812      	ldrb	r2, [r2, #0]
 8002b62:	b93a      	cbnz	r2, 8002b74 <USBD_Composite_Setup+0x28>
 8002b64:	4a0f      	ldr	r2, [pc, #60]	; (8002ba4 <USBD_Composite_Setup+0x58>)
 8002b66:	f505 7309 	add.w	r3, r5, #548	; 0x224
 8002b6a:	f8c0 32b8 	str.w	r3, [r0, #696]	; 0x2b8
 8002b6e:	6892      	ldr	r2, [r2, #8]
 8002b70:	4790      	blx	r2
 8002b72:	4603      	mov	r3, r0
 8002b74:	4618      	mov	r0, r3
 8002b76:	f8c4 52b8 	str.w	r5, [r4, #696]	; 0x2b8
 8002b7a:	bd38      	pop	{r3, r4, r5, pc}
 8002b7c:	4a0a      	ldr	r2, [pc, #40]	; (8002ba8 <USBD_Composite_Setup+0x5c>)
 8002b7e:	4b0b      	ldr	r3, [pc, #44]	; (8002bac <USBD_Composite_Setup+0x60>)
 8002b80:	f8c0 22bc 	str.w	r2, [r0, #700]	; 0x2bc
 8002b84:	689b      	ldr	r3, [r3, #8]
 8002b86:	4798      	blx	r3
 8002b88:	4603      	mov	r3, r0
 8002b8a:	f8c4 52b8 	str.w	r5, [r4, #696]	; 0x2b8
 8002b8e:	4618      	mov	r0, r3
 8002b90:	bd38      	pop	{r3, r4, r5, pc}
 8002b92:	f004 fcdb 	bl	800754c <USBD_CtlError>
 8002b96:	2302      	movs	r3, #2
 8002b98:	f8c4 52b8 	str.w	r5, [r4, #696]	; 0x2b8
 8002b9c:	4618      	mov	r0, r3
 8002b9e:	bd38      	pop	{r3, r4, r5, pc}
 8002ba0:	20001ba9 	.word	0x20001ba9
 8002ba4:	20000280 	.word	0x20000280
 8002ba8:	20000014 	.word	0x20000014
 8002bac:	2000033c 	.word	0x2000033c

08002bb0 <USBD_Composite_DeInit>:
 8002bb0:	b5f8      	push	{r3, r4, r5, r6, r7, lr}
 8002bb2:	f8d0 62b8 	ldr.w	r6, [r0, #696]	; 0x2b8
 8002bb6:	b1ae      	cbz	r6, 8002be4 <USBD_Composite_DeInit+0x34>
 8002bb8:	4b0b      	ldr	r3, [pc, #44]	; (8002be8 <USBD_Composite_DeInit+0x38>)
 8002bba:	781f      	ldrb	r7, [r3, #0]
 8002bbc:	b997      	cbnz	r7, 8002be4 <USBD_Composite_DeInit+0x34>
 8002bbe:	4604      	mov	r4, r0
 8002bc0:	460d      	mov	r5, r1
 8002bc2:	4b0a      	ldr	r3, [pc, #40]	; (8002bec <USBD_Composite_DeInit+0x3c>)
 8002bc4:	685b      	ldr	r3, [r3, #4]
 8002bc6:	4798      	blx	r3
 8002bc8:	4b09      	ldr	r3, [pc, #36]	; (8002bf0 <USBD_Composite_DeInit+0x40>)
 8002bca:	f506 7209 	add.w	r2, r6, #548	; 0x224
 8002bce:	4629      	mov	r1, r5
 8002bd0:	685b      	ldr	r3, [r3, #4]
 8002bd2:	f8c4 22b8 	str.w	r2, [r4, #696]	; 0x2b8
 8002bd6:	4620      	mov	r0, r4
 8002bd8:	4798      	blx	r3
 8002bda:	4630      	mov	r0, r6
 8002bdc:	f005 f840 	bl	8007c60 <USBD_static_free>
 8002be0:	f8c4 72b8 	str.w	r7, [r4, #696]	; 0x2b8
 8002be4:	2000      	movs	r0, #0
 8002be6:	bdf8      	pop	{r3, r4, r5, r6, r7, pc}
 8002be8:	20001ba9 	.word	0x20001ba9
 8002bec:	2000033c 	.word	0x2000033c
 8002bf0:	20000280 	.word	0x20000280

08002bf4 <USBD_Composite_Init>:
 8002bf4:	b5f8      	push	{r3, r4, r5, r6, r7, lr}
 8002bf6:	4604      	mov	r4, r0
 8002bf8:	f44f 700e 	mov.w	r0, #568	; 0x238
 8002bfc:	460e      	mov	r6, r1
 8002bfe:	f005 f82b 	bl	8007c58 <USBD_static_malloc>
 8002c02:	4605      	mov	r5, r0
 8002c04:	b318      	cbz	r0, 8002c4e <USBD_Composite_Init+0x5a>
 8002c06:	4b14      	ldr	r3, [pc, #80]	; (8002c58 <USBD_Composite_Init+0x64>)
 8002c08:	781b      	ldrb	r3, [r3, #0]
 8002c0a:	b9e3      	cbnz	r3, 8002c46 <USBD_Composite_Init+0x52>
 8002c0c:	4913      	ldr	r1, [pc, #76]	; (8002c5c <USBD_Composite_Init+0x68>)
 8002c0e:	f500 7209 	add.w	r2, r0, #548	; 0x224
 8002c12:	f880 3235 	strb.w	r3, [r0, #565]	; 0x235
 8002c16:	680f      	ldr	r7, [r1, #0]
 8002c18:	e9c4 23ae 	strd	r2, r3, [r4, #696]	; 0x2b8
 8002c1c:	4631      	mov	r1, r6
 8002c1e:	f8c4 22c8 	str.w	r2, [r4, #712]	; 0x2c8
 8002c22:	4620      	mov	r0, r4
 8002c24:	47b8      	blx	r7
 8002c26:	2201      	movs	r2, #1
 8002c28:	480d      	ldr	r0, [pc, #52]	; (8002c60 <USBD_Composite_Init+0x6c>)
 8002c2a:	4b0e      	ldr	r3, [pc, #56]	; (8002c64 <USBD_Composite_Init+0x70>)
 8002c2c:	f8c4 02bc 	str.w	r0, [r4, #700]	; 0x2bc
 8002c30:	f8c4 52b8 	str.w	r5, [r4, #696]	; 0x2b8
 8002c34:	f8c4 52c4 	str.w	r5, [r4, #708]	; 0x2c4
 8002c38:	4631      	mov	r1, r6
 8002c3a:	4620      	mov	r0, r4
 8002c3c:	681b      	ldr	r3, [r3, #0]
 8002c3e:	f885 2234 	strb.w	r2, [r5, #564]	; 0x234
 8002c42:	4798      	blx	r3
 8002c44:	b910      	cbnz	r0, 8002c4c <USBD_Composite_Init+0x58>
 8002c46:	2000      	movs	r0, #0
 8002c48:	f8c4 52b8 	str.w	r5, [r4, #696]	; 0x2b8
 8002c4c:	bdf8      	pop	{r3, r4, r5, r6, r7, pc}
 8002c4e:	f8c4 02b8 	str.w	r0, [r4, #696]	; 0x2b8
 8002c52:	2002      	movs	r0, #2
 8002c54:	bdf8      	pop	{r3, r4, r5, r6, r7, pc}
 8002c56:	bf00      	nop
 8002c58:	20001ba9 	.word	0x20001ba9
 8002c5c:	20000280 	.word	0x20000280
 8002c60:	20000014 	.word	0x20000014
 8002c64:	2000033c 	.word	0x2000033c

08002c68 <USBD_Composite_GetHSConfigDescriptor>:
 8002c68:	4603      	mov	r3, r0
 8002c6a:	226c      	movs	r2, #108	; 0x6c
 8002c6c:	4801      	ldr	r0, [pc, #4]	; (8002c74 <USBD_Composite_GetHSConfigDescriptor+0xc>)
 8002c6e:	801a      	strh	r2, [r3, #0]
 8002c70:	4770      	bx	lr
 8002c72:	bf00      	nop
 8002c74:	20000040 	.word	0x20000040

08002c78 <USBD_FS_DeviceDescriptor>:
 8002c78:	2312      	movs	r3, #18
 8002c7a:	4801      	ldr	r0, [pc, #4]	; (8002c80 <USBD_FS_DeviceDescriptor+0x8>)
 8002c7c:	800b      	strh	r3, [r1, #0]
 8002c7e:	4770      	bx	lr
 8002c80:	20000208 	.word	0x20000208

08002c84 <USBD_FS_LangIDStrDescriptor>:
 8002c84:	2304      	movs	r3, #4
 8002c86:	4801      	ldr	r0, [pc, #4]	; (8002c8c <USBD_FS_LangIDStrDescriptor+0x8>)
 8002c88:	800b      	strh	r3, [r1, #0]
 8002c8a:	4770      	bx	lr
 8002c8c:	2000021c 	.word	0x2000021c

08002c90 <IntTo_Unicode>:
 8002c90:	2300      	movs	r3, #0
 8002c92:	b4f0      	push	{r4, r5, r6, r7}
 8002c94:	461f      	mov	r7, r3
 8002c96:	0052      	lsls	r2, r2, #1
 8002c98:	1c4e      	adds	r6, r1, #1
 8002c9a:	f1b0 4f20 	cmp.w	r0, #2684354560	; 0xa0000000
 8002c9e:	ea4f 7410 	mov.w	r4, r0, lsr #28
 8002ca2:	f104 0530 	add.w	r5, r4, #48	; 0x30
 8002ca6:	bf2a      	itet	cs
 8002ca8:	3437      	addcs	r4, #55	; 0x37
 8002caa:	54cd      	strbcc	r5, [r1, r3]
 8002cac:	54cc      	strbcs	r4, [r1, r3]
 8002cae:	54f7      	strb	r7, [r6, r3]
 8002cb0:	3302      	adds	r3, #2
 8002cb2:	429a      	cmp	r2, r3
 8002cb4:	ea4f 1000 	mov.w	r0, r0, lsl #4
 8002cb8:	d1ef      	bne.n	8002c9a <IntTo_Unicode+0xa>
 8002cba:	bcf0      	pop	{r4, r5, r6, r7}
 8002cbc:	4770      	bx	lr
 8002cbe:	bf00      	nop

08002cc0 <USBD_FS_SerialStrDescriptor>:
 8002cc0:	221a      	movs	r2, #26
 8002cc2:	480b      	ldr	r0, [pc, #44]	; (8002cf0 <USBD_FS_SerialStrDescriptor+0x30>)
 8002cc4:	4b0b      	ldr	r3, [pc, #44]	; (8002cf4 <USBD_FS_SerialStrDescriptor+0x34>)
 8002cc6:	6800      	ldr	r0, [r0, #0]
 8002cc8:	681b      	ldr	r3, [r3, #0]
 8002cca:	800a      	strh	r2, [r1, #0]
 8002ccc:	18c0      	adds	r0, r0, r3
 8002cce:	d101      	bne.n	8002cd4 <USBD_FS_SerialStrDescriptor+0x14>
 8002cd0:	4809      	ldr	r0, [pc, #36]	; (8002cf8 <USBD_FS_SerialStrDescriptor+0x38>)
 8002cd2:	4770      	bx	lr
 8002cd4:	b510      	push	{r4, lr}
 8002cd6:	4b09      	ldr	r3, [pc, #36]	; (8002cfc <USBD_FS_SerialStrDescriptor+0x3c>)
 8002cd8:	2208      	movs	r2, #8
 8002cda:	681c      	ldr	r4, [r3, #0]
 8002cdc:	4908      	ldr	r1, [pc, #32]	; (8002d00 <USBD_FS_SerialStrDescriptor+0x40>)
 8002cde:	f7ff ffd7 	bl	8002c90 <IntTo_Unicode>
 8002ce2:	4620      	mov	r0, r4
 8002ce4:	2204      	movs	r2, #4
 8002ce6:	4907      	ldr	r1, [pc, #28]	; (8002d04 <USBD_FS_SerialStrDescriptor+0x44>)
 8002ce8:	f7ff ffd2 	bl	8002c90 <IntTo_Unicode>
 8002cec:	4802      	ldr	r0, [pc, #8]	; (8002cf8 <USBD_FS_SerialStrDescriptor+0x38>)
 8002cee:	bd10      	pop	{r4, pc}
 8002cf0:	1ffff7e8 	.word	0x1ffff7e8
 8002cf4:	1ffff7f0 	.word	0x1ffff7f0
 8002cf8:	20000220 	.word	0x20000220
 8002cfc:	1ffff7ec 	.word	0x1ffff7ec
 8002d00:	20000222 	.word	0x20000222
 8002d04:	20000232 	.word	0x20000232

08002d08 <USBD_DrumController_GetFSCfgDesc>:
 8002d08:	4603      	mov	r3, r0
 8002d0a:	2229      	movs	r2, #41	; 0x29
 8002d0c:	4801      	ldr	r0, [pc, #4]	; (8002d14 <USBD_DrumController_GetFSCfgDesc+0xc>)
 8002d0e:	801a      	strh	r2, [r3, #0]
 8002d10:	4770      	bx	lr
 8002d12:	bf00      	nop
 8002d14:	200001dc 	.word	0x200001dc

08002d18 <USBD_DrumController_DataIn>:
 8002d18:	2300      	movs	r3, #0
 8002d1a:	f8d0 22c8 	ldr.w	r2, [r0, #712]	; 0x2c8
 8002d1e:	4618      	mov	r0, r3
 8002d20:	7313      	strb	r3, [r2, #12]
 8002d22:	4770      	bx	lr

08002d24 <USBD_DrumController_DataOut>:
 8002d24:	2000      	movs	r0, #0
 8002d26:	4770      	bx	lr

08002d28 <USBD_DrumController_GetDeviceQualifierDesc>:
 8002d28:	4603      	mov	r3, r0
 8002d2a:	220a      	movs	r2, #10
 8002d2c:	4801      	ldr	r0, [pc, #4]	; (8002d34 <USBD_DrumController_GetDeviceQualifierDesc+0xc>)
 8002d2e:	801a      	strh	r2, [r3, #0]
 8002d30:	4770      	bx	lr
 8002d32:	bf00      	nop
 8002d34:	200001c4 	.word	0x200001c4

08002d38 <USBD_FS_InterfaceStrDescriptor>:
 8002d38:	b510      	push	{r4, lr}
 8002d3a:	4c04      	ldr	r4, [pc, #16]	; (8002d4c <USBD_FS_InterfaceStrDescriptor+0x14>)
 8002d3c:	460a      	mov	r2, r1
 8002d3e:	4804      	ldr	r0, [pc, #16]	; (8002d50 <USBD_FS_InterfaceStrDescriptor+0x18>)
 8002d40:	4621      	mov	r1, r4
 8002d42:	f004 fc0f 	bl	8007564 <USBD_GetString>
 8002d46:	4620      	mov	r0, r4
 8002d48:	bd10      	pop	{r4, pc}
 8002d4a:	bf00      	nop
 8002d4c:	20001bac 	.word	0x20001bac
 8002d50:	08009324 	.word	0x08009324

08002d54 <USBD_FS_ManufacturerStrDescriptor>:
 8002d54:	b510      	push	{r4, lr}
 8002d56:	4c04      	ldr	r4, [pc, #16]	; (8002d68 <USBD_FS_ManufacturerStrDescriptor+0x14>)
 8002d58:	460a      	mov	r2, r1
 8002d5a:	4804      	ldr	r0, [pc, #16]	; (8002d6c <USBD_FS_ManufacturerStrDescriptor+0x18>)
 8002d5c:	4621      	mov	r1, r4
 8002d5e:	f004 fc01 	bl	8007564 <USBD_GetString>
 8002d62:	4620      	mov	r0, r4
 8002d64:	bd10      	pop	{r4, pc}
 8002d66:	bf00      	nop
 8002d68:	20001bac 	.word	0x20001bac
 8002d6c:	0800932c 	.word	0x0800932c

08002d70 <USBD_DrumController_Setup>:
 8002d70:	2300      	movs	r3, #0
 8002d72:	b510      	push	{r4, lr}
 8002d74:	780c      	ldrb	r4, [r1, #0]
 8002d76:	b082      	sub	sp, #8
 8002d78:	f014 0460 	ands.w	r4, r4, #96	; 0x60
 8002d7c:	f8d0 22c8 	ldr.w	r2, [r0, #712]	; 0x2c8
 8002d80:	f8ad 3006 	strh.w	r3, [sp, #6]
 8002d84:	d016      	beq.n	8002db4 <USBD_DrumController_Setup+0x44>
 8002d86:	2c20      	cmp	r4, #32
 8002d88:	d10e      	bne.n	8002da8 <USBD_DrumController_Setup+0x38>
 8002d8a:	784b      	ldrb	r3, [r1, #1]
 8002d8c:	3b02      	subs	r3, #2
 8002d8e:	2b09      	cmp	r3, #9
 8002d90:	d80a      	bhi.n	8002da8 <USBD_DrumController_Setup+0x38>
 8002d92:	e8df f003 	tbb	[pc, r3]
 8002d96:	3933      	.short	0x3933
 8002d98:	09090909 	.word	0x09090909
 8002d9c:	2f3f0909 	.word	0x2f3f0909
 8002da0:	f890 329c 	ldrb.w	r3, [r0, #668]	; 0x29c
 8002da4:	2b03      	cmp	r3, #3
 8002da6:	d05a      	beq.n	8002e5e <USBD_DrumController_Setup+0xee>
 8002da8:	f004 fbd0 	bl	800754c <USBD_CtlError>
 8002dac:	2402      	movs	r4, #2
 8002dae:	4620      	mov	r0, r4
 8002db0:	b002      	add	sp, #8
 8002db2:	bd10      	pop	{r4, pc}
 8002db4:	784b      	ldrb	r3, [r1, #1]
 8002db6:	2b0b      	cmp	r3, #11
 8002db8:	d8f6      	bhi.n	8002da8 <USBD_DrumController_Setup+0x38>
 8002dba:	f20f 0c08 	addw	ip, pc, #8
 8002dbe:	f85c f023 	ldr.w	pc, [ip, r3, lsl #2]
 8002dc2:	bf00      	nop
 8002dc4:	08002e49 	.word	0x08002e49
 8002dc8:	08002da9 	.word	0x08002da9
 8002dcc:	08002da9 	.word	0x08002da9
 8002dd0:	08002da9 	.word	0x08002da9
 8002dd4:	08002da9 	.word	0x08002da9
 8002dd8:	08002da9 	.word	0x08002da9
 8002ddc:	08002e1f 	.word	0x08002e1f
 8002de0:	08002da9 	.word	0x08002da9
 8002de4:	08002da9 	.word	0x08002da9
 8002de8:	08002da9 	.word	0x08002da9
 8002dec:	08002da1 	.word	0x08002da1
 8002df0:	08002e3b 	.word	0x08002e3b
 8002df4:	788b      	ldrb	r3, [r1, #2]
 8002df6:	2400      	movs	r4, #0
 8002df8:	6013      	str	r3, [r2, #0]
 8002dfa:	e7d8      	b.n	8002dae <USBD_DrumController_Setup+0x3e>
 8002dfc:	1d11      	adds	r1, r2, #4
 8002dfe:	2201      	movs	r2, #1
 8002e00:	f004 fbd6 	bl	80075b0 <USBD_CtlSendData>
 8002e04:	2400      	movs	r4, #0
 8002e06:	e7d2      	b.n	8002dae <USBD_DrumController_Setup+0x3e>
 8002e08:	4611      	mov	r1, r2
 8002e0a:	2201      	movs	r2, #1
 8002e0c:	f004 fbd0 	bl	80075b0 <USBD_CtlSendData>
 8002e10:	2400      	movs	r4, #0
 8002e12:	e7cc      	b.n	8002dae <USBD_DrumController_Setup+0x3e>
 8002e14:	884b      	ldrh	r3, [r1, #2]
 8002e16:	2400      	movs	r4, #0
 8002e18:	0a1b      	lsrs	r3, r3, #8
 8002e1a:	6053      	str	r3, [r2, #4]
 8002e1c:	e7c7      	b.n	8002dae <USBD_DrumController_Setup+0x3e>
 8002e1e:	884b      	ldrh	r3, [r1, #2]
 8002e20:	0a1b      	lsrs	r3, r3, #8
 8002e22:	2b22      	cmp	r3, #34	; 0x22
 8002e24:	d01f      	beq.n	8002e66 <USBD_DrumController_Setup+0xf6>
 8002e26:	2b21      	cmp	r3, #33	; 0x21
 8002e28:	d1be      	bne.n	8002da8 <USBD_DrumController_Setup+0x38>
 8002e2a:	88ca      	ldrh	r2, [r1, #6]
 8002e2c:	4911      	ldr	r1, [pc, #68]	; (8002e74 <USBD_DrumController_Setup+0x104>)
 8002e2e:	2a09      	cmp	r2, #9
 8002e30:	bf28      	it	cs
 8002e32:	2209      	movcs	r2, #9
 8002e34:	f004 fbbc 	bl	80075b0 <USBD_CtlSendData>
 8002e38:	e7b9      	b.n	8002dae <USBD_DrumController_Setup+0x3e>
 8002e3a:	f890 329c 	ldrb.w	r3, [r0, #668]	; 0x29c
 8002e3e:	2b03      	cmp	r3, #3
 8002e40:	d1b2      	bne.n	8002da8 <USBD_DrumController_Setup+0x38>
 8002e42:	788b      	ldrb	r3, [r1, #2]
 8002e44:	6093      	str	r3, [r2, #8]
 8002e46:	e7b2      	b.n	8002dae <USBD_DrumController_Setup+0x3e>
 8002e48:	f890 229c 	ldrb.w	r2, [r0, #668]	; 0x29c
 8002e4c:	2a03      	cmp	r2, #3
 8002e4e:	d1ab      	bne.n	8002da8 <USBD_DrumController_Setup+0x38>
 8002e50:	2202      	movs	r2, #2
 8002e52:	f10d 0106 	add.w	r1, sp, #6
 8002e56:	461c      	mov	r4, r3
 8002e58:	f004 fbaa 	bl	80075b0 <USBD_CtlSendData>
 8002e5c:	e7a7      	b.n	8002dae <USBD_DrumController_Setup+0x3e>
 8002e5e:	f102 0108 	add.w	r1, r2, #8
 8002e62:	2201      	movs	r2, #1
 8002e64:	e7e6      	b.n	8002e34 <USBD_DrumController_Setup+0xc4>
 8002e66:	88ca      	ldrh	r2, [r1, #6]
 8002e68:	4903      	ldr	r1, [pc, #12]	; (8002e78 <USBD_DrumController_Setup+0x108>)
 8002e6a:	2a56      	cmp	r2, #86	; 0x56
 8002e6c:	bf28      	it	cs
 8002e6e:	2256      	movcs	r2, #86	; 0x56
 8002e70:	e7e0      	b.n	8002e34 <USBD_DrumController_Setup+0xc4>
 8002e72:	bf00      	nop
 8002e74:	200001d0 	.word	0x200001d0
 8002e78:	20000134 	.word	0x20000134

08002e7c <USBD_DrumController_DeInit>:
 8002e7c:	b570      	push	{r4, r5, r6, lr}
 8002e7e:	4604      	mov	r4, r0
 8002e80:	2500      	movs	r5, #0
 8002e82:	460e      	mov	r6, r1
 8002e84:	2181      	movs	r1, #129	; 0x81
 8002e86:	f004 fe7b 	bl	8007b80 <USBD_LL_CloseEP>
 8002e8a:	4b05      	ldr	r3, [pc, #20]	; (8002ea0 <USBD_DrumController_DeInit+0x24>)
 8002e8c:	4631      	mov	r1, r6
 8002e8e:	4620      	mov	r0, r4
 8002e90:	685b      	ldr	r3, [r3, #4]
 8002e92:	62e5      	str	r5, [r4, #44]	; 0x2c
 8002e94:	4798      	blx	r3
 8002e96:	4628      	mov	r0, r5
 8002e98:	f8c4 52b8 	str.w	r5, [r4, #696]	; 0x2b8
 8002e9c:	bd70      	pop	{r4, r5, r6, pc}
 8002e9e:	bf00      	nop
 8002ea0:	2000018c 	.word	0x2000018c

08002ea4 <USBD_DrumController_Init>:
 8002ea4:	b538      	push	{r3, r4, r5, lr}
 8002ea6:	4604      	mov	r4, r0
 8002ea8:	f44f 700e 	mov.w	r0, #568	; 0x238
 8002eac:	f004 fed4 	bl	8007c58 <USBD_static_malloc>
 8002eb0:	b1a8      	cbz	r0, 8002ede <USBD_DrumController_Init+0x3a>
 8002eb2:	2500      	movs	r5, #0
 8002eb4:	f500 7009 	add.w	r0, r0, #548	; 0x224
 8002eb8:	f8c4 02b8 	str.w	r0, [r4, #696]	; 0x2b8
 8002ebc:	f8c4 02c8 	str.w	r0, [r4, #712]	; 0x2c8
 8002ec0:	2340      	movs	r3, #64	; 0x40
 8002ec2:	2203      	movs	r2, #3
 8002ec4:	2181      	movs	r1, #129	; 0x81
 8002ec6:	4620      	mov	r0, r4
 8002ec8:	f8c4 52bc 	str.w	r5, [r4, #700]	; 0x2bc
 8002ecc:	f004 fe48 	bl	8007b60 <USBD_LL_OpenEP>
 8002ed0:	2201      	movs	r2, #1
 8002ed2:	f8d4 32c8 	ldr.w	r3, [r4, #712]	; 0x2c8
 8002ed6:	61a2      	str	r2, [r4, #24]
 8002ed8:	731d      	strb	r5, [r3, #12]
 8002eda:	4628      	mov	r0, r5
 8002edc:	bd38      	pop	{r3, r4, r5, pc}
 8002ede:	f8c4 02b8 	str.w	r0, [r4, #696]	; 0x2b8
 8002ee2:	2002      	movs	r0, #2
 8002ee4:	bd38      	pop	{r3, r4, r5, pc}
 8002ee6:	bf00      	nop

08002ee8 <USBD_FS_ConfigStrDescriptor>:
 8002ee8:	b510      	push	{r4, lr}
 8002eea:	4c04      	ldr	r4, [pc, #16]	; (8002efc <USBD_FS_ConfigStrDescriptor+0x14>)
 8002eec:	460a      	mov	r2, r1
 8002eee:	4804      	ldr	r0, [pc, #16]	; (8002f00 <USBD_FS_ConfigStrDescriptor+0x18>)
 8002ef0:	4621      	mov	r1, r4
 8002ef2:	f004 fb37 	bl	8007564 <USBD_GetString>
 8002ef6:	4620      	mov	r0, r4
 8002ef8:	bd10      	pop	{r4, pc}
 8002efa:	bf00      	nop
 8002efc:	20001bac 	.word	0x20001bac
 8002f00:	08009334 	.word	0x08009334

08002f04 <USBD_FS_ProductStrDescriptor>:
 8002f04:	b510      	push	{r4, lr}
 8002f06:	4c04      	ldr	r4, [pc, #16]	; (8002f18 <USBD_FS_ProductStrDescriptor+0x14>)
 8002f08:	460a      	mov	r2, r1
 8002f0a:	4804      	ldr	r0, [pc, #16]	; (8002f1c <USBD_FS_ProductStrDescriptor+0x18>)
 8002f0c:	4621      	mov	r1, r4
 8002f0e:	f004 fb29 	bl	8007564 <USBD_GetString>
 8002f12:	4620      	mov	r0, r4
 8002f14:	bd10      	pop	{r4, pc}
 8002f16:	bf00      	nop
 8002f18:	20001bac 	.word	0x20001bac
 8002f1c:	08009344 	.word	0x08009344

08002f20 <USBD_DrumController_GetOtherSpeedCfgDesc>:
 8002f20:	4603      	mov	r3, r0
 8002f22:	2229      	movs	r2, #41	; 0x29
 8002f24:	4801      	ldr	r0, [pc, #4]	; (8002f2c <USBD_DrumController_GetOtherSpeedCfgDesc+0xc>)
 8002f26:	801a      	strh	r2, [r3, #0]
 8002f28:	4770      	bx	lr
 8002f2a:	bf00      	nop
 8002f2c:	200001dc 	.word	0x200001dc

08002f30 <USBD_DrumController_GetHSCfgDesc>:
 8002f30:	4603      	mov	r3, r0
 8002f32:	2229      	movs	r2, #41	; 0x29
 8002f34:	4801      	ldr	r0, [pc, #4]	; (8002f3c <USBD_DrumController_GetHSCfgDesc+0xc>)
 8002f36:	801a      	strh	r2, [r3, #0]
 8002f38:	4770      	bx	lr
 8002f3a:	bf00      	nop
 8002f3c:	200001dc 	.word	0x200001dc

08002f40 <USBD_DrumController_SendReport>:
 8002f40:	b538      	push	{r3, r4, r5, lr}
 8002f42:	f890 329c 	ldrb.w	r3, [r0, #668]	; 0x29c
 8002f46:	2b03      	cmp	r3, #3
 8002f48:	d001      	beq.n	8002f4e <USBD_DrumController_SendReport+0xe>
 8002f4a:	2000      	movs	r0, #0
 8002f4c:	bd38      	pop	{r3, r4, r5, pc}
 8002f4e:	f8d0 42c8 	ldr.w	r4, [r0, #712]	; 0x2c8
 8002f52:	7b23      	ldrb	r3, [r4, #12]
 8002f54:	2b00      	cmp	r3, #0
 8002f56:	d1f8      	bne.n	8002f4a <USBD_DrumController_SendReport+0xa>
 8002f58:	2501      	movs	r5, #1
 8002f5a:	4613      	mov	r3, r2
 8002f5c:	7325      	strb	r5, [r4, #12]
 8002f5e:	460a      	mov	r2, r1
 8002f60:	2181      	movs	r1, #129	; 0x81
 8002f62:	f004 fe59 	bl	8007c18 <USBD_LL_Transmit>
 8002f66:	2000      	movs	r0, #0
 8002f68:	bd38      	pop	{r3, r4, r5, pc}
 8002f6a:	bf00      	nop

08002f6c <Reset_Handler>:
 8002f6c:	f7ff fb0e 	bl	800258c <SystemInit>
 8002f70:	480b      	ldr	r0, [pc, #44]	; (8002fa0 <LoopFillZerobss+0xe>)
 8002f72:	490c      	ldr	r1, [pc, #48]	; (8002fa4 <LoopFillZerobss+0x12>)
 8002f74:	4a0c      	ldr	r2, [pc, #48]	; (8002fa8 <LoopFillZerobss+0x16>)
 8002f76:	2300      	movs	r3, #0
 8002f78:	e002      	b.n	8002f80 <LoopCopyDataInit>

08002f7a <CopyDataInit>:
 8002f7a:	58d4      	ldr	r4, [r2, r3]
 8002f7c:	50c4      	str	r4, [r0, r3]
 8002f7e:	3304      	adds	r3, #4

08002f80 <LoopCopyDataInit>:
 8002f80:	18c4      	adds	r4, r0, r3
 8002f82:	428c      	cmp	r4, r1
 8002f84:	d3f9      	bcc.n	8002f7a <CopyDataInit>
 8002f86:	4a09      	ldr	r2, [pc, #36]	; (8002fac <LoopFillZerobss+0x1a>)
 8002f88:	4c09      	ldr	r4, [pc, #36]	; (8002fb0 <LoopFillZerobss+0x1e>)
 8002f8a:	2300      	movs	r3, #0
 8002f8c:	e001      	b.n	8002f92 <LoopFillZerobss>

08002f8e <FillZerobss>:
 8002f8e:	6013      	str	r3, [r2, #0]
 8002f90:	3204      	adds	r2, #4

08002f92 <LoopFillZerobss>:
 8002f92:	42a2      	cmp	r2, r4
 8002f94:	d3fb      	bcc.n	8002f8e <FillZerobss>
 8002f96:	f004 fe6d 	bl	8007c74 <__libc_init_array>
 8002f9a:	f7fd fc89 	bl	80008b0 <main>
 8002f9e:	4770      	bx	lr
 8002fa0:	20000000 	.word	0x20000000
 8002fa4:	200004b0 	.word	0x200004b0
 8002fa8:	080093ac 	.word	0x080093ac
 8002fac:	200004b0 	.word	0x200004b0
 8002fb0:	20002d5c 	.word	0x20002d5c

08002fb4 <ADC1_2_IRQHandler>:
 8002fb4:	e7fe      	b.n	8002fb4 <ADC1_2_IRQHandler>
	...

08002fb8 <HAL_InitTick>:
 8002fb8:	b538      	push	{r3, r4, r5, lr}
 8002fba:	f44f 737a 	mov.w	r3, #1000	; 0x3e8
 8002fbe:	4a0d      	ldr	r2, [pc, #52]	; (8002ff4 <HAL_InitTick+0x3c>)
 8002fc0:	4605      	mov	r5, r0
 8002fc2:	7811      	ldrb	r1, [r2, #0]
 8002fc4:	4a0c      	ldr	r2, [pc, #48]	; (8002ff8 <HAL_InitTick+0x40>)
 8002fc6:	fbb3 f3f1 	udiv	r3, r3, r1
 8002fca:	6812      	ldr	r2, [r2, #0]
 8002fcc:	fbb2 f0f3 	udiv	r0, r2, r3
 8002fd0:	f000 fb04 	bl	80035dc <HAL_SYSTICK_Config>
 8002fd4:	b908      	cbnz	r0, 8002fda <HAL_InitTick+0x22>
 8002fd6:	2d0f      	cmp	r5, #15
 8002fd8:	d901      	bls.n	8002fde <HAL_InitTick+0x26>
 8002fda:	2001      	movs	r0, #1
 8002fdc:	bd38      	pop	{r3, r4, r5, pc}
 8002fde:	4604      	mov	r4, r0
 8002fe0:	4602      	mov	r2, r0
 8002fe2:	4629      	mov	r1, r5
 8002fe4:	f04f 30ff 	mov.w	r0, #4294967295
 8002fe8:	f000 fab2 	bl	8003550 <HAL_NVIC_SetPriority>
 8002fec:	4b03      	ldr	r3, [pc, #12]	; (8002ffc <HAL_InitTick+0x44>)
 8002fee:	4620      	mov	r0, r4
 8002ff0:	601d      	str	r5, [r3, #0]
 8002ff2:	bd38      	pop	{r3, r4, r5, pc}
 8002ff4:	2000023a 	.word	0x2000023a
 8002ff8:	20000008 	.word	0x20000008
 8002ffc:	2000023c 	.word	0x2000023c

08003000 <HAL_Init>:
 8003000:	4a07      	ldr	r2, [pc, #28]	; (8003020 <HAL_Init+0x20>)
 8003002:	b508      	push	{r3, lr}
 8003004:	6813      	ldr	r3, [r2, #0]
 8003006:	2003      	movs	r0, #3
 8003008:	f043 0310 	orr.w	r3, r3, #16
 800300c:	6013      	str	r3, [r2, #0]
 800300e:	f000 fa8d 	bl	800352c <HAL_NVIC_SetPriorityGrouping>
 8003012:	200f      	movs	r0, #15
 8003014:	f7ff ffd0 	bl	8002fb8 <HAL_InitTick>
 8003018:	f7ff f972 	bl	8002300 <HAL_MspInit>
 800301c:	2000      	movs	r0, #0
 800301e:	bd08      	pop	{r3, pc}
 8003020:	40022000 	.word	0x40022000

08003024 <HAL_IncTick>:
 8003024:	4a03      	ldr	r2, [pc, #12]	; (8003034 <HAL_IncTick+0x10>)
 8003026:	4b04      	ldr	r3, [pc, #16]	; (8003038 <HAL_IncTick+0x14>)
 8003028:	6811      	ldr	r1, [r2, #0]
 800302a:	781b      	ldrb	r3, [r3, #0]
 800302c:	440b      	add	r3, r1
 800302e:	6013      	str	r3, [r2, #0]
 8003030:	4770      	bx	lr
 8003032:	bf00      	nop
 8003034:	20002784 	.word	0x20002784
 8003038:	2000023a 	.word	0x2000023a

0800303c <HAL_GetTick>:
 800303c:	4b01      	ldr	r3, [pc, #4]	; (8003044 <HAL_GetTick+0x8>)
 800303e:	6818      	ldr	r0, [r3, #0]
 8003040:	4770      	bx	lr
 8003042:	bf00      	nop
 8003044:	20002784 	.word	0x20002784

08003048 <HAL_Delay>:
 8003048:	b538      	push	{r3, r4, r5, lr}
 800304a:	4604      	mov	r4, r0
 800304c:	f7ff fff6 	bl	800303c <HAL_GetTick>
 8003050:	1c63      	adds	r3, r4, #1
 8003052:	4605      	mov	r5, r0
 8003054:	d002      	beq.n	800305c <HAL_Delay+0x14>
 8003056:	4b04      	ldr	r3, [pc, #16]	; (8003068 <HAL_Delay+0x20>)
 8003058:	781b      	ldrb	r3, [r3, #0]
 800305a:	441c      	add	r4, r3
 800305c:	f7ff ffee 	bl	800303c <HAL_GetTick>
 8003060:	1b40      	subs	r0, r0, r5
 8003062:	42a0      	cmp	r0, r4
 8003064:	d3fa      	bcc.n	800305c <HAL_Delay+0x14>
 8003066:	bd38      	pop	{r3, r4, r5, pc}
 8003068:	2000023a 	.word	0x2000023a

0800306c <ADC_DMAConvCplt>:
 800306c:	6a43      	ldr	r3, [r0, #36]	; 0x24
 800306e:	6a9a      	ldr	r2, [r3, #40]	; 0x28
 8003070:	f012 0f50 	tst.w	r2, #80	; 0x50
 8003074:	d10f      	bne.n	8003096 <ADC_DMAConvCplt+0x2a>
 8003076:	6a9a      	ldr	r2, [r3, #40]	; 0x28
 8003078:	6819      	ldr	r1, [r3, #0]
 800307a:	f442 7200 	orr.w	r2, r2, #512	; 0x200
 800307e:	b510      	push	{r4, lr}
 8003080:	629a      	str	r2, [r3, #40]	; 0x28
 8003082:	688a      	ldr	r2, [r1, #8]
 8003084:	f402 2260 	and.w	r2, r2, #917504	; 0xe0000
 8003088:	f5b2 2f60 	cmp.w	r2, #917504	; 0xe0000
 800308c:	d006      	beq.n	800309c <ADC_DMAConvCplt+0x30>
 800308e:	4618      	mov	r0, r3
 8003090:	f7fd fda6 	bl	8000be0 <HAL_ADC_ConvCpltCallback>
 8003094:	bd10      	pop	{r4, pc}
 8003096:	6a1b      	ldr	r3, [r3, #32]
 8003098:	6b1b      	ldr	r3, [r3, #48]	; 0x30
 800309a:	4718      	bx	r3
 800309c:	7b1a      	ldrb	r2, [r3, #12]
 800309e:	2a00      	cmp	r2, #0
 80030a0:	d1f5      	bne.n	800308e <ADC_DMAConvCplt+0x22>
 80030a2:	6a9a      	ldr	r2, [r3, #40]	; 0x28
 80030a4:	f422 7280 	bic.w	r2, r2, #256	; 0x100
 80030a8:	629a      	str	r2, [r3, #40]	; 0x28
 80030aa:	6a9a      	ldr	r2, [r3, #40]	; 0x28
 80030ac:	04d2      	lsls	r2, r2, #19
 80030ae:	d4ee      	bmi.n	800308e <ADC_DMAConvCplt+0x22>
 80030b0:	6a9a      	ldr	r2, [r3, #40]	; 0x28
 80030b2:	f042 0201 	orr.w	r2, r2, #1
 80030b6:	629a      	str	r2, [r3, #40]	; 0x28
 80030b8:	e7e9      	b.n	800308e <ADC_DMAConvCplt+0x22>
 80030ba:	bf00      	nop

080030bc <ADC_DMAHalfConvCplt>:
 80030bc:	b508      	push	{r3, lr}
 80030be:	6a40      	ldr	r0, [r0, #36]	; 0x24
 80030c0:	f7fd fd68 	bl	8000b94 <HAL_ADC_ConvHalfCpltCallback>
 80030c4:	bd08      	pop	{r3, pc}
 80030c6:	bf00      	nop

080030c8 <HAL_ADC_ErrorCallback>:
 80030c8:	4770      	bx	lr
 80030ca:	bf00      	nop

080030cc <ADC_DMAError>:
 80030cc:	6a40      	ldr	r0, [r0, #36]	; 0x24
 80030ce:	b508      	push	{r3, lr}
 80030d0:	6a83      	ldr	r3, [r0, #40]	; 0x28
 80030d2:	f043 0340 	orr.w	r3, r3, #64	; 0x40
 80030d6:	6283      	str	r3, [r0, #40]	; 0x28
 80030d8:	6ac3      	ldr	r3, [r0, #44]	; 0x2c
 80030da:	f043 0304 	orr.w	r3, r3, #4
 80030de:	62c3      	str	r3, [r0, #44]	; 0x2c
 80030e0:	f7ff fff2 	bl	80030c8 <HAL_ADC_ErrorCallback>
 80030e4:	bd08      	pop	{r3, pc}
 80030e6:	bf00      	nop

080030e8 <HAL_ADC_ConfigChannel>:
 80030e8:	4602      	mov	r2, r0
 80030ea:	2000      	movs	r0, #0
 80030ec:	b470      	push	{r4, r5, r6}
 80030ee:	f892 3024 	ldrb.w	r3, [r2, #36]	; 0x24
 80030f2:	b083      	sub	sp, #12
 80030f4:	2b01      	cmp	r3, #1
 80030f6:	9001      	str	r0, [sp, #4]
 80030f8:	d05b      	beq.n	80031b2 <HAL_ADC_ConfigChannel+0xca>
 80030fa:	2301      	movs	r3, #1
 80030fc:	f882 3024 	strb.w	r3, [r2, #36]	; 0x24
 8003100:	684b      	ldr	r3, [r1, #4]
 8003102:	261f      	movs	r6, #31
 8003104:	2b06      	cmp	r3, #6
 8003106:	6814      	ldr	r4, [r2, #0]
 8003108:	d92d      	bls.n	8003166 <HAL_ADC_ConfigChannel+0x7e>
 800310a:	2b0c      	cmp	r3, #12
 800310c:	eb03 0383 	add.w	r3, r3, r3, lsl #2
 8003110:	d844      	bhi.n	800319c <HAL_ADC_ConfigChannel+0xb4>
 8003112:	6b25      	ldr	r5, [r4, #48]	; 0x30
 8003114:	6808      	ldr	r0, [r1, #0]
 8003116:	3b23      	subs	r3, #35	; 0x23
 8003118:	409e      	lsls	r6, r3
 800311a:	ea25 0506 	bic.w	r5, r5, r6
 800311e:	fa00 f303 	lsl.w	r3, r0, r3
 8003122:	432b      	orrs	r3, r5
 8003124:	6323      	str	r3, [r4, #48]	; 0x30
 8003126:	2809      	cmp	r0, #9
 8003128:	d92b      	bls.n	8003182 <HAL_ADC_ConfigChannel+0x9a>
 800312a:	2607      	movs	r6, #7
 800312c:	eb00 0340 	add.w	r3, r0, r0, lsl #1
 8003130:	688d      	ldr	r5, [r1, #8]
 8003132:	3b1e      	subs	r3, #30
 8003134:	68e1      	ldr	r1, [r4, #12]
 8003136:	409e      	lsls	r6, r3
 8003138:	409d      	lsls	r5, r3
 800313a:	ea21 0306 	bic.w	r3, r1, r6
 800313e:	f1a0 0110 	sub.w	r1, r0, #16
 8003142:	432b      	orrs	r3, r5
 8003144:	2901      	cmp	r1, #1
 8003146:	60e3      	str	r3, [r4, #12]
 8003148:	d826      	bhi.n	8003198 <HAL_ADC_ConfigChannel+0xb0>
 800314a:	4b2a      	ldr	r3, [pc, #168]	; (80031f4 <HAL_ADC_ConfigChannel+0x10c>)
 800314c:	429c      	cmp	r4, r3
 800314e:	d034      	beq.n	80031ba <HAL_ADC_ConfigChannel+0xd2>
 8003150:	2001      	movs	r0, #1
 8003152:	6a93      	ldr	r3, [r2, #40]	; 0x28
 8003154:	f043 0320 	orr.w	r3, r3, #32
 8003158:	6293      	str	r3, [r2, #40]	; 0x28
 800315a:	2300      	movs	r3, #0
 800315c:	f882 3024 	strb.w	r3, [r2, #36]	; 0x24
 8003160:	b003      	add	sp, #12
 8003162:	bc70      	pop	{r4, r5, r6}
 8003164:	4770      	bx	lr
 8003166:	eb03 0383 	add.w	r3, r3, r3, lsl #2
 800316a:	6808      	ldr	r0, [r1, #0]
 800316c:	6b65      	ldr	r5, [r4, #52]	; 0x34
 800316e:	3b05      	subs	r3, #5
 8003170:	409e      	lsls	r6, r3
 8003172:	ea25 0506 	bic.w	r5, r5, r6
 8003176:	fa00 f303 	lsl.w	r3, r0, r3
 800317a:	432b      	orrs	r3, r5
 800317c:	2809      	cmp	r0, #9
 800317e:	6363      	str	r3, [r4, #52]	; 0x34
 8003180:	d8d3      	bhi.n	800312a <HAL_ADC_ConfigChannel+0x42>
 8003182:	2507      	movs	r5, #7
 8003184:	eb00 0040 	add.w	r0, r0, r0, lsl #1
 8003188:	6889      	ldr	r1, [r1, #8]
 800318a:	6923      	ldr	r3, [r4, #16]
 800318c:	4085      	lsls	r5, r0
 800318e:	4081      	lsls	r1, r0
 8003190:	ea23 0005 	bic.w	r0, r3, r5
 8003194:	4308      	orrs	r0, r1
 8003196:	6120      	str	r0, [r4, #16]
 8003198:	2000      	movs	r0, #0
 800319a:	e7de      	b.n	800315a <HAL_ADC_ConfigChannel+0x72>
 800319c:	6ae5      	ldr	r5, [r4, #44]	; 0x2c
 800319e:	6808      	ldr	r0, [r1, #0]
 80031a0:	3b41      	subs	r3, #65	; 0x41
 80031a2:	409e      	lsls	r6, r3
 80031a4:	ea25 0506 	bic.w	r5, r5, r6
 80031a8:	fa00 f303 	lsl.w	r3, r0, r3
 80031ac:	432b      	orrs	r3, r5
 80031ae:	62e3      	str	r3, [r4, #44]	; 0x2c
 80031b0:	e7b9      	b.n	8003126 <HAL_ADC_ConfigChannel+0x3e>
 80031b2:	2002      	movs	r0, #2
 80031b4:	b003      	add	sp, #12
 80031b6:	bc70      	pop	{r4, r5, r6}
 80031b8:	4770      	bx	lr
 80031ba:	68a3      	ldr	r3, [r4, #8]
 80031bc:	021b      	lsls	r3, r3, #8
 80031be:	d4eb      	bmi.n	8003198 <HAL_ADC_ConfigChannel+0xb0>
 80031c0:	68a3      	ldr	r3, [r4, #8]
 80031c2:	2810      	cmp	r0, #16
 80031c4:	f443 0300 	orr.w	r3, r3, #8388608	; 0x800000
 80031c8:	60a3      	str	r3, [r4, #8]
 80031ca:	d1e5      	bne.n	8003198 <HAL_ADC_ConfigChannel+0xb0>
 80031cc:	4b0a      	ldr	r3, [pc, #40]	; (80031f8 <HAL_ADC_ConfigChannel+0x110>)
 80031ce:	490b      	ldr	r1, [pc, #44]	; (80031fc <HAL_ADC_ConfigChannel+0x114>)
 80031d0:	681b      	ldr	r3, [r3, #0]
 80031d2:	fba1 1303 	umull	r1, r3, r1, r3
 80031d6:	0c9b      	lsrs	r3, r3, #18
 80031d8:	eb03 0383 	add.w	r3, r3, r3, lsl #2
 80031dc:	005b      	lsls	r3, r3, #1
 80031de:	9301      	str	r3, [sp, #4]
 80031e0:	9b01      	ldr	r3, [sp, #4]
 80031e2:	2b00      	cmp	r3, #0
 80031e4:	d0d8      	beq.n	8003198 <HAL_ADC_ConfigChannel+0xb0>
 80031e6:	9b01      	ldr	r3, [sp, #4]
 80031e8:	3b01      	subs	r3, #1
 80031ea:	9301      	str	r3, [sp, #4]
 80031ec:	9b01      	ldr	r3, [sp, #4]
 80031ee:	2b00      	cmp	r3, #0
 80031f0:	d1f9      	bne.n	80031e6 <HAL_ADC_ConfigChannel+0xfe>
 80031f2:	e7d1      	b.n	8003198 <HAL_ADC_ConfigChannel+0xb0>
 80031f4:	40012400 	.word	0x40012400
 80031f8:	20000008 	.word	0x20000008
 80031fc:	431bde83 	.word	0x431bde83

08003200 <ADC_Enable>:
 8003200:	2300      	movs	r3, #0
 8003202:	b530      	push	{r4, r5, lr}
 8003204:	6802      	ldr	r2, [r0, #0]
 8003206:	b083      	sub	sp, #12
 8003208:	9301      	str	r3, [sp, #4]
 800320a:	6893      	ldr	r3, [r2, #8]
 800320c:	07d9      	lsls	r1, r3, #31
 800320e:	d427      	bmi.n	8003260 <ADC_Enable+0x60>
 8003210:	4b1b      	ldr	r3, [pc, #108]	; (8003280 <ADC_Enable+0x80>)
 8003212:	4604      	mov	r4, r0
 8003214:	681b      	ldr	r3, [r3, #0]
 8003216:	481b      	ldr	r0, [pc, #108]	; (8003284 <ADC_Enable+0x84>)
 8003218:	6891      	ldr	r1, [r2, #8]
 800321a:	fba0 0303 	umull	r0, r3, r0, r3
 800321e:	f041 0101 	orr.w	r1, r1, #1
 8003222:	0c9b      	lsrs	r3, r3, #18
 8003224:	6091      	str	r1, [r2, #8]
 8003226:	9301      	str	r3, [sp, #4]
 8003228:	9b01      	ldr	r3, [sp, #4]
 800322a:	b12b      	cbz	r3, 8003238 <ADC_Enable+0x38>
 800322c:	9b01      	ldr	r3, [sp, #4]
 800322e:	3b01      	subs	r3, #1
 8003230:	9301      	str	r3, [sp, #4]
 8003232:	9b01      	ldr	r3, [sp, #4]
 8003234:	2b00      	cmp	r3, #0
 8003236:	d1f9      	bne.n	800322c <ADC_Enable+0x2c>
 8003238:	f7ff ff00 	bl	800303c <HAL_GetTick>
 800323c:	6823      	ldr	r3, [r4, #0]
 800323e:	4605      	mov	r5, r0
 8003240:	689b      	ldr	r3, [r3, #8]
 8003242:	07da      	lsls	r2, r3, #31
 8003244:	d40c      	bmi.n	8003260 <ADC_Enable+0x60>
 8003246:	f7ff fef9 	bl	800303c <HAL_GetTick>
 800324a:	1b43      	subs	r3, r0, r5
 800324c:	2b02      	cmp	r3, #2
 800324e:	6823      	ldr	r3, [r4, #0]
 8003250:	d903      	bls.n	800325a <ADC_Enable+0x5a>
 8003252:	689a      	ldr	r2, [r3, #8]
 8003254:	f012 0201 	ands.w	r2, r2, #1
 8003258:	d005      	beq.n	8003266 <ADC_Enable+0x66>
 800325a:	689b      	ldr	r3, [r3, #8]
 800325c:	07db      	lsls	r3, r3, #31
 800325e:	d5f2      	bpl.n	8003246 <ADC_Enable+0x46>
 8003260:	2000      	movs	r0, #0
 8003262:	b003      	add	sp, #12
 8003264:	bd30      	pop	{r4, r5, pc}
 8003266:	2001      	movs	r0, #1
 8003268:	6aa3      	ldr	r3, [r4, #40]	; 0x28
 800326a:	f884 2024 	strb.w	r2, [r4, #36]	; 0x24
 800326e:	f043 0310 	orr.w	r3, r3, #16
 8003272:	62a3      	str	r3, [r4, #40]	; 0x28
 8003274:	6ae3      	ldr	r3, [r4, #44]	; 0x2c
 8003276:	4303      	orrs	r3, r0
 8003278:	62e3      	str	r3, [r4, #44]	; 0x2c
 800327a:	b003      	add	sp, #12
 800327c:	bd30      	pop	{r4, r5, pc}
 800327e:	bf00      	nop
 8003280:	20000008 	.word	0x20000008
 8003284:	431bde83 	.word	0x431bde83

08003288 <HAL_ADC_Start_DMA>:
 8003288:	b5f8      	push	{r3, r4, r5, r6, r7, lr}
 800328a:	4604      	mov	r4, r0
 800328c:	4d40      	ldr	r5, [pc, #256]	; (8003390 <HAL_ADC_Start_DMA+0x108>)
 800328e:	6800      	ldr	r0, [r0, #0]
 8003290:	460f      	mov	r7, r1
 8003292:	42a8      	cmp	r0, r5
 8003294:	4616      	mov	r6, r2
 8003296:	d05c      	beq.n	8003352 <HAL_ADC_Start_DMA+0xca>
 8003298:	4b3e      	ldr	r3, [pc, #248]	; (8003394 <HAL_ADC_Start_DMA+0x10c>)
 800329a:	4298      	cmp	r0, r3
 800329c:	d059      	beq.n	8003352 <HAL_ADC_Start_DMA+0xca>
 800329e:	f894 3024 	ldrb.w	r3, [r4, #36]	; 0x24
 80032a2:	2b01      	cmp	r3, #1
 80032a4:	d062      	beq.n	800336c <HAL_ADC_Start_DMA+0xe4>
 80032a6:	2301      	movs	r3, #1
 80032a8:	4620      	mov	r0, r4
 80032aa:	f884 3024 	strb.w	r3, [r4, #36]	; 0x24
 80032ae:	f7ff ffa7 	bl	8003200 <ADC_Enable>
 80032b2:	4605      	mov	r5, r0
 80032b4:	2800      	cmp	r0, #0
 80032b6:	d154      	bne.n	8003362 <HAL_ADC_Start_DMA+0xda>
 80032b8:	6aa0      	ldr	r0, [r4, #40]	; 0x28
 80032ba:	6821      	ldr	r1, [r4, #0]
 80032bc:	4b35      	ldr	r3, [pc, #212]	; (8003394 <HAL_ADC_Start_DMA+0x10c>)
 80032be:	f420 6070 	bic.w	r0, r0, #3840	; 0xf00
 80032c2:	f020 0001 	bic.w	r0, r0, #1
 80032c6:	f440 7080 	orr.w	r0, r0, #256	; 0x100
 80032ca:	4299      	cmp	r1, r3
 80032cc:	62a0      	str	r0, [r4, #40]	; 0x28
 80032ce:	d050      	beq.n	8003372 <HAL_ADC_Start_DMA+0xea>
 80032d0:	6aa3      	ldr	r3, [r4, #40]	; 0x28
 80032d2:	f423 1380 	bic.w	r3, r3, #1048576	; 0x100000
 80032d6:	62a3      	str	r3, [r4, #40]	; 0x28
 80032d8:	684b      	ldr	r3, [r1, #4]
 80032da:	055a      	lsls	r2, r3, #21
 80032dc:	d505      	bpl.n	80032ea <HAL_ADC_Start_DMA+0x62>
 80032de:	6aa3      	ldr	r3, [r4, #40]	; 0x28
 80032e0:	f423 5340 	bic.w	r3, r3, #12288	; 0x3000
 80032e4:	f443 5380 	orr.w	r3, r3, #4096	; 0x1000
 80032e8:	62a3      	str	r3, [r4, #40]	; 0x28
 80032ea:	6aa3      	ldr	r3, [r4, #40]	; 0x28
 80032ec:	f06f 0202 	mvn.w	r2, #2
 80032f0:	f413 5380 	ands.w	r3, r3, #4096	; 0x1000
 80032f4:	bf18      	it	ne
 80032f6:	6ae3      	ldrne	r3, [r4, #44]	; 0x2c
 80032f8:	6a20      	ldr	r0, [r4, #32]
 80032fa:	bf18      	it	ne
 80032fc:	f023 0306 	bicne.w	r3, r3, #6
 8003300:	62e3      	str	r3, [r4, #44]	; 0x2c
 8003302:	2300      	movs	r3, #0
 8003304:	f8df c094 	ldr.w	ip, [pc, #148]	; 800339c <HAL_ADC_Start_DMA+0x114>
 8003308:	f884 3024 	strb.w	r3, [r4, #36]	; 0x24
 800330c:	4b22      	ldr	r3, [pc, #136]	; (8003398 <HAL_ADC_Start_DMA+0x110>)
 800330e:	314c      	adds	r1, #76	; 0x4c
 8003310:	e9c0 c30a 	strd	ip, r3, [r0, #40]	; 0x28
 8003314:	f8df c088 	ldr.w	ip, [pc, #136]	; 80033a0 <HAL_ADC_Start_DMA+0x118>
 8003318:	4633      	mov	r3, r6
 800331a:	f8c0 c030 	str.w	ip, [r0, #48]	; 0x30
 800331e:	f841 2c4c 	str.w	r2, [r1, #-76]
 8003322:	f851 6c44 	ldr.w	r6, [r1, #-68]
 8003326:	463a      	mov	r2, r7
 8003328:	f446 7680 	orr.w	r6, r6, #256	; 0x100
 800332c:	f841 6c44 	str.w	r6, [r1, #-68]
 8003330:	f000 f9a4 	bl	800367c <HAL_DMA_Start_IT>
 8003334:	6823      	ldr	r3, [r4, #0]
 8003336:	4628      	mov	r0, r5
 8003338:	689a      	ldr	r2, [r3, #8]
 800333a:	f402 2260 	and.w	r2, r2, #917504	; 0xe0000
 800333e:	f5b2 2f60 	cmp.w	r2, #917504	; 0xe0000
 8003342:	689a      	ldr	r2, [r3, #8]
 8003344:	bf0c      	ite	eq
 8003346:	f442 02a0 	orreq.w	r2, r2, #5242880	; 0x500000
 800334a:	f442 1280 	orrne.w	r2, r2, #1048576	; 0x100000
 800334e:	609a      	str	r2, [r3, #8]
 8003350:	bdf8      	pop	{r3, r4, r5, r6, r7, pc}
 8003352:	4b0f      	ldr	r3, [pc, #60]	; (8003390 <HAL_ADC_Start_DMA+0x108>)
 8003354:	685b      	ldr	r3, [r3, #4]
 8003356:	f413 2f70 	tst.w	r3, #983040	; 0xf0000
 800335a:	d0a0      	beq.n	800329e <HAL_ADC_Start_DMA+0x16>
 800335c:	2501      	movs	r5, #1
 800335e:	4628      	mov	r0, r5
 8003360:	bdf8      	pop	{r3, r4, r5, r6, r7, pc}
 8003362:	2300      	movs	r3, #0
 8003364:	f884 3024 	strb.w	r3, [r4, #36]	; 0x24
 8003368:	4628      	mov	r0, r5
 800336a:	bdf8      	pop	{r3, r4, r5, r6, r7, pc}
 800336c:	2502      	movs	r5, #2
 800336e:	4628      	mov	r0, r5
 8003370:	bdf8      	pop	{r3, r4, r5, r6, r7, pc}
 8003372:	f5a3 6380 	sub.w	r3, r3, #1024	; 0x400
 8003376:	685a      	ldr	r2, [r3, #4]
 8003378:	f412 2f70 	tst.w	r2, #983040	; 0xf0000
 800337c:	d0a8      	beq.n	80032d0 <HAL_ADC_Start_DMA+0x48>
 800337e:	6aa2      	ldr	r2, [r4, #40]	; 0x28
 8003380:	f442 1280 	orr.w	r2, r2, #1048576	; 0x100000
 8003384:	62a2      	str	r2, [r4, #40]	; 0x28
 8003386:	685b      	ldr	r3, [r3, #4]
 8003388:	055b      	lsls	r3, r3, #21
 800338a:	d5ae      	bpl.n	80032ea <HAL_ADC_Start_DMA+0x62>
 800338c:	e7a7      	b.n	80032de <HAL_ADC_Start_DMA+0x56>
 800338e:	bf00      	nop
 8003390:	40012400 	.word	0x40012400
 8003394:	40012800 	.word	0x40012800
 8003398:	080030bd 	.word	0x080030bd
 800339c:	0800306d 	.word	0x0800306d
 80033a0:	080030cd 	.word	0x080030cd

080033a4 <ADC_ConversionStop_Disable>:
 80033a4:	b538      	push	{r3, r4, r5, lr}
 80033a6:	6803      	ldr	r3, [r0, #0]
 80033a8:	689a      	ldr	r2, [r3, #8]
 80033aa:	07d4      	lsls	r4, r2, #31
 80033ac:	d401      	bmi.n	80033b2 <ADC_ConversionStop_Disable+0xe>
 80033ae:	2000      	movs	r0, #0
 80033b0:	bd38      	pop	{r3, r4, r5, pc}
 80033b2:	689a      	ldr	r2, [r3, #8]
 80033b4:	4604      	mov	r4, r0
 80033b6:	f022 0201 	bic.w	r2, r2, #1
 80033ba:	609a      	str	r2, [r3, #8]
 80033bc:	f7ff fe3e 	bl	800303c <HAL_GetTick>
 80033c0:	4605      	mov	r5, r0
 80033c2:	6823      	ldr	r3, [r4, #0]
 80033c4:	689b      	ldr	r3, [r3, #8]
 80033c6:	07d9      	lsls	r1, r3, #31
 80033c8:	d5f1      	bpl.n	80033ae <ADC_ConversionStop_Disable+0xa>
 80033ca:	f7ff fe37 	bl	800303c <HAL_GetTick>
 80033ce:	1b43      	subs	r3, r0, r5
 80033d0:	2b02      	cmp	r3, #2
 80033d2:	6823      	ldr	r3, [r4, #0]
 80033d4:	d9f6      	bls.n	80033c4 <ADC_ConversionStop_Disable+0x20>
 80033d6:	689a      	ldr	r2, [r3, #8]
 80033d8:	07d2      	lsls	r2, r2, #31
 80033da:	d5f3      	bpl.n	80033c4 <ADC_ConversionStop_Disable+0x20>
 80033dc:	2001      	movs	r0, #1
 80033de:	6aa3      	ldr	r3, [r4, #40]	; 0x28
 80033e0:	f043 0310 	orr.w	r3, r3, #16
 80033e4:	62a3      	str	r3, [r4, #40]	; 0x28
 80033e6:	6ae3      	ldr	r3, [r4, #44]	; 0x2c
 80033e8:	4303      	orrs	r3, r0
 80033ea:	62e3      	str	r3, [r4, #44]	; 0x2c
 80033ec:	bd38      	pop	{r3, r4, r5, pc}
 80033ee:	bf00      	nop

080033f0 <HAL_ADC_Init>:
 80033f0:	2800      	cmp	r0, #0
 80033f2:	d069      	beq.n	80034c8 <HAL_ADC_Init+0xd8>
 80033f4:	b5f8      	push	{r3, r4, r5, r6, r7, lr}
 80033f6:	6a83      	ldr	r3, [r0, #40]	; 0x28
 80033f8:	4604      	mov	r4, r0
 80033fa:	2b00      	cmp	r3, #0
 80033fc:	d04c      	beq.n	8003498 <HAL_ADC_Init+0xa8>
 80033fe:	4620      	mov	r0, r4
 8003400:	f7ff ffd0 	bl	80033a4 <ADC_ConversionStop_Disable>
 8003404:	6aa3      	ldr	r3, [r4, #40]	; 0x28
 8003406:	f013 0310 	ands.w	r3, r3, #16
 800340a:	d13f      	bne.n	800348c <HAL_ADC_Init+0x9c>
 800340c:	2800      	cmp	r0, #0
 800340e:	d13d      	bne.n	800348c <HAL_ADC_Init+0x9c>
 8003410:	6aa2      	ldr	r2, [r4, #40]	; 0x28
 8003412:	69e5      	ldr	r5, [r4, #28]
 8003414:	6861      	ldr	r1, [r4, #4]
 8003416:	f422 5288 	bic.w	r2, r2, #4352	; 0x1100
 800341a:	4329      	orrs	r1, r5
 800341c:	68a5      	ldr	r5, [r4, #8]
 800341e:	7b26      	ldrb	r6, [r4, #12]
 8003420:	f022 0202 	bic.w	r2, r2, #2
 8003424:	f042 0202 	orr.w	r2, r2, #2
 8003428:	f5b5 7f80 	cmp.w	r5, #256	; 0x100
 800342c:	62a2      	str	r2, [r4, #40]	; 0x28
 800342e:	ea41 0146 	orr.w	r1, r1, r6, lsl #1
 8003432:	7d22      	ldrb	r2, [r4, #20]
 8003434:	d036      	beq.n	80034a4 <HAL_ADC_Init+0xb4>
 8003436:	2d01      	cmp	r5, #1
 8003438:	bf0c      	ite	eq
 800343a:	f44f 7c80 	moveq.w	ip, #256	; 0x100
 800343e:	f04f 0c00 	movne.w	ip, #0
 8003442:	2a01      	cmp	r2, #1
 8003444:	d04c      	beq.n	80034e0 <HAL_ADC_Init+0xf0>
 8003446:	6822      	ldr	r2, [r4, #0]
 8003448:	4e36      	ldr	r6, [pc, #216]	; (8003524 <HAL_ADC_Init+0x134>)
 800344a:	6857      	ldr	r7, [r2, #4]
 800344c:	f427 4769 	bic.w	r7, r7, #59648	; 0xe900
 8003450:	ea47 070c 	orr.w	r7, r7, ip
 8003454:	6057      	str	r7, [r2, #4]
 8003456:	6897      	ldr	r7, [r2, #8]
 8003458:	403e      	ands	r6, r7
 800345a:	430e      	orrs	r6, r1
 800345c:	6096      	str	r6, [r2, #8]
 800345e:	2d01      	cmp	r5, #1
 8003460:	d02e      	beq.n	80034c0 <HAL_ADC_Init+0xd0>
 8003462:	6ad5      	ldr	r5, [r2, #44]	; 0x2c
 8003464:	4e30      	ldr	r6, [pc, #192]	; (8003528 <HAL_ADC_Init+0x138>)
 8003466:	f425 0570 	bic.w	r5, r5, #15728640	; 0xf00000
 800346a:	432b      	orrs	r3, r5
 800346c:	62d3      	str	r3, [r2, #44]	; 0x2c
 800346e:	6893      	ldr	r3, [r2, #8]
 8003470:	401e      	ands	r6, r3
 8003472:	42b1      	cmp	r1, r6
 8003474:	d02a      	beq.n	80034cc <HAL_ADC_Init+0xdc>
 8003476:	2001      	movs	r0, #1
 8003478:	6aa3      	ldr	r3, [r4, #40]	; 0x28
 800347a:	f023 0312 	bic.w	r3, r3, #18
 800347e:	f043 0310 	orr.w	r3, r3, #16
 8003482:	62a3      	str	r3, [r4, #40]	; 0x28
 8003484:	6ae3      	ldr	r3, [r4, #44]	; 0x2c
 8003486:	4303      	orrs	r3, r0
 8003488:	62e3      	str	r3, [r4, #44]	; 0x2c
 800348a:	bdf8      	pop	{r3, r4, r5, r6, r7, pc}
 800348c:	6aa3      	ldr	r3, [r4, #40]	; 0x28
 800348e:	2001      	movs	r0, #1
 8003490:	f043 0310 	orr.w	r3, r3, #16
 8003494:	62a3      	str	r3, [r4, #40]	; 0x28
 8003496:	bdf8      	pop	{r3, r4, r5, r6, r7, pc}
 8003498:	62c3      	str	r3, [r0, #44]	; 0x2c
 800349a:	f880 3024 	strb.w	r3, [r0, #36]	; 0x24
 800349e:	f7fe ff51 	bl	8002344 <HAL_ADC_MspInit>
 80034a2:	e7ac      	b.n	80033fe <HAL_ADC_Init+0xe>
 80034a4:	2a01      	cmp	r2, #1
 80034a6:	d01a      	beq.n	80034de <HAL_ADC_Init+0xee>
 80034a8:	6822      	ldr	r2, [r4, #0]
 80034aa:	4b1e      	ldr	r3, [pc, #120]	; (8003524 <HAL_ADC_Init+0x134>)
 80034ac:	6855      	ldr	r5, [r2, #4]
 80034ae:	f425 4569 	bic.w	r5, r5, #59648	; 0xe900
 80034b2:	f445 7580 	orr.w	r5, r5, #256	; 0x100
 80034b6:	6055      	str	r5, [r2, #4]
 80034b8:	6895      	ldr	r5, [r2, #8]
 80034ba:	402b      	ands	r3, r5
 80034bc:	430b      	orrs	r3, r1
 80034be:	6093      	str	r3, [r2, #8]
 80034c0:	6923      	ldr	r3, [r4, #16]
 80034c2:	3b01      	subs	r3, #1
 80034c4:	051b      	lsls	r3, r3, #20
 80034c6:	e7cc      	b.n	8003462 <HAL_ADC_Init+0x72>
 80034c8:	2001      	movs	r0, #1
 80034ca:	4770      	bx	lr
 80034cc:	2300      	movs	r3, #0
 80034ce:	62e3      	str	r3, [r4, #44]	; 0x2c
 80034d0:	6aa3      	ldr	r3, [r4, #40]	; 0x28
 80034d2:	f023 0303 	bic.w	r3, r3, #3
 80034d6:	f043 0301 	orr.w	r3, r3, #1
 80034da:	62a3      	str	r3, [r4, #40]	; 0x28
 80034dc:	bdf8      	pop	{r3, r4, r5, r6, r7, pc}
 80034de:	46ac      	mov	ip, r5
 80034e0:	b1ce      	cbz	r6, 8003516 <HAL_ADC_Init+0x126>
 80034e2:	6aa2      	ldr	r2, [r4, #40]	; 0x28
 80034e4:	f042 0220 	orr.w	r2, r2, #32
 80034e8:	62a2      	str	r2, [r4, #40]	; 0x28
 80034ea:	6ae2      	ldr	r2, [r4, #44]	; 0x2c
 80034ec:	f042 0201 	orr.w	r2, r2, #1
 80034f0:	62e2      	str	r2, [r4, #44]	; 0x2c
 80034f2:	6822      	ldr	r2, [r4, #0]
 80034f4:	4e0b      	ldr	r6, [pc, #44]	; (8003524 <HAL_ADC_Init+0x134>)
 80034f6:	6857      	ldr	r7, [r2, #4]
 80034f8:	f5b5 7f80 	cmp.w	r5, #256	; 0x100
 80034fc:	f427 4769 	bic.w	r7, r7, #59648	; 0xe900
 8003500:	ea47 070c 	orr.w	r7, r7, ip
 8003504:	6057      	str	r7, [r2, #4]
 8003506:	6897      	ldr	r7, [r2, #8]
 8003508:	ea06 0607 	and.w	r6, r6, r7
 800350c:	ea46 0601 	orr.w	r6, r6, r1
 8003510:	6096      	str	r6, [r2, #8]
 8003512:	d1a4      	bne.n	800345e <HAL_ADC_Init+0x6e>
 8003514:	e7d4      	b.n	80034c0 <HAL_ADC_Init+0xd0>
 8003516:	69a2      	ldr	r2, [r4, #24]
 8003518:	1e57      	subs	r7, r2, #1
 800351a:	ea4c 3747 	orr.w	r7, ip, r7, lsl #13
 800351e:	f447 6c00 	orr.w	ip, r7, #2048	; 0x800
 8003522:	e7e6      	b.n	80034f2 <HAL_ADC_Init+0x102>
 8003524:	ffe1f7fd 	.word	0xffe1f7fd
 8003528:	ff1f0efe 	.word	0xff1f0efe

0800352c <HAL_NVIC_SetPriorityGrouping>:
 800352c:	f64f 01ff 	movw	r1, #63743	; 0xf8ff
 8003530:	4a06      	ldr	r2, [pc, #24]	; (800354c <HAL_NVIC_SetPriorityGrouping+0x20>)
 8003532:	0203      	lsls	r3, r0, #8
 8003534:	68d0      	ldr	r0, [r2, #12]
 8003536:	f403 63e0 	and.w	r3, r3, #1792	; 0x700
 800353a:	4008      	ands	r0, r1
 800353c:	4303      	orrs	r3, r0
 800353e:	f043 63bf 	orr.w	r3, r3, #100139008	; 0x5f80000
 8003542:	f443 3300 	orr.w	r3, r3, #131072	; 0x20000
 8003546:	60d3      	str	r3, [r2, #12]
 8003548:	4770      	bx	lr
 800354a:	bf00      	nop
 800354c:	e000ed00 	.word	0xe000ed00

08003550 <HAL_NVIC_SetPriority>:
 8003550:	4b19      	ldr	r3, [pc, #100]	; (80035b8 <HAL_NVIC_SetPriority+0x68>)
 8003552:	b430      	push	{r4, r5}
 8003554:	68db      	ldr	r3, [r3, #12]
 8003556:	f3c3 2302 	ubfx	r3, r3, #8, #3
 800355a:	f1c3 0507 	rsb	r5, r3, #7
 800355e:	2d04      	cmp	r5, #4
 8003560:	f103 0404 	add.w	r4, r3, #4
 8003564:	bf28      	it	cs
 8003566:	2504      	movcs	r5, #4
 8003568:	2c06      	cmp	r4, #6
 800356a:	d919      	bls.n	80035a0 <HAL_NVIC_SetPriority+0x50>
 800356c:	f04f 34ff 	mov.w	r4, #4294967295
 8003570:	3b03      	subs	r3, #3
 8003572:	409c      	lsls	r4, r3
 8003574:	ea22 0204 	bic.w	r2, r2, r4
 8003578:	f04f 34ff 	mov.w	r4, #4294967295
 800357c:	40ac      	lsls	r4, r5
 800357e:	ea21 0104 	bic.w	r1, r1, r4
 8003582:	4099      	lsls	r1, r3
 8003584:	2800      	cmp	r0, #0
 8003586:	ea41 0102 	orr.w	r1, r1, r2
 800358a:	db0c      	blt.n	80035a6 <HAL_NVIC_SetPriority+0x56>
 800358c:	0109      	lsls	r1, r1, #4
 800358e:	f100 4060 	add.w	r0, r0, #3758096384	; 0xe0000000
 8003592:	b2c9      	uxtb	r1, r1
 8003594:	f500 4061 	add.w	r0, r0, #57600	; 0xe100
 8003598:	f880 1300 	strb.w	r1, [r0, #768]	; 0x300
 800359c:	bc30      	pop	{r4, r5}
 800359e:	4770      	bx	lr
 80035a0:	2200      	movs	r2, #0
 80035a2:	4613      	mov	r3, r2
 80035a4:	e7e8      	b.n	8003578 <HAL_NVIC_SetPriority+0x28>
 80035a6:	4b05      	ldr	r3, [pc, #20]	; (80035bc <HAL_NVIC_SetPriority+0x6c>)
 80035a8:	f000 000f 	and.w	r0, r0, #15
 80035ac:	0109      	lsls	r1, r1, #4
 80035ae:	b2c9      	uxtb	r1, r1
 80035b0:	4403      	add	r3, r0
 80035b2:	7619      	strb	r1, [r3, #24]
 80035b4:	bc30      	pop	{r4, r5}
 80035b6:	4770      	bx	lr
 80035b8:	e000ed00 	.word	0xe000ed00
 80035bc:	e000ecfc 	.word	0xe000ecfc

080035c0 <HAL_NVIC_EnableIRQ>:
 80035c0:	2800      	cmp	r0, #0
 80035c2:	db07      	blt.n	80035d4 <HAL_NVIC_EnableIRQ+0x14>
 80035c4:	2301      	movs	r3, #1
 80035c6:	f000 011f 	and.w	r1, r0, #31
 80035ca:	4a03      	ldr	r2, [pc, #12]	; (80035d8 <HAL_NVIC_EnableIRQ+0x18>)
 80035cc:	408b      	lsls	r3, r1
 80035ce:	0940      	lsrs	r0, r0, #5
 80035d0:	f842 3020 	str.w	r3, [r2, r0, lsl #2]
 80035d4:	4770      	bx	lr
 80035d6:	bf00      	nop
 80035d8:	e000e100 	.word	0xe000e100

080035dc <HAL_SYSTICK_Config>:
 80035dc:	3801      	subs	r0, #1
 80035de:	f1b0 7f80 	cmp.w	r0, #16777216	; 0x1000000
 80035e2:	d20d      	bcs.n	8003600 <HAL_SYSTICK_Config+0x24>
 80035e4:	b430      	push	{r4, r5}
 80035e6:	25f0      	movs	r5, #240	; 0xf0
 80035e8:	2200      	movs	r2, #0
 80035ea:	2107      	movs	r1, #7
 80035ec:	4b05      	ldr	r3, [pc, #20]	; (8003604 <HAL_SYSTICK_Config+0x28>)
 80035ee:	4c06      	ldr	r4, [pc, #24]	; (8003608 <HAL_SYSTICK_Config+0x2c>)
 80035f0:	6058      	str	r0, [r3, #4]
 80035f2:	f884 5023 	strb.w	r5, [r4, #35]	; 0x23
 80035f6:	4610      	mov	r0, r2
 80035f8:	bc30      	pop	{r4, r5}
 80035fa:	609a      	str	r2, [r3, #8]
 80035fc:	6019      	str	r1, [r3, #0]
 80035fe:	4770      	bx	lr
 8003600:	2001      	movs	r0, #1
 8003602:	4770      	bx	lr
 8003604:	e000e010 	.word	0xe000e010
 8003608:	e000ed00 	.word	0xe000ed00

0800360c <HAL_DMA_Init>:
 800360c:	b368      	cbz	r0, 800366a <HAL_DMA_Init+0x5e>
 800360e:	4603      	mov	r3, r0
 8003610:	2102      	movs	r1, #2
 8003612:	b4f0      	push	{r4, r5, r6, r7}
 8003614:	e9d0 2601 	ldrd	r2, r6, [r0, #4]
 8003618:	2400      	movs	r4, #0
 800361a:	2501      	movs	r5, #1
 800361c:	4332      	orrs	r2, r6
 800361e:	68de      	ldr	r6, [r3, #12]
 8003620:	6800      	ldr	r0, [r0, #0]
 8003622:	4332      	orrs	r2, r6
 8003624:	691e      	ldr	r6, [r3, #16]
 8003626:	f883 1021 	strb.w	r1, [r3, #33]	; 0x21
 800362a:	4911      	ldr	r1, [pc, #68]	; (8003670 <HAL_DMA_Init+0x64>)
 800362c:	4332      	orrs	r2, r6
 800362e:	4e11      	ldr	r6, [pc, #68]	; (8003674 <HAL_DMA_Init+0x68>)
 8003630:	4401      	add	r1, r0
 8003632:	695f      	ldr	r7, [r3, #20]
 8003634:	fba6 6101 	umull	r6, r1, r6, r1
 8003638:	699e      	ldr	r6, [r3, #24]
 800363a:	433a      	orrs	r2, r7
 800363c:	4332      	orrs	r2, r6
 800363e:	6806      	ldr	r6, [r0, #0]
 8003640:	69df      	ldr	r7, [r3, #28]
 8003642:	0909      	lsrs	r1, r1, #4
 8003644:	0089      	lsls	r1, r1, #2
 8003646:	f426 567f 	bic.w	r6, r6, #16320	; 0x3fc0
 800364a:	433a      	orrs	r2, r7
 800364c:	f026 0630 	bic.w	r6, r6, #48	; 0x30
 8003650:	6419      	str	r1, [r3, #64]	; 0x40
 8003652:	4909      	ldr	r1, [pc, #36]	; (8003678 <HAL_DMA_Init+0x6c>)
 8003654:	4332      	orrs	r2, r6
 8003656:	63d9      	str	r1, [r3, #60]	; 0x3c
 8003658:	6002      	str	r2, [r0, #0]
 800365a:	639c      	str	r4, [r3, #56]	; 0x38
 800365c:	f883 4020 	strb.w	r4, [r3, #32]
 8003660:	f883 5021 	strb.w	r5, [r3, #33]	; 0x21
 8003664:	4620      	mov	r0, r4
 8003666:	bcf0      	pop	{r4, r5, r6, r7}
 8003668:	4770      	bx	lr
 800366a:	2001      	movs	r0, #1
 800366c:	4770      	bx	lr
 800366e:	bf00      	nop
 8003670:	bffdfff8 	.word	0xbffdfff8
 8003674:	cccccccd 	.word	0xcccccccd
 8003678:	40020000 	.word	0x40020000

0800367c <HAL_DMA_Start_IT>:
 800367c:	b4f0      	push	{r4, r5, r6, r7}
 800367e:	4604      	mov	r4, r0
 8003680:	f890 0020 	ldrb.w	r0, [r0, #32]
 8003684:	2801      	cmp	r0, #1
 8003686:	d039      	beq.n	80036fc <HAL_DMA_Start_IT+0x80>
 8003688:	2501      	movs	r5, #1
 800368a:	f894 0021 	ldrb.w	r0, [r4, #33]	; 0x21
 800368e:	f884 5020 	strb.w	r5, [r4, #32]
 8003692:	42a8      	cmp	r0, r5
 8003694:	b2c6      	uxtb	r6, r0
 8003696:	d005      	beq.n	80036a4 <HAL_DMA_Start_IT+0x28>
 8003698:	2300      	movs	r3, #0
 800369a:	f884 3020 	strb.w	r3, [r4, #32]
 800369e:	2002      	movs	r0, #2
 80036a0:	bcf0      	pop	{r4, r5, r6, r7}
 80036a2:	4770      	bx	lr
 80036a4:	2702      	movs	r7, #2
 80036a6:	2000      	movs	r0, #0
 80036a8:	6825      	ldr	r5, [r4, #0]
 80036aa:	f884 7021 	strb.w	r7, [r4, #33]	; 0x21
 80036ae:	63a0      	str	r0, [r4, #56]	; 0x38
 80036b0:	6c27      	ldr	r7, [r4, #64]	; 0x40
 80036b2:	6828      	ldr	r0, [r5, #0]
 80036b4:	40be      	lsls	r6, r7
 80036b6:	f020 0001 	bic.w	r0, r0, #1
 80036ba:	6be7      	ldr	r7, [r4, #60]	; 0x3c
 80036bc:	6028      	str	r0, [r5, #0]
 80036be:	6860      	ldr	r0, [r4, #4]
 80036c0:	607e      	str	r6, [r7, #4]
 80036c2:	606b      	str	r3, [r5, #4]
 80036c4:	6ae3      	ldr	r3, [r4, #44]	; 0x2c
 80036c6:	2810      	cmp	r0, #16
 80036c8:	bf0b      	itete	eq
 80036ca:	60aa      	streq	r2, [r5, #8]
 80036cc:	60a9      	strne	r1, [r5, #8]
 80036ce:	60e9      	streq	r1, [r5, #12]
 80036d0:	60ea      	strne	r2, [r5, #12]
 80036d2:	b153      	cbz	r3, 80036ea <HAL_DMA_Start_IT+0x6e>
 80036d4:	682b      	ldr	r3, [r5, #0]
 80036d6:	f043 030e 	orr.w	r3, r3, #14
 80036da:	602b      	str	r3, [r5, #0]
 80036dc:	682b      	ldr	r3, [r5, #0]
 80036de:	2000      	movs	r0, #0
 80036e0:	f043 0301 	orr.w	r3, r3, #1
 80036e4:	602b      	str	r3, [r5, #0]
 80036e6:	bcf0      	pop	{r4, r5, r6, r7}
 80036e8:	4770      	bx	lr
 80036ea:	682b      	ldr	r3, [r5, #0]
 80036ec:	f023 0304 	bic.w	r3, r3, #4
 80036f0:	602b      	str	r3, [r5, #0]
 80036f2:	682b      	ldr	r3, [r5, #0]
 80036f4:	f043 030a 	orr.w	r3, r3, #10
 80036f8:	602b      	str	r3, [r5, #0]
 80036fa:	e7ef      	b.n	80036dc <HAL_DMA_Start_IT+0x60>
 80036fc:	2002      	movs	r0, #2
 80036fe:	bcf0      	pop	{r4, r5, r6, r7}
 8003700:	4770      	bx	lr
 8003702:	bf00      	nop

08003704 <HAL_DMA_Abort>:
 8003704:	f890 2021 	ldrb.w	r2, [r0, #33]	; 0x21
 8003708:	4603      	mov	r3, r0
 800370a:	2a02      	cmp	r2, #2
 800370c:	d006      	beq.n	800371c <HAL_DMA_Abort+0x18>
 800370e:	2104      	movs	r1, #4
 8003710:	2200      	movs	r2, #0
 8003712:	6381      	str	r1, [r0, #56]	; 0x38
 8003714:	f880 2020 	strb.w	r2, [r0, #32]
 8003718:	2001      	movs	r0, #1
 800371a:	4770      	bx	lr
 800371c:	b470      	push	{r4, r5, r6}
 800371e:	2601      	movs	r6, #1
 8003720:	2500      	movs	r5, #0
 8003722:	681a      	ldr	r2, [r3, #0]
 8003724:	4628      	mov	r0, r5
 8003726:	6811      	ldr	r1, [r2, #0]
 8003728:	f021 010e 	bic.w	r1, r1, #14
 800372c:	6011      	str	r1, [r2, #0]
 800372e:	6814      	ldr	r4, [r2, #0]
 8003730:	6c19      	ldr	r1, [r3, #64]	; 0x40
 8003732:	f024 0401 	bic.w	r4, r4, #1
 8003736:	6014      	str	r4, [r2, #0]
 8003738:	6bda      	ldr	r2, [r3, #60]	; 0x3c
 800373a:	fa06 f101 	lsl.w	r1, r6, r1
 800373e:	6051      	str	r1, [r2, #4]
 8003740:	f883 6021 	strb.w	r6, [r3, #33]	; 0x21
 8003744:	f883 5020 	strb.w	r5, [r3, #32]
 8003748:	bc70      	pop	{r4, r5, r6}
 800374a:	4770      	bx	lr

0800374c <HAL_DMA_Abort_IT>:
 800374c:	b538      	push	{r3, r4, r5, lr}
 800374e:	f890 2021 	ldrb.w	r2, [r0, #33]	; 0x21
 8003752:	4603      	mov	r3, r0
 8003754:	2a02      	cmp	r2, #2
 8003756:	d003      	beq.n	8003760 <HAL_DMA_Abort_IT+0x14>
 8003758:	2204      	movs	r2, #4
 800375a:	2001      	movs	r0, #1
 800375c:	639a      	str	r2, [r3, #56]	; 0x38
 800375e:	bd38      	pop	{r3, r4, r5, pc}
 8003760:	6802      	ldr	r2, [r0, #0]
 8003762:	481d      	ldr	r0, [pc, #116]	; (80037d8 <HAL_DMA_Abort_IT+0x8c>)
 8003764:	6811      	ldr	r1, [r2, #0]
 8003766:	4282      	cmp	r2, r0
 8003768:	f021 010e 	bic.w	r1, r1, #14
 800376c:	6011      	str	r1, [r2, #0]
 800376e:	6811      	ldr	r1, [r2, #0]
 8003770:	f021 0101 	bic.w	r1, r1, #1
 8003774:	6011      	str	r1, [r2, #0]
 8003776:	d022      	beq.n	80037be <HAL_DMA_Abort_IT+0x72>
 8003778:	4918      	ldr	r1, [pc, #96]	; (80037dc <HAL_DMA_Abort_IT+0x90>)
 800377a:	428a      	cmp	r2, r1
 800377c:	d01d      	beq.n	80037ba <HAL_DMA_Abort_IT+0x6e>
 800377e:	3114      	adds	r1, #20
 8003780:	428a      	cmp	r2, r1
 8003782:	d020      	beq.n	80037c6 <HAL_DMA_Abort_IT+0x7a>
 8003784:	3114      	adds	r1, #20
 8003786:	428a      	cmp	r2, r1
 8003788:	d020      	beq.n	80037cc <HAL_DMA_Abort_IT+0x80>
 800378a:	3114      	adds	r1, #20
 800378c:	428a      	cmp	r2, r1
 800378e:	d020      	beq.n	80037d2 <HAL_DMA_Abort_IT+0x86>
 8003790:	3114      	adds	r1, #20
 8003792:	428a      	cmp	r2, r1
 8003794:	bf0c      	ite	eq
 8003796:	f44f 1280 	moveq.w	r2, #1048576	; 0x100000
 800379a:	f04f 7280 	movne.w	r2, #16777216	; 0x1000000
 800379e:	2001      	movs	r0, #1
 80037a0:	2400      	movs	r4, #0
 80037a2:	4d0f      	ldr	r5, [pc, #60]	; (80037e0 <HAL_DMA_Abort_IT+0x94>)
 80037a4:	6b59      	ldr	r1, [r3, #52]	; 0x34
 80037a6:	606a      	str	r2, [r5, #4]
 80037a8:	f883 0021 	strb.w	r0, [r3, #33]	; 0x21
 80037ac:	f883 4020 	strb.w	r4, [r3, #32]
 80037b0:	b139      	cbz	r1, 80037c2 <HAL_DMA_Abort_IT+0x76>
 80037b2:	4618      	mov	r0, r3
 80037b4:	4788      	blx	r1
 80037b6:	4620      	mov	r0, r4
 80037b8:	bd38      	pop	{r3, r4, r5, pc}
 80037ba:	2210      	movs	r2, #16
 80037bc:	e7ef      	b.n	800379e <HAL_DMA_Abort_IT+0x52>
 80037be:	2201      	movs	r2, #1
 80037c0:	e7ed      	b.n	800379e <HAL_DMA_Abort_IT+0x52>
 80037c2:	4608      	mov	r0, r1
 80037c4:	bd38      	pop	{r3, r4, r5, pc}
 80037c6:	f44f 7280 	mov.w	r2, #256	; 0x100
 80037ca:	e7e8      	b.n	800379e <HAL_DMA_Abort_IT+0x52>
 80037cc:	f44f 5280 	mov.w	r2, #4096	; 0x1000
 80037d0:	e7e5      	b.n	800379e <HAL_DMA_Abort_IT+0x52>
 80037d2:	f44f 3280 	mov.w	r2, #65536	; 0x10000
 80037d6:	e7e2      	b.n	800379e <HAL_DMA_Abort_IT+0x52>
 80037d8:	40020008 	.word	0x40020008
 80037dc:	4002001c 	.word	0x4002001c
 80037e0:	40020000 	.word	0x40020000

080037e4 <HAL_DMA_IRQHandler>:
 80037e4:	2204      	movs	r2, #4
 80037e6:	b470      	push	{r4, r5, r6}
 80037e8:	e9d0 610f 	ldrd	r6, r1, [r0, #60]	; 0x3c
 80037ec:	6834      	ldr	r4, [r6, #0]
 80037ee:	6803      	ldr	r3, [r0, #0]
 80037f0:	408a      	lsls	r2, r1
 80037f2:	4222      	tst	r2, r4
 80037f4:	681d      	ldr	r5, [r3, #0]
 80037f6:	d01f      	beq.n	8003838 <HAL_DMA_IRQHandler+0x54>
 80037f8:	076a      	lsls	r2, r5, #29
 80037fa:	d51d      	bpl.n	8003838 <HAL_DMA_IRQHandler+0x54>
 80037fc:	681a      	ldr	r2, [r3, #0]
 80037fe:	0691      	lsls	r1, r2, #26
 8003800:	d403      	bmi.n	800380a <HAL_DMA_IRQHandler+0x26>
 8003802:	681a      	ldr	r2, [r3, #0]
 8003804:	f022 0204 	bic.w	r2, r2, #4
 8003808:	601a      	str	r2, [r3, #0]
 800380a:	4a3f      	ldr	r2, [pc, #252]	; (8003908 <HAL_DMA_IRQHandler+0x124>)
 800380c:	4293      	cmp	r3, r2
 800380e:	d05c      	beq.n	80038ca <HAL_DMA_IRQHandler+0xe6>
 8003810:	3214      	adds	r2, #20
 8003812:	4293      	cmp	r3, r2
 8003814:	d061      	beq.n	80038da <HAL_DMA_IRQHandler+0xf6>
 8003816:	3214      	adds	r2, #20
 8003818:	4293      	cmp	r3, r2
 800381a:	d068      	beq.n	80038ee <HAL_DMA_IRQHandler+0x10a>
 800381c:	3214      	adds	r2, #20
 800381e:	4293      	cmp	r3, r2
 8003820:	d06b      	beq.n	80038fa <HAL_DMA_IRQHandler+0x116>
 8003822:	3214      	adds	r2, #20
 8003824:	4293      	cmp	r3, r2
 8003826:	d05d      	beq.n	80038e4 <HAL_DMA_IRQHandler+0x100>
 8003828:	3214      	adds	r2, #20
 800382a:	4293      	cmp	r3, r2
 800382c:	bf0c      	ite	eq
 800382e:	f44f 0380 	moveq.w	r3, #4194304	; 0x400000
 8003832:	f04f 6380 	movne.w	r3, #67108864	; 0x4000000
 8003836:	e049      	b.n	80038cc <HAL_DMA_IRQHandler+0xe8>
 8003838:	2202      	movs	r2, #2
 800383a:	408a      	lsls	r2, r1
 800383c:	4222      	tst	r2, r4
 800383e:	d022      	beq.n	8003886 <HAL_DMA_IRQHandler+0xa2>
 8003840:	07aa      	lsls	r2, r5, #30
 8003842:	d520      	bpl.n	8003886 <HAL_DMA_IRQHandler+0xa2>
 8003844:	681a      	ldr	r2, [r3, #0]
 8003846:	0691      	lsls	r1, r2, #26
 8003848:	d406      	bmi.n	8003858 <HAL_DMA_IRQHandler+0x74>
 800384a:	2101      	movs	r1, #1
 800384c:	681a      	ldr	r2, [r3, #0]
 800384e:	f022 020a 	bic.w	r2, r2, #10
 8003852:	601a      	str	r2, [r3, #0]
 8003854:	f880 1021 	strb.w	r1, [r0, #33]	; 0x21
 8003858:	4a2b      	ldr	r2, [pc, #172]	; (8003908 <HAL_DMA_IRQHandler+0x124>)
 800385a:	4293      	cmp	r3, r2
 800385c:	d02b      	beq.n	80038b6 <HAL_DMA_IRQHandler+0xd2>
 800385e:	3214      	adds	r2, #20
 8003860:	4293      	cmp	r3, r2
 8003862:	d042      	beq.n	80038ea <HAL_DMA_IRQHandler+0x106>
 8003864:	3214      	adds	r2, #20
 8003866:	4293      	cmp	r3, r2
 8003868:	d044      	beq.n	80038f4 <HAL_DMA_IRQHandler+0x110>
 800386a:	3214      	adds	r2, #20
 800386c:	4293      	cmp	r3, r2
 800386e:	d036      	beq.n	80038de <HAL_DMA_IRQHandler+0xfa>
 8003870:	3214      	adds	r2, #20
 8003872:	4293      	cmp	r3, r2
 8003874:	d044      	beq.n	8003900 <HAL_DMA_IRQHandler+0x11c>
 8003876:	3214      	adds	r2, #20
 8003878:	4293      	cmp	r3, r2
 800387a:	bf0c      	ite	eq
 800387c:	f44f 1300 	moveq.w	r3, #2097152	; 0x200000
 8003880:	f04f 7300 	movne.w	r3, #33554432	; 0x2000000
 8003884:	e018      	b.n	80038b8 <HAL_DMA_IRQHandler+0xd4>
 8003886:	2208      	movs	r2, #8
 8003888:	408a      	lsls	r2, r1
 800388a:	4222      	tst	r2, r4
 800388c:	d01b      	beq.n	80038c6 <HAL_DMA_IRQHandler+0xe2>
 800388e:	072a      	lsls	r2, r5, #28
 8003890:	d519      	bpl.n	80038c6 <HAL_DMA_IRQHandler+0xe2>
 8003892:	2201      	movs	r2, #1
 8003894:	2500      	movs	r5, #0
 8003896:	681c      	ldr	r4, [r3, #0]
 8003898:	fa02 f101 	lsl.w	r1, r2, r1
 800389c:	f024 040e 	bic.w	r4, r4, #14
 80038a0:	601c      	str	r4, [r3, #0]
 80038a2:	6b03      	ldr	r3, [r0, #48]	; 0x30
 80038a4:	6071      	str	r1, [r6, #4]
 80038a6:	6382      	str	r2, [r0, #56]	; 0x38
 80038a8:	f880 5020 	strb.w	r5, [r0, #32]
 80038ac:	f880 2021 	strb.w	r2, [r0, #33]	; 0x21
 80038b0:	b14b      	cbz	r3, 80038c6 <HAL_DMA_IRQHandler+0xe2>
 80038b2:	bc70      	pop	{r4, r5, r6}
 80038b4:	4718      	bx	r3
 80038b6:	2302      	movs	r3, #2
 80038b8:	2100      	movs	r1, #0
 80038ba:	4c14      	ldr	r4, [pc, #80]	; (800390c <HAL_DMA_IRQHandler+0x128>)
 80038bc:	6a82      	ldr	r2, [r0, #40]	; 0x28
 80038be:	6063      	str	r3, [r4, #4]
 80038c0:	f880 1020 	strb.w	r1, [r0, #32]
 80038c4:	b93a      	cbnz	r2, 80038d6 <HAL_DMA_IRQHandler+0xf2>
 80038c6:	bc70      	pop	{r4, r5, r6}
 80038c8:	4770      	bx	lr
 80038ca:	2304      	movs	r3, #4
 80038cc:	490f      	ldr	r1, [pc, #60]	; (800390c <HAL_DMA_IRQHandler+0x128>)
 80038ce:	6ac2      	ldr	r2, [r0, #44]	; 0x2c
 80038d0:	604b      	str	r3, [r1, #4]
 80038d2:	2a00      	cmp	r2, #0
 80038d4:	d0f7      	beq.n	80038c6 <HAL_DMA_IRQHandler+0xe2>
 80038d6:	bc70      	pop	{r4, r5, r6}
 80038d8:	4710      	bx	r2
 80038da:	2340      	movs	r3, #64	; 0x40
 80038dc:	e7f6      	b.n	80038cc <HAL_DMA_IRQHandler+0xe8>
 80038de:	f44f 5300 	mov.w	r3, #8192	; 0x2000
 80038e2:	e7e9      	b.n	80038b8 <HAL_DMA_IRQHandler+0xd4>
 80038e4:	f44f 2380 	mov.w	r3, #262144	; 0x40000
 80038e8:	e7f0      	b.n	80038cc <HAL_DMA_IRQHandler+0xe8>
 80038ea:	2320      	movs	r3, #32
 80038ec:	e7e4      	b.n	80038b8 <HAL_DMA_IRQHandler+0xd4>
 80038ee:	f44f 6380 	mov.w	r3, #1024	; 0x400
 80038f2:	e7eb      	b.n	80038cc <HAL_DMA_IRQHandler+0xe8>
 80038f4:	f44f 7300 	mov.w	r3, #512	; 0x200
 80038f8:	e7de      	b.n	80038b8 <HAL_DMA_IRQHandler+0xd4>
 80038fa:	f44f 4380 	mov.w	r3, #16384	; 0x4000
 80038fe:	e7e5      	b.n	80038cc <HAL_DMA_IRQHandler+0xe8>
 8003900:	f44f 3300 	mov.w	r3, #131072	; 0x20000
 8003904:	e7d8      	b.n	80038b8 <HAL_DMA_IRQHandler+0xd4>
 8003906:	bf00      	nop
 8003908:	40020008 	.word	0x40020008
 800390c:	40020000 	.word	0x40020000

08003910 <FLASH_SetErrorCode>:
 8003910:	4b12      	ldr	r3, [pc, #72]	; (800395c <FLASH_SetErrorCode+0x4c>)
 8003912:	68db      	ldr	r3, [r3, #12]
 8003914:	f013 0310 	ands.w	r3, r3, #16
 8003918:	d005      	beq.n	8003926 <FLASH_SetErrorCode+0x16>
 800391a:	2310      	movs	r3, #16
 800391c:	4910      	ldr	r1, [pc, #64]	; (8003960 <FLASH_SetErrorCode+0x50>)
 800391e:	69ca      	ldr	r2, [r1, #28]
 8003920:	f042 0202 	orr.w	r2, r2, #2
 8003924:	61ca      	str	r2, [r1, #28]
 8003926:	4a0d      	ldr	r2, [pc, #52]	; (800395c <FLASH_SetErrorCode+0x4c>)
 8003928:	68d2      	ldr	r2, [r2, #12]
 800392a:	0750      	lsls	r0, r2, #29
 800392c:	d506      	bpl.n	800393c <FLASH_SetErrorCode+0x2c>
 800392e:	490c      	ldr	r1, [pc, #48]	; (8003960 <FLASH_SetErrorCode+0x50>)
 8003930:	f043 0304 	orr.w	r3, r3, #4
 8003934:	69ca      	ldr	r2, [r1, #28]
 8003936:	f042 0201 	orr.w	r2, r2, #1
 800393a:	61ca      	str	r2, [r1, #28]
 800393c:	4a07      	ldr	r2, [pc, #28]	; (800395c <FLASH_SetErrorCode+0x4c>)
 800393e:	69d1      	ldr	r1, [r2, #28]
 8003940:	07c9      	lsls	r1, r1, #31
 8003942:	d508      	bpl.n	8003956 <FLASH_SetErrorCode+0x46>
 8003944:	4806      	ldr	r0, [pc, #24]	; (8003960 <FLASH_SetErrorCode+0x50>)
 8003946:	69c1      	ldr	r1, [r0, #28]
 8003948:	f041 0104 	orr.w	r1, r1, #4
 800394c:	61c1      	str	r1, [r0, #28]
 800394e:	69d1      	ldr	r1, [r2, #28]
 8003950:	f021 0101 	bic.w	r1, r1, #1
 8003954:	61d1      	str	r1, [r2, #28]
 8003956:	4a01      	ldr	r2, [pc, #4]	; (800395c <FLASH_SetErrorCode+0x4c>)
 8003958:	60d3      	str	r3, [r2, #12]
 800395a:	4770      	bx	lr
 800395c:	40022000 	.word	0x40022000
 8003960:	20002788 	.word	0x20002788

08003964 <HAL_FLASH_Unlock>:
 8003964:	4b06      	ldr	r3, [pc, #24]	; (8003980 <HAL_FLASH_Unlock+0x1c>)
 8003966:	6918      	ldr	r0, [r3, #16]
 8003968:	f010 0080 	ands.w	r0, r0, #128	; 0x80
 800396c:	d006      	beq.n	800397c <HAL_FLASH_Unlock+0x18>
 800396e:	4905      	ldr	r1, [pc, #20]	; (8003984 <HAL_FLASH_Unlock+0x20>)
 8003970:	4a05      	ldr	r2, [pc, #20]	; (8003988 <HAL_FLASH_Unlock+0x24>)
 8003972:	6059      	str	r1, [r3, #4]
 8003974:	605a      	str	r2, [r3, #4]
 8003976:	6918      	ldr	r0, [r3, #16]
 8003978:	f3c0 10c0 	ubfx	r0, r0, #7, #1
 800397c:	4770      	bx	lr
 800397e:	bf00      	nop
 8003980:	40022000 	.word	0x40022000
 8003984:	45670123 	.word	0x45670123
 8003988:	cdef89ab 	.word	0xcdef89ab

0800398c <HAL_FLASH_Lock>:
 800398c:	4a03      	ldr	r2, [pc, #12]	; (800399c <HAL_FLASH_Lock+0x10>)
 800398e:	2000      	movs	r0, #0
 8003990:	6913      	ldr	r3, [r2, #16]
 8003992:	f043 0380 	orr.w	r3, r3, #128	; 0x80
 8003996:	6113      	str	r3, [r2, #16]
 8003998:	4770      	bx	lr
 800399a:	bf00      	nop
 800399c:	40022000 	.word	0x40022000

080039a0 <FLASH_WaitForLastOperation>:
 80039a0:	b570      	push	{r4, r5, r6, lr}
 80039a2:	4604      	mov	r4, r0
 80039a4:	f7ff fb4a 	bl	800303c <HAL_GetTick>
 80039a8:	4d12      	ldr	r5, [pc, #72]	; (80039f4 <FLASH_WaitForLastOperation+0x54>)
 80039aa:	4606      	mov	r6, r0
 80039ac:	e001      	b.n	80039b2 <FLASH_WaitForLastOperation+0x12>
 80039ae:	1c62      	adds	r2, r4, #1
 80039b0:	d117      	bne.n	80039e2 <FLASH_WaitForLastOperation+0x42>
 80039b2:	68eb      	ldr	r3, [r5, #12]
 80039b4:	07db      	lsls	r3, r3, #31
 80039b6:	d4fa      	bmi.n	80039ae <FLASH_WaitForLastOperation+0xe>
 80039b8:	68eb      	ldr	r3, [r5, #12]
 80039ba:	0698      	lsls	r0, r3, #26
 80039bc:	bf44      	itt	mi
 80039be:	2320      	movmi	r3, #32
 80039c0:	60eb      	strmi	r3, [r5, #12]
 80039c2:	4b0c      	ldr	r3, [pc, #48]	; (80039f4 <FLASH_WaitForLastOperation+0x54>)
 80039c4:	68da      	ldr	r2, [r3, #12]
 80039c6:	06d1      	lsls	r1, r2, #27
 80039c8:	d407      	bmi.n	80039da <FLASH_WaitForLastOperation+0x3a>
 80039ca:	69da      	ldr	r2, [r3, #28]
 80039cc:	07d2      	lsls	r2, r2, #31
 80039ce:	d404      	bmi.n	80039da <FLASH_WaitForLastOperation+0x3a>
 80039d0:	68d8      	ldr	r0, [r3, #12]
 80039d2:	f010 0004 	ands.w	r0, r0, #4
 80039d6:	d100      	bne.n	80039da <FLASH_WaitForLastOperation+0x3a>
 80039d8:	bd70      	pop	{r4, r5, r6, pc}
 80039da:	f7ff ff99 	bl	8003910 <FLASH_SetErrorCode>
 80039de:	2001      	movs	r0, #1
 80039e0:	bd70      	pop	{r4, r5, r6, pc}
 80039e2:	b124      	cbz	r4, 80039ee <FLASH_WaitForLastOperation+0x4e>
 80039e4:	f7ff fb2a 	bl	800303c <HAL_GetTick>
 80039e8:	1b80      	subs	r0, r0, r6
 80039ea:	42a0      	cmp	r0, r4
 80039ec:	d9e1      	bls.n	80039b2 <FLASH_WaitForLastOperation+0x12>
 80039ee:	2003      	movs	r0, #3
 80039f0:	bd70      	pop	{r4, r5, r6, pc}
 80039f2:	bf00      	nop
 80039f4:	40022000 	.word	0x40022000

080039f8 <HAL_FLASH_Program>:
 80039f8:	e92d 4ff8 	stmdb	sp!, {r3, r4, r5, r6, r7, r8, r9, sl, fp, lr}
 80039fc:	4f24      	ldr	r7, [pc, #144]	; (8003a90 <HAL_FLASH_Program+0x98>)
 80039fe:	7e3c      	ldrb	r4, [r7, #24]
 8003a00:	2c01      	cmp	r4, #1
 8003a02:	d042      	beq.n	8003a8a <HAL_FLASH_Program+0x92>
 8003a04:	461d      	mov	r5, r3
 8003a06:	2301      	movs	r3, #1
 8003a08:	4606      	mov	r6, r0
 8003a0a:	f24c 3050 	movw	r0, #50000	; 0xc350
 8003a0e:	468b      	mov	fp, r1
 8003a10:	4690      	mov	r8, r2
 8003a12:	763b      	strb	r3, [r7, #24]
 8003a14:	f7ff ffc4 	bl	80039a0 <FLASH_WaitForLastOperation>
 8003a18:	bb98      	cbnz	r0, 8003a82 <HAL_FLASH_Program+0x8a>
 8003a1a:	2e01      	cmp	r6, #1
 8003a1c:	d003      	beq.n	8003a26 <HAL_FLASH_Program+0x2e>
 8003a1e:	2e02      	cmp	r6, #2
 8003a20:	bf0c      	ite	eq
 8003a22:	2602      	moveq	r6, #2
 8003a24:	2604      	movne	r6, #4
 8003a26:	f04f 0a00 	mov.w	sl, #0
 8003a2a:	f8df 9068 	ldr.w	r9, [pc, #104]	; 8003a94 <HAL_FLASH_Program+0x9c>
 8003a2e:	eb0b 0646 	add.w	r6, fp, r6, lsl #1
 8003a32:	2300      	movs	r3, #0
 8003a34:	f1ca 0220 	rsb	r2, sl, #32
 8003a38:	61fb      	str	r3, [r7, #28]
 8003a3a:	fa05 f202 	lsl.w	r2, r5, r2
 8003a3e:	fa28 f00a 	lsr.w	r0, r8, sl
 8003a42:	f1aa 0120 	sub.w	r1, sl, #32
 8003a46:	4310      	orrs	r0, r2
 8003a48:	fa25 f101 	lsr.w	r1, r5, r1
 8003a4c:	f8d9 2010 	ldr.w	r2, [r9, #16]
 8003a50:	4308      	orrs	r0, r1
 8003a52:	f042 0201 	orr.w	r2, r2, #1
 8003a56:	b284      	uxth	r4, r0
 8003a58:	f8c9 2010 	str.w	r2, [r9, #16]
 8003a5c:	f24c 3050 	movw	r0, #50000	; 0xc350
 8003a60:	f8ab 4000 	strh.w	r4, [fp]
 8003a64:	f7ff ff9c 	bl	80039a0 <FLASH_WaitForLastOperation>
 8003a68:	f8d9 2010 	ldr.w	r2, [r9, #16]
 8003a6c:	f10b 0b02 	add.w	fp, fp, #2
 8003a70:	f022 0201 	bic.w	r2, r2, #1
 8003a74:	f10a 0a10 	add.w	sl, sl, #16
 8003a78:	f8c9 2010 	str.w	r2, [r9, #16]
 8003a7c:	b908      	cbnz	r0, 8003a82 <HAL_FLASH_Program+0x8a>
 8003a7e:	45b3      	cmp	fp, r6
 8003a80:	d1d7      	bne.n	8003a32 <HAL_FLASH_Program+0x3a>
 8003a82:	2300      	movs	r3, #0
 8003a84:	763b      	strb	r3, [r7, #24]
 8003a86:	e8bd 8ff8 	ldmia.w	sp!, {r3, r4, r5, r6, r7, r8, r9, sl, fp, pc}
 8003a8a:	2002      	movs	r0, #2
 8003a8c:	e8bd 8ff8 	ldmia.w	sp!, {r3, r4, r5, r6, r7, r8, r9, sl, fp, pc}
 8003a90:	20002788 	.word	0x20002788
 8003a94:	40022000 	.word	0x40022000

08003a98 <HAL_FLASHEx_Erase>:
 8003a98:	e92d 43f8 	stmdb	sp!, {r3, r4, r5, r6, r7, r8, r9, lr}
 8003a9c:	4e2d      	ldr	r6, [pc, #180]	; (8003b54 <HAL_FLASHEx_Erase+0xbc>)
 8003a9e:	7e33      	ldrb	r3, [r6, #24]
 8003aa0:	2b01      	cmp	r3, #1
 8003aa2:	d054      	beq.n	8003b4e <HAL_FLASHEx_Erase+0xb6>
 8003aa4:	2301      	movs	r3, #1
 8003aa6:	7633      	strb	r3, [r6, #24]
 8003aa8:	6803      	ldr	r3, [r0, #0]
 8003aaa:	4681      	mov	r9, r0
 8003aac:	2b02      	cmp	r3, #2
 8003aae:	d031      	beq.n	8003b14 <HAL_FLASHEx_Erase+0x7c>
 8003ab0:	f24c 3050 	movw	r0, #50000	; 0xc350
 8003ab4:	4688      	mov	r8, r1
 8003ab6:	f7ff ff73 	bl	80039a0 <FLASH_WaitForLastOperation>
 8003aba:	bb80      	cbnz	r0, 8003b1e <HAL_FLASHEx_Erase+0x86>
 8003abc:	f04f 33ff 	mov.w	r3, #4294967295
 8003ac0:	f8c8 3000 	str.w	r3, [r8]
 8003ac4:	e9d9 5302 	ldrd	r5, r3, [r9, #8]
 8003ac8:	eb05 2383 	add.w	r3, r5, r3, lsl #10
 8003acc:	429d      	cmp	r5, r3
 8003ace:	d226      	bcs.n	8003b1e <HAL_FLASHEx_Erase+0x86>
 8003ad0:	4607      	mov	r7, r0
 8003ad2:	4c21      	ldr	r4, [pc, #132]	; (8003b58 <HAL_FLASHEx_Erase+0xc0>)
 8003ad4:	e007      	b.n	8003ae6 <HAL_FLASHEx_Erase+0x4e>
 8003ad6:	f505 6580 	add.w	r5, r5, #1024	; 0x400
 8003ada:	e9d9 3202 	ldrd	r3, r2, [r9, #8]
 8003ade:	eb03 2382 	add.w	r3, r3, r2, lsl #10
 8003ae2:	42ab      	cmp	r3, r5
 8003ae4:	d91c      	bls.n	8003b20 <HAL_FLASHEx_Erase+0x88>
 8003ae6:	61f7      	str	r7, [r6, #28]
 8003ae8:	6923      	ldr	r3, [r4, #16]
 8003aea:	f24c 3050 	movw	r0, #50000	; 0xc350
 8003aee:	f043 0302 	orr.w	r3, r3, #2
 8003af2:	6123      	str	r3, [r4, #16]
 8003af4:	6165      	str	r5, [r4, #20]
 8003af6:	6923      	ldr	r3, [r4, #16]
 8003af8:	f043 0340 	orr.w	r3, r3, #64	; 0x40
 8003afc:	6123      	str	r3, [r4, #16]
 8003afe:	f7ff ff4f 	bl	80039a0 <FLASH_WaitForLastOperation>
 8003b02:	6923      	ldr	r3, [r4, #16]
 8003b04:	f023 0302 	bic.w	r3, r3, #2
 8003b08:	6123      	str	r3, [r4, #16]
 8003b0a:	2800      	cmp	r0, #0
 8003b0c:	d0e3      	beq.n	8003ad6 <HAL_FLASHEx_Erase+0x3e>
 8003b0e:	f8c8 5000 	str.w	r5, [r8]
 8003b12:	e005      	b.n	8003b20 <HAL_FLASHEx_Erase+0x88>
 8003b14:	f24c 3050 	movw	r0, #50000	; 0xc350
 8003b18:	f7ff ff42 	bl	80039a0 <FLASH_WaitForLastOperation>
 8003b1c:	b120      	cbz	r0, 8003b28 <HAL_FLASHEx_Erase+0x90>
 8003b1e:	2001      	movs	r0, #1
 8003b20:	2300      	movs	r3, #0
 8003b22:	7633      	strb	r3, [r6, #24]
 8003b24:	e8bd 83f8 	ldmia.w	sp!, {r3, r4, r5, r6, r7, r8, r9, pc}
 8003b28:	4c0b      	ldr	r4, [pc, #44]	; (8003b58 <HAL_FLASHEx_Erase+0xc0>)
 8003b2a:	61f0      	str	r0, [r6, #28]
 8003b2c:	6923      	ldr	r3, [r4, #16]
 8003b2e:	f24c 3050 	movw	r0, #50000	; 0xc350
 8003b32:	f043 0304 	orr.w	r3, r3, #4
 8003b36:	6123      	str	r3, [r4, #16]
 8003b38:	6923      	ldr	r3, [r4, #16]
 8003b3a:	f043 0340 	orr.w	r3, r3, #64	; 0x40
 8003b3e:	6123      	str	r3, [r4, #16]
 8003b40:	f7ff ff2e 	bl	80039a0 <FLASH_WaitForLastOperation>
 8003b44:	6923      	ldr	r3, [r4, #16]
 8003b46:	f023 0304 	bic.w	r3, r3, #4
 8003b4a:	6123      	str	r3, [r4, #16]
 8003b4c:	e7e8      	b.n	8003b20 <HAL_FLASHEx_Erase+0x88>
 8003b4e:	2002      	movs	r0, #2
 8003b50:	e8bd 83f8 	ldmia.w	sp!, {r3, r4, r5, r6, r7, r8, r9, pc}
 8003b54:	20002788 	.word	0x20002788
 8003b58:	40022000 	.word	0x40022000

08003b5c <HAL_GPIO_Init>:
 8003b5c:	e92d 4ff0 	stmdb	sp!, {r4, r5, r6, r7, r8, r9, sl, fp, lr}
 8003b60:	680c      	ldr	r4, [r1, #0]
 8003b62:	b085      	sub	sp, #20
 8003b64:	2c00      	cmp	r4, #0
 8003b66:	f000 80a1 	beq.w	8003cac <HAL_GPIO_Init+0x150>
 8003b6a:	2600      	movs	r6, #0
 8003b6c:	f8df c1fc 	ldr.w	ip, [pc, #508]	; 8003d6c <HAL_GPIO_Init+0x210>
 8003b70:	4633      	mov	r3, r6
 8003b72:	4f79      	ldr	r7, [pc, #484]	; (8003d58 <HAL_GPIO_Init+0x1fc>)
 8003b74:	f8df 81f8 	ldr.w	r8, [pc, #504]	; 8003d70 <HAL_GPIO_Init+0x214>
 8003b78:	f8df e1f8 	ldr.w	lr, [pc, #504]	; 8003d74 <HAL_GPIO_Init+0x218>
 8003b7c:	9000      	str	r0, [sp, #0]
 8003b7e:	e004      	b.n	8003b8a <HAL_GPIO_Init+0x2e>
 8003b80:	3301      	adds	r3, #1
 8003b82:	fa34 f203 	lsrs.w	r2, r4, r3
 8003b86:	f000 8091 	beq.w	8003cac <HAL_GPIO_Init+0x150>
 8003b8a:	2201      	movs	r2, #1
 8003b8c:	409a      	lsls	r2, r3
 8003b8e:	ea32 0004 	bics.w	r0, r2, r4
 8003b92:	ea02 0504 	and.w	r5, r2, r4
 8003b96:	d1f3      	bne.n	8003b80 <HAL_GPIO_Init+0x24>
 8003b98:	684c      	ldr	r4, [r1, #4]
 8003b9a:	2c12      	cmp	r4, #18
 8003b9c:	f200 8089 	bhi.w	8003cb2 <HAL_GPIO_Init+0x156>
 8003ba0:	2c12      	cmp	r4, #18
 8003ba2:	d80c      	bhi.n	8003bbe <HAL_GPIO_Init+0x62>
 8003ba4:	e8df f004 	tbb	[pc, r4]
 8003ba8:	0ac0c38e 	.word	0x0ac0c38e
 8003bac:	0b0b0b0b 	.word	0x0b0b0b0b
 8003bb0:	0b0b0b0b 	.word	0x0b0b0b0b
 8003bb4:	0b0b0b0b 	.word	0x0b0b0b0b
 8003bb8:	bd0b      	.short	0xbd0b
 8003bba:	ba          	.byte	0xba
 8003bbb:	00          	.byte	0x00
 8003bbc:	2600      	movs	r6, #0
 8003bbe:	2dff      	cmp	r5, #255	; 0xff
 8003bc0:	f200 8087 	bhi.w	8003cd2 <HAL_GPIO_Init+0x176>
 8003bc4:	f8dd 9000 	ldr.w	r9, [sp]
 8003bc8:	ea4f 0a83 	mov.w	sl, r3, lsl #2
 8003bcc:	240f      	movs	r4, #15
 8003bce:	f8d9 2000 	ldr.w	r2, [r9]
 8003bd2:	fa04 fb0a 	lsl.w	fp, r4, sl
 8003bd6:	ea22 020b 	bic.w	r2, r2, fp
 8003bda:	fa06 fa0a 	lsl.w	sl, r6, sl
 8003bde:	ea42 020a 	orr.w	r2, r2, sl
 8003be2:	f8c9 2000 	str.w	r2, [r9]
 8003be6:	f8d1 9004 	ldr.w	r9, [r1, #4]
 8003bea:	f019 5f80 	tst.w	r9, #268435456	; 0x10000000
 8003bee:	f000 8093 	beq.w	8003d18 <HAL_GPIO_Init+0x1bc>
 8003bf2:	f8dc a018 	ldr.w	sl, [ip, #24]
 8003bf6:	f023 0203 	bic.w	r2, r3, #3
 8003bfa:	f04a 0a01 	orr.w	sl, sl, #1
 8003bfe:	f8cc a018 	str.w	sl, [ip, #24]
 8003c02:	f8dc a018 	ldr.w	sl, [ip, #24]
 8003c06:	f102 4280 	add.w	r2, r2, #1073741824	; 0x40000000
 8003c0a:	f00a 0a01 	and.w	sl, sl, #1
 8003c0e:	f8cd a00c 	str.w	sl, [sp, #12]
 8003c12:	f502 3280 	add.w	r2, r2, #65536	; 0x10000
 8003c16:	f003 0a03 	and.w	sl, r3, #3
 8003c1a:	f8dd b00c 	ldr.w	fp, [sp, #12]
 8003c1e:	ea4f 0a8a 	mov.w	sl, sl, lsl #2
 8003c22:	f8d2 b008 	ldr.w	fp, [r2, #8]
 8003c26:	fa04 f40a 	lsl.w	r4, r4, sl
 8003c2a:	ea2b 0004 	bic.w	r0, fp, r4
 8003c2e:	9001      	str	r0, [sp, #4]
 8003c30:	9c00      	ldr	r4, [sp, #0]
 8003c32:	484a      	ldr	r0, [pc, #296]	; (8003d5c <HAL_GPIO_Init+0x200>)
 8003c34:	4284      	cmp	r4, r0
 8003c36:	d016      	beq.n	8003c66 <HAL_GPIO_Init+0x10a>
 8003c38:	f500 6080 	add.w	r0, r0, #1024	; 0x400
 8003c3c:	4284      	cmp	r4, r0
 8003c3e:	f000 8081 	beq.w	8003d44 <HAL_GPIO_Init+0x1e8>
 8003c42:	4847      	ldr	r0, [pc, #284]	; (8003d60 <HAL_GPIO_Init+0x204>)
 8003c44:	9c00      	ldr	r4, [sp, #0]
 8003c46:	4284      	cmp	r4, r0
 8003c48:	d073      	beq.n	8003d32 <HAL_GPIO_Init+0x1d6>
 8003c4a:	4846      	ldr	r0, [pc, #280]	; (8003d64 <HAL_GPIO_Init+0x208>)
 8003c4c:	9c00      	ldr	r4, [sp, #0]
 8003c4e:	4284      	cmp	r4, r0
 8003c50:	bf0c      	ite	eq
 8003c52:	f04f 0b03 	moveq.w	fp, #3
 8003c56:	f04f 0b04 	movne.w	fp, #4
 8003c5a:	9801      	ldr	r0, [sp, #4]
 8003c5c:	fa0b fa0a 	lsl.w	sl, fp, sl
 8003c60:	ea40 000a 	orr.w	r0, r0, sl
 8003c64:	9001      	str	r0, [sp, #4]
 8003c66:	9801      	ldr	r0, [sp, #4]
 8003c68:	f419 1f80 	tst.w	r9, #1048576	; 0x100000
 8003c6c:	6090      	str	r0, [r2, #8]
 8003c6e:	68ba      	ldr	r2, [r7, #8]
 8003c70:	bf14      	ite	ne
 8003c72:	432a      	orrne	r2, r5
 8003c74:	43aa      	biceq	r2, r5
 8003c76:	60ba      	str	r2, [r7, #8]
 8003c78:	68fa      	ldr	r2, [r7, #12]
 8003c7a:	f419 1f00 	tst.w	r9, #2097152	; 0x200000
 8003c7e:	bf14      	ite	ne
 8003c80:	432a      	orrne	r2, r5
 8003c82:	43aa      	biceq	r2, r5
 8003c84:	60fa      	str	r2, [r7, #12]
 8003c86:	687a      	ldr	r2, [r7, #4]
 8003c88:	f419 3f00 	tst.w	r9, #131072	; 0x20000
 8003c8c:	bf14      	ite	ne
 8003c8e:	432a      	orrne	r2, r5
 8003c90:	43aa      	biceq	r2, r5
 8003c92:	607a      	str	r2, [r7, #4]
 8003c94:	f419 3f80 	tst.w	r9, #65536	; 0x10000
 8003c98:	683a      	ldr	r2, [r7, #0]
 8003c9a:	d03a      	beq.n	8003d12 <HAL_GPIO_Init+0x1b6>
 8003c9c:	4315      	orrs	r5, r2
 8003c9e:	603d      	str	r5, [r7, #0]
 8003ca0:	680c      	ldr	r4, [r1, #0]
 8003ca2:	3301      	adds	r3, #1
 8003ca4:	fa34 f203 	lsrs.w	r2, r4, r3
 8003ca8:	f47f af6f 	bne.w	8003b8a <HAL_GPIO_Init+0x2e>
 8003cac:	b005      	add	sp, #20
 8003cae:	e8bd 8ff0 	ldmia.w	sp!, {r4, r5, r6, r7, r8, r9, sl, fp, pc}
 8003cb2:	4544      	cmp	r4, r8
 8003cb4:	d006      	beq.n	8003cc4 <HAL_GPIO_Init+0x168>
 8003cb6:	d914      	bls.n	8003ce2 <HAL_GPIO_Init+0x186>
 8003cb8:	4574      	cmp	r4, lr
 8003cba:	d003      	beq.n	8003cc4 <HAL_GPIO_Init+0x168>
 8003cbc:	482a      	ldr	r0, [pc, #168]	; (8003d68 <HAL_GPIO_Init+0x20c>)
 8003cbe:	4284      	cmp	r4, r0
 8003cc0:	f47f af7d 	bne.w	8003bbe <HAL_GPIO_Init+0x62>
 8003cc4:	688c      	ldr	r4, [r1, #8]
 8003cc6:	b9e4      	cbnz	r4, 8003d02 <HAL_GPIO_Init+0x1a6>
 8003cc8:	2dff      	cmp	r5, #255	; 0xff
 8003cca:	f04f 0604 	mov.w	r6, #4
 8003cce:	f67f af79 	bls.w	8003bc4 <HAL_GPIO_Init+0x68>
 8003cd2:	9a00      	ldr	r2, [sp, #0]
 8003cd4:	ea4f 0a83 	mov.w	sl, r3, lsl #2
 8003cd8:	f1aa 0a20 	sub.w	sl, sl, #32
 8003cdc:	f102 0904 	add.w	r9, r2, #4
 8003ce0:	e774      	b.n	8003bcc <HAL_GPIO_Init+0x70>
 8003ce2:	f8df 9094 	ldr.w	r9, [pc, #148]	; 8003d78 <HAL_GPIO_Init+0x21c>
 8003ce6:	454c      	cmp	r4, r9
 8003ce8:	d0ec      	beq.n	8003cc4 <HAL_GPIO_Init+0x168>
 8003cea:	f509 2970 	add.w	r9, r9, #983040	; 0xf0000
 8003cee:	454c      	cmp	r4, r9
 8003cf0:	d0e8      	beq.n	8003cc4 <HAL_GPIO_Init+0x168>
 8003cf2:	f5a9 1980 	sub.w	r9, r9, #1048576	; 0x100000
 8003cf6:	454c      	cmp	r4, r9
 8003cf8:	f47f af61 	bne.w	8003bbe <HAL_GPIO_Init+0x62>
 8003cfc:	688c      	ldr	r4, [r1, #8]
 8003cfe:	2c00      	cmp	r4, #0
 8003d00:	d0e2      	beq.n	8003cc8 <HAL_GPIO_Init+0x16c>
 8003d02:	9800      	ldr	r0, [sp, #0]
 8003d04:	2c01      	cmp	r4, #1
 8003d06:	f04f 0608 	mov.w	r6, #8
 8003d0a:	bf0c      	ite	eq
 8003d0c:	6102      	streq	r2, [r0, #16]
 8003d0e:	6142      	strne	r2, [r0, #20]
 8003d10:	e755      	b.n	8003bbe <HAL_GPIO_Init+0x62>
 8003d12:	ea22 0505 	bic.w	r5, r2, r5
 8003d16:	603d      	str	r5, [r7, #0]
 8003d18:	680c      	ldr	r4, [r1, #0]
 8003d1a:	e731      	b.n	8003b80 <HAL_GPIO_Init+0x24>
 8003d1c:	68ce      	ldr	r6, [r1, #12]
 8003d1e:	360c      	adds	r6, #12
 8003d20:	e74d      	b.n	8003bbe <HAL_GPIO_Init+0x62>
 8003d22:	68ce      	ldr	r6, [r1, #12]
 8003d24:	3604      	adds	r6, #4
 8003d26:	e74a      	b.n	8003bbe <HAL_GPIO_Init+0x62>
 8003d28:	68ce      	ldr	r6, [r1, #12]
 8003d2a:	3608      	adds	r6, #8
 8003d2c:	e747      	b.n	8003bbe <HAL_GPIO_Init+0x62>
 8003d2e:	68ce      	ldr	r6, [r1, #12]
 8003d30:	e745      	b.n	8003bbe <HAL_GPIO_Init+0x62>
 8003d32:	f04f 0b02 	mov.w	fp, #2
 8003d36:	9801      	ldr	r0, [sp, #4]
 8003d38:	fa0b fa0a 	lsl.w	sl, fp, sl
 8003d3c:	ea40 000a 	orr.w	r0, r0, sl
 8003d40:	9001      	str	r0, [sp, #4]
 8003d42:	e790      	b.n	8003c66 <HAL_GPIO_Init+0x10a>
 8003d44:	f04f 0b01 	mov.w	fp, #1
 8003d48:	9801      	ldr	r0, [sp, #4]
 8003d4a:	fa0b fa0a 	lsl.w	sl, fp, sl
 8003d4e:	ea40 000a 	orr.w	r0, r0, sl
 8003d52:	9001      	str	r0, [sp, #4]
 8003d54:	e787      	b.n	8003c66 <HAL_GPIO_Init+0x10a>
 8003d56:	bf00      	nop
 8003d58:	40010400 	.word	0x40010400
 8003d5c:	40010800 	.word	0x40010800
 8003d60:	40011000 	.word	0x40011000
 8003d64:	40011400 	.word	0x40011400
 8003d68:	10320000 	.word	0x10320000
 8003d6c:	40021000 	.word	0x40021000
 8003d70:	10220000 	.word	0x10220000
 8003d74:	10310000 	.word	0x10310000
 8003d78:	10120000 	.word	0x10120000

08003d7c <HAL_GPIO_ReadPin>:
 8003d7c:	6883      	ldr	r3, [r0, #8]
 8003d7e:	4219      	tst	r1, r3
 8003d80:	bf14      	ite	ne
 8003d82:	2001      	movne	r0, #1
 8003d84:	2000      	moveq	r0, #0
 8003d86:	4770      	bx	lr

08003d88 <HAL_GPIO_WritePin>:
 8003d88:	b902      	cbnz	r2, 8003d8c <HAL_GPIO_WritePin+0x4>
 8003d8a:	0409      	lsls	r1, r1, #16
 8003d8c:	6101      	str	r1, [r0, #16]
 8003d8e:	4770      	bx	lr

08003d90 <HAL_PCD_Init>:
 8003d90:	b5f8      	push	{r3, r4, r5, r6, r7, lr}
 8003d92:	2800      	cmp	r0, #0
 8003d94:	d05d      	beq.n	8003e52 <HAL_PCD_Init+0xc2>
 8003d96:	f890 3291 	ldrb.w	r3, [r0, #657]	; 0x291
 8003d9a:	4604      	mov	r4, r0
 8003d9c:	f003 02ff 	and.w	r2, r3, #255	; 0xff
 8003da0:	2b00      	cmp	r3, #0
 8003da2:	d051      	beq.n	8003e48 <HAL_PCD_Init+0xb8>
 8003da4:	2203      	movs	r2, #3
 8003da6:	2300      	movs	r3, #0
 8003da8:	4625      	mov	r5, r4
 8003daa:	f884 2291 	strb.w	r2, [r4, #657]	; 0x291
 8003dae:	7163      	strb	r3, [r4, #5]
 8003db0:	6820      	ldr	r0, [r4, #0]
 8003db2:	f001 ff7b 	bl	8005cac <USB_DisableGlobalInt>
 8003db6:	f855 0b04 	ldr.w	r0, [r5], #4
 8003dba:	e895 000e 	ldmia.w	r5, {r1, r2, r3}
 8003dbe:	f001 ff63 	bl	8005c88 <USB_CoreInit>
 8003dc2:	b128      	cbz	r0, 8003dd0 <HAL_PCD_Init+0x40>
 8003dc4:	2302      	movs	r3, #2
 8003dc6:	2501      	movs	r5, #1
 8003dc8:	f884 3291 	strb.w	r3, [r4, #657]	; 0x291
 8003dcc:	4628      	mov	r0, r5
 8003dce:	bdf8      	pop	{r3, r4, r5, r6, r7, pc}
 8003dd0:	4601      	mov	r1, r0
 8003dd2:	6820      	ldr	r0, [r4, #0]
 8003dd4:	f001 ff74 	bl	8005cc0 <USB_SetCurrentMode>
 8003dd8:	4601      	mov	r1, r0
 8003dda:	2800      	cmp	r0, #0
 8003ddc:	d1f2      	bne.n	8003dc4 <HAL_PCD_Init+0x34>
 8003dde:	7926      	ldrb	r6, [r4, #4]
 8003de0:	b30e      	cbz	r6, 8003e26 <HAL_PCD_Init+0x96>
 8003de2:	4623      	mov	r3, r4
 8003de4:	4622      	mov	r2, r4
 8003de6:	f04f 0c01 	mov.w	ip, #1
 8003dea:	7411      	strb	r1, [r2, #16]
 8003dec:	3101      	adds	r1, #1
 8003dee:	b2cf      	uxtb	r7, r1
 8003df0:	42be      	cmp	r6, r7
 8003df2:	e9c2 0008 	strd	r0, r0, [r2, #32]
 8003df6:	f882 c011 	strb.w	ip, [r2, #17]
 8003dfa:	74d0      	strb	r0, [r2, #19]
 8003dfc:	f842 0f28 	str.w	r0, [r2, #40]!
 8003e00:	d8f3      	bhi.n	8003dea <HAL_PCD_Init+0x5a>
 8003e02:	2100      	movs	r1, #0
 8003e04:	460a      	mov	r2, r1
 8003e06:	f883 1150 	strb.w	r1, [r3, #336]	; 0x150
 8003e0a:	3101      	adds	r1, #1
 8003e0c:	b2c8      	uxtb	r0, r1
 8003e0e:	4286      	cmp	r6, r0
 8003e10:	e9c3 2258 	strd	r2, r2, [r3, #352]	; 0x160
 8003e14:	f883 2151 	strb.w	r2, [r3, #337]	; 0x151
 8003e18:	f883 2153 	strb.w	r2, [r3, #339]	; 0x153
 8003e1c:	f8c3 2168 	str.w	r2, [r3, #360]	; 0x168
 8003e20:	f103 0328 	add.w	r3, r3, #40	; 0x28
 8003e24:	d8ef      	bhi.n	8003e06 <HAL_PCD_Init+0x76>
 8003e26:	e895 000e 	ldmia.w	r5, {r1, r2, r3}
 8003e2a:	6820      	ldr	r0, [r4, #0]
 8003e2c:	f001 ff4a 	bl	8005cc4 <USB_DevInit>
 8003e30:	4605      	mov	r5, r0
 8003e32:	2800      	cmp	r0, #0
 8003e34:	d1c6      	bne.n	8003dc4 <HAL_PCD_Init+0x34>
 8003e36:	2301      	movs	r3, #1
 8003e38:	7360      	strb	r0, [r4, #13]
 8003e3a:	6820      	ldr	r0, [r4, #0]
 8003e3c:	f884 3291 	strb.w	r3, [r4, #657]	; 0x291
 8003e40:	f002 feba 	bl	8006bb8 <USB_DevDisconnect>
 8003e44:	4628      	mov	r0, r5
 8003e46:	bdf8      	pop	{r3, r4, r5, r6, r7, pc}
 8003e48:	f880 2290 	strb.w	r2, [r0, #656]	; 0x290
 8003e4c:	f003 fdcc 	bl	80079e8 <HAL_PCD_MspInit>
 8003e50:	e7a8      	b.n	8003da4 <HAL_PCD_Init+0x14>
 8003e52:	2501      	movs	r5, #1
 8003e54:	4628      	mov	r0, r5
 8003e56:	bdf8      	pop	{r3, r4, r5, r6, r7, pc}

08003e58 <HAL_PCD_Start>:
 8003e58:	b538      	push	{r3, r4, r5, lr}
 8003e5a:	f890 3290 	ldrb.w	r3, [r0, #656]	; 0x290
 8003e5e:	2b01      	cmp	r3, #1
 8003e60:	d011      	beq.n	8003e86 <HAL_PCD_Start+0x2e>
 8003e62:	4604      	mov	r4, r0
 8003e64:	2501      	movs	r5, #1
 8003e66:	6800      	ldr	r0, [r0, #0]
 8003e68:	f884 5290 	strb.w	r5, [r4, #656]	; 0x290
 8003e6c:	f001 ff14 	bl	8005c98 <USB_EnableGlobalInt>
 8003e70:	4629      	mov	r1, r5
 8003e72:	4620      	mov	r0, r4
 8003e74:	f003 fef6 	bl	8007c64 <HAL_PCDEx_SetConnectionState>
 8003e78:	6820      	ldr	r0, [r4, #0]
 8003e7a:	f002 fe9b 	bl	8006bb4 <USB_DevConnect>
 8003e7e:	2000      	movs	r0, #0
 8003e80:	f884 0290 	strb.w	r0, [r4, #656]	; 0x290
 8003e84:	bd38      	pop	{r3, r4, r5, pc}
 8003e86:	2002      	movs	r0, #2
 8003e88:	bd38      	pop	{r3, r4, r5, pc}
 8003e8a:	bf00      	nop

08003e8c <HAL_PCD_IRQHandler>:
 8003e8c:	e92d 4ff0 	stmdb	sp!, {r4, r5, r6, r7, r8, r9, sl, fp, lr}
 8003e90:	4604      	mov	r4, r0
 8003e92:	b085      	sub	sp, #20
 8003e94:	6800      	ldr	r0, [r0, #0]
 8003e96:	f002 fe91 	bl	8006bbc <USB_ReadInterrupts>
 8003e9a:	f410 4500 	ands.w	r5, r0, #32768	; 0x8000
 8003e9e:	d127      	bne.n	8003ef0 <HAL_PCD_IRQHandler+0x64>
 8003ea0:	0546      	lsls	r6, r0, #21
 8003ea2:	f100 81c5 	bmi.w	8004230 <HAL_PCD_IRQHandler+0x3a4>
 8003ea6:	0441      	lsls	r1, r0, #17
 8003ea8:	d416      	bmi.n	8003ed8 <HAL_PCD_IRQHandler+0x4c>
 8003eaa:	0482      	lsls	r2, r0, #18
 8003eac:	f100 823d 	bmi.w	800432a <HAL_PCD_IRQHandler+0x49e>
 8003eb0:	04c3      	lsls	r3, r0, #19
 8003eb2:	f100 82d4 	bmi.w	800445e <HAL_PCD_IRQHandler+0x5d2>
 8003eb6:	0507      	lsls	r7, r0, #20
 8003eb8:	d47f      	bmi.n	8003fba <HAL_PCD_IRQHandler+0x12e>
 8003eba:	0582      	lsls	r2, r0, #22
 8003ebc:	f100 837a 	bmi.w	80045b4 <HAL_PCD_IRQHandler+0x728>
 8003ec0:	05c3      	lsls	r3, r0, #23
 8003ec2:	d512      	bpl.n	8003eea <HAL_PCD_IRQHandler+0x5e>
 8003ec4:	6822      	ldr	r2, [r4, #0]
 8003ec6:	f8b2 3044 	ldrh.w	r3, [r2, #68]	; 0x44
 8003eca:	f423 7380 	bic.w	r3, r3, #256	; 0x100
 8003ece:	041b      	lsls	r3, r3, #16
 8003ed0:	0c1b      	lsrs	r3, r3, #16
 8003ed2:	f8a2 3044 	strh.w	r3, [r2, #68]	; 0x44
 8003ed6:	e008      	b.n	8003eea <HAL_PCD_IRQHandler+0x5e>
 8003ed8:	6822      	ldr	r2, [r4, #0]
 8003eda:	f8b2 3044 	ldrh.w	r3, [r2, #68]	; 0x44
 8003ede:	f423 4380 	bic.w	r3, r3, #16384	; 0x4000
 8003ee2:	041b      	lsls	r3, r3, #16
 8003ee4:	0c1b      	lsrs	r3, r3, #16
 8003ee6:	f8a2 3044 	strh.w	r3, [r2, #68]	; 0x44
 8003eea:	b005      	add	sp, #20
 8003eec:	e8bd 8ff0 	ldmia.w	sp!, {r4, r5, r6, r7, r8, r9, sl, fp, pc}
 8003ef0:	6820      	ldr	r0, [r4, #0]
 8003ef2:	f8b0 3044 	ldrh.w	r3, [r0, #68]	; 0x44
 8003ef6:	0419      	lsls	r1, r3, #16
 8003ef8:	d5f7      	bpl.n	8003eea <HAL_PCD_IRQHandler+0x5e>
 8003efa:	f8df 9aa8 	ldr.w	r9, [pc, #2728]	; 80049a4 <HAL_PCD_IRQHandler+0xb18>
 8003efe:	f8df baa8 	ldr.w	fp, [pc, #2728]	; 80049a8 <HAL_PCD_IRQHandler+0xb1c>
 8003f02:	f8df aaa8 	ldr.w	sl, [pc, #2728]	; 80049ac <HAL_PCD_IRQHandler+0xb20>
 8003f06:	e010      	b.n	8003f2a <HAL_PCD_IRQHandler+0x9e>
 8003f08:	f011 0110 	ands.w	r1, r1, #16
 8003f0c:	f000 80ea 	beq.w	80040e4 <HAL_PCD_IRQHandler+0x258>
 8003f10:	8801      	ldrh	r1, [r0, #0]
 8003f12:	f411 6500 	ands.w	r5, r1, #2048	; 0x800
 8003f16:	b28b      	uxth	r3, r1
 8003f18:	f040 810a 	bne.w	8004130 <HAL_PCD_IRQHandler+0x2a4>
 8003f1c:	041a      	lsls	r2, r3, #16
 8003f1e:	f100 81a5 	bmi.w	800426c <HAL_PCD_IRQHandler+0x3e0>
 8003f22:	f8b0 3044 	ldrh.w	r3, [r0, #68]	; 0x44
 8003f26:	041f      	lsls	r7, r3, #16
 8003f28:	d5df      	bpl.n	8003eea <HAL_PCD_IRQHandler+0x5e>
 8003f2a:	f8b0 5044 	ldrh.w	r5, [r0, #68]	; 0x44
 8003f2e:	b2a9      	uxth	r1, r5
 8003f30:	f015 050f 	ands.w	r5, r5, #15
 8003f34:	d0e8      	beq.n	8003f08 <HAL_PCD_IRQHandler+0x7c>
 8003f36:	f830 3025 	ldrh.w	r3, [r0, r5, lsl #2]
 8003f3a:	ea4f 0885 	mov.w	r8, r5, lsl #2
 8003f3e:	0419      	lsls	r1, r3, #16
 8003f40:	b29e      	uxth	r6, r3
 8003f42:	f100 8083 	bmi.w	800404c <HAL_PCD_IRQHandler+0x1c0>
 8003f46:	0632      	lsls	r2, r6, #24
 8003f48:	d5eb      	bpl.n	8003f22 <HAL_PCD_IRQHandler+0x96>
 8003f4a:	f830 3025 	ldrh.w	r3, [r0, r5, lsl #2]
 8003f4e:	eb08 0105 	add.w	r1, r8, r5
 8003f52:	b29b      	uxth	r3, r3
 8003f54:	ea03 0309 	and.w	r3, r3, r9
 8003f58:	f443 4300 	orr.w	r3, r3, #32768	; 0x8000
 8003f5c:	eb04 02c1 	add.w	r2, r4, r1, lsl #3
 8003f60:	f820 3025 	strh.w	r3, [r0, r5, lsl #2]
 8003f64:	7cd3      	ldrb	r3, [r2, #19]
 8003f66:	00c9      	lsls	r1, r1, #3
 8003f68:	2b01      	cmp	r3, #1
 8003f6a:	f000 8103 	beq.w	8004174 <HAL_PCD_IRQHandler+0x2e8>
 8003f6e:	f416 7780 	ands.w	r7, r6, #256	; 0x100
 8003f72:	f8b0 3050 	ldrh.w	r3, [r0, #80]	; 0x50
 8003f76:	f040 81e6 	bne.w	8004346 <HAL_PCD_IRQHandler+0x4ba>
 8003f7a:	7c16      	ldrb	r6, [r2, #16]
 8003f7c:	b29b      	uxth	r3, r3
 8003f7e:	3302      	adds	r3, #2
 8003f80:	eb03 03c6 	add.w	r3, r3, r6, lsl #3
 8003f84:	eb00 0343 	add.w	r3, r0, r3, lsl #1
 8003f88:	f8b3 6400 	ldrh.w	r6, [r3, #1024]	; 0x400
 8003f8c:	6a93      	ldr	r3, [r2, #40]	; 0x28
 8003f8e:	f3c6 0609 	ubfx	r6, r6, #0, #10
 8003f92:	42b3      	cmp	r3, r6
 8003f94:	f240 81d5 	bls.w	8004342 <HAL_PCD_IRQHandler+0x4b6>
 8003f98:	1b9b      	subs	r3, r3, r6
 8003f9a:	6293      	str	r3, [r2, #40]	; 0x28
 8003f9c:	2b00      	cmp	r3, #0
 8003f9e:	f000 810a 	beq.w	80041b6 <HAL_PCD_IRQHandler+0x32a>
 8003fa2:	6a55      	ldr	r5, [r2, #36]	; 0x24
 8003fa4:	6ad3      	ldr	r3, [r2, #44]	; 0x2c
 8003fa6:	3110      	adds	r1, #16
 8003fa8:	4433      	add	r3, r6
 8003faa:	4435      	add	r5, r6
 8003fac:	4421      	add	r1, r4
 8003fae:	6255      	str	r5, [r2, #36]	; 0x24
 8003fb0:	62d3      	str	r3, [r2, #44]	; 0x2c
 8003fb2:	f002 f93d 	bl	8006230 <USB_EPStartXfer>
 8003fb6:	6820      	ldr	r0, [r4, #0]
 8003fb8:	e7b3      	b.n	8003f22 <HAL_PCD_IRQHandler+0x96>
 8003fba:	6821      	ldr	r1, [r4, #0]
 8003fbc:	f1ad 0302 	sub.w	r3, sp, #2
 8003fc0:	460d      	mov	r5, r1
 8003fc2:	460e      	mov	r6, r1
 8003fc4:	461a      	mov	r2, r3
 8003fc6:	f10d 000e 	add.w	r0, sp, #14
 8003fca:	f836 7b04 	ldrh.w	r7, [r6], #4
 8003fce:	f822 7f02 	strh.w	r7, [r2, #2]!
 8003fd2:	4290      	cmp	r0, r2
 8003fd4:	d1f9      	bne.n	8003fca <HAL_PCD_IRQHandler+0x13e>
 8003fd6:	f8b1 2040 	ldrh.w	r2, [r1, #64]	; 0x40
 8003fda:	b292      	uxth	r2, r2
 8003fdc:	f042 0201 	orr.w	r2, r2, #1
 8003fe0:	f8a1 2040 	strh.w	r2, [r1, #64]	; 0x40
 8003fe4:	f8b1 2040 	ldrh.w	r2, [r1, #64]	; 0x40
 8003fe8:	f022 0201 	bic.w	r2, r2, #1
 8003fec:	0412      	lsls	r2, r2, #16
 8003fee:	0c12      	lsrs	r2, r2, #16
 8003ff0:	f8a1 2040 	strh.w	r2, [r1, #64]	; 0x40
 8003ff4:	f8b1 2044 	ldrh.w	r2, [r1, #68]	; 0x44
 8003ff8:	0556      	lsls	r6, r2, #21
 8003ffa:	d5fb      	bpl.n	8003ff4 <HAL_PCD_IRQHandler+0x168>
 8003ffc:	f8b1 2044 	ldrh.w	r2, [r1, #68]	; 0x44
 8004000:	f422 6280 	bic.w	r2, r2, #1024	; 0x400
 8004004:	0412      	lsls	r2, r2, #16
 8004006:	0c12      	lsrs	r2, r2, #16
 8004008:	f8a1 2044 	strh.w	r2, [r1, #68]	; 0x44
 800400c:	f833 2f02 	ldrh.w	r2, [r3, #2]!
 8004010:	4298      	cmp	r0, r3
 8004012:	f825 2b04 	strh.w	r2, [r5], #4
 8004016:	d1f9      	bne.n	800400c <HAL_PCD_IRQHandler+0x180>
 8004018:	f8b1 3040 	ldrh.w	r3, [r1, #64]	; 0x40
 800401c:	4620      	mov	r0, r4
 800401e:	b29b      	uxth	r3, r3
 8004020:	f043 0308 	orr.w	r3, r3, #8
 8004024:	f8a1 3040 	strh.w	r3, [r1, #64]	; 0x40
 8004028:	f8b1 3044 	ldrh.w	r3, [r1, #68]	; 0x44
 800402c:	f423 6300 	bic.w	r3, r3, #2048	; 0x800
 8004030:	041b      	lsls	r3, r3, #16
 8004032:	0c1b      	lsrs	r3, r3, #16
 8004034:	f8a1 3044 	strh.w	r3, [r1, #68]	; 0x44
 8004038:	f8b1 3040 	ldrh.w	r3, [r1, #64]	; 0x40
 800403c:	b29b      	uxth	r3, r3
 800403e:	f043 0304 	orr.w	r3, r3, #4
 8004042:	f8a1 3040 	strh.w	r3, [r1, #64]	; 0x40
 8004046:	f003 fd1f 	bl	8007a88 <HAL_PCD_SuspendCallback>
 800404a:	e74e      	b.n	8003eea <HAL_PCD_IRQHandler+0x5e>
 800404c:	f640 738f 	movw	r3, #3983	; 0xf8f
 8004050:	f830 2025 	ldrh.w	r2, [r0, r5, lsl #2]
 8004054:	eb08 0105 	add.w	r1, r8, r5
 8004058:	4013      	ands	r3, r2
 800405a:	f043 0380 	orr.w	r3, r3, #128	; 0x80
 800405e:	f820 3025 	strh.w	r3, [r0, r5, lsl #2]
 8004062:	eb04 01c1 	add.w	r1, r4, r1, lsl #3
 8004066:	f891 315c 	ldrb.w	r3, [r1, #348]	; 0x15c
 800406a:	2b00      	cmp	r3, #0
 800406c:	f040 80ac 	bne.w	80041c8 <HAL_PCD_IRQHandler+0x33c>
 8004070:	f8b0 3050 	ldrh.w	r3, [r0, #80]	; 0x50
 8004074:	f891 2150 	ldrb.w	r2, [r1, #336]	; 0x150
 8004078:	b29b      	uxth	r3, r3
 800407a:	3306      	adds	r3, #6
 800407c:	eb03 03c2 	add.w	r3, r3, r2, lsl #3
 8004080:	eb00 0343 	add.w	r3, r0, r3, lsl #1
 8004084:	f8b3 3400 	ldrh.w	r3, [r3, #1024]	; 0x400
 8004088:	f3c3 0309 	ubfx	r3, r3, #0, #10
 800408c:	bb13      	cbnz	r3, 80040d4 <HAL_PCD_IRQHandler+0x248>
 800408e:	461f      	mov	r7, r3
 8004090:	eb08 0105 	add.w	r1, r8, r5
 8004094:	eb04 03c1 	add.w	r3, r4, r1, lsl #3
 8004098:	f8d3 016c 	ldr.w	r0, [r3, #364]	; 0x16c
 800409c:	f8d3 2164 	ldr.w	r2, [r3, #356]	; 0x164
 80040a0:	4438      	add	r0, r7
 80040a2:	f8c3 016c 	str.w	r0, [r3, #364]	; 0x16c
 80040a6:	f8d3 0168 	ldr.w	r0, [r3, #360]	; 0x168
 80040aa:	443a      	add	r2, r7
 80040ac:	00c9      	lsls	r1, r1, #3
 80040ae:	f8c3 2164 	str.w	r2, [r3, #356]	; 0x164
 80040b2:	b120      	cbz	r0, 80040be <HAL_PCD_IRQHandler+0x232>
 80040b4:	f8d3 3160 	ldr.w	r3, [r3, #352]	; 0x160
 80040b8:	42bb      	cmp	r3, r7
 80040ba:	f240 81b4 	bls.w	8004426 <HAL_PCD_IRQHandler+0x59a>
 80040be:	eb08 0305 	add.w	r3, r8, r5
 80040c2:	eb04 03c3 	add.w	r3, r4, r3, lsl #3
 80040c6:	4620      	mov	r0, r4
 80040c8:	f893 1150 	ldrb.w	r1, [r3, #336]	; 0x150
 80040cc:	f003 fcb2 	bl	8007a34 <HAL_PCD_DataOutStageCallback>
 80040d0:	6820      	ldr	r0, [r4, #0]
 80040d2:	e738      	b.n	8003f46 <HAL_PCD_IRQHandler+0xba>
 80040d4:	f8b1 2156 	ldrh.w	r2, [r1, #342]	; 0x156
 80040d8:	f8d1 1164 	ldr.w	r1, [r1, #356]	; 0x164
 80040dc:	461f      	mov	r7, r3
 80040de:	f002 fd8d 	bl	8006bfc <USB_ReadPMA>
 80040e2:	e7d5      	b.n	8004090 <HAL_PCD_IRQHandler+0x204>
 80040e4:	8803      	ldrh	r3, [r0, #0]
 80040e6:	b29b      	uxth	r3, r3
 80040e8:	ea03 0309 	and.w	r3, r3, r9
 80040ec:	f443 4300 	orr.w	r3, r3, #32768	; 0x8000
 80040f0:	8003      	strh	r3, [r0, #0]
 80040f2:	f8b0 3050 	ldrh.w	r3, [r0, #80]	; 0x50
 80040f6:	7c22      	ldrb	r2, [r4, #16]
 80040f8:	b29b      	uxth	r3, r3
 80040fa:	eb03 03c2 	add.w	r3, r3, r2, lsl #3
 80040fe:	eb00 0043 	add.w	r0, r0, r3, lsl #1
 8004102:	f8b0 3404 	ldrh.w	r3, [r0, #1028]	; 0x404
 8004106:	6a62      	ldr	r2, [r4, #36]	; 0x24
 8004108:	f3c3 0309 	ubfx	r3, r3, #0, #10
 800410c:	441a      	add	r2, r3
 800410e:	62e3      	str	r3, [r4, #44]	; 0x2c
 8004110:	4620      	mov	r0, r4
 8004112:	6262      	str	r2, [r4, #36]	; 0x24
 8004114:	f003 fc98 	bl	8007a48 <HAL_PCD_DataInStageCallback>
 8004118:	7b63      	ldrb	r3, [r4, #13]
 800411a:	b34b      	cbz	r3, 8004170 <HAL_PCD_IRQHandler+0x2e4>
 800411c:	6aa3      	ldr	r3, [r4, #40]	; 0x28
 800411e:	bb3b      	cbnz	r3, 8004170 <HAL_PCD_IRQHandler+0x2e4>
 8004120:	7b62      	ldrb	r2, [r4, #13]
 8004122:	6820      	ldr	r0, [r4, #0]
 8004124:	f042 0280 	orr.w	r2, r2, #128	; 0x80
 8004128:	f8a0 204c 	strh.w	r2, [r0, #76]	; 0x4c
 800412c:	7363      	strb	r3, [r4, #13]
 800412e:	e6f8      	b.n	8003f22 <HAL_PCD_IRQHandler+0x96>
 8004130:	f8b0 3050 	ldrh.w	r3, [r0, #80]	; 0x50
 8004134:	f894 2150 	ldrb.w	r2, [r4, #336]	; 0x150
 8004138:	b29b      	uxth	r3, r3
 800413a:	eb03 03c2 	add.w	r3, r3, r2, lsl #3
 800413e:	eb00 0343 	add.w	r3, r0, r3, lsl #1
 8004142:	f8b3 340c 	ldrh.w	r3, [r3, #1036]	; 0x40c
 8004146:	f8b4 2156 	ldrh.w	r2, [r4, #342]	; 0x156
 800414a:	f3c3 0309 	ubfx	r3, r3, #0, #10
 800414e:	f8c4 316c 	str.w	r3, [r4, #364]	; 0x16c
 8004152:	f504 7126 	add.w	r1, r4, #664	; 0x298
 8004156:	f002 fd51 	bl	8006bfc <USB_ReadPMA>
 800415a:	f640 738f 	movw	r3, #3983	; 0xf8f
 800415e:	6822      	ldr	r2, [r4, #0]
 8004160:	4620      	mov	r0, r4
 8004162:	8811      	ldrh	r1, [r2, #0]
 8004164:	400b      	ands	r3, r1
 8004166:	f043 0380 	orr.w	r3, r3, #128	; 0x80
 800416a:	8013      	strh	r3, [r2, #0]
 800416c:	f003 fc5c 	bl	8007a28 <HAL_PCD_SetupStageCallback>
 8004170:	6820      	ldr	r0, [r4, #0]
 8004172:	e6d6      	b.n	8003f22 <HAL_PCD_IRQHandler+0x96>
 8004174:	2100      	movs	r1, #0
 8004176:	1c6b      	adds	r3, r5, #1
 8004178:	eb03 0383 	add.w	r3, r3, r3, lsl #2
 800417c:	f844 1033 	str.w	r1, [r4, r3, lsl #3]
 8004180:	7f13      	ldrb	r3, [r2, #28]
 8004182:	b1c3      	cbz	r3, 80041b6 <HAL_PCD_IRQHandler+0x32a>
 8004184:	f016 0640 	ands.w	r6, r6, #64	; 0x40
 8004188:	7c53      	ldrb	r3, [r2, #17]
 800418a:	f040 81c5 	bne.w	8004518 <HAL_PCD_IRQHandler+0x68c>
 800418e:	2b00      	cmp	r3, #0
 8004190:	f040 82f1 	bne.w	8004776 <HAL_PCD_IRQHandler+0x8ea>
 8004194:	f8b0 1050 	ldrh.w	r1, [r0, #80]	; 0x50
 8004198:	7c13      	ldrb	r3, [r2, #16]
 800419a:	f200 400c 	addw	r0, r0, #1036	; 0x40c
 800419e:	b28a      	uxth	r2, r1
 80041a0:	011b      	lsls	r3, r3, #4
 80041a2:	4410      	add	r0, r2
 80041a4:	5a1a      	ldrh	r2, [r3, r0]
 80041a6:	f3c2 0209 	ubfx	r2, r2, #0, #10
 80041aa:	521a      	strh	r2, [r3, r0]
 80041ac:	5a1a      	ldrh	r2, [r3, r0]
 80041ae:	b292      	uxth	r2, r2
 80041b0:	f442 4200 	orr.w	r2, r2, #32768	; 0x8000
 80041b4:	521a      	strh	r2, [r3, r0]
 80041b6:	4445      	add	r5, r8
 80041b8:	eb04 05c5 	add.w	r5, r4, r5, lsl #3
 80041bc:	4620      	mov	r0, r4
 80041be:	7c29      	ldrb	r1, [r5, #16]
 80041c0:	f003 fc42 	bl	8007a48 <HAL_PCD_DataInStageCallback>
 80041c4:	6820      	ldr	r0, [r4, #0]
 80041c6:	e6ac      	b.n	8003f22 <HAL_PCD_IRQHandler+0x96>
 80041c8:	f891 3153 	ldrb.w	r3, [r1, #339]	; 0x153
 80041cc:	2b02      	cmp	r3, #2
 80041ce:	f000 81ad 	beq.w	800452c <HAL_PCD_IRQHandler+0x6a0>
 80041d2:	f891 2150 	ldrb.w	r2, [r1, #336]	; 0x150
 80041d6:	f830 3022 	ldrh.w	r3, [r0, r2, lsl #2]
 80041da:	f423 43e0 	bic.w	r3, r3, #28672	; 0x7000
 80041de:	f023 0370 	bic.w	r3, r3, #112	; 0x70
 80041e2:	041b      	lsls	r3, r3, #16
 80041e4:	0c1b      	lsrs	r3, r3, #16
 80041e6:	f443 4300 	orr.w	r3, r3, #32768	; 0x8000
 80041ea:	f043 03c0 	orr.w	r3, r3, #192	; 0xc0
 80041ee:	f820 3022 	strh.w	r3, [r0, r2, lsl #2]
 80041f2:	f891 2150 	ldrb.w	r2, [r1, #336]	; 0x150
 80041f6:	f830 3022 	ldrh.w	r3, [r0, r2, lsl #2]
 80041fa:	f413 4f80 	tst.w	r3, #16384	; 0x4000
 80041fe:	f8b0 3050 	ldrh.w	r3, [r0, #80]	; 0x50
 8004202:	b29b      	uxth	r3, r3
 8004204:	f000 8117 	beq.w	8004436 <HAL_PCD_IRQHandler+0x5aa>
 8004208:	3302      	adds	r3, #2
 800420a:	eb03 03c2 	add.w	r3, r3, r2, lsl #3
 800420e:	eb00 0343 	add.w	r3, r0, r3, lsl #1
 8004212:	f8b3 3400 	ldrh.w	r3, [r3, #1024]	; 0x400
 8004216:	f3c3 0309 	ubfx	r3, r3, #0, #10
 800421a:	2b00      	cmp	r3, #0
 800421c:	f43f af37 	beq.w	800408e <HAL_PCD_IRQHandler+0x202>
 8004220:	f8b1 2158 	ldrh.w	r2, [r1, #344]	; 0x158
 8004224:	f8d1 1164 	ldr.w	r1, [r1, #356]	; 0x164
 8004228:	461f      	mov	r7, r3
 800422a:	f002 fce7 	bl	8006bfc <USB_ReadPMA>
 800422e:	e72f      	b.n	8004090 <HAL_PCD_IRQHandler+0x204>
 8004230:	6822      	ldr	r2, [r4, #0]
 8004232:	4620      	mov	r0, r4
 8004234:	f8b2 3044 	ldrh.w	r3, [r2, #68]	; 0x44
 8004238:	f423 6380 	bic.w	r3, r3, #1024	; 0x400
 800423c:	041b      	lsls	r3, r3, #16
 800423e:	0c1b      	lsrs	r3, r3, #16
 8004240:	f8a2 3044 	strh.w	r3, [r2, #68]	; 0x44
 8004244:	f003 fc0e 	bl	8007a64 <HAL_PCD_ResetCallback>
 8004248:	f894 3290 	ldrb.w	r3, [r4, #656]	; 0x290
 800424c:	2b01      	cmp	r3, #1
 800424e:	f43f ae4c 	beq.w	8003eea <HAL_PCD_IRQHandler+0x5e>
 8004252:	2301      	movs	r3, #1
 8004254:	4629      	mov	r1, r5
 8004256:	6820      	ldr	r0, [r4, #0]
 8004258:	7365      	strb	r5, [r4, #13]
 800425a:	f884 3290 	strb.w	r3, [r4, #656]	; 0x290
 800425e:	f002 fca3 	bl	8006ba8 <USB_SetDevAddress>
 8004262:	f884 5290 	strb.w	r5, [r4, #656]	; 0x290
 8004266:	b005      	add	sp, #20
 8004268:	e8bd 8ff0 	ldmia.w	sp!, {r4, r5, r6, r7, r8, r9, sl, fp, pc}
 800426c:	f640 738f 	movw	r3, #3983	; 0xf8f
 8004270:	8802      	ldrh	r2, [r0, #0]
 8004272:	4013      	ands	r3, r2
 8004274:	f043 0380 	orr.w	r3, r3, #128	; 0x80
 8004278:	8003      	strh	r3, [r0, #0]
 800427a:	f8b0 3050 	ldrh.w	r3, [r0, #80]	; 0x50
 800427e:	f894 2150 	ldrb.w	r2, [r4, #336]	; 0x150
 8004282:	b29b      	uxth	r3, r3
 8004284:	eb03 03c2 	add.w	r3, r3, r2, lsl #3
 8004288:	eb00 0343 	add.w	r3, r0, r3, lsl #1
 800428c:	f8b3 340c 	ldrh.w	r3, [r3, #1036]	; 0x40c
 8004290:	f3c3 0309 	ubfx	r3, r3, #0, #10
 8004294:	f8c4 316c 	str.w	r3, [r4, #364]	; 0x16c
 8004298:	b193      	cbz	r3, 80042c0 <HAL_PCD_IRQHandler+0x434>
 800429a:	f8d4 1164 	ldr.w	r1, [r4, #356]	; 0x164
 800429e:	b179      	cbz	r1, 80042c0 <HAL_PCD_IRQHandler+0x434>
 80042a0:	f8b4 2156 	ldrh.w	r2, [r4, #342]	; 0x156
 80042a4:	f002 fcaa 	bl	8006bfc <USB_ReadPMA>
 80042a8:	f8d4 3164 	ldr.w	r3, [r4, #356]	; 0x164
 80042ac:	f8d4 216c 	ldr.w	r2, [r4, #364]	; 0x16c
 80042b0:	4620      	mov	r0, r4
 80042b2:	4413      	add	r3, r2
 80042b4:	4629      	mov	r1, r5
 80042b6:	f8c4 3164 	str.w	r3, [r4, #356]	; 0x164
 80042ba:	f003 fbbb 	bl	8007a34 <HAL_PCD_DataOutStageCallback>
 80042be:	6820      	ldr	r0, [r4, #0]
 80042c0:	8803      	ldrh	r3, [r0, #0]
 80042c2:	b29a      	uxth	r2, r3
 80042c4:	051b      	lsls	r3, r3, #20
 80042c6:	f53f ae2c 	bmi.w	8003f22 <HAL_PCD_IRQHandler+0x96>
 80042ca:	f402 5240 	and.w	r2, r2, #12288	; 0x3000
 80042ce:	f5b2 5f40 	cmp.w	r2, #12288	; 0x3000
 80042d2:	f43f ae26 	beq.w	8003f22 <HAL_PCD_IRQHandler+0x96>
 80042d6:	f8b0 3050 	ldrh.w	r3, [r0, #80]	; 0x50
 80042da:	f200 420c 	addw	r2, r0, #1036	; 0x40c
 80042de:	b29b      	uxth	r3, r3
 80042e0:	5ad1      	ldrh	r1, [r2, r3]
 80042e2:	f8d4 5160 	ldr.w	r5, [r4, #352]	; 0x160
 80042e6:	f3c1 0109 	ubfx	r1, r1, #0, #10
 80042ea:	2d3e      	cmp	r5, #62	; 0x3e
 80042ec:	52d1      	strh	r1, [r2, r3]
 80042ee:	f240 816e 	bls.w	80045ce <HAL_PCD_IRQHandler+0x742>
 80042f2:	5ad1      	ldrh	r1, [r2, r3]
 80042f4:	096e      	lsrs	r6, r5, #5
 80042f6:	06ef      	lsls	r7, r5, #27
 80042f8:	bf08      	it	eq
 80042fa:	f106 36ff 	addeq.w	r6, r6, #4294967295
 80042fe:	b289      	uxth	r1, r1
 8004300:	ea41 2186 	orr.w	r1, r1, r6, lsl #10
 8004304:	ea41 010b 	orr.w	r1, r1, fp
 8004308:	b289      	uxth	r1, r1
 800430a:	52d1      	strh	r1, [r2, r3]
 800430c:	8803      	ldrh	r3, [r0, #0]
 800430e:	f423 4380 	bic.w	r3, r3, #16384	; 0x4000
 8004312:	f023 0370 	bic.w	r3, r3, #112	; 0x70
 8004316:	041b      	lsls	r3, r3, #16
 8004318:	0c1b      	lsrs	r3, r3, #16
 800431a:	f483 5340 	eor.w	r3, r3, #12288	; 0x3000
 800431e:	f443 4300 	orr.w	r3, r3, #32768	; 0x8000
 8004322:	f043 0380 	orr.w	r3, r3, #128	; 0x80
 8004326:	8003      	strh	r3, [r0, #0]
 8004328:	e5fb      	b.n	8003f22 <HAL_PCD_IRQHandler+0x96>
 800432a:	6822      	ldr	r2, [r4, #0]
 800432c:	f8b2 3044 	ldrh.w	r3, [r2, #68]	; 0x44
 8004330:	f423 5300 	bic.w	r3, r3, #8192	; 0x2000
 8004334:	041b      	lsls	r3, r3, #16
 8004336:	0c1b      	lsrs	r3, r3, #16
 8004338:	f8a2 3044 	strh.w	r3, [r2, #68]	; 0x44
 800433c:	b005      	add	sp, #20
 800433e:	e8bd 8ff0 	ldmia.w	sp!, {r4, r5, r6, r7, r8, r9, sl, fp, pc}
 8004342:	6297      	str	r7, [r2, #40]	; 0x28
 8004344:	e737      	b.n	80041b6 <HAL_PCD_IRQHandler+0x32a>
 8004346:	f016 0740 	ands.w	r7, r6, #64	; 0x40
 800434a:	7c11      	ldrb	r1, [r2, #16]
 800434c:	b29b      	uxth	r3, r3
 800434e:	f000 80a4 	beq.w	800449a <HAL_PCD_IRQHandler+0x60e>
 8004352:	3302      	adds	r3, #2
 8004354:	eb03 03c1 	add.w	r3, r3, r1, lsl #3
 8004358:	eb00 0343 	add.w	r3, r0, r3, lsl #1
 800435c:	f8b3 3400 	ldrh.w	r3, [r3, #1024]	; 0x400
 8004360:	6a97      	ldr	r7, [r2, #40]	; 0x28
 8004362:	f3c3 0309 	ubfx	r3, r3, #0, #10
 8004366:	429f      	cmp	r7, r3
 8004368:	f240 813a 	bls.w	80045e0 <HAL_PCD_IRQHandler+0x754>
 800436c:	1aff      	subs	r7, r7, r3
 800436e:	6297      	str	r7, [r2, #40]	; 0x28
 8004370:	2f00      	cmp	r7, #0
 8004372:	f000 8137 	beq.w	80045e4 <HAL_PCD_IRQHandler+0x758>
 8004376:	0477      	lsls	r7, r6, #17
 8004378:	d50d      	bpl.n	8004396 <HAL_PCD_IRQHandler+0x50a>
 800437a:	f830 6021 	ldrh.w	r6, [r0, r1, lsl #2]
 800437e:	f426 46e0 	bic.w	r6, r6, #28672	; 0x7000
 8004382:	f026 0670 	bic.w	r6, r6, #112	; 0x70
 8004386:	0436      	lsls	r6, r6, #16
 8004388:	0c36      	lsrs	r6, r6, #16
 800438a:	f446 4640 	orr.w	r6, r6, #49152	; 0xc000
 800438e:	f046 0680 	orr.w	r6, r6, #128	; 0x80
 8004392:	f820 6021 	strh.w	r6, [r0, r1, lsl #2]
 8004396:	eb08 0705 	add.w	r7, r8, r5
 800439a:	eb04 07c7 	add.w	r7, r4, r7, lsl #3
 800439e:	f897 1034 	ldrb.w	r1, [r7, #52]	; 0x34
 80043a2:	2901      	cmp	r1, #1
 80043a4:	f040 80a6 	bne.w	80044f4 <HAL_PCD_IRQHandler+0x668>
 80043a8:	6a79      	ldr	r1, [r7, #36]	; 0x24
 80043aa:	4419      	add	r1, r3
 80043ac:	6279      	str	r1, [r7, #36]	; 0x24
 80043ae:	6ad6      	ldr	r6, [r2, #44]	; 0x2c
 80043b0:	441e      	add	r6, r3
 80043b2:	62d6      	str	r6, [r2, #44]	; 0x2c
 80043b4:	6b3a      	ldr	r2, [r7, #48]	; 0x30
 80043b6:	6a3e      	ldr	r6, [r7, #32]
 80043b8:	42b2      	cmp	r2, r6
 80043ba:	f0c0 82b7 	bcc.w	800492c <HAL_PCD_IRQHandler+0xaa0>
 80043be:	1b92      	subs	r2, r2, r6
 80043c0:	633a      	str	r2, [r7, #48]	; 0x30
 80043c2:	b2b3      	uxth	r3, r6
 80043c4:	eb08 0205 	add.w	r2, r8, r5
 80043c8:	eb04 02c2 	add.w	r2, r4, r2, lsl #3
 80043cc:	7c57      	ldrb	r7, [r2, #17]
 80043ce:	2f00      	cmp	r7, #0
 80043d0:	f040 829f 	bne.w	8004912 <HAL_PCD_IRQHandler+0xa86>
 80043d4:	f8b0 c050 	ldrh.w	ip, [r0, #80]	; 0x50
 80043d8:	7c17      	ldrb	r7, [r2, #16]
 80043da:	fa1f fc8c 	uxth.w	ip, ip
 80043de:	f200 4204 	addw	r2, r0, #1028	; 0x404
 80043e2:	013f      	lsls	r7, r7, #4
 80043e4:	4462      	add	r2, ip
 80043e6:	f832 c007 	ldrh.w	ip, [r2, r7]
 80043ea:	2e3e      	cmp	r6, #62	; 0x3e
 80043ec:	f3cc 0c09 	ubfx	ip, ip, #0, #10
 80043f0:	f822 c007 	strh.w	ip, [r2, r7]
 80043f4:	f240 82ad 	bls.w	8004952 <HAL_PCD_IRQHandler+0xac6>
 80043f8:	ea4f 1c56 	mov.w	ip, r6, lsr #5
 80043fc:	06f6      	lsls	r6, r6, #27
 80043fe:	5bd6      	ldrh	r6, [r2, r7]
 8004400:	bf08      	it	eq
 8004402:	f10c 3cff 	addeq.w	ip, ip, #4294967295
 8004406:	b2b6      	uxth	r6, r6
 8004408:	ea46 268c 	orr.w	r6, r6, ip, lsl #10
 800440c:	ea46 060b 	orr.w	r6, r6, fp
 8004410:	b2b6      	uxth	r6, r6
 8004412:	53d6      	strh	r6, [r2, r7]
 8004414:	eb08 0205 	add.w	r2, r8, r5
 8004418:	eb04 02c2 	add.w	r2, r4, r2, lsl #3
 800441c:	8b12      	ldrh	r2, [r2, #24]
 800441e:	f002 fbd3 	bl	8006bc8 <USB_WritePMA>
 8004422:	6820      	ldr	r0, [r4, #0]
 8004424:	e066      	b.n	80044f4 <HAL_PCD_IRQHandler+0x668>
 8004426:	f501 71a8 	add.w	r1, r1, #336	; 0x150
 800442a:	6820      	ldr	r0, [r4, #0]
 800442c:	4421      	add	r1, r4
 800442e:	f001 feff 	bl	8006230 <USB_EPStartXfer>
 8004432:	6820      	ldr	r0, [r4, #0]
 8004434:	e587      	b.n	8003f46 <HAL_PCD_IRQHandler+0xba>
 8004436:	3306      	adds	r3, #6
 8004438:	eb03 03c2 	add.w	r3, r3, r2, lsl #3
 800443c:	eb00 0343 	add.w	r3, r0, r3, lsl #1
 8004440:	f8b3 3400 	ldrh.w	r3, [r3, #1024]	; 0x400
 8004444:	f3c3 0309 	ubfx	r3, r3, #0, #10
 8004448:	2b00      	cmp	r3, #0
 800444a:	f43f ae20 	beq.w	800408e <HAL_PCD_IRQHandler+0x202>
 800444e:	f8b1 215a 	ldrh.w	r2, [r1, #346]	; 0x15a
 8004452:	f8d1 1164 	ldr.w	r1, [r1, #356]	; 0x164
 8004456:	461f      	mov	r7, r3
 8004458:	f002 fbd0 	bl	8006bfc <USB_ReadPMA>
 800445c:	e618      	b.n	8004090 <HAL_PCD_IRQHandler+0x204>
 800445e:	6822      	ldr	r2, [r4, #0]
 8004460:	4620      	mov	r0, r4
 8004462:	f8b2 3040 	ldrh.w	r3, [r2, #64]	; 0x40
 8004466:	f023 0304 	bic.w	r3, r3, #4
 800446a:	041b      	lsls	r3, r3, #16
 800446c:	0c1b      	lsrs	r3, r3, #16
 800446e:	f8a2 3040 	strh.w	r3, [r2, #64]	; 0x40
 8004472:	f8b2 3040 	ldrh.w	r3, [r2, #64]	; 0x40
 8004476:	f023 0308 	bic.w	r3, r3, #8
 800447a:	041b      	lsls	r3, r3, #16
 800447c:	0c1b      	lsrs	r3, r3, #16
 800447e:	f8a2 3040 	strh.w	r3, [r2, #64]	; 0x40
 8004482:	f003 fb11 	bl	8007aa8 <HAL_PCD_ResumeCallback>
 8004486:	6822      	ldr	r2, [r4, #0]
 8004488:	f8b2 3044 	ldrh.w	r3, [r2, #68]	; 0x44
 800448c:	f423 5380 	bic.w	r3, r3, #4096	; 0x1000
 8004490:	041b      	lsls	r3, r3, #16
 8004492:	0c1b      	lsrs	r3, r3, #16
 8004494:	f8a2 3044 	strh.w	r3, [r2, #68]	; 0x44
 8004498:	e527      	b.n	8003eea <HAL_PCD_IRQHandler+0x5e>
 800449a:	3306      	adds	r3, #6
 800449c:	eb03 03c1 	add.w	r3, r3, r1, lsl #3
 80044a0:	eb00 0343 	add.w	r3, r0, r3, lsl #1
 80044a4:	f8b3 3400 	ldrh.w	r3, [r3, #1024]	; 0x400
 80044a8:	f8d2 c028 	ldr.w	ip, [r2, #40]	; 0x28
 80044ac:	f3c3 0309 	ubfx	r3, r3, #0, #10
 80044b0:	459c      	cmp	ip, r3
 80044b2:	f0c0 8122 	bcc.w	80046fa <HAL_PCD_IRQHandler+0x86e>
 80044b6:	ebac 0703 	sub.w	r7, ip, r3
 80044ba:	6297      	str	r7, [r2, #40]	; 0x28
 80044bc:	2f00      	cmp	r7, #0
 80044be:	f000 811d 	beq.w	80046fc <HAL_PCD_IRQHandler+0x870>
 80044c2:	0477      	lsls	r7, r6, #17
 80044c4:	d40d      	bmi.n	80044e2 <HAL_PCD_IRQHandler+0x656>
 80044c6:	f830 6021 	ldrh.w	r6, [r0, r1, lsl #2]
 80044ca:	f426 46e0 	bic.w	r6, r6, #28672	; 0x7000
 80044ce:	f026 0670 	bic.w	r6, r6, #112	; 0x70
 80044d2:	0436      	lsls	r6, r6, #16
 80044d4:	0c36      	lsrs	r6, r6, #16
 80044d6:	f446 4640 	orr.w	r6, r6, #49152	; 0xc000
 80044da:	f046 0680 	orr.w	r6, r6, #128	; 0x80
 80044de:	f820 6021 	strh.w	r6, [r0, r1, lsl #2]
 80044e2:	eb08 0705 	add.w	r7, r8, r5
 80044e6:	eb04 07c7 	add.w	r7, r4, r7, lsl #3
 80044ea:	f897 1034 	ldrb.w	r1, [r7, #52]	; 0x34
 80044ee:	2901      	cmp	r1, #1
 80044f0:	f000 80c4 	beq.w	800467c <HAL_PCD_IRQHandler+0x7f0>
 80044f4:	4445      	add	r5, r8
 80044f6:	eb04 05c5 	add.w	r5, r4, r5, lsl #3
 80044fa:	7c2a      	ldrb	r2, [r5, #16]
 80044fc:	f830 3022 	ldrh.w	r3, [r0, r2, lsl #2]
 8004500:	b29b      	uxth	r3, r3
 8004502:	ea03 030a 	and.w	r3, r3, sl
 8004506:	f083 0330 	eor.w	r3, r3, #48	; 0x30
 800450a:	f443 4300 	orr.w	r3, r3, #32768	; 0x8000
 800450e:	f043 0380 	orr.w	r3, r3, #128	; 0x80
 8004512:	f820 3022 	strh.w	r3, [r0, r2, lsl #2]
 8004516:	e504      	b.n	8003f22 <HAL_PCD_IRQHandler+0x96>
 8004518:	2b00      	cmp	r3, #0
 800451a:	f040 8139 	bne.w	8004790 <HAL_PCD_IRQHandler+0x904>
 800451e:	f8b0 1050 	ldrh.w	r1, [r0, #80]	; 0x50
 8004522:	7c13      	ldrb	r3, [r2, #16]
 8004524:	f200 4004 	addw	r0, r0, #1028	; 0x404
 8004528:	b28a      	uxth	r2, r1
 800452a:	e639      	b.n	80041a0 <HAL_PCD_IRQHandler+0x314>
 800452c:	f8b0 3050 	ldrh.w	r3, [r0, #80]	; 0x50
 8004530:	f416 4c80 	ands.w	ip, r6, #16384	; 0x4000
 8004534:	f891 2150 	ldrb.w	r2, [r1, #336]	; 0x150
 8004538:	b29b      	uxth	r3, r3
 800453a:	f000 8136 	beq.w	80047aa <HAL_PCD_IRQHandler+0x91e>
 800453e:	3302      	adds	r3, #2
 8004540:	eb03 03c2 	add.w	r3, r3, r2, lsl #3
 8004544:	eb00 0343 	add.w	r3, r0, r3, lsl #1
 8004548:	f8b3 3400 	ldrh.w	r3, [r3, #1024]	; 0x400
 800454c:	f8d1 c168 	ldr.w	ip, [r1, #360]	; 0x168
 8004550:	f3c3 0309 	ubfx	r3, r3, #0, #10
 8004554:	459c      	cmp	ip, r3
 8004556:	461f      	mov	r7, r3
 8004558:	f0c0 8197 	bcc.w	800488a <HAL_PCD_IRQHandler+0x9fe>
 800455c:	ebac 0c03 	sub.w	ip, ip, r3
 8004560:	f8c1 c168 	str.w	ip, [r1, #360]	; 0x168
 8004564:	f1bc 0f00 	cmp.w	ip, #0
 8004568:	f000 8193 	beq.w	8004892 <HAL_PCD_IRQHandler+0xa06>
 800456c:	0672      	lsls	r2, r6, #25
 800456e:	d513      	bpl.n	8004598 <HAL_PCD_IRQHandler+0x70c>
 8004570:	eb08 0205 	add.w	r2, r8, r5
 8004574:	eb04 02c2 	add.w	r2, r4, r2, lsl #3
 8004578:	f892 1150 	ldrb.w	r1, [r2, #336]	; 0x150
 800457c:	f830 2021 	ldrh.w	r2, [r0, r1, lsl #2]
 8004580:	f422 42e0 	bic.w	r2, r2, #28672	; 0x7000
 8004584:	f022 0270 	bic.w	r2, r2, #112	; 0x70
 8004588:	0412      	lsls	r2, r2, #16
 800458a:	0c12      	lsrs	r2, r2, #16
 800458c:	f442 4200 	orr.w	r2, r2, #32768	; 0x8000
 8004590:	f042 02c0 	orr.w	r2, r2, #192	; 0xc0
 8004594:	f820 2021 	strh.w	r2, [r0, r1, lsl #2]
 8004598:	2b00      	cmp	r3, #0
 800459a:	f43f ad78 	beq.w	800408e <HAL_PCD_IRQHandler+0x202>
 800459e:	eb08 0105 	add.w	r1, r8, r5
 80045a2:	eb04 01c1 	add.w	r1, r4, r1, lsl #3
 80045a6:	f8b1 2158 	ldrh.w	r2, [r1, #344]	; 0x158
 80045aa:	f8d1 1164 	ldr.w	r1, [r1, #356]	; 0x164
 80045ae:	f002 fb25 	bl	8006bfc <USB_ReadPMA>
 80045b2:	e56d      	b.n	8004090 <HAL_PCD_IRQHandler+0x204>
 80045b4:	6822      	ldr	r2, [r4, #0]
 80045b6:	4620      	mov	r0, r4
 80045b8:	f8b2 3044 	ldrh.w	r3, [r2, #68]	; 0x44
 80045bc:	f423 7300 	bic.w	r3, r3, #512	; 0x200
 80045c0:	041b      	lsls	r3, r3, #16
 80045c2:	0c1b      	lsrs	r3, r3, #16
 80045c4:	f8a2 3044 	strh.w	r3, [r2, #68]	; 0x44
 80045c8:	f003 fa48 	bl	8007a5c <HAL_PCD_SOFCallback>
 80045cc:	e48d      	b.n	8003eea <HAL_PCD_IRQHandler+0x5e>
 80045ce:	2d00      	cmp	r5, #0
 80045d0:	f040 8124 	bne.w	800481c <HAL_PCD_IRQHandler+0x990>
 80045d4:	5ad1      	ldrh	r1, [r2, r3]
 80045d6:	b289      	uxth	r1, r1
 80045d8:	f441 4100 	orr.w	r1, r1, #32768	; 0x8000
 80045dc:	52d1      	strh	r1, [r2, r3]
 80045de:	e695      	b.n	800430c <HAL_PCD_IRQHandler+0x480>
 80045e0:	2300      	movs	r3, #0
 80045e2:	6293      	str	r3, [r2, #40]	; 0x28
 80045e4:	eb08 0305 	add.w	r3, r8, r5
 80045e8:	eb04 03c3 	add.w	r3, r4, r3, lsl #3
 80045ec:	7c5b      	ldrb	r3, [r3, #17]
 80045ee:	2b00      	cmp	r3, #0
 80045f0:	f040 811f 	bne.w	8004832 <HAL_PCD_IRQHandler+0x9a6>
 80045f4:	f8b0 3050 	ldrh.w	r3, [r0, #80]	; 0x50
 80045f8:	f200 4204 	addw	r2, r0, #1028	; 0x404
 80045fc:	b29b      	uxth	r3, r3
 80045fe:	0109      	lsls	r1, r1, #4
 8004600:	441a      	add	r2, r3
 8004602:	5a53      	ldrh	r3, [r2, r1]
 8004604:	f3c3 0309 	ubfx	r3, r3, #0, #10
 8004608:	5253      	strh	r3, [r2, r1]
 800460a:	5a53      	ldrh	r3, [r2, r1]
 800460c:	b29b      	uxth	r3, r3
 800460e:	f443 4300 	orr.w	r3, r3, #32768	; 0x8000
 8004612:	5253      	strh	r3, [r2, r1]
 8004614:	eb08 0305 	add.w	r3, r8, r5
 8004618:	eb04 03c3 	add.w	r3, r4, r3, lsl #3
 800461c:	7c5a      	ldrb	r2, [r3, #17]
 800461e:	2a00      	cmp	r2, #0
 8004620:	f040 8169 	bne.w	80048f6 <HAL_PCD_IRQHandler+0xa6a>
 8004624:	f8b0 2050 	ldrh.w	r2, [r0, #80]	; 0x50
 8004628:	7c19      	ldrb	r1, [r3, #16]
 800462a:	b292      	uxth	r2, r2
 800462c:	f200 430c 	addw	r3, r0, #1036	; 0x40c
 8004630:	0109      	lsls	r1, r1, #4
 8004632:	4413      	add	r3, r2
 8004634:	5aca      	ldrh	r2, [r1, r3]
 8004636:	f3c2 0209 	ubfx	r2, r2, #0, #10
 800463a:	52ca      	strh	r2, [r1, r3]
 800463c:	5aca      	ldrh	r2, [r1, r3]
 800463e:	b292      	uxth	r2, r2
 8004640:	f442 4200 	orr.w	r2, r2, #32768	; 0x8000
 8004644:	52ca      	strh	r2, [r1, r3]
 8004646:	eb08 0705 	add.w	r7, r8, r5
 800464a:	eb04 07c7 	add.w	r7, r4, r7, lsl #3
 800464e:	4620      	mov	r0, r4
 8004650:	7c39      	ldrb	r1, [r7, #16]
 8004652:	f003 f9f9 	bl	8007a48 <HAL_PCD_DataInStageCallback>
 8004656:	0473      	lsls	r3, r6, #17
 8004658:	d54d      	bpl.n	80046f6 <HAL_PCD_IRQHandler+0x86a>
 800465a:	7c3a      	ldrb	r2, [r7, #16]
 800465c:	6820      	ldr	r0, [r4, #0]
 800465e:	f830 3022 	ldrh.w	r3, [r0, r2, lsl #2]
 8004662:	f423 43e0 	bic.w	r3, r3, #28672	; 0x7000
 8004666:	f023 0370 	bic.w	r3, r3, #112	; 0x70
 800466a:	041b      	lsls	r3, r3, #16
 800466c:	0c1b      	lsrs	r3, r3, #16
 800466e:	f443 4340 	orr.w	r3, r3, #49152	; 0xc000
 8004672:	f043 0380 	orr.w	r3, r3, #128	; 0x80
 8004676:	f820 3022 	strh.w	r3, [r0, r2, lsl #2]
 800467a:	e73b      	b.n	80044f4 <HAL_PCD_IRQHandler+0x668>
 800467c:	6a79      	ldr	r1, [r7, #36]	; 0x24
 800467e:	4419      	add	r1, r3
 8004680:	6279      	str	r1, [r7, #36]	; 0x24
 8004682:	6ad6      	ldr	r6, [r2, #44]	; 0x2c
 8004684:	441e      	add	r6, r3
 8004686:	62d6      	str	r6, [r2, #44]	; 0x2c
 8004688:	6b3a      	ldr	r2, [r7, #48]	; 0x30
 800468a:	6a3e      	ldr	r6, [r7, #32]
 800468c:	42b2      	cmp	r2, r6
 800468e:	f0c0 812c 	bcc.w	80048ea <HAL_PCD_IRQHandler+0xa5e>
 8004692:	1b92      	subs	r2, r2, r6
 8004694:	633a      	str	r2, [r7, #48]	; 0x30
 8004696:	b2b3      	uxth	r3, r6
 8004698:	eb08 0205 	add.w	r2, r8, r5
 800469c:	eb04 02c2 	add.w	r2, r4, r2, lsl #3
 80046a0:	7c57      	ldrb	r7, [r2, #17]
 80046a2:	2f00      	cmp	r7, #0
 80046a4:	f040 8114 	bne.w	80048d0 <HAL_PCD_IRQHandler+0xa44>
 80046a8:	f8b0 c050 	ldrh.w	ip, [r0, #80]	; 0x50
 80046ac:	7c17      	ldrb	r7, [r2, #16]
 80046ae:	fa1f fc8c 	uxth.w	ip, ip
 80046b2:	f200 420c 	addw	r2, r0, #1036	; 0x40c
 80046b6:	013f      	lsls	r7, r7, #4
 80046b8:	4462      	add	r2, ip
 80046ba:	f832 c007 	ldrh.w	ip, [r2, r7]
 80046be:	2e3e      	cmp	r6, #62	; 0x3e
 80046c0:	f3cc 0c09 	ubfx	ip, ip, #0, #10
 80046c4:	f822 c007 	strh.w	ip, [r2, r7]
 80046c8:	f240 8135 	bls.w	8004936 <HAL_PCD_IRQHandler+0xaaa>
 80046cc:	ea4f 1c56 	mov.w	ip, r6, lsr #5
 80046d0:	06f6      	lsls	r6, r6, #27
 80046d2:	5bd6      	ldrh	r6, [r2, r7]
 80046d4:	bf08      	it	eq
 80046d6:	f10c 3cff 	addeq.w	ip, ip, #4294967295
 80046da:	b2b6      	uxth	r6, r6
 80046dc:	ea46 268c 	orr.w	r6, r6, ip, lsl #10
 80046e0:	ea46 060b 	orr.w	r6, r6, fp
 80046e4:	b2b6      	uxth	r6, r6
 80046e6:	53d6      	strh	r6, [r2, r7]
 80046e8:	eb08 0205 	add.w	r2, r8, r5
 80046ec:	eb04 02c2 	add.w	r2, r4, r2, lsl #3
 80046f0:	8b52      	ldrh	r2, [r2, #26]
 80046f2:	f002 fa69 	bl	8006bc8 <USB_WritePMA>
 80046f6:	6820      	ldr	r0, [r4, #0]
 80046f8:	e6fc      	b.n	80044f4 <HAL_PCD_IRQHandler+0x668>
 80046fa:	6297      	str	r7, [r2, #40]	; 0x28
 80046fc:	eb08 0305 	add.w	r3, r8, r5
 8004700:	eb04 03c3 	add.w	r3, r4, r3, lsl #3
 8004704:	7c5b      	ldrb	r3, [r3, #17]
 8004706:	2b00      	cmp	r3, #0
 8004708:	f040 80a0 	bne.w	800484c <HAL_PCD_IRQHandler+0x9c0>
 800470c:	f8b0 3050 	ldrh.w	r3, [r0, #80]	; 0x50
 8004710:	f200 4204 	addw	r2, r0, #1028	; 0x404
 8004714:	b29b      	uxth	r3, r3
 8004716:	0109      	lsls	r1, r1, #4
 8004718:	441a      	add	r2, r3
 800471a:	5a53      	ldrh	r3, [r2, r1]
 800471c:	f3c3 0309 	ubfx	r3, r3, #0, #10
 8004720:	5253      	strh	r3, [r2, r1]
 8004722:	5a53      	ldrh	r3, [r2, r1]
 8004724:	b29b      	uxth	r3, r3
 8004726:	f443 4300 	orr.w	r3, r3, #32768	; 0x8000
 800472a:	5253      	strh	r3, [r2, r1]
 800472c:	eb08 0305 	add.w	r3, r8, r5
 8004730:	eb04 03c3 	add.w	r3, r4, r3, lsl #3
 8004734:	7c5a      	ldrb	r2, [r3, #17]
 8004736:	2a00      	cmp	r2, #0
 8004738:	f040 80bc 	bne.w	80048b4 <HAL_PCD_IRQHandler+0xa28>
 800473c:	f8b0 2050 	ldrh.w	r2, [r0, #80]	; 0x50
 8004740:	7c19      	ldrb	r1, [r3, #16]
 8004742:	b292      	uxth	r2, r2
 8004744:	f200 430c 	addw	r3, r0, #1036	; 0x40c
 8004748:	0109      	lsls	r1, r1, #4
 800474a:	4413      	add	r3, r2
 800474c:	5aca      	ldrh	r2, [r1, r3]
 800474e:	f3c2 0209 	ubfx	r2, r2, #0, #10
 8004752:	52ca      	strh	r2, [r1, r3]
 8004754:	5aca      	ldrh	r2, [r1, r3]
 8004756:	b292      	uxth	r2, r2
 8004758:	f442 4200 	orr.w	r2, r2, #32768	; 0x8000
 800475c:	52ca      	strh	r2, [r1, r3]
 800475e:	eb08 0705 	add.w	r7, r8, r5
 8004762:	eb04 07c7 	add.w	r7, r4, r7, lsl #3
 8004766:	4620      	mov	r0, r4
 8004768:	7c39      	ldrb	r1, [r7, #16]
 800476a:	f003 f96d 	bl	8007a48 <HAL_PCD_DataInStageCallback>
 800476e:	0473      	lsls	r3, r6, #17
 8004770:	f57f af73 	bpl.w	800465a <HAL_PCD_IRQHandler+0x7ce>
 8004774:	e7bf      	b.n	80046f6 <HAL_PCD_IRQHandler+0x86a>
 8004776:	2b01      	cmp	r3, #1
 8004778:	f47f ad1d 	bne.w	80041b6 <HAL_PCD_IRQHandler+0x32a>
 800477c:	f8b0 3050 	ldrh.w	r3, [r0, #80]	; 0x50
 8004780:	7c12      	ldrb	r2, [r2, #16]
 8004782:	b299      	uxth	r1, r3
 8004784:	f200 430c 	addw	r3, r0, #1036	; 0x40c
 8004788:	0112      	lsls	r2, r2, #4
 800478a:	440b      	add	r3, r1
 800478c:	52d6      	strh	r6, [r2, r3]
 800478e:	e512      	b.n	80041b6 <HAL_PCD_IRQHandler+0x32a>
 8004790:	2b01      	cmp	r3, #1
 8004792:	f47f ad10 	bne.w	80041b6 <HAL_PCD_IRQHandler+0x32a>
 8004796:	f8b0 3050 	ldrh.w	r3, [r0, #80]	; 0x50
 800479a:	7c12      	ldrb	r2, [r2, #16]
 800479c:	b29e      	uxth	r6, r3
 800479e:	f200 4304 	addw	r3, r0, #1028	; 0x404
 80047a2:	0112      	lsls	r2, r2, #4
 80047a4:	4433      	add	r3, r6
 80047a6:	52d1      	strh	r1, [r2, r3]
 80047a8:	e505      	b.n	80041b6 <HAL_PCD_IRQHandler+0x32a>
 80047aa:	3306      	adds	r3, #6
 80047ac:	eb03 03c2 	add.w	r3, r3, r2, lsl #3
 80047b0:	eb00 0343 	add.w	r3, r0, r3, lsl #1
 80047b4:	f8b3 3400 	ldrh.w	r3, [r3, #1024]	; 0x400
 80047b8:	f8d1 e168 	ldr.w	lr, [r1, #360]	; 0x168
 80047bc:	f3c3 0309 	ubfx	r3, r3, #0, #10
 80047c0:	459e      	cmp	lr, r3
 80047c2:	461f      	mov	r7, r3
 80047c4:	d34e      	bcc.n	8004864 <HAL_PCD_IRQHandler+0x9d8>
 80047c6:	ebae 0e03 	sub.w	lr, lr, r3
 80047ca:	f8c1 e168 	str.w	lr, [r1, #360]	; 0x168
 80047ce:	f1be 0f00 	cmp.w	lr, #0
 80047d2:	d049      	beq.n	8004868 <HAL_PCD_IRQHandler+0x9dc>
 80047d4:	0671      	lsls	r1, r6, #25
 80047d6:	d413      	bmi.n	8004800 <HAL_PCD_IRQHandler+0x974>
 80047d8:	eb08 0205 	add.w	r2, r8, r5
 80047dc:	eb04 02c2 	add.w	r2, r4, r2, lsl #3
 80047e0:	f892 1150 	ldrb.w	r1, [r2, #336]	; 0x150
 80047e4:	f830 2021 	ldrh.w	r2, [r0, r1, lsl #2]
 80047e8:	f422 42e0 	bic.w	r2, r2, #28672	; 0x7000
 80047ec:	f022 0270 	bic.w	r2, r2, #112	; 0x70
 80047f0:	0412      	lsls	r2, r2, #16
 80047f2:	0c12      	lsrs	r2, r2, #16
 80047f4:	f442 4200 	orr.w	r2, r2, #32768	; 0x8000
 80047f8:	f042 02c0 	orr.w	r2, r2, #192	; 0xc0
 80047fc:	f820 2021 	strh.w	r2, [r0, r1, lsl #2]
 8004800:	2b00      	cmp	r3, #0
 8004802:	f43f ac44 	beq.w	800408e <HAL_PCD_IRQHandler+0x202>
 8004806:	eb08 0105 	add.w	r1, r8, r5
 800480a:	eb04 01c1 	add.w	r1, r4, r1, lsl #3
 800480e:	f8b1 215a 	ldrh.w	r2, [r1, #346]	; 0x15a
 8004812:	f8d1 1164 	ldr.w	r1, [r1, #356]	; 0x164
 8004816:	f002 f9f1 	bl	8006bfc <USB_ReadPMA>
 800481a:	e439      	b.n	8004090 <HAL_PCD_IRQHandler+0x204>
 800481c:	5ad1      	ldrh	r1, [r2, r3]
 800481e:	086e      	lsrs	r6, r5, #1
 8004820:	07ed      	lsls	r5, r5, #31
 8004822:	bf48      	it	mi
 8004824:	3601      	addmi	r6, #1
 8004826:	b289      	uxth	r1, r1
 8004828:	ea41 2186 	orr.w	r1, r1, r6, lsl #10
 800482c:	b289      	uxth	r1, r1
 800482e:	52d1      	strh	r1, [r2, r3]
 8004830:	e56c      	b.n	800430c <HAL_PCD_IRQHandler+0x480>
 8004832:	2b01      	cmp	r3, #1
 8004834:	f47f af07 	bne.w	8004646 <HAL_PCD_IRQHandler+0x7ba>
 8004838:	2700      	movs	r7, #0
 800483a:	f8b0 2050 	ldrh.w	r2, [r0, #80]	; 0x50
 800483e:	f200 4304 	addw	r3, r0, #1028	; 0x404
 8004842:	b292      	uxth	r2, r2
 8004844:	0109      	lsls	r1, r1, #4
 8004846:	4413      	add	r3, r2
 8004848:	525f      	strh	r7, [r3, r1]
 800484a:	e6e3      	b.n	8004614 <HAL_PCD_IRQHandler+0x788>
 800484c:	2b01      	cmp	r3, #1
 800484e:	d186      	bne.n	800475e <HAL_PCD_IRQHandler+0x8d2>
 8004850:	2700      	movs	r7, #0
 8004852:	f8b0 2050 	ldrh.w	r2, [r0, #80]	; 0x50
 8004856:	f200 4304 	addw	r3, r0, #1028	; 0x404
 800485a:	b292      	uxth	r2, r2
 800485c:	0109      	lsls	r1, r1, #4
 800485e:	4413      	add	r3, r2
 8004860:	525f      	strh	r7, [r3, r1]
 8004862:	e763      	b.n	800472c <HAL_PCD_IRQHandler+0x8a0>
 8004864:	f8c1 c168 	str.w	ip, [r1, #360]	; 0x168
 8004868:	f830 1022 	ldrh.w	r1, [r0, r2, lsl #2]
 800486c:	f421 4180 	bic.w	r1, r1, #16384	; 0x4000
 8004870:	f021 0170 	bic.w	r1, r1, #112	; 0x70
 8004874:	0409      	lsls	r1, r1, #16
 8004876:	0c09      	lsrs	r1, r1, #16
 8004878:	f481 5100 	eor.w	r1, r1, #8192	; 0x2000
 800487c:	f441 4100 	orr.w	r1, r1, #32768	; 0x8000
 8004880:	f041 0180 	orr.w	r1, r1, #128	; 0x80
 8004884:	f820 1022 	strh.w	r1, [r0, r2, lsl #2]
 8004888:	e7a4      	b.n	80047d4 <HAL_PCD_IRQHandler+0x948>
 800488a:	f04f 0c00 	mov.w	ip, #0
 800488e:	f8c1 c168 	str.w	ip, [r1, #360]	; 0x168
 8004892:	f830 1022 	ldrh.w	r1, [r0, r2, lsl #2]
 8004896:	f421 4180 	bic.w	r1, r1, #16384	; 0x4000
 800489a:	f021 0170 	bic.w	r1, r1, #112	; 0x70
 800489e:	0409      	lsls	r1, r1, #16
 80048a0:	0c09      	lsrs	r1, r1, #16
 80048a2:	f481 5100 	eor.w	r1, r1, #8192	; 0x2000
 80048a6:	f441 4100 	orr.w	r1, r1, #32768	; 0x8000
 80048aa:	f041 0180 	orr.w	r1, r1, #128	; 0x80
 80048ae:	f820 1022 	strh.w	r1, [r0, r2, lsl #2]
 80048b2:	e65b      	b.n	800456c <HAL_PCD_IRQHandler+0x6e0>
 80048b4:	2a01      	cmp	r2, #1
 80048b6:	f47f af52 	bne.w	800475e <HAL_PCD_IRQHandler+0x8d2>
 80048ba:	2100      	movs	r1, #0
 80048bc:	f8b0 7050 	ldrh.w	r7, [r0, #80]	; 0x50
 80048c0:	7c1a      	ldrb	r2, [r3, #16]
 80048c2:	b2bf      	uxth	r7, r7
 80048c4:	f200 430c 	addw	r3, r0, #1036	; 0x40c
 80048c8:	0112      	lsls	r2, r2, #4
 80048ca:	443b      	add	r3, r7
 80048cc:	52d1      	strh	r1, [r2, r3]
 80048ce:	e746      	b.n	800475e <HAL_PCD_IRQHandler+0x8d2>
 80048d0:	2f01      	cmp	r7, #1
 80048d2:	f47f af09 	bne.w	80046e8 <HAL_PCD_IRQHandler+0x85c>
 80048d6:	f8b0 7050 	ldrh.w	r7, [r0, #80]	; 0x50
 80048da:	7c16      	ldrb	r6, [r2, #16]
 80048dc:	b2bf      	uxth	r7, r7
 80048de:	f200 420c 	addw	r2, r0, #1036	; 0x40c
 80048e2:	0136      	lsls	r6, r6, #4
 80048e4:	443a      	add	r2, r7
 80048e6:	52b3      	strh	r3, [r6, r2]
 80048e8:	e6fe      	b.n	80046e8 <HAL_PCD_IRQHandler+0x85c>
 80048ea:	2a00      	cmp	r2, #0
 80048ec:	d138      	bne.n	8004960 <HAL_PCD_IRQHandler+0xad4>
 80048ee:	461e      	mov	r6, r3
 80048f0:	f887 2034 	strb.w	r2, [r7, #52]	; 0x34
 80048f4:	e6d0      	b.n	8004698 <HAL_PCD_IRQHandler+0x80c>
 80048f6:	2a01      	cmp	r2, #1
 80048f8:	f47f aea5 	bne.w	8004646 <HAL_PCD_IRQHandler+0x7ba>
 80048fc:	2100      	movs	r1, #0
 80048fe:	f8b0 2050 	ldrh.w	r2, [r0, #80]	; 0x50
 8004902:	7c1b      	ldrb	r3, [r3, #16]
 8004904:	b297      	uxth	r7, r2
 8004906:	f200 420c 	addw	r2, r0, #1036	; 0x40c
 800490a:	011b      	lsls	r3, r3, #4
 800490c:	443a      	add	r2, r7
 800490e:	52d1      	strh	r1, [r2, r3]
 8004910:	e699      	b.n	8004646 <HAL_PCD_IRQHandler+0x7ba>
 8004912:	2f01      	cmp	r7, #1
 8004914:	f47f ad7e 	bne.w	8004414 <HAL_PCD_IRQHandler+0x588>
 8004918:	f8b0 7050 	ldrh.w	r7, [r0, #80]	; 0x50
 800491c:	7c16      	ldrb	r6, [r2, #16]
 800491e:	b2bf      	uxth	r7, r7
 8004920:	f200 4204 	addw	r2, r0, #1028	; 0x404
 8004924:	0136      	lsls	r6, r6, #4
 8004926:	443a      	add	r2, r7
 8004928:	5393      	strh	r3, [r2, r6]
 800492a:	e573      	b.n	8004414 <HAL_PCD_IRQHandler+0x588>
 800492c:	b952      	cbnz	r2, 8004944 <HAL_PCD_IRQHandler+0xab8>
 800492e:	461e      	mov	r6, r3
 8004930:	f887 2034 	strb.w	r2, [r7, #52]	; 0x34
 8004934:	e546      	b.n	80043c4 <HAL_PCD_IRQHandler+0x538>
 8004936:	b9d6      	cbnz	r6, 800496e <HAL_PCD_IRQHandler+0xae2>
 8004938:	5bd6      	ldrh	r6, [r2, r7]
 800493a:	b2b6      	uxth	r6, r6
 800493c:	f446 4600 	orr.w	r6, r6, #32768	; 0x8000
 8004940:	53d6      	strh	r6, [r2, r7]
 8004942:	e6d1      	b.n	80046e8 <HAL_PCD_IRQHandler+0x85c>
 8004944:	2300      	movs	r3, #0
 8004946:	4616      	mov	r6, r2
 8004948:	f887 3034 	strb.w	r3, [r7, #52]	; 0x34
 800494c:	633b      	str	r3, [r7, #48]	; 0x30
 800494e:	b293      	uxth	r3, r2
 8004950:	e538      	b.n	80043c4 <HAL_PCD_IRQHandler+0x538>
 8004952:	b9ce      	cbnz	r6, 8004988 <HAL_PCD_IRQHandler+0xafc>
 8004954:	5bd6      	ldrh	r6, [r2, r7]
 8004956:	b2b6      	uxth	r6, r6
 8004958:	f446 4600 	orr.w	r6, r6, #32768	; 0x8000
 800495c:	53d6      	strh	r6, [r2, r7]
 800495e:	e559      	b.n	8004414 <HAL_PCD_IRQHandler+0x588>
 8004960:	2300      	movs	r3, #0
 8004962:	4616      	mov	r6, r2
 8004964:	633b      	str	r3, [r7, #48]	; 0x30
 8004966:	f887 3034 	strb.w	r3, [r7, #52]	; 0x34
 800496a:	b293      	uxth	r3, r2
 800496c:	e694      	b.n	8004698 <HAL_PCD_IRQHandler+0x80c>
 800496e:	ea4f 0c56 	mov.w	ip, r6, lsr #1
 8004972:	07f6      	lsls	r6, r6, #31
 8004974:	5bd6      	ldrh	r6, [r2, r7]
 8004976:	bf48      	it	mi
 8004978:	f10c 0c01 	addmi.w	ip, ip, #1
 800497c:	b2b6      	uxth	r6, r6
 800497e:	ea46 268c 	orr.w	r6, r6, ip, lsl #10
 8004982:	b2b6      	uxth	r6, r6
 8004984:	53d6      	strh	r6, [r2, r7]
 8004986:	e6af      	b.n	80046e8 <HAL_PCD_IRQHandler+0x85c>
 8004988:	ea4f 0c56 	mov.w	ip, r6, lsr #1
 800498c:	07f6      	lsls	r6, r6, #31
 800498e:	5bd6      	ldrh	r6, [r2, r7]
 8004990:	bf48      	it	mi
 8004992:	f10c 0c01 	addmi.w	ip, ip, #1
 8004996:	b2b6      	uxth	r6, r6
 8004998:	ea46 268c 	orr.w	r6, r6, ip, lsl #10
 800499c:	b2b6      	uxth	r6, r6
 800499e:	53d6      	strh	r6, [r2, r7]
 80049a0:	e538      	b.n	8004414 <HAL_PCD_IRQHandler+0x588>
 80049a2:	bf00      	nop
 80049a4:	ffff8f0f 	.word	0xffff8f0f
 80049a8:	ffff8000 	.word	0xffff8000
 80049ac:	ffff8fbf 	.word	0xffff8fbf

080049b0 <HAL_PCD_SetAddress>:
 80049b0:	f890 2290 	ldrb.w	r2, [r0, #656]	; 0x290
 80049b4:	2a01      	cmp	r2, #1
 80049b6:	d00c      	beq.n	80049d2 <HAL_PCD_SetAddress+0x22>
 80049b8:	2201      	movs	r2, #1
 80049ba:	b510      	push	{r4, lr}
 80049bc:	4604      	mov	r4, r0
 80049be:	7341      	strb	r1, [r0, #13]
 80049c0:	f880 2290 	strb.w	r2, [r0, #656]	; 0x290
 80049c4:	6800      	ldr	r0, [r0, #0]
 80049c6:	f002 f8ef 	bl	8006ba8 <USB_SetDevAddress>
 80049ca:	2000      	movs	r0, #0
 80049cc:	f884 0290 	strb.w	r0, [r4, #656]	; 0x290
 80049d0:	bd10      	pop	{r4, pc}
 80049d2:	2002      	movs	r0, #2
 80049d4:	4770      	bx	lr
 80049d6:	bf00      	nop

080049d8 <HAL_PCD_EP_Open>:
 80049d8:	b570      	push	{r4, r5, r6, lr}
 80049da:	4605      	mov	r5, r0
 80049dc:	0608      	lsls	r0, r1, #24
 80049de:	d421      	bmi.n	8004a24 <HAL_PCD_EP_Open+0x4c>
 80049e0:	2600      	movs	r6, #0
 80049e2:	f001 0407 	and.w	r4, r1, #7
 80049e6:	eb04 0084 	add.w	r0, r4, r4, lsl #2
 80049ea:	00c0      	lsls	r0, r0, #3
 80049ec:	f500 71a8 	add.w	r1, r0, #336	; 0x150
 80049f0:	4428      	add	r0, r5
 80049f2:	4429      	add	r1, r5
 80049f4:	f880 6151 	strb.w	r6, [r0, #337]	; 0x151
 80049f8:	2b02      	cmp	r3, #2
 80049fa:	70cb      	strb	r3, [r1, #3]
 80049fc:	bf08      	it	eq
 80049fe:	2300      	moveq	r3, #0
 8004a00:	700c      	strb	r4, [r1, #0]
 8004a02:	bf08      	it	eq
 8004a04:	710b      	strbeq	r3, [r1, #4]
 8004a06:	610a      	str	r2, [r1, #16]
 8004a08:	f895 3290 	ldrb.w	r3, [r5, #656]	; 0x290
 8004a0c:	2b01      	cmp	r3, #1
 8004a0e:	d015      	beq.n	8004a3c <HAL_PCD_EP_Open+0x64>
 8004a10:	2301      	movs	r3, #1
 8004a12:	6828      	ldr	r0, [r5, #0]
 8004a14:	f885 3290 	strb.w	r3, [r5, #656]	; 0x290
 8004a18:	f001 f968 	bl	8005cec <USB_ActivateEndpoint>
 8004a1c:	2000      	movs	r0, #0
 8004a1e:	f885 0290 	strb.w	r0, [r5, #656]	; 0x290
 8004a22:	bd70      	pop	{r4, r5, r6, pc}
 8004a24:	2601      	movs	r6, #1
 8004a26:	f001 0407 	and.w	r4, r1, #7
 8004a2a:	eb04 0084 	add.w	r0, r4, r4, lsl #2
 8004a2e:	00c0      	lsls	r0, r0, #3
 8004a30:	f100 0110 	add.w	r1, r0, #16
 8004a34:	4428      	add	r0, r5
 8004a36:	4429      	add	r1, r5
 8004a38:	7446      	strb	r6, [r0, #17]
 8004a3a:	e7dd      	b.n	80049f8 <HAL_PCD_EP_Open+0x20>
 8004a3c:	2002      	movs	r0, #2
 8004a3e:	bd70      	pop	{r4, r5, r6, pc}

08004a40 <HAL_PCD_EP_Close>:
 8004a40:	060b      	lsls	r3, r1, #24
 8004a42:	b510      	push	{r4, lr}
 8004a44:	4604      	mov	r4, r0
 8004a46:	d41a      	bmi.n	8004a7e <HAL_PCD_EP_Close+0x3e>
 8004a48:	2000      	movs	r0, #0
 8004a4a:	f001 0307 	and.w	r3, r1, #7
 8004a4e:	eb03 0283 	add.w	r2, r3, r3, lsl #2
 8004a52:	00d2      	lsls	r2, r2, #3
 8004a54:	f502 71a8 	add.w	r1, r2, #336	; 0x150
 8004a58:	4421      	add	r1, r4
 8004a5a:	4422      	add	r2, r4
 8004a5c:	f882 0151 	strb.w	r0, [r2, #337]	; 0x151
 8004a60:	700b      	strb	r3, [r1, #0]
 8004a62:	f894 3290 	ldrb.w	r3, [r4, #656]	; 0x290
 8004a66:	2b01      	cmp	r3, #1
 8004a68:	d019      	beq.n	8004a9e <HAL_PCD_EP_Close+0x5e>
 8004a6a:	2301      	movs	r3, #1
 8004a6c:	6820      	ldr	r0, [r4, #0]
 8004a6e:	f884 3290 	strb.w	r3, [r4, #656]	; 0x290
 8004a72:	f001 fae7 	bl	8006044 <USB_DeactivateEndpoint>
 8004a76:	2000      	movs	r0, #0
 8004a78:	f884 0290 	strb.w	r0, [r4, #656]	; 0x290
 8004a7c:	bd10      	pop	{r4, pc}
 8004a7e:	2001      	movs	r0, #1
 8004a80:	f001 0307 	and.w	r3, r1, #7
 8004a84:	eb03 0283 	add.w	r2, r3, r3, lsl #2
 8004a88:	00d2      	lsls	r2, r2, #3
 8004a8a:	f102 0110 	add.w	r1, r2, #16
 8004a8e:	4421      	add	r1, r4
 8004a90:	4422      	add	r2, r4
 8004a92:	7450      	strb	r0, [r2, #17]
 8004a94:	700b      	strb	r3, [r1, #0]
 8004a96:	f894 3290 	ldrb.w	r3, [r4, #656]	; 0x290
 8004a9a:	2b01      	cmp	r3, #1
 8004a9c:	d1e5      	bne.n	8004a6a <HAL_PCD_EP_Close+0x2a>
 8004a9e:	2002      	movs	r0, #2
 8004aa0:	bd10      	pop	{r4, pc}
 8004aa2:	bf00      	nop

08004aa4 <HAL_PCD_EP_Receive>:
 8004aa4:	b570      	push	{r4, r5, r6, lr}
 8004aa6:	2600      	movs	r6, #0
 8004aa8:	f001 0507 	and.w	r5, r1, #7
 8004aac:	eb05 0185 	add.w	r1, r5, r5, lsl #2
 8004ab0:	eb00 04c1 	add.w	r4, r0, r1, lsl #3
 8004ab4:	e9c4 2359 	strd	r2, r3, [r4, #356]	; 0x164
 8004ab8:	6800      	ldr	r0, [r0, #0]
 8004aba:	f884 5150 	strb.w	r5, [r4, #336]	; 0x150
 8004abe:	f504 71a8 	add.w	r1, r4, #336	; 0x150
 8004ac2:	f8c4 616c 	str.w	r6, [r4, #364]	; 0x16c
 8004ac6:	f884 6151 	strb.w	r6, [r4, #337]	; 0x151
 8004aca:	f001 fbb1 	bl	8006230 <USB_EPStartXfer>
 8004ace:	4630      	mov	r0, r6
 8004ad0:	bd70      	pop	{r4, r5, r6, pc}
 8004ad2:	bf00      	nop

08004ad4 <HAL_PCD_EP_GetRxCount>:
 8004ad4:	f001 0107 	and.w	r1, r1, #7
 8004ad8:	eb01 0181 	add.w	r1, r1, r1, lsl #2
 8004adc:	eb00 01c1 	add.w	r1, r0, r1, lsl #3
 8004ae0:	f8d1 016c 	ldr.w	r0, [r1, #364]	; 0x16c
 8004ae4:	4770      	bx	lr
 8004ae6:	bf00      	nop

08004ae8 <HAL_PCD_EP_Transmit>:
 8004ae8:	b5f8      	push	{r3, r4, r5, r6, r7, lr}
 8004aea:	f001 0507 	and.w	r5, r1, #7
 8004aee:	eb05 0185 	add.w	r1, r5, r5, lsl #2
 8004af2:	eb00 04c1 	add.w	r4, r0, r1, lsl #3
 8004af6:	2701      	movs	r7, #1
 8004af8:	2600      	movs	r6, #0
 8004afa:	4621      	mov	r1, r4
 8004afc:	6800      	ldr	r0, [r0, #0]
 8004afe:	e9c4 2309 	strd	r2, r3, [r4, #36]	; 0x24
 8004b02:	6323      	str	r3, [r4, #48]	; 0x30
 8004b04:	7425      	strb	r5, [r4, #16]
 8004b06:	3110      	adds	r1, #16
 8004b08:	f884 7034 	strb.w	r7, [r4, #52]	; 0x34
 8004b0c:	7467      	strb	r7, [r4, #17]
 8004b0e:	62e6      	str	r6, [r4, #44]	; 0x2c
 8004b10:	f001 fb8e 	bl	8006230 <USB_EPStartXfer>
 8004b14:	4630      	mov	r0, r6
 8004b16:	bdf8      	pop	{r3, r4, r5, r6, r7, pc}

08004b18 <HAL_PCD_EP_SetStall>:
 8004b18:	b538      	push	{r3, r4, r5, lr}
 8004b1a:	7903      	ldrb	r3, [r0, #4]
 8004b1c:	f001 0507 	and.w	r5, r1, #7
 8004b20:	42ab      	cmp	r3, r5
 8004b22:	d32f      	bcc.n	8004b84 <HAL_PCD_EP_SetStall+0x6c>
 8004b24:	060b      	lsls	r3, r1, #24
 8004b26:	4604      	mov	r4, r0
 8004b28:	d41a      	bmi.n	8004b60 <HAL_PCD_EP_SetStall+0x48>
 8004b2a:	2000      	movs	r0, #0
 8004b2c:	eb01 0181 	add.w	r1, r1, r1, lsl #2
 8004b30:	00c9      	lsls	r1, r1, #3
 8004b32:	1863      	adds	r3, r4, r1
 8004b34:	f883 0151 	strb.w	r0, [r3, #337]	; 0x151
 8004b38:	2301      	movs	r3, #1
 8004b3a:	f501 72a8 	add.w	r2, r1, #336	; 0x150
 8004b3e:	18a1      	adds	r1, r4, r2
 8004b40:	700d      	strb	r5, [r1, #0]
 8004b42:	708b      	strb	r3, [r1, #2]
 8004b44:	f894 2290 	ldrb.w	r2, [r4, #656]	; 0x290
 8004b48:	429a      	cmp	r2, r3
 8004b4a:	d019      	beq.n	8004b80 <HAL_PCD_EP_SetStall+0x68>
 8004b4c:	6820      	ldr	r0, [r4, #0]
 8004b4e:	f884 3290 	strb.w	r3, [r4, #656]	; 0x290
 8004b52:	f001 ffa9 	bl	8006aa8 <USB_EPSetStall>
 8004b56:	b1bd      	cbz	r5, 8004b88 <HAL_PCD_EP_SetStall+0x70>
 8004b58:	2000      	movs	r0, #0
 8004b5a:	f884 0290 	strb.w	r0, [r4, #656]	; 0x290
 8004b5e:	bd38      	pop	{r3, r4, r5, pc}
 8004b60:	2201      	movs	r2, #1
 8004b62:	eb05 0385 	add.w	r3, r5, r5, lsl #2
 8004b66:	00db      	lsls	r3, r3, #3
 8004b68:	f103 0110 	add.w	r1, r3, #16
 8004b6c:	4403      	add	r3, r0
 8004b6e:	745a      	strb	r2, [r3, #17]
 8004b70:	2301      	movs	r3, #1
 8004b72:	4401      	add	r1, r0
 8004b74:	700d      	strb	r5, [r1, #0]
 8004b76:	708b      	strb	r3, [r1, #2]
 8004b78:	f894 2290 	ldrb.w	r2, [r4, #656]	; 0x290
 8004b7c:	429a      	cmp	r2, r3
 8004b7e:	d1e5      	bne.n	8004b4c <HAL_PCD_EP_SetStall+0x34>
 8004b80:	2002      	movs	r0, #2
 8004b82:	bd38      	pop	{r3, r4, r5, pc}
 8004b84:	2001      	movs	r0, #1
 8004b86:	bd38      	pop	{r3, r4, r5, pc}
 8004b88:	6820      	ldr	r0, [r4, #0]
 8004b8a:	f504 7126 	add.w	r1, r4, #664	; 0x298
 8004b8e:	f002 f819 	bl	8006bc4 <USB_EP0_OutStart>
 8004b92:	e7e1      	b.n	8004b58 <HAL_PCD_EP_SetStall+0x40>

08004b94 <HAL_PCD_EP_ClrStall>:
 8004b94:	b538      	push	{r3, r4, r5, lr}
 8004b96:	7902      	ldrb	r2, [r0, #4]
 8004b98:	f001 030f 	and.w	r3, r1, #15
 8004b9c:	429a      	cmp	r2, r3
 8004b9e:	d333      	bcc.n	8004c08 <HAL_PCD_EP_ClrStall+0x74>
 8004ba0:	060b      	lsls	r3, r1, #24
 8004ba2:	4604      	mov	r4, r0
 8004ba4:	d41c      	bmi.n	8004be0 <HAL_PCD_EP_ClrStall+0x4c>
 8004ba6:	2000      	movs	r0, #0
 8004ba8:	2500      	movs	r5, #0
 8004baa:	f001 0307 	and.w	r3, r1, #7
 8004bae:	eb03 0283 	add.w	r2, r3, r3, lsl #2
 8004bb2:	00d2      	lsls	r2, r2, #3
 8004bb4:	f502 71a8 	add.w	r1, r2, #336	; 0x150
 8004bb8:	4421      	add	r1, r4
 8004bba:	4422      	add	r2, r4
 8004bbc:	f882 0151 	strb.w	r0, [r2, #337]	; 0x151
 8004bc0:	700b      	strb	r3, [r1, #0]
 8004bc2:	708d      	strb	r5, [r1, #2]
 8004bc4:	f894 3290 	ldrb.w	r3, [r4, #656]	; 0x290
 8004bc8:	2b01      	cmp	r3, #1
 8004bca:	d01b      	beq.n	8004c04 <HAL_PCD_EP_ClrStall+0x70>
 8004bcc:	2301      	movs	r3, #1
 8004bce:	6820      	ldr	r0, [r4, #0]
 8004bd0:	f884 3290 	strb.w	r3, [r4, #656]	; 0x290
 8004bd4:	f001 ff90 	bl	8006af8 <USB_EPClearStall>
 8004bd8:	f884 5290 	strb.w	r5, [r4, #656]	; 0x290
 8004bdc:	4628      	mov	r0, r5
 8004bde:	bd38      	pop	{r3, r4, r5, pc}
 8004be0:	2001      	movs	r0, #1
 8004be2:	2500      	movs	r5, #0
 8004be4:	f001 0307 	and.w	r3, r1, #7
 8004be8:	eb03 0283 	add.w	r2, r3, r3, lsl #2
 8004bec:	00d2      	lsls	r2, r2, #3
 8004bee:	f102 0110 	add.w	r1, r2, #16
 8004bf2:	4421      	add	r1, r4
 8004bf4:	4422      	add	r2, r4
 8004bf6:	7450      	strb	r0, [r2, #17]
 8004bf8:	700b      	strb	r3, [r1, #0]
 8004bfa:	708d      	strb	r5, [r1, #2]
 8004bfc:	f894 3290 	ldrb.w	r3, [r4, #656]	; 0x290
 8004c00:	2b01      	cmp	r3, #1
 8004c02:	d1e3      	bne.n	8004bcc <HAL_PCD_EP_ClrStall+0x38>
 8004c04:	2002      	movs	r0, #2
 8004c06:	bd38      	pop	{r3, r4, r5, pc}
 8004c08:	2001      	movs	r0, #1
 8004c0a:	bd38      	pop	{r3, r4, r5, pc}

08004c0c <HAL_PCDEx_PMAConfig>:
 8004c0c:	f011 0f80 	tst.w	r1, #128	; 0x80
 8004c10:	d00b      	beq.n	8004c2a <HAL_PCDEx_PMAConfig+0x1e>
 8004c12:	f001 0107 	and.w	r1, r1, #7
 8004c16:	eb01 0181 	add.w	r1, r1, r1, lsl #2
 8004c1a:	eb00 00c1 	add.w	r0, r0, r1, lsl #3
 8004c1e:	3010      	adds	r0, #16
 8004c20:	b95a      	cbnz	r2, 8004c3a <HAL_PCDEx_PMAConfig+0x2e>
 8004c22:	7302      	strb	r2, [r0, #12]
 8004c24:	80c3      	strh	r3, [r0, #6]
 8004c26:	2000      	movs	r0, #0
 8004c28:	4770      	bx	lr
 8004c2a:	eb01 0181 	add.w	r1, r1, r1, lsl #2
 8004c2e:	eb00 00c1 	add.w	r0, r0, r1, lsl #3
 8004c32:	f500 70a8 	add.w	r0, r0, #336	; 0x150
 8004c36:	2a00      	cmp	r2, #0
 8004c38:	d0f3      	beq.n	8004c22 <HAL_PCDEx_PMAConfig+0x16>
 8004c3a:	2201      	movs	r2, #1
 8004c3c:	6083      	str	r3, [r0, #8]
 8004c3e:	7302      	strb	r2, [r0, #12]
 8004c40:	2000      	movs	r0, #0
 8004c42:	4770      	bx	lr

08004c44 <HAL_RCC_OscConfig>:
 8004c44:	2800      	cmp	r0, #0
 8004c46:	f000 81c3 	beq.w	8004fd0 <HAL_RCC_OscConfig+0x38c>
 8004c4a:	e92d 41f0 	stmdb	sp!, {r4, r5, r6, r7, r8, lr}
 8004c4e:	6803      	ldr	r3, [r0, #0]
 8004c50:	4604      	mov	r4, r0
 8004c52:	07dd      	lsls	r5, r3, #31
 8004c54:	b082      	sub	sp, #8
 8004c56:	d535      	bpl.n	8004cc4 <HAL_RCC_OscConfig+0x80>
 8004c58:	49a6      	ldr	r1, [pc, #664]	; (8004ef4 <HAL_RCC_OscConfig+0x2b0>)
 8004c5a:	684a      	ldr	r2, [r1, #4]
 8004c5c:	f002 020c 	and.w	r2, r2, #12
 8004c60:	2a04      	cmp	r2, #4
 8004c62:	f000 80ef 	beq.w	8004e44 <HAL_RCC_OscConfig+0x200>
 8004c66:	684a      	ldr	r2, [r1, #4]
 8004c68:	f002 020c 	and.w	r2, r2, #12
 8004c6c:	2a08      	cmp	r2, #8
 8004c6e:	f000 80e5 	beq.w	8004e3c <HAL_RCC_OscConfig+0x1f8>
 8004c72:	6863      	ldr	r3, [r4, #4]
 8004c74:	f5b3 3f80 	cmp.w	r3, #65536	; 0x10000
 8004c78:	d010      	beq.n	8004c9c <HAL_RCC_OscConfig+0x58>
 8004c7a:	2b00      	cmp	r3, #0
 8004c7c:	f000 810d 	beq.w	8004e9a <HAL_RCC_OscConfig+0x256>
 8004c80:	f5b3 2fa0 	cmp.w	r3, #327680	; 0x50000
 8004c84:	f000 818f 	beq.w	8004fa6 <HAL_RCC_OscConfig+0x362>
 8004c88:	4b9a      	ldr	r3, [pc, #616]	; (8004ef4 <HAL_RCC_OscConfig+0x2b0>)
 8004c8a:	681a      	ldr	r2, [r3, #0]
 8004c8c:	f422 3280 	bic.w	r2, r2, #65536	; 0x10000
 8004c90:	601a      	str	r2, [r3, #0]
 8004c92:	681a      	ldr	r2, [r3, #0]
 8004c94:	f422 2280 	bic.w	r2, r2, #262144	; 0x40000
 8004c98:	601a      	str	r2, [r3, #0]
 8004c9a:	e004      	b.n	8004ca6 <HAL_RCC_OscConfig+0x62>
 8004c9c:	4a95      	ldr	r2, [pc, #596]	; (8004ef4 <HAL_RCC_OscConfig+0x2b0>)
 8004c9e:	6813      	ldr	r3, [r2, #0]
 8004ca0:	f443 3380 	orr.w	r3, r3, #65536	; 0x10000
 8004ca4:	6013      	str	r3, [r2, #0]
 8004ca6:	f7fe f9c9 	bl	800303c <HAL_GetTick>
 8004caa:	4e92      	ldr	r6, [pc, #584]	; (8004ef4 <HAL_RCC_OscConfig+0x2b0>)
 8004cac:	4605      	mov	r5, r0
 8004cae:	e005      	b.n	8004cbc <HAL_RCC_OscConfig+0x78>
 8004cb0:	f7fe f9c4 	bl	800303c <HAL_GetTick>
 8004cb4:	1b40      	subs	r0, r0, r5
 8004cb6:	2864      	cmp	r0, #100	; 0x64
 8004cb8:	f200 80eb 	bhi.w	8004e92 <HAL_RCC_OscConfig+0x24e>
 8004cbc:	6833      	ldr	r3, [r6, #0]
 8004cbe:	039a      	lsls	r2, r3, #14
 8004cc0:	d5f6      	bpl.n	8004cb0 <HAL_RCC_OscConfig+0x6c>
 8004cc2:	6823      	ldr	r3, [r4, #0]
 8004cc4:	079f      	lsls	r7, r3, #30
 8004cc6:	d528      	bpl.n	8004d1a <HAL_RCC_OscConfig+0xd6>
 8004cc8:	4a8a      	ldr	r2, [pc, #552]	; (8004ef4 <HAL_RCC_OscConfig+0x2b0>)
 8004cca:	6851      	ldr	r1, [r2, #4]
 8004ccc:	f011 0f0c 	tst.w	r1, #12
 8004cd0:	f000 808e 	beq.w	8004df0 <HAL_RCC_OscConfig+0x1ac>
 8004cd4:	6851      	ldr	r1, [r2, #4]
 8004cd6:	f001 010c 	and.w	r1, r1, #12
 8004cda:	2908      	cmp	r1, #8
 8004cdc:	f000 8084 	beq.w	8004de8 <HAL_RCC_OscConfig+0x1a4>
 8004ce0:	6923      	ldr	r3, [r4, #16]
 8004ce2:	2b00      	cmp	r3, #0
 8004ce4:	f000 8125 	beq.w	8004f32 <HAL_RCC_OscConfig+0x2ee>
 8004ce8:	2201      	movs	r2, #1
 8004cea:	4b83      	ldr	r3, [pc, #524]	; (8004ef8 <HAL_RCC_OscConfig+0x2b4>)
 8004cec:	4e81      	ldr	r6, [pc, #516]	; (8004ef4 <HAL_RCC_OscConfig+0x2b0>)
 8004cee:	601a      	str	r2, [r3, #0]
 8004cf0:	f7fe f9a4 	bl	800303c <HAL_GetTick>
 8004cf4:	4605      	mov	r5, r0
 8004cf6:	e005      	b.n	8004d04 <HAL_RCC_OscConfig+0xc0>
 8004cf8:	f7fe f9a0 	bl	800303c <HAL_GetTick>
 8004cfc:	1b40      	subs	r0, r0, r5
 8004cfe:	2802      	cmp	r0, #2
 8004d00:	f200 80c7 	bhi.w	8004e92 <HAL_RCC_OscConfig+0x24e>
 8004d04:	6833      	ldr	r3, [r6, #0]
 8004d06:	0798      	lsls	r0, r3, #30
 8004d08:	d5f6      	bpl.n	8004cf8 <HAL_RCC_OscConfig+0xb4>
 8004d0a:	6833      	ldr	r3, [r6, #0]
 8004d0c:	6962      	ldr	r2, [r4, #20]
 8004d0e:	f023 03f8 	bic.w	r3, r3, #248	; 0xf8
 8004d12:	ea43 03c2 	orr.w	r3, r3, r2, lsl #3
 8004d16:	6033      	str	r3, [r6, #0]
 8004d18:	6823      	ldr	r3, [r4, #0]
 8004d1a:	071a      	lsls	r2, r3, #28
 8004d1c:	d41f      	bmi.n	8004d5e <HAL_RCC_OscConfig+0x11a>
 8004d1e:	075d      	lsls	r5, r3, #29
 8004d20:	d541      	bpl.n	8004da6 <HAL_RCC_OscConfig+0x162>
 8004d22:	4b74      	ldr	r3, [pc, #464]	; (8004ef4 <HAL_RCC_OscConfig+0x2b0>)
 8004d24:	69da      	ldr	r2, [r3, #28]
 8004d26:	00d0      	lsls	r0, r2, #3
 8004d28:	d57d      	bpl.n	8004e26 <HAL_RCC_OscConfig+0x1e2>
 8004d2a:	2500      	movs	r5, #0
 8004d2c:	4b73      	ldr	r3, [pc, #460]	; (8004efc <HAL_RCC_OscConfig+0x2b8>)
 8004d2e:	681a      	ldr	r2, [r3, #0]
 8004d30:	05d1      	lsls	r1, r2, #23
 8004d32:	f140 809d 	bpl.w	8004e70 <HAL_RCC_OscConfig+0x22c>
 8004d36:	68e3      	ldr	r3, [r4, #12]
 8004d38:	2b01      	cmp	r3, #1
 8004d3a:	f000 810b 	beq.w	8004f54 <HAL_RCC_OscConfig+0x310>
 8004d3e:	2b00      	cmp	r3, #0
 8004d40:	f000 80c5 	beq.w	8004ece <HAL_RCC_OscConfig+0x28a>
 8004d44:	2b05      	cmp	r3, #5
 8004d46:	4b6b      	ldr	r3, [pc, #428]	; (8004ef4 <HAL_RCC_OscConfig+0x2b0>)
 8004d48:	6a1a      	ldr	r2, [r3, #32]
 8004d4a:	f000 8139 	beq.w	8004fc0 <HAL_RCC_OscConfig+0x37c>
 8004d4e:	f022 0201 	bic.w	r2, r2, #1
 8004d52:	621a      	str	r2, [r3, #32]
 8004d54:	6a1a      	ldr	r2, [r3, #32]
 8004d56:	f022 0204 	bic.w	r2, r2, #4
 8004d5a:	621a      	str	r2, [r3, #32]
 8004d5c:	e0ff      	b.n	8004f5e <HAL_RCC_OscConfig+0x31a>
 8004d5e:	69a3      	ldr	r3, [r4, #24]
 8004d60:	2b00      	cmp	r3, #0
 8004d62:	d050      	beq.n	8004e06 <HAL_RCC_OscConfig+0x1c2>
 8004d64:	2201      	movs	r2, #1
 8004d66:	4b66      	ldr	r3, [pc, #408]	; (8004f00 <HAL_RCC_OscConfig+0x2bc>)
 8004d68:	4e62      	ldr	r6, [pc, #392]	; (8004ef4 <HAL_RCC_OscConfig+0x2b0>)
 8004d6a:	601a      	str	r2, [r3, #0]
 8004d6c:	f7fe f966 	bl	800303c <HAL_GetTick>
 8004d70:	4605      	mov	r5, r0
 8004d72:	e005      	b.n	8004d80 <HAL_RCC_OscConfig+0x13c>
 8004d74:	f7fe f962 	bl	800303c <HAL_GetTick>
 8004d78:	1b40      	subs	r0, r0, r5
 8004d7a:	2802      	cmp	r0, #2
 8004d7c:	f200 8089 	bhi.w	8004e92 <HAL_RCC_OscConfig+0x24e>
 8004d80:	6a73      	ldr	r3, [r6, #36]	; 0x24
 8004d82:	079b      	lsls	r3, r3, #30
 8004d84:	d5f6      	bpl.n	8004d74 <HAL_RCC_OscConfig+0x130>
 8004d86:	4b5f      	ldr	r3, [pc, #380]	; (8004f04 <HAL_RCC_OscConfig+0x2c0>)
 8004d88:	4a5f      	ldr	r2, [pc, #380]	; (8004f08 <HAL_RCC_OscConfig+0x2c4>)
 8004d8a:	681b      	ldr	r3, [r3, #0]
 8004d8c:	fba2 2303 	umull	r2, r3, r2, r3
 8004d90:	0a5b      	lsrs	r3, r3, #9
 8004d92:	9301      	str	r3, [sp, #4]
 8004d94:	bf00      	nop
 8004d96:	9b01      	ldr	r3, [sp, #4]
 8004d98:	1e5a      	subs	r2, r3, #1
 8004d9a:	9201      	str	r2, [sp, #4]
 8004d9c:	2b00      	cmp	r3, #0
 8004d9e:	d1f9      	bne.n	8004d94 <HAL_RCC_OscConfig+0x150>
 8004da0:	6823      	ldr	r3, [r4, #0]
 8004da2:	075d      	lsls	r5, r3, #29
 8004da4:	d4bd      	bmi.n	8004d22 <HAL_RCC_OscConfig+0xde>
 8004da6:	69e0      	ldr	r0, [r4, #28]
 8004da8:	b1d0      	cbz	r0, 8004de0 <HAL_RCC_OscConfig+0x19c>
 8004daa:	4d52      	ldr	r5, [pc, #328]	; (8004ef4 <HAL_RCC_OscConfig+0x2b0>)
 8004dac:	686a      	ldr	r2, [r5, #4]
 8004dae:	f002 020c 	and.w	r2, r2, #12
 8004db2:	2a08      	cmp	r2, #8
 8004db4:	f000 80e6 	beq.w	8004f84 <HAL_RCC_OscConfig+0x340>
 8004db8:	2802      	cmp	r0, #2
 8004dba:	f04f 0100 	mov.w	r1, #0
 8004dbe:	4a53      	ldr	r2, [pc, #332]	; (8004f0c <HAL_RCC_OscConfig+0x2c8>)
 8004dc0:	f000 8108 	beq.w	8004fd4 <HAL_RCC_OscConfig+0x390>
 8004dc4:	6011      	str	r1, [r2, #0]
 8004dc6:	f7fe f939 	bl	800303c <HAL_GetTick>
 8004dca:	462c      	mov	r4, r5
 8004dcc:	4605      	mov	r5, r0
 8004dce:	e004      	b.n	8004dda <HAL_RCC_OscConfig+0x196>
 8004dd0:	f7fe f934 	bl	800303c <HAL_GetTick>
 8004dd4:	1b40      	subs	r0, r0, r5
 8004dd6:	2802      	cmp	r0, #2
 8004dd8:	d85b      	bhi.n	8004e92 <HAL_RCC_OscConfig+0x24e>
 8004dda:	6823      	ldr	r3, [r4, #0]
 8004ddc:	019b      	lsls	r3, r3, #6
 8004dde:	d4f7      	bmi.n	8004dd0 <HAL_RCC_OscConfig+0x18c>
 8004de0:	2000      	movs	r0, #0
 8004de2:	b002      	add	sp, #8
 8004de4:	e8bd 81f0 	ldmia.w	sp!, {r4, r5, r6, r7, r8, pc}
 8004de8:	6852      	ldr	r2, [r2, #4]
 8004dea:	03d6      	lsls	r6, r2, #15
 8004dec:	f53f af78 	bmi.w	8004ce0 <HAL_RCC_OscConfig+0x9c>
 8004df0:	4a40      	ldr	r2, [pc, #256]	; (8004ef4 <HAL_RCC_OscConfig+0x2b0>)
 8004df2:	6812      	ldr	r2, [r2, #0]
 8004df4:	0795      	lsls	r5, r2, #30
 8004df6:	d52f      	bpl.n	8004e58 <HAL_RCC_OscConfig+0x214>
 8004df8:	6922      	ldr	r2, [r4, #16]
 8004dfa:	2a01      	cmp	r2, #1
 8004dfc:	d02c      	beq.n	8004e58 <HAL_RCC_OscConfig+0x214>
 8004dfe:	2001      	movs	r0, #1
 8004e00:	b002      	add	sp, #8
 8004e02:	e8bd 81f0 	ldmia.w	sp!, {r4, r5, r6, r7, r8, pc}
 8004e06:	4a3e      	ldr	r2, [pc, #248]	; (8004f00 <HAL_RCC_OscConfig+0x2bc>)
 8004e08:	4e3a      	ldr	r6, [pc, #232]	; (8004ef4 <HAL_RCC_OscConfig+0x2b0>)
 8004e0a:	6013      	str	r3, [r2, #0]
 8004e0c:	f7fe f916 	bl	800303c <HAL_GetTick>
 8004e10:	4605      	mov	r5, r0
 8004e12:	e004      	b.n	8004e1e <HAL_RCC_OscConfig+0x1da>
 8004e14:	f7fe f912 	bl	800303c <HAL_GetTick>
 8004e18:	1b40      	subs	r0, r0, r5
 8004e1a:	2802      	cmp	r0, #2
 8004e1c:	d839      	bhi.n	8004e92 <HAL_RCC_OscConfig+0x24e>
 8004e1e:	6a73      	ldr	r3, [r6, #36]	; 0x24
 8004e20:	079f      	lsls	r7, r3, #30
 8004e22:	d4f7      	bmi.n	8004e14 <HAL_RCC_OscConfig+0x1d0>
 8004e24:	e7bc      	b.n	8004da0 <HAL_RCC_OscConfig+0x15c>
 8004e26:	69da      	ldr	r2, [r3, #28]
 8004e28:	2501      	movs	r5, #1
 8004e2a:	f042 5280 	orr.w	r2, r2, #268435456	; 0x10000000
 8004e2e:	61da      	str	r2, [r3, #28]
 8004e30:	69db      	ldr	r3, [r3, #28]
 8004e32:	f003 5380 	and.w	r3, r3, #268435456	; 0x10000000
 8004e36:	9300      	str	r3, [sp, #0]
 8004e38:	9b00      	ldr	r3, [sp, #0]
 8004e3a:	e777      	b.n	8004d2c <HAL_RCC_OscConfig+0xe8>
 8004e3c:	684a      	ldr	r2, [r1, #4]
 8004e3e:	03d0      	lsls	r0, r2, #15
 8004e40:	f57f af17 	bpl.w	8004c72 <HAL_RCC_OscConfig+0x2e>
 8004e44:	4a2b      	ldr	r2, [pc, #172]	; (8004ef4 <HAL_RCC_OscConfig+0x2b0>)
 8004e46:	6812      	ldr	r2, [r2, #0]
 8004e48:	0391      	lsls	r1, r2, #14
 8004e4a:	f57f af3b 	bpl.w	8004cc4 <HAL_RCC_OscConfig+0x80>
 8004e4e:	6862      	ldr	r2, [r4, #4]
 8004e50:	2a00      	cmp	r2, #0
 8004e52:	f47f af37 	bne.w	8004cc4 <HAL_RCC_OscConfig+0x80>
 8004e56:	e7d2      	b.n	8004dfe <HAL_RCC_OscConfig+0x1ba>
 8004e58:	4926      	ldr	r1, [pc, #152]	; (8004ef4 <HAL_RCC_OscConfig+0x2b0>)
 8004e5a:	6960      	ldr	r0, [r4, #20]
 8004e5c:	680a      	ldr	r2, [r1, #0]
 8004e5e:	f022 02f8 	bic.w	r2, r2, #248	; 0xf8
 8004e62:	ea42 02c0 	orr.w	r2, r2, r0, lsl #3
 8004e66:	600a      	str	r2, [r1, #0]
 8004e68:	071a      	lsls	r2, r3, #28
 8004e6a:	f57f af58 	bpl.w	8004d1e <HAL_RCC_OscConfig+0xda>
 8004e6e:	e776      	b.n	8004d5e <HAL_RCC_OscConfig+0x11a>
 8004e70:	681a      	ldr	r2, [r3, #0]
 8004e72:	461f      	mov	r7, r3
 8004e74:	f442 7280 	orr.w	r2, r2, #256	; 0x100
 8004e78:	601a      	str	r2, [r3, #0]
 8004e7a:	f7fe f8df 	bl	800303c <HAL_GetTick>
 8004e7e:	4606      	mov	r6, r0
 8004e80:	683b      	ldr	r3, [r7, #0]
 8004e82:	05da      	lsls	r2, r3, #23
 8004e84:	f53f af57 	bmi.w	8004d36 <HAL_RCC_OscConfig+0xf2>
 8004e88:	f7fe f8d8 	bl	800303c <HAL_GetTick>
 8004e8c:	1b80      	subs	r0, r0, r6
 8004e8e:	2864      	cmp	r0, #100	; 0x64
 8004e90:	d9f6      	bls.n	8004e80 <HAL_RCC_OscConfig+0x23c>
 8004e92:	2003      	movs	r0, #3
 8004e94:	b002      	add	sp, #8
 8004e96:	e8bd 81f0 	ldmia.w	sp!, {r4, r5, r6, r7, r8, pc}
 8004e9a:	f103 4380 	add.w	r3, r3, #1073741824	; 0x40000000
 8004e9e:	f503 3304 	add.w	r3, r3, #135168	; 0x21000
 8004ea2:	681a      	ldr	r2, [r3, #0]
 8004ea4:	461e      	mov	r6, r3
 8004ea6:	f422 3280 	bic.w	r2, r2, #65536	; 0x10000
 8004eaa:	601a      	str	r2, [r3, #0]
 8004eac:	681a      	ldr	r2, [r3, #0]
 8004eae:	f422 2280 	bic.w	r2, r2, #262144	; 0x40000
 8004eb2:	601a      	str	r2, [r3, #0]
 8004eb4:	f7fe f8c2 	bl	800303c <HAL_GetTick>
 8004eb8:	4605      	mov	r5, r0
 8004eba:	e004      	b.n	8004ec6 <HAL_RCC_OscConfig+0x282>
 8004ebc:	f7fe f8be 	bl	800303c <HAL_GetTick>
 8004ec0:	1b40      	subs	r0, r0, r5
 8004ec2:	2864      	cmp	r0, #100	; 0x64
 8004ec4:	d8e5      	bhi.n	8004e92 <HAL_RCC_OscConfig+0x24e>
 8004ec6:	6833      	ldr	r3, [r6, #0]
 8004ec8:	039b      	lsls	r3, r3, #14
 8004eca:	d4f7      	bmi.n	8004ebc <HAL_RCC_OscConfig+0x278>
 8004ecc:	e6f9      	b.n	8004cc2 <HAL_RCC_OscConfig+0x7e>
 8004ece:	f103 4380 	add.w	r3, r3, #1073741824	; 0x40000000
 8004ed2:	f503 3304 	add.w	r3, r3, #135168	; 0x21000
 8004ed6:	6a1a      	ldr	r2, [r3, #32]
 8004ed8:	461f      	mov	r7, r3
 8004eda:	f022 0201 	bic.w	r2, r2, #1
 8004ede:	621a      	str	r2, [r3, #32]
 8004ee0:	6a1a      	ldr	r2, [r3, #32]
 8004ee2:	f241 3888 	movw	r8, #5000	; 0x1388
 8004ee6:	f022 0204 	bic.w	r2, r2, #4
 8004eea:	621a      	str	r2, [r3, #32]
 8004eec:	f7fe f8a6 	bl	800303c <HAL_GetTick>
 8004ef0:	4606      	mov	r6, r0
 8004ef2:	e012      	b.n	8004f1a <HAL_RCC_OscConfig+0x2d6>
 8004ef4:	40021000 	.word	0x40021000
 8004ef8:	42420000 	.word	0x42420000
 8004efc:	40007000 	.word	0x40007000
 8004f00:	42420480 	.word	0x42420480
 8004f04:	20000008 	.word	0x20000008
 8004f08:	10624dd3 	.word	0x10624dd3
 8004f0c:	42420060 	.word	0x42420060
 8004f10:	f7fe f894 	bl	800303c <HAL_GetTick>
 8004f14:	1b80      	subs	r0, r0, r6
 8004f16:	4540      	cmp	r0, r8
 8004f18:	d8bb      	bhi.n	8004e92 <HAL_RCC_OscConfig+0x24e>
 8004f1a:	6a3b      	ldr	r3, [r7, #32]
 8004f1c:	0798      	lsls	r0, r3, #30
 8004f1e:	d4f7      	bmi.n	8004f10 <HAL_RCC_OscConfig+0x2cc>
 8004f20:	2d00      	cmp	r5, #0
 8004f22:	f43f af40 	beq.w	8004da6 <HAL_RCC_OscConfig+0x162>
 8004f26:	4a44      	ldr	r2, [pc, #272]	; (8005038 <HAL_RCC_OscConfig+0x3f4>)
 8004f28:	69d3      	ldr	r3, [r2, #28]
 8004f2a:	f023 5380 	bic.w	r3, r3, #268435456	; 0x10000000
 8004f2e:	61d3      	str	r3, [r2, #28]
 8004f30:	e739      	b.n	8004da6 <HAL_RCC_OscConfig+0x162>
 8004f32:	4a42      	ldr	r2, [pc, #264]	; (800503c <HAL_RCC_OscConfig+0x3f8>)
 8004f34:	4e40      	ldr	r6, [pc, #256]	; (8005038 <HAL_RCC_OscConfig+0x3f4>)
 8004f36:	6013      	str	r3, [r2, #0]
 8004f38:	f7fe f880 	bl	800303c <HAL_GetTick>
 8004f3c:	4605      	mov	r5, r0
 8004f3e:	e004      	b.n	8004f4a <HAL_RCC_OscConfig+0x306>
 8004f40:	f7fe f87c 	bl	800303c <HAL_GetTick>
 8004f44:	1b40      	subs	r0, r0, r5
 8004f46:	2802      	cmp	r0, #2
 8004f48:	d8a3      	bhi.n	8004e92 <HAL_RCC_OscConfig+0x24e>
 8004f4a:	6833      	ldr	r3, [r6, #0]
 8004f4c:	0799      	lsls	r1, r3, #30
 8004f4e:	d4f7      	bmi.n	8004f40 <HAL_RCC_OscConfig+0x2fc>
 8004f50:	6823      	ldr	r3, [r4, #0]
 8004f52:	e6e2      	b.n	8004d1a <HAL_RCC_OscConfig+0xd6>
 8004f54:	4a38      	ldr	r2, [pc, #224]	; (8005038 <HAL_RCC_OscConfig+0x3f4>)
 8004f56:	6a13      	ldr	r3, [r2, #32]
 8004f58:	f043 0301 	orr.w	r3, r3, #1
 8004f5c:	6213      	str	r3, [r2, #32]
 8004f5e:	f7fe f86d 	bl	800303c <HAL_GetTick>
 8004f62:	f241 3888 	movw	r8, #5000	; 0x1388
 8004f66:	4606      	mov	r6, r0
 8004f68:	4f33      	ldr	r7, [pc, #204]	; (8005038 <HAL_RCC_OscConfig+0x3f4>)
 8004f6a:	e004      	b.n	8004f76 <HAL_RCC_OscConfig+0x332>
 8004f6c:	f7fe f866 	bl	800303c <HAL_GetTick>
 8004f70:	1b80      	subs	r0, r0, r6
 8004f72:	4540      	cmp	r0, r8
 8004f74:	d88d      	bhi.n	8004e92 <HAL_RCC_OscConfig+0x24e>
 8004f76:	6a3b      	ldr	r3, [r7, #32]
 8004f78:	079b      	lsls	r3, r3, #30
 8004f7a:	d5f7      	bpl.n	8004f6c <HAL_RCC_OscConfig+0x328>
 8004f7c:	2d00      	cmp	r5, #0
 8004f7e:	f43f af12 	beq.w	8004da6 <HAL_RCC_OscConfig+0x162>
 8004f82:	e7d0      	b.n	8004f26 <HAL_RCC_OscConfig+0x2e2>
 8004f84:	2801      	cmp	r0, #1
 8004f86:	f43f af2c 	beq.w	8004de2 <HAL_RCC_OscConfig+0x19e>
 8004f8a:	686b      	ldr	r3, [r5, #4]
 8004f8c:	6a22      	ldr	r2, [r4, #32]
 8004f8e:	f403 3180 	and.w	r1, r3, #65536	; 0x10000
 8004f92:	4291      	cmp	r1, r2
 8004f94:	f47f af33 	bne.w	8004dfe <HAL_RCC_OscConfig+0x1ba>
 8004f98:	6a60      	ldr	r0, [r4, #36]	; 0x24
 8004f9a:	f403 1370 	and.w	r3, r3, #3932160	; 0x3c0000
 8004f9e:	1a18      	subs	r0, r3, r0
 8004fa0:	bf18      	it	ne
 8004fa2:	2001      	movne	r0, #1
 8004fa4:	e71d      	b.n	8004de2 <HAL_RCC_OscConfig+0x19e>
 8004fa6:	f103 4380 	add.w	r3, r3, #1073741824	; 0x40000000
 8004faa:	f5a3 333c 	sub.w	r3, r3, #192512	; 0x2f000
 8004fae:	681a      	ldr	r2, [r3, #0]
 8004fb0:	f442 2280 	orr.w	r2, r2, #262144	; 0x40000
 8004fb4:	601a      	str	r2, [r3, #0]
 8004fb6:	681a      	ldr	r2, [r3, #0]
 8004fb8:	f442 3280 	orr.w	r2, r2, #65536	; 0x10000
 8004fbc:	601a      	str	r2, [r3, #0]
 8004fbe:	e672      	b.n	8004ca6 <HAL_RCC_OscConfig+0x62>
 8004fc0:	f042 0204 	orr.w	r2, r2, #4
 8004fc4:	621a      	str	r2, [r3, #32]
 8004fc6:	6a1a      	ldr	r2, [r3, #32]
 8004fc8:	f042 0201 	orr.w	r2, r2, #1
 8004fcc:	621a      	str	r2, [r3, #32]
 8004fce:	e7c6      	b.n	8004f5e <HAL_RCC_OscConfig+0x31a>
 8004fd0:	2001      	movs	r0, #1
 8004fd2:	4770      	bx	lr
 8004fd4:	6011      	str	r1, [r2, #0]
 8004fd6:	f7fe f831 	bl	800303c <HAL_GetTick>
 8004fda:	4606      	mov	r6, r0
 8004fdc:	e005      	b.n	8004fea <HAL_RCC_OscConfig+0x3a6>
 8004fde:	f7fe f82d 	bl	800303c <HAL_GetTick>
 8004fe2:	1b80      	subs	r0, r0, r6
 8004fe4:	2802      	cmp	r0, #2
 8004fe6:	f63f af54 	bhi.w	8004e92 <HAL_RCC_OscConfig+0x24e>
 8004fea:	682b      	ldr	r3, [r5, #0]
 8004fec:	0199      	lsls	r1, r3, #6
 8004fee:	d4f6      	bmi.n	8004fde <HAL_RCC_OscConfig+0x39a>
 8004ff0:	6a23      	ldr	r3, [r4, #32]
 8004ff2:	f5b3 3f80 	cmp.w	r3, #65536	; 0x10000
 8004ff6:	d105      	bne.n	8005004 <HAL_RCC_OscConfig+0x3c0>
 8004ff8:	686a      	ldr	r2, [r5, #4]
 8004ffa:	68a1      	ldr	r1, [r4, #8]
 8004ffc:	f422 3200 	bic.w	r2, r2, #131072	; 0x20000
 8005000:	430a      	orrs	r2, r1
 8005002:	606a      	str	r2, [r5, #4]
 8005004:	2001      	movs	r0, #1
 8005006:	4d0c      	ldr	r5, [pc, #48]	; (8005038 <HAL_RCC_OscConfig+0x3f4>)
 8005008:	6a61      	ldr	r1, [r4, #36]	; 0x24
 800500a:	686a      	ldr	r2, [r5, #4]
 800500c:	430b      	orrs	r3, r1
 800500e:	f422 1274 	bic.w	r2, r2, #3997696	; 0x3d0000
 8005012:	490b      	ldr	r1, [pc, #44]	; (8005040 <HAL_RCC_OscConfig+0x3fc>)
 8005014:	4313      	orrs	r3, r2
 8005016:	606b      	str	r3, [r5, #4]
 8005018:	6008      	str	r0, [r1, #0]
 800501a:	f7fe f80f 	bl	800303c <HAL_GetTick>
 800501e:	462c      	mov	r4, r5
 8005020:	4605      	mov	r5, r0
 8005022:	e005      	b.n	8005030 <HAL_RCC_OscConfig+0x3ec>
 8005024:	f7fe f80a 	bl	800303c <HAL_GetTick>
 8005028:	1b40      	subs	r0, r0, r5
 800502a:	2802      	cmp	r0, #2
 800502c:	f63f af31 	bhi.w	8004e92 <HAL_RCC_OscConfig+0x24e>
 8005030:	6823      	ldr	r3, [r4, #0]
 8005032:	019a      	lsls	r2, r3, #6
 8005034:	d5f6      	bpl.n	8005024 <HAL_RCC_OscConfig+0x3e0>
 8005036:	e6d3      	b.n	8004de0 <HAL_RCC_OscConfig+0x19c>
 8005038:	40021000 	.word	0x40021000
 800503c:	42420000 	.word	0x42420000
 8005040:	42420060 	.word	0x42420060

08005044 <HAL_RCC_GetSysClockFreq>:
 8005044:	4910      	ldr	r1, [pc, #64]	; (8005088 <HAL_RCC_GetSysClockFreq+0x44>)
 8005046:	684a      	ldr	r2, [r1, #4]
 8005048:	f002 030c 	and.w	r3, r2, #12
 800504c:	2b04      	cmp	r3, #4
 800504e:	d014      	beq.n	800507a <HAL_RCC_GetSysClockFreq+0x36>
 8005050:	2b08      	cmp	r3, #8
 8005052:	d110      	bne.n	8005076 <HAL_RCC_GetSysClockFreq+0x32>
 8005054:	480d      	ldr	r0, [pc, #52]	; (800508c <HAL_RCC_GetSysClockFreq+0x48>)
 8005056:	f3c2 4383 	ubfx	r3, r2, #18, #4
 800505a:	03d2      	lsls	r2, r2, #15
 800505c:	5cc3      	ldrb	r3, [r0, r3]
 800505e:	d50e      	bpl.n	800507e <HAL_RCC_GetSysClockFreq+0x3a>
 8005060:	480b      	ldr	r0, [pc, #44]	; (8005090 <HAL_RCC_GetSysClockFreq+0x4c>)
 8005062:	684a      	ldr	r2, [r1, #4]
 8005064:	fb00 f003 	mul.w	r0, r0, r3
 8005068:	490a      	ldr	r1, [pc, #40]	; (8005094 <HAL_RCC_GetSysClockFreq+0x50>)
 800506a:	f3c2 4340 	ubfx	r3, r2, #17, #1
 800506e:	5ccb      	ldrb	r3, [r1, r3]
 8005070:	fbb0 f0f3 	udiv	r0, r0, r3
 8005074:	4770      	bx	lr
 8005076:	4808      	ldr	r0, [pc, #32]	; (8005098 <HAL_RCC_GetSysClockFreq+0x54>)
 8005078:	4770      	bx	lr
 800507a:	4805      	ldr	r0, [pc, #20]	; (8005090 <HAL_RCC_GetSysClockFreq+0x4c>)
 800507c:	4770      	bx	lr
 800507e:	4807      	ldr	r0, [pc, #28]	; (800509c <HAL_RCC_GetSysClockFreq+0x58>)
 8005080:	fb00 f003 	mul.w	r0, r0, r3
 8005084:	4770      	bx	lr
 8005086:	bf00      	nop
 8005088:	40021000 	.word	0x40021000
 800508c:	08009358 	.word	0x08009358
 8005090:	00f42400 	.word	0x00f42400
 8005094:	08009368 	.word	0x08009368
 8005098:	007a1200 	.word	0x007a1200
 800509c:	003d0900 	.word	0x003d0900

080050a0 <HAL_RCC_ClockConfig>:
 80050a0:	2800      	cmp	r0, #0
 80050a2:	f000 808c 	beq.w	80051be <HAL_RCC_ClockConfig+0x11e>
 80050a6:	4a49      	ldr	r2, [pc, #292]	; (80051cc <HAL_RCC_ClockConfig+0x12c>)
 80050a8:	e92d 41f0 	stmdb	sp!, {r4, r5, r6, r7, r8, lr}
 80050ac:	6813      	ldr	r3, [r2, #0]
 80050ae:	4604      	mov	r4, r0
 80050b0:	f003 0307 	and.w	r3, r3, #7
 80050b4:	428b      	cmp	r3, r1
 80050b6:	460d      	mov	r5, r1
 80050b8:	d20c      	bcs.n	80050d4 <HAL_RCC_ClockConfig+0x34>
 80050ba:	6813      	ldr	r3, [r2, #0]
 80050bc:	f023 0307 	bic.w	r3, r3, #7
 80050c0:	430b      	orrs	r3, r1
 80050c2:	6013      	str	r3, [r2, #0]
 80050c4:	6813      	ldr	r3, [r2, #0]
 80050c6:	f003 0307 	and.w	r3, r3, #7
 80050ca:	428b      	cmp	r3, r1
 80050cc:	d002      	beq.n	80050d4 <HAL_RCC_ClockConfig+0x34>
 80050ce:	2001      	movs	r0, #1
 80050d0:	e8bd 81f0 	ldmia.w	sp!, {r4, r5, r6, r7, r8, pc}
 80050d4:	6823      	ldr	r3, [r4, #0]
 80050d6:	0798      	lsls	r0, r3, #30
 80050d8:	d514      	bpl.n	8005104 <HAL_RCC_ClockConfig+0x64>
 80050da:	0759      	lsls	r1, r3, #29
 80050dc:	d504      	bpl.n	80050e8 <HAL_RCC_ClockConfig+0x48>
 80050de:	493c      	ldr	r1, [pc, #240]	; (80051d0 <HAL_RCC_ClockConfig+0x130>)
 80050e0:	684a      	ldr	r2, [r1, #4]
 80050e2:	f442 62e0 	orr.w	r2, r2, #1792	; 0x700
 80050e6:	604a      	str	r2, [r1, #4]
 80050e8:	071a      	lsls	r2, r3, #28
 80050ea:	d504      	bpl.n	80050f6 <HAL_RCC_ClockConfig+0x56>
 80050ec:	4938      	ldr	r1, [pc, #224]	; (80051d0 <HAL_RCC_ClockConfig+0x130>)
 80050ee:	684a      	ldr	r2, [r1, #4]
 80050f0:	f442 5260 	orr.w	r2, r2, #14336	; 0x3800
 80050f4:	604a      	str	r2, [r1, #4]
 80050f6:	4936      	ldr	r1, [pc, #216]	; (80051d0 <HAL_RCC_ClockConfig+0x130>)
 80050f8:	68a0      	ldr	r0, [r4, #8]
 80050fa:	684a      	ldr	r2, [r1, #4]
 80050fc:	f022 02f0 	bic.w	r2, r2, #240	; 0xf0
 8005100:	4302      	orrs	r2, r0
 8005102:	604a      	str	r2, [r1, #4]
 8005104:	07df      	lsls	r7, r3, #31
 8005106:	d520      	bpl.n	800514a <HAL_RCC_ClockConfig+0xaa>
 8005108:	6862      	ldr	r2, [r4, #4]
 800510a:	4b31      	ldr	r3, [pc, #196]	; (80051d0 <HAL_RCC_ClockConfig+0x130>)
 800510c:	2a01      	cmp	r2, #1
 800510e:	681b      	ldr	r3, [r3, #0]
 8005110:	d057      	beq.n	80051c2 <HAL_RCC_ClockConfig+0x122>
 8005112:	2a02      	cmp	r2, #2
 8005114:	d050      	beq.n	80051b8 <HAL_RCC_ClockConfig+0x118>
 8005116:	0799      	lsls	r1, r3, #30
 8005118:	d5d9      	bpl.n	80050ce <HAL_RCC_ClockConfig+0x2e>
 800511a:	4e2d      	ldr	r6, [pc, #180]	; (80051d0 <HAL_RCC_ClockConfig+0x130>)
 800511c:	f241 3888 	movw	r8, #5000	; 0x1388
 8005120:	6873      	ldr	r3, [r6, #4]
 8005122:	f023 0303 	bic.w	r3, r3, #3
 8005126:	4313      	orrs	r3, r2
 8005128:	6073      	str	r3, [r6, #4]
 800512a:	f7fd ff87 	bl	800303c <HAL_GetTick>
 800512e:	4607      	mov	r7, r0
 8005130:	e004      	b.n	800513c <HAL_RCC_ClockConfig+0x9c>
 8005132:	f7fd ff83 	bl	800303c <HAL_GetTick>
 8005136:	1bc0      	subs	r0, r0, r7
 8005138:	4540      	cmp	r0, r8
 800513a:	d845      	bhi.n	80051c8 <HAL_RCC_ClockConfig+0x128>
 800513c:	6873      	ldr	r3, [r6, #4]
 800513e:	6862      	ldr	r2, [r4, #4]
 8005140:	f003 030c 	and.w	r3, r3, #12
 8005144:	ebb3 0f82 	cmp.w	r3, r2, lsl #2
 8005148:	d1f3      	bne.n	8005132 <HAL_RCC_ClockConfig+0x92>
 800514a:	4a20      	ldr	r2, [pc, #128]	; (80051cc <HAL_RCC_ClockConfig+0x12c>)
 800514c:	6813      	ldr	r3, [r2, #0]
 800514e:	f003 0307 	and.w	r3, r3, #7
 8005152:	42ab      	cmp	r3, r5
 8005154:	d909      	bls.n	800516a <HAL_RCC_ClockConfig+0xca>
 8005156:	6813      	ldr	r3, [r2, #0]
 8005158:	f023 0307 	bic.w	r3, r3, #7
 800515c:	432b      	orrs	r3, r5
 800515e:	6013      	str	r3, [r2, #0]
 8005160:	6813      	ldr	r3, [r2, #0]
 8005162:	f003 0307 	and.w	r3, r3, #7
 8005166:	42ab      	cmp	r3, r5
 8005168:	d1b1      	bne.n	80050ce <HAL_RCC_ClockConfig+0x2e>
 800516a:	6823      	ldr	r3, [r4, #0]
 800516c:	075a      	lsls	r2, r3, #29
 800516e:	d506      	bpl.n	800517e <HAL_RCC_ClockConfig+0xde>
 8005170:	4917      	ldr	r1, [pc, #92]	; (80051d0 <HAL_RCC_ClockConfig+0x130>)
 8005172:	68e0      	ldr	r0, [r4, #12]
 8005174:	684a      	ldr	r2, [r1, #4]
 8005176:	f422 62e0 	bic.w	r2, r2, #1792	; 0x700
 800517a:	4302      	orrs	r2, r0
 800517c:	604a      	str	r2, [r1, #4]
 800517e:	071b      	lsls	r3, r3, #28
 8005180:	d507      	bpl.n	8005192 <HAL_RCC_ClockConfig+0xf2>
 8005182:	4a13      	ldr	r2, [pc, #76]	; (80051d0 <HAL_RCC_ClockConfig+0x130>)
 8005184:	6921      	ldr	r1, [r4, #16]
 8005186:	6853      	ldr	r3, [r2, #4]
 8005188:	f423 5360 	bic.w	r3, r3, #14336	; 0x3800
 800518c:	ea43 03c1 	orr.w	r3, r3, r1, lsl #3
 8005190:	6053      	str	r3, [r2, #4]
 8005192:	f7ff ff57 	bl	8005044 <HAL_RCC_GetSysClockFreq>
 8005196:	4b0e      	ldr	r3, [pc, #56]	; (80051d0 <HAL_RCC_ClockConfig+0x130>)
 8005198:	4a0e      	ldr	r2, [pc, #56]	; (80051d4 <HAL_RCC_ClockConfig+0x134>)
 800519a:	685b      	ldr	r3, [r3, #4]
 800519c:	490e      	ldr	r1, [pc, #56]	; (80051d8 <HAL_RCC_ClockConfig+0x138>)
 800519e:	f3c3 1303 	ubfx	r3, r3, #4, #4
 80051a2:	5cd3      	ldrb	r3, [r2, r3]
 80051a4:	4a0d      	ldr	r2, [pc, #52]	; (80051dc <HAL_RCC_ClockConfig+0x13c>)
 80051a6:	fa20 f303 	lsr.w	r3, r0, r3
 80051aa:	6808      	ldr	r0, [r1, #0]
 80051ac:	6013      	str	r3, [r2, #0]
 80051ae:	f7fd ff03 	bl	8002fb8 <HAL_InitTick>
 80051b2:	2000      	movs	r0, #0
 80051b4:	e8bd 81f0 	ldmia.w	sp!, {r4, r5, r6, r7, r8, pc}
 80051b8:	0198      	lsls	r0, r3, #6
 80051ba:	d4ae      	bmi.n	800511a <HAL_RCC_ClockConfig+0x7a>
 80051bc:	e787      	b.n	80050ce <HAL_RCC_ClockConfig+0x2e>
 80051be:	2001      	movs	r0, #1
 80051c0:	4770      	bx	lr
 80051c2:	039e      	lsls	r6, r3, #14
 80051c4:	d4a9      	bmi.n	800511a <HAL_RCC_ClockConfig+0x7a>
 80051c6:	e782      	b.n	80050ce <HAL_RCC_ClockConfig+0x2e>
 80051c8:	2003      	movs	r0, #3
 80051ca:	e781      	b.n	80050d0 <HAL_RCC_ClockConfig+0x30>
 80051cc:	40022000 	.word	0x40022000
 80051d0:	40021000 	.word	0x40021000
 80051d4:	080092bc 	.word	0x080092bc
 80051d8:	2000023c 	.word	0x2000023c
 80051dc:	20000008 	.word	0x20000008

080051e0 <HAL_RCC_GetPCLK1Freq>:
 80051e0:	4b04      	ldr	r3, [pc, #16]	; (80051f4 <HAL_RCC_GetPCLK1Freq+0x14>)
 80051e2:	4905      	ldr	r1, [pc, #20]	; (80051f8 <HAL_RCC_GetPCLK1Freq+0x18>)
 80051e4:	685b      	ldr	r3, [r3, #4]
 80051e6:	4a05      	ldr	r2, [pc, #20]	; (80051fc <HAL_RCC_GetPCLK1Freq+0x1c>)
 80051e8:	f3c3 2302 	ubfx	r3, r3, #8, #3
 80051ec:	5ccb      	ldrb	r3, [r1, r3]
 80051ee:	6810      	ldr	r0, [r2, #0]
 80051f0:	40d8      	lsrs	r0, r3
 80051f2:	4770      	bx	lr
 80051f4:	40021000 	.word	0x40021000
 80051f8:	080092cc 	.word	0x080092cc
 80051fc:	20000008 	.word	0x20000008

08005200 <HAL_RCC_GetPCLK2Freq>:
 8005200:	4b04      	ldr	r3, [pc, #16]	; (8005214 <HAL_RCC_GetPCLK2Freq+0x14>)
 8005202:	4905      	ldr	r1, [pc, #20]	; (8005218 <HAL_RCC_GetPCLK2Freq+0x18>)
 8005204:	685b      	ldr	r3, [r3, #4]
 8005206:	4a05      	ldr	r2, [pc, #20]	; (800521c <HAL_RCC_GetPCLK2Freq+0x1c>)
 8005208:	f3c3 23c2 	ubfx	r3, r3, #11, #3
 800520c:	5ccb      	ldrb	r3, [r1, r3]
 800520e:	6810      	ldr	r0, [r2, #0]
 8005210:	40d8      	lsrs	r0, r3
 8005212:	4770      	bx	lr
 8005214:	40021000 	.word	0x40021000
 8005218:	080092cc 	.word	0x080092cc
 800521c:	20000008 	.word	0x20000008

08005220 <HAL_RCCEx_PeriphCLKConfig>:
 8005220:	e92d 41f0 	stmdb	sp!, {r4, r5, r6, r7, r8, lr}
 8005224:	4604      	mov	r4, r0
 8005226:	6800      	ldr	r0, [r0, #0]
 8005228:	b082      	sub	sp, #8
 800522a:	07c3      	lsls	r3, r0, #31
 800522c:	d52a      	bpl.n	8005284 <HAL_RCCEx_PeriphCLKConfig+0x64>
 800522e:	4b39      	ldr	r3, [pc, #228]	; (8005314 <HAL_RCCEx_PeriphCLKConfig+0xf4>)
 8005230:	69da      	ldr	r2, [r3, #28]
 8005232:	00d7      	lsls	r7, r2, #3
 8005234:	d53d      	bpl.n	80052b2 <HAL_RCCEx_PeriphCLKConfig+0x92>
 8005236:	4b38      	ldr	r3, [pc, #224]	; (8005318 <HAL_RCCEx_PeriphCLKConfig+0xf8>)
 8005238:	2500      	movs	r5, #0
 800523a:	681a      	ldr	r2, [r3, #0]
 800523c:	05d6      	lsls	r6, r2, #23
 800523e:	d546      	bpl.n	80052ce <HAL_RCCEx_PeriphCLKConfig+0xae>
 8005240:	4e34      	ldr	r6, [pc, #208]	; (8005314 <HAL_RCCEx_PeriphCLKConfig+0xf4>)
 8005242:	6a33      	ldr	r3, [r6, #32]
 8005244:	f413 7340 	ands.w	r3, r3, #768	; 0x300
 8005248:	d00f      	beq.n	800526a <HAL_RCCEx_PeriphCLKConfig+0x4a>
 800524a:	6861      	ldr	r1, [r4, #4]
 800524c:	f401 7240 	and.w	r2, r1, #768	; 0x300
 8005250:	429a      	cmp	r2, r3
 8005252:	d00b      	beq.n	800526c <HAL_RCCEx_PeriphCLKConfig+0x4c>
 8005254:	2701      	movs	r7, #1
 8005256:	2000      	movs	r0, #0
 8005258:	6a33      	ldr	r3, [r6, #32]
 800525a:	4a30      	ldr	r2, [pc, #192]	; (800531c <HAL_RCCEx_PeriphCLKConfig+0xfc>)
 800525c:	f423 7140 	bic.w	r1, r3, #768	; 0x300
 8005260:	6017      	str	r7, [r2, #0]
 8005262:	6010      	str	r0, [r2, #0]
 8005264:	6231      	str	r1, [r6, #32]
 8005266:	07d9      	lsls	r1, r3, #31
 8005268:	d445      	bmi.n	80052f6 <HAL_RCCEx_PeriphCLKConfig+0xd6>
 800526a:	6861      	ldr	r1, [r4, #4]
 800526c:	4a29      	ldr	r2, [pc, #164]	; (8005314 <HAL_RCCEx_PeriphCLKConfig+0xf4>)
 800526e:	6a13      	ldr	r3, [r2, #32]
 8005270:	f423 7340 	bic.w	r3, r3, #768	; 0x300
 8005274:	430b      	orrs	r3, r1
 8005276:	6213      	str	r3, [r2, #32]
 8005278:	b11d      	cbz	r5, 8005282 <HAL_RCCEx_PeriphCLKConfig+0x62>
 800527a:	69d3      	ldr	r3, [r2, #28]
 800527c:	f023 5380 	bic.w	r3, r3, #268435456	; 0x10000000
 8005280:	61d3      	str	r3, [r2, #28]
 8005282:	6820      	ldr	r0, [r4, #0]
 8005284:	0783      	lsls	r3, r0, #30
 8005286:	d506      	bpl.n	8005296 <HAL_RCCEx_PeriphCLKConfig+0x76>
 8005288:	4922      	ldr	r1, [pc, #136]	; (8005314 <HAL_RCCEx_PeriphCLKConfig+0xf4>)
 800528a:	68a3      	ldr	r3, [r4, #8]
 800528c:	684a      	ldr	r2, [r1, #4]
 800528e:	f422 4240 	bic.w	r2, r2, #49152	; 0xc000
 8005292:	431a      	orrs	r2, r3
 8005294:	604a      	str	r2, [r1, #4]
 8005296:	f010 0010 	ands.w	r0, r0, #16
 800529a:	d007      	beq.n	80052ac <HAL_RCCEx_PeriphCLKConfig+0x8c>
 800529c:	2000      	movs	r0, #0
 800529e:	4a1d      	ldr	r2, [pc, #116]	; (8005314 <HAL_RCCEx_PeriphCLKConfig+0xf4>)
 80052a0:	68e1      	ldr	r1, [r4, #12]
 80052a2:	6853      	ldr	r3, [r2, #4]
 80052a4:	f423 0380 	bic.w	r3, r3, #4194304	; 0x400000
 80052a8:	430b      	orrs	r3, r1
 80052aa:	6053      	str	r3, [r2, #4]
 80052ac:	b002      	add	sp, #8
 80052ae:	e8bd 81f0 	ldmia.w	sp!, {r4, r5, r6, r7, r8, pc}
 80052b2:	69da      	ldr	r2, [r3, #28]
 80052b4:	2501      	movs	r5, #1
 80052b6:	f042 5280 	orr.w	r2, r2, #268435456	; 0x10000000
 80052ba:	61da      	str	r2, [r3, #28]
 80052bc:	69db      	ldr	r3, [r3, #28]
 80052be:	f003 5380 	and.w	r3, r3, #268435456	; 0x10000000
 80052c2:	9301      	str	r3, [sp, #4]
 80052c4:	9b01      	ldr	r3, [sp, #4]
 80052c6:	4b14      	ldr	r3, [pc, #80]	; (8005318 <HAL_RCCEx_PeriphCLKConfig+0xf8>)
 80052c8:	681a      	ldr	r2, [r3, #0]
 80052ca:	05d6      	lsls	r6, r2, #23
 80052cc:	d4b8      	bmi.n	8005240 <HAL_RCCEx_PeriphCLKConfig+0x20>
 80052ce:	681a      	ldr	r2, [r3, #0]
 80052d0:	461f      	mov	r7, r3
 80052d2:	f442 7280 	orr.w	r2, r2, #256	; 0x100
 80052d6:	601a      	str	r2, [r3, #0]
 80052d8:	f7fd feb0 	bl	800303c <HAL_GetTick>
 80052dc:	4606      	mov	r6, r0
 80052de:	683b      	ldr	r3, [r7, #0]
 80052e0:	05d8      	lsls	r0, r3, #23
 80052e2:	d4ad      	bmi.n	8005240 <HAL_RCCEx_PeriphCLKConfig+0x20>
 80052e4:	f7fd feaa 	bl	800303c <HAL_GetTick>
 80052e8:	1b83      	subs	r3, r0, r6
 80052ea:	2b64      	cmp	r3, #100	; 0x64
 80052ec:	d9f7      	bls.n	80052de <HAL_RCCEx_PeriphCLKConfig+0xbe>
 80052ee:	2003      	movs	r0, #3
 80052f0:	b002      	add	sp, #8
 80052f2:	e8bd 81f0 	ldmia.w	sp!, {r4, r5, r6, r7, r8, pc}
 80052f6:	f7fd fea1 	bl	800303c <HAL_GetTick>
 80052fa:	f241 3888 	movw	r8, #5000	; 0x1388
 80052fe:	4607      	mov	r7, r0
 8005300:	e004      	b.n	800530c <HAL_RCCEx_PeriphCLKConfig+0xec>
 8005302:	f7fd fe9b 	bl	800303c <HAL_GetTick>
 8005306:	1bc0      	subs	r0, r0, r7
 8005308:	4540      	cmp	r0, r8
 800530a:	d8f0      	bhi.n	80052ee <HAL_RCCEx_PeriphCLKConfig+0xce>
 800530c:	6a33      	ldr	r3, [r6, #32]
 800530e:	079a      	lsls	r2, r3, #30
 8005310:	d5f7      	bpl.n	8005302 <HAL_RCCEx_PeriphCLKConfig+0xe2>
 8005312:	e7aa      	b.n	800526a <HAL_RCCEx_PeriphCLKConfig+0x4a>
 8005314:	40021000 	.word	0x40021000
 8005318:	40007000 	.word	0x40007000
 800531c:	42420440 	.word	0x42420440

08005320 <HAL_TIM_Base_Start_IT>:
 8005320:	f890 303d 	ldrb.w	r3, [r0, #61]	; 0x3d
 8005324:	2b01      	cmp	r3, #1
 8005326:	d11f      	bne.n	8005368 <HAL_TIM_Base_Start_IT+0x48>
 8005328:	2202      	movs	r2, #2
 800532a:	6803      	ldr	r3, [r0, #0]
 800532c:	f880 203d 	strb.w	r2, [r0, #61]	; 0x3d
 8005330:	68da      	ldr	r2, [r3, #12]
 8005332:	490f      	ldr	r1, [pc, #60]	; (8005370 <HAL_TIM_Base_Start_IT+0x50>)
 8005334:	f042 0201 	orr.w	r2, r2, #1
 8005338:	428b      	cmp	r3, r1
 800533a:	60da      	str	r2, [r3, #12]
 800533c:	d009      	beq.n	8005352 <HAL_TIM_Base_Start_IT+0x32>
 800533e:	f1b3 4f80 	cmp.w	r3, #1073741824	; 0x40000000
 8005342:	d006      	beq.n	8005352 <HAL_TIM_Base_Start_IT+0x32>
 8005344:	4a0b      	ldr	r2, [pc, #44]	; (8005374 <HAL_TIM_Base_Start_IT+0x54>)
 8005346:	4293      	cmp	r3, r2
 8005348:	d003      	beq.n	8005352 <HAL_TIM_Base_Start_IT+0x32>
 800534a:	f502 6280 	add.w	r2, r2, #1024	; 0x400
 800534e:	4293      	cmp	r3, r2
 8005350:	d104      	bne.n	800535c <HAL_TIM_Base_Start_IT+0x3c>
 8005352:	689a      	ldr	r2, [r3, #8]
 8005354:	f002 0207 	and.w	r2, r2, #7
 8005358:	2a06      	cmp	r2, #6
 800535a:	d007      	beq.n	800536c <HAL_TIM_Base_Start_IT+0x4c>
 800535c:	681a      	ldr	r2, [r3, #0]
 800535e:	2000      	movs	r0, #0
 8005360:	f042 0201 	orr.w	r2, r2, #1
 8005364:	601a      	str	r2, [r3, #0]
 8005366:	4770      	bx	lr
 8005368:	2001      	movs	r0, #1
 800536a:	4770      	bx	lr
 800536c:	2000      	movs	r0, #0
 800536e:	4770      	bx	lr
 8005370:	40012c00 	.word	0x40012c00
 8005374:	40000400 	.word	0x40000400

08005378 <HAL_TIM_ConfigClockSource>:
 8005378:	f890 303c 	ldrb.w	r3, [r0, #60]	; 0x3c
 800537c:	2b01      	cmp	r3, #1
 800537e:	d075      	beq.n	800546c <HAL_TIM_ConfigClockSource+0xf4>
 8005380:	4602      	mov	r2, r0
 8005382:	2302      	movs	r3, #2
 8005384:	2001      	movs	r0, #1
 8005386:	b4f0      	push	{r4, r5, r6, r7}
 8005388:	6814      	ldr	r4, [r2, #0]
 800538a:	f882 003c 	strb.w	r0, [r2, #60]	; 0x3c
 800538e:	f882 303d 	strb.w	r3, [r2, #61]	; 0x3d
 8005392:	68a5      	ldr	r5, [r4, #8]
 8005394:	680b      	ldr	r3, [r1, #0]
 8005396:	f425 457f 	bic.w	r5, r5, #65280	; 0xff00
 800539a:	f025 0577 	bic.w	r5, r5, #119	; 0x77
 800539e:	2b60      	cmp	r3, #96	; 0x60
 80053a0:	60a5      	str	r5, [r4, #8]
 80053a2:	d065      	beq.n	8005470 <HAL_TIM_ConfigClockSource+0xf8>
 80053a4:	d824      	bhi.n	80053f0 <HAL_TIM_ConfigClockSource+0x78>
 80053a6:	2b40      	cmp	r3, #64	; 0x40
 80053a8:	d07c      	beq.n	80054a4 <HAL_TIM_ConfigClockSource+0x12c>
 80053aa:	d94b      	bls.n	8005444 <HAL_TIM_ConfigClockSource+0xcc>
 80053ac:	2b50      	cmp	r3, #80	; 0x50
 80053ae:	d117      	bne.n	80053e0 <HAL_TIM_ConfigClockSource+0x68>
 80053b0:	6a25      	ldr	r5, [r4, #32]
 80053b2:	6848      	ldr	r0, [r1, #4]
 80053b4:	68cf      	ldr	r7, [r1, #12]
 80053b6:	f025 010a 	bic.w	r1, r5, #10
 80053ba:	4301      	orrs	r1, r0
 80053bc:	2000      	movs	r0, #0
 80053be:	6a26      	ldr	r6, [r4, #32]
 80053c0:	f026 0601 	bic.w	r6, r6, #1
 80053c4:	6226      	str	r6, [r4, #32]
 80053c6:	69a3      	ldr	r3, [r4, #24]
 80053c8:	f023 03f0 	bic.w	r3, r3, #240	; 0xf0
 80053cc:	ea43 1307 	orr.w	r3, r3, r7, lsl #4
 80053d0:	61a3      	str	r3, [r4, #24]
 80053d2:	6221      	str	r1, [r4, #32]
 80053d4:	68a3      	ldr	r3, [r4, #8]
 80053d6:	f023 0370 	bic.w	r3, r3, #112	; 0x70
 80053da:	f043 0357 	orr.w	r3, r3, #87	; 0x57
 80053de:	60a3      	str	r3, [r4, #8]
 80053e0:	2101      	movs	r1, #1
 80053e2:	2300      	movs	r3, #0
 80053e4:	f882 103d 	strb.w	r1, [r2, #61]	; 0x3d
 80053e8:	f882 303c 	strb.w	r3, [r2, #60]	; 0x3c
 80053ec:	bcf0      	pop	{r4, r5, r6, r7}
 80053ee:	4770      	bx	lr
 80053f0:	f5b3 5f80 	cmp.w	r3, #4096	; 0x1000
 80053f4:	d038      	beq.n	8005468 <HAL_TIM_ConfigClockSource+0xf0>
 80053f6:	f5b3 5f00 	cmp.w	r3, #8192	; 0x2000
 80053fa:	d110      	bne.n	800541e <HAL_TIM_ConfigClockSource+0xa6>
 80053fc:	e9d1 5301 	ldrd	r5, r3, [r1, #4]
 8005400:	68c8      	ldr	r0, [r1, #12]
 8005402:	68a1      	ldr	r1, [r4, #8]
 8005404:	432b      	orrs	r3, r5
 8005406:	ea43 2300 	orr.w	r3, r3, r0, lsl #8
 800540a:	f421 417f 	bic.w	r1, r1, #65280	; 0xff00
 800540e:	430b      	orrs	r3, r1
 8005410:	60a3      	str	r3, [r4, #8]
 8005412:	68a3      	ldr	r3, [r4, #8]
 8005414:	2000      	movs	r0, #0
 8005416:	f443 4380 	orr.w	r3, r3, #16384	; 0x4000
 800541a:	60a3      	str	r3, [r4, #8]
 800541c:	e7e0      	b.n	80053e0 <HAL_TIM_ConfigClockSource+0x68>
 800541e:	2b70      	cmp	r3, #112	; 0x70
 8005420:	d1de      	bne.n	80053e0 <HAL_TIM_ConfigClockSource+0x68>
 8005422:	e9d1 5301 	ldrd	r5, r3, [r1, #4]
 8005426:	68c8      	ldr	r0, [r1, #12]
 8005428:	68a1      	ldr	r1, [r4, #8]
 800542a:	432b      	orrs	r3, r5
 800542c:	ea43 2300 	orr.w	r3, r3, r0, lsl #8
 8005430:	f421 417f 	bic.w	r1, r1, #65280	; 0xff00
 8005434:	430b      	orrs	r3, r1
 8005436:	60a3      	str	r3, [r4, #8]
 8005438:	68a3      	ldr	r3, [r4, #8]
 800543a:	2000      	movs	r0, #0
 800543c:	f043 0377 	orr.w	r3, r3, #119	; 0x77
 8005440:	60a3      	str	r3, [r4, #8]
 8005442:	e7cd      	b.n	80053e0 <HAL_TIM_ConfigClockSource+0x68>
 8005444:	2b20      	cmp	r3, #32
 8005446:	d002      	beq.n	800544e <HAL_TIM_ConfigClockSource+0xd6>
 8005448:	d90a      	bls.n	8005460 <HAL_TIM_ConfigClockSource+0xe8>
 800544a:	2b30      	cmp	r3, #48	; 0x30
 800544c:	d1c8      	bne.n	80053e0 <HAL_TIM_ConfigClockSource+0x68>
 800544e:	68a1      	ldr	r1, [r4, #8]
 8005450:	2000      	movs	r0, #0
 8005452:	f021 0170 	bic.w	r1, r1, #112	; 0x70
 8005456:	430b      	orrs	r3, r1
 8005458:	f043 0307 	orr.w	r3, r3, #7
 800545c:	60a3      	str	r3, [r4, #8]
 800545e:	e7bf      	b.n	80053e0 <HAL_TIM_ConfigClockSource+0x68>
 8005460:	f033 0110 	bics.w	r1, r3, #16
 8005464:	d1bc      	bne.n	80053e0 <HAL_TIM_ConfigClockSource+0x68>
 8005466:	e7f2      	b.n	800544e <HAL_TIM_ConfigClockSource+0xd6>
 8005468:	2000      	movs	r0, #0
 800546a:	e7b9      	b.n	80053e0 <HAL_TIM_ConfigClockSource+0x68>
 800546c:	2002      	movs	r0, #2
 800546e:	4770      	bx	lr
 8005470:	6a23      	ldr	r3, [r4, #32]
 8005472:	6a20      	ldr	r0, [r4, #32]
 8005474:	684e      	ldr	r6, [r1, #4]
 8005476:	f020 0010 	bic.w	r0, r0, #16
 800547a:	68cd      	ldr	r5, [r1, #12]
 800547c:	6220      	str	r0, [r4, #32]
 800547e:	69a1      	ldr	r1, [r4, #24]
 8005480:	f023 03a0 	bic.w	r3, r3, #160	; 0xa0
 8005484:	f421 4170 	bic.w	r1, r1, #61440	; 0xf000
 8005488:	ea43 1306 	orr.w	r3, r3, r6, lsl #4
 800548c:	ea41 3105 	orr.w	r1, r1, r5, lsl #12
 8005490:	61a1      	str	r1, [r4, #24]
 8005492:	6223      	str	r3, [r4, #32]
 8005494:	68a3      	ldr	r3, [r4, #8]
 8005496:	2000      	movs	r0, #0
 8005498:	f023 0370 	bic.w	r3, r3, #112	; 0x70
 800549c:	f043 0367 	orr.w	r3, r3, #103	; 0x67
 80054a0:	60a3      	str	r3, [r4, #8]
 80054a2:	e79d      	b.n	80053e0 <HAL_TIM_ConfigClockSource+0x68>
 80054a4:	6a25      	ldr	r5, [r4, #32]
 80054a6:	6a26      	ldr	r6, [r4, #32]
 80054a8:	6848      	ldr	r0, [r1, #4]
 80054aa:	f026 0601 	bic.w	r6, r6, #1
 80054ae:	68cf      	ldr	r7, [r1, #12]
 80054b0:	6226      	str	r6, [r4, #32]
 80054b2:	69a3      	ldr	r3, [r4, #24]
 80054b4:	f025 010a 	bic.w	r1, r5, #10
 80054b8:	f023 03f0 	bic.w	r3, r3, #240	; 0xf0
 80054bc:	4301      	orrs	r1, r0
 80054be:	ea43 1307 	orr.w	r3, r3, r7, lsl #4
 80054c2:	61a3      	str	r3, [r4, #24]
 80054c4:	6221      	str	r1, [r4, #32]
 80054c6:	68a3      	ldr	r3, [r4, #8]
 80054c8:	2000      	movs	r0, #0
 80054ca:	f023 0370 	bic.w	r3, r3, #112	; 0x70
 80054ce:	f043 0347 	orr.w	r3, r3, #71	; 0x47
 80054d2:	60a3      	str	r3, [r4, #8]
 80054d4:	e784      	b.n	80053e0 <HAL_TIM_ConfigClockSource+0x68>
 80054d6:	bf00      	nop

080054d8 <TIM_Base_SetConfig>:
 80054d8:	4a20      	ldr	r2, [pc, #128]	; (800555c <TIM_Base_SetConfig+0x84>)
 80054da:	b430      	push	{r4, r5}
 80054dc:	4290      	cmp	r0, r2
 80054de:	6803      	ldr	r3, [r0, #0]
 80054e0:	d027      	beq.n	8005532 <TIM_Base_SetConfig+0x5a>
 80054e2:	f1b0 4f80 	cmp.w	r0, #1073741824	; 0x40000000
 80054e6:	d01b      	beq.n	8005520 <TIM_Base_SetConfig+0x48>
 80054e8:	f5a2 3294 	sub.w	r2, r2, #75776	; 0x12800
 80054ec:	4290      	cmp	r0, r2
 80054ee:	d017      	beq.n	8005520 <TIM_Base_SetConfig+0x48>
 80054f0:	f502 6280 	add.w	r2, r2, #1024	; 0x400
 80054f4:	4290      	cmp	r0, r2
 80054f6:	d013      	beq.n	8005520 <TIM_Base_SetConfig+0x48>
 80054f8:	694d      	ldr	r5, [r1, #20]
 80054fa:	688c      	ldr	r4, [r1, #8]
 80054fc:	680a      	ldr	r2, [r1, #0]
 80054fe:	f023 0380 	bic.w	r3, r3, #128	; 0x80
 8005502:	432b      	orrs	r3, r5
 8005504:	6003      	str	r3, [r0, #0]
 8005506:	62c4      	str	r4, [r0, #44]	; 0x2c
 8005508:	6282      	str	r2, [r0, #40]	; 0x28
 800550a:	2301      	movs	r3, #1
 800550c:	6143      	str	r3, [r0, #20]
 800550e:	6903      	ldr	r3, [r0, #16]
 8005510:	07db      	lsls	r3, r3, #31
 8005512:	d503      	bpl.n	800551c <TIM_Base_SetConfig+0x44>
 8005514:	6903      	ldr	r3, [r0, #16]
 8005516:	f023 0301 	bic.w	r3, r3, #1
 800551a:	6103      	str	r3, [r0, #16]
 800551c:	bc30      	pop	{r4, r5}
 800551e:	4770      	bx	lr
 8005520:	684a      	ldr	r2, [r1, #4]
 8005522:	f023 0370 	bic.w	r3, r3, #112	; 0x70
 8005526:	4313      	orrs	r3, r2
 8005528:	68ca      	ldr	r2, [r1, #12]
 800552a:	f423 7340 	bic.w	r3, r3, #768	; 0x300
 800552e:	4313      	orrs	r3, r2
 8005530:	e7e2      	b.n	80054f8 <TIM_Base_SetConfig+0x20>
 8005532:	684a      	ldr	r2, [r1, #4]
 8005534:	f023 0370 	bic.w	r3, r3, #112	; 0x70
 8005538:	4313      	orrs	r3, r2
 800553a:	68ca      	ldr	r2, [r1, #12]
 800553c:	f423 7340 	bic.w	r3, r3, #768	; 0x300
 8005540:	4313      	orrs	r3, r2
 8005542:	694a      	ldr	r2, [r1, #20]
 8005544:	f023 0380 	bic.w	r3, r3, #128	; 0x80
 8005548:	4313      	orrs	r3, r2
 800554a:	6003      	str	r3, [r0, #0]
 800554c:	688b      	ldr	r3, [r1, #8]
 800554e:	62c3      	str	r3, [r0, #44]	; 0x2c
 8005550:	680b      	ldr	r3, [r1, #0]
 8005552:	6283      	str	r3, [r0, #40]	; 0x28
 8005554:	690b      	ldr	r3, [r1, #16]
 8005556:	6303      	str	r3, [r0, #48]	; 0x30
 8005558:	e7d7      	b.n	800550a <TIM_Base_SetConfig+0x32>
 800555a:	bf00      	nop
 800555c:	40012c00 	.word	0x40012c00

08005560 <HAL_TIM_Base_Init>:
 8005560:	b350      	cbz	r0, 80055b8 <HAL_TIM_Base_Init+0x58>
 8005562:	b510      	push	{r4, lr}
 8005564:	f890 303d 	ldrb.w	r3, [r0, #61]	; 0x3d
 8005568:	4604      	mov	r4, r0
 800556a:	f003 02ff 	and.w	r2, r3, #255	; 0xff
 800556e:	b1f3      	cbz	r3, 80055ae <HAL_TIM_Base_Init+0x4e>
 8005570:	2302      	movs	r3, #2
 8005572:	4621      	mov	r1, r4
 8005574:	f884 303d 	strb.w	r3, [r4, #61]	; 0x3d
 8005578:	f851 0b04 	ldr.w	r0, [r1], #4
 800557c:	f7ff ffac 	bl	80054d8 <TIM_Base_SetConfig>
 8005580:	2301      	movs	r3, #1
 8005582:	f884 3046 	strb.w	r3, [r4, #70]	; 0x46
 8005586:	f884 303e 	strb.w	r3, [r4, #62]	; 0x3e
 800558a:	f884 303f 	strb.w	r3, [r4, #63]	; 0x3f
 800558e:	f884 3040 	strb.w	r3, [r4, #64]	; 0x40
 8005592:	f884 3041 	strb.w	r3, [r4, #65]	; 0x41
 8005596:	f884 3042 	strb.w	r3, [r4, #66]	; 0x42
 800559a:	f884 3043 	strb.w	r3, [r4, #67]	; 0x43
 800559e:	f884 3044 	strb.w	r3, [r4, #68]	; 0x44
 80055a2:	f884 3045 	strb.w	r3, [r4, #69]	; 0x45
 80055a6:	f884 303d 	strb.w	r3, [r4, #61]	; 0x3d
 80055aa:	2000      	movs	r0, #0
 80055ac:	bd10      	pop	{r4, pc}
 80055ae:	f880 203c 	strb.w	r2, [r0, #60]	; 0x3c
 80055b2:	f7fc ff17 	bl	80023e4 <HAL_TIM_Base_MspInit>
 80055b6:	e7db      	b.n	8005570 <HAL_TIM_Base_Init+0x10>
 80055b8:	2001      	movs	r0, #1
 80055ba:	4770      	bx	lr

080055bc <HAL_TIMEx_MasterConfigSynchronization>:
 80055bc:	f890 303c 	ldrb.w	r3, [r0, #60]	; 0x3c
 80055c0:	2b01      	cmp	r3, #1
 80055c2:	d026      	beq.n	8005612 <HAL_TIMEx_MasterConfigSynchronization+0x56>
 80055c4:	2202      	movs	r2, #2
 80055c6:	6803      	ldr	r3, [r0, #0]
 80055c8:	b430      	push	{r4, r5}
 80055ca:	f880 203d 	strb.w	r2, [r0, #61]	; 0x3d
 80055ce:	685a      	ldr	r2, [r3, #4]
 80055d0:	680c      	ldr	r4, [r1, #0]
 80055d2:	4d11      	ldr	r5, [pc, #68]	; (8005618 <HAL_TIMEx_MasterConfigSynchronization+0x5c>)
 80055d4:	f022 0270 	bic.w	r2, r2, #112	; 0x70
 80055d8:	4322      	orrs	r2, r4
 80055da:	42ab      	cmp	r3, r5
 80055dc:	689c      	ldr	r4, [r3, #8]
 80055de:	605a      	str	r2, [r3, #4]
 80055e0:	d009      	beq.n	80055f6 <HAL_TIMEx_MasterConfigSynchronization+0x3a>
 80055e2:	f1b3 4f80 	cmp.w	r3, #1073741824	; 0x40000000
 80055e6:	d006      	beq.n	80055f6 <HAL_TIMEx_MasterConfigSynchronization+0x3a>
 80055e8:	4a0c      	ldr	r2, [pc, #48]	; (800561c <HAL_TIMEx_MasterConfigSynchronization+0x60>)
 80055ea:	4293      	cmp	r3, r2
 80055ec:	d003      	beq.n	80055f6 <HAL_TIMEx_MasterConfigSynchronization+0x3a>
 80055ee:	f502 6280 	add.w	r2, r2, #1024	; 0x400
 80055f2:	4293      	cmp	r3, r2
 80055f4:	d104      	bne.n	8005600 <HAL_TIMEx_MasterConfigSynchronization+0x44>
 80055f6:	684a      	ldr	r2, [r1, #4]
 80055f8:	f024 0480 	bic.w	r4, r4, #128	; 0x80
 80055fc:	4314      	orrs	r4, r2
 80055fe:	609c      	str	r4, [r3, #8]
 8005600:	2300      	movs	r3, #0
 8005602:	2201      	movs	r2, #1
 8005604:	f880 303c 	strb.w	r3, [r0, #60]	; 0x3c
 8005608:	f880 203d 	strb.w	r2, [r0, #61]	; 0x3d
 800560c:	bc30      	pop	{r4, r5}
 800560e:	4618      	mov	r0, r3
 8005610:	4770      	bx	lr
 8005612:	2002      	movs	r0, #2
 8005614:	4770      	bx	lr
 8005616:	bf00      	nop
 8005618:	40012c00 	.word	0x40012c00
 800561c:	40000400 	.word	0x40000400

08005620 <UART_EndRxTransfer>:
 8005620:	6802      	ldr	r2, [r0, #0]
 8005622:	f102 030c 	add.w	r3, r2, #12
 8005626:	e853 3f00 	ldrex	r3, [r3]
 800562a:	f423 7390 	bic.w	r3, r3, #288	; 0x120
 800562e:	f102 0c0c 	add.w	ip, r2, #12
 8005632:	e84c 3100 	strex	r1, r3, [ip]
 8005636:	2900      	cmp	r1, #0
 8005638:	d1f3      	bne.n	8005622 <UART_EndRxTransfer+0x2>
 800563a:	f102 0314 	add.w	r3, r2, #20
 800563e:	e853 3f00 	ldrex	r3, [r3]
 8005642:	f023 0301 	bic.w	r3, r3, #1
 8005646:	f102 0c14 	add.w	ip, r2, #20
 800564a:	e84c 3100 	strex	r1, r3, [ip]
 800564e:	2900      	cmp	r1, #0
 8005650:	d1f3      	bne.n	800563a <UART_EndRxTransfer+0x1a>
 8005652:	6b03      	ldr	r3, [r0, #48]	; 0x30
 8005654:	2b01      	cmp	r3, #1
 8005656:	d005      	beq.n	8005664 <UART_EndRxTransfer+0x44>
 8005658:	2220      	movs	r2, #32
 800565a:	2300      	movs	r3, #0
 800565c:	f880 2042 	strb.w	r2, [r0, #66]	; 0x42
 8005660:	6303      	str	r3, [r0, #48]	; 0x30
 8005662:	4770      	bx	lr
 8005664:	f102 030c 	add.w	r3, r2, #12
 8005668:	e853 3f00 	ldrex	r3, [r3]
 800566c:	f023 0310 	bic.w	r3, r3, #16
 8005670:	f102 0c0c 	add.w	ip, r2, #12
 8005674:	e84c 3100 	strex	r1, r3, [ip]
 8005678:	2900      	cmp	r1, #0
 800567a:	d1f3      	bne.n	8005664 <UART_EndRxTransfer+0x44>
 800567c:	e7ec      	b.n	8005658 <UART_EndRxTransfer+0x38>
 800567e:	bf00      	nop

08005680 <UART_SetConfig>:
 8005680:	b538      	push	{r3, r4, r5, lr}
 8005682:	4604      	mov	r4, r0
 8005684:	6803      	ldr	r3, [r0, #0]
 8005686:	68c0      	ldr	r0, [r0, #12]
 8005688:	6919      	ldr	r1, [r3, #16]
 800568a:	68a2      	ldr	r2, [r4, #8]
 800568c:	f421 5140 	bic.w	r1, r1, #12288	; 0x3000
 8005690:	4301      	orrs	r1, r0
 8005692:	6119      	str	r1, [r3, #16]
 8005694:	68d9      	ldr	r1, [r3, #12]
 8005696:	e9d4 5004 	ldrd	r5, r0, [r4, #16]
 800569a:	f421 51b0 	bic.w	r1, r1, #5632	; 0x1600
 800569e:	432a      	orrs	r2, r5
 80056a0:	f021 010c 	bic.w	r1, r1, #12
 80056a4:	4302      	orrs	r2, r0
 80056a6:	430a      	orrs	r2, r1
 80056a8:	60da      	str	r2, [r3, #12]
 80056aa:	695a      	ldr	r2, [r3, #20]
 80056ac:	69a0      	ldr	r0, [r4, #24]
 80056ae:	4913      	ldr	r1, [pc, #76]	; (80056fc <UART_SetConfig+0x7c>)
 80056b0:	f422 7240 	bic.w	r2, r2, #768	; 0x300
 80056b4:	4302      	orrs	r2, r0
 80056b6:	428b      	cmp	r3, r1
 80056b8:	615a      	str	r2, [r3, #20]
 80056ba:	d01b      	beq.n	80056f4 <UART_SetConfig+0x74>
 80056bc:	f7ff fd90 	bl	80051e0 <HAL_RCC_GetPCLK1Freq>
 80056c0:	4603      	mov	r3, r0
 80056c2:	6862      	ldr	r2, [r4, #4]
 80056c4:	eb03 0383 	add.w	r3, r3, r3, lsl #2
 80056c8:	0092      	lsls	r2, r2, #2
 80056ca:	eb03 0383 	add.w	r3, r3, r3, lsl #2
 80056ce:	fbb3 f3f2 	udiv	r3, r3, r2
 80056d2:	2264      	movs	r2, #100	; 0x64
 80056d4:	480a      	ldr	r0, [pc, #40]	; (8005700 <UART_SetConfig+0x80>)
 80056d6:	6824      	ldr	r4, [r4, #0]
 80056d8:	fba0 5103 	umull	r5, r1, r0, r3
 80056dc:	0949      	lsrs	r1, r1, #5
 80056de:	fb02 3311 	mls	r3, r2, r1, r3
 80056e2:	011b      	lsls	r3, r3, #4
 80056e4:	3332      	adds	r3, #50	; 0x32
 80056e6:	fba0 2303 	umull	r2, r3, r0, r3
 80056ea:	0109      	lsls	r1, r1, #4
 80056ec:	eb01 1353 	add.w	r3, r1, r3, lsr #5
 80056f0:	60a3      	str	r3, [r4, #8]
 80056f2:	bd38      	pop	{r3, r4, r5, pc}
 80056f4:	f7ff fd84 	bl	8005200 <HAL_RCC_GetPCLK2Freq>
 80056f8:	4603      	mov	r3, r0
 80056fa:	e7e2      	b.n	80056c2 <UART_SetConfig+0x42>
 80056fc:	40013800 	.word	0x40013800
 8005700:	51eb851f 	.word	0x51eb851f

08005704 <UART_WaitOnFlagUntilTimeout.constprop.0>:
 8005704:	e92d 41f0 	stmdb	sp!, {r4, r5, r6, r7, r8, lr}
 8005708:	461d      	mov	r5, r3
 800570a:	4607      	mov	r7, r0
 800570c:	460e      	mov	r6, r1
 800570e:	4690      	mov	r8, r2
 8005710:	6803      	ldr	r3, [r0, #0]
 8005712:	b082      	sub	sp, #8
 8005714:	e001      	b.n	800571a <UART_WaitOnFlagUntilTimeout.constprop.0+0x16>
 8005716:	1c68      	adds	r0, r5, #1
 8005718:	d107      	bne.n	800572a <UART_WaitOnFlagUntilTimeout.constprop.0+0x26>
 800571a:	681c      	ldr	r4, [r3, #0]
 800571c:	ea36 0204 	bics.w	r2, r6, r4
 8005720:	d1f9      	bne.n	8005716 <UART_WaitOnFlagUntilTimeout.constprop.0+0x12>
 8005722:	2000      	movs	r0, #0
 8005724:	b002      	add	sp, #8
 8005726:	e8bd 81f0 	ldmia.w	sp!, {r4, r5, r6, r7, r8, pc}
 800572a:	f7fd fc87 	bl	800303c <HAL_GetTick>
 800572e:	eba0 0008 	sub.w	r0, r0, r8
 8005732:	4285      	cmp	r5, r0
 8005734:	d31b      	bcc.n	800576e <UART_WaitOnFlagUntilTimeout.constprop.0+0x6a>
 8005736:	b1d5      	cbz	r5, 800576e <UART_WaitOnFlagUntilTimeout.constprop.0+0x6a>
 8005738:	683b      	ldr	r3, [r7, #0]
 800573a:	68da      	ldr	r2, [r3, #12]
 800573c:	0751      	lsls	r1, r2, #29
 800573e:	d5ec      	bpl.n	800571a <UART_WaitOnFlagUntilTimeout.constprop.0+0x16>
 8005740:	2e80      	cmp	r6, #128	; 0x80
 8005742:	d0ea      	beq.n	800571a <UART_WaitOnFlagUntilTimeout.constprop.0+0x16>
 8005744:	2e40      	cmp	r6, #64	; 0x40
 8005746:	d0e8      	beq.n	800571a <UART_WaitOnFlagUntilTimeout.constprop.0+0x16>
 8005748:	681a      	ldr	r2, [r3, #0]
 800574a:	0712      	lsls	r2, r2, #28
 800574c:	d5e5      	bpl.n	800571a <UART_WaitOnFlagUntilTimeout.constprop.0+0x16>
 800574e:	2400      	movs	r4, #0
 8005750:	9401      	str	r4, [sp, #4]
 8005752:	681a      	ldr	r2, [r3, #0]
 8005754:	4638      	mov	r0, r7
 8005756:	9201      	str	r2, [sp, #4]
 8005758:	685b      	ldr	r3, [r3, #4]
 800575a:	9301      	str	r3, [sp, #4]
 800575c:	9b01      	ldr	r3, [sp, #4]
 800575e:	f7ff ff5f 	bl	8005620 <UART_EndRxTransfer>
 8005762:	2308      	movs	r3, #8
 8005764:	2001      	movs	r0, #1
 8005766:	f887 4040 	strb.w	r4, [r7, #64]	; 0x40
 800576a:	647b      	str	r3, [r7, #68]	; 0x44
 800576c:	e7da      	b.n	8005724 <UART_WaitOnFlagUntilTimeout.constprop.0+0x20>
 800576e:	2003      	movs	r0, #3
 8005770:	e7d8      	b.n	8005724 <UART_WaitOnFlagUntilTimeout.constprop.0+0x20>
 8005772:	bf00      	nop

08005774 <HAL_UART_Init>:
 8005774:	b368      	cbz	r0, 80057d2 <HAL_UART_Init+0x5e>
 8005776:	b538      	push	{r3, r4, r5, lr}
 8005778:	f890 3041 	ldrb.w	r3, [r0, #65]	; 0x41
 800577c:	4604      	mov	r4, r0
 800577e:	f003 02ff 	and.w	r2, r3, #255	; 0xff
 8005782:	b30b      	cbz	r3, 80057c8 <HAL_UART_Init+0x54>
 8005784:	2324      	movs	r3, #36	; 0x24
 8005786:	6822      	ldr	r2, [r4, #0]
 8005788:	f884 3041 	strb.w	r3, [r4, #65]	; 0x41
 800578c:	68d3      	ldr	r3, [r2, #12]
 800578e:	4620      	mov	r0, r4
 8005790:	f423 5300 	bic.w	r3, r3, #8192	; 0x2000
 8005794:	60d3      	str	r3, [r2, #12]
 8005796:	f7ff ff73 	bl	8005680 <UART_SetConfig>
 800579a:	2520      	movs	r5, #32
 800579c:	2200      	movs	r2, #0
 800579e:	6823      	ldr	r3, [r4, #0]
 80057a0:	4610      	mov	r0, r2
 80057a2:	6919      	ldr	r1, [r3, #16]
 80057a4:	f421 4190 	bic.w	r1, r1, #18432	; 0x4800
 80057a8:	6119      	str	r1, [r3, #16]
 80057aa:	6959      	ldr	r1, [r3, #20]
 80057ac:	f021 012a 	bic.w	r1, r1, #42	; 0x2a
 80057b0:	6159      	str	r1, [r3, #20]
 80057b2:	68d9      	ldr	r1, [r3, #12]
 80057b4:	f441 5100 	orr.w	r1, r1, #8192	; 0x2000
 80057b8:	60d9      	str	r1, [r3, #12]
 80057ba:	6462      	str	r2, [r4, #68]	; 0x44
 80057bc:	f884 5041 	strb.w	r5, [r4, #65]	; 0x41
 80057c0:	f884 5042 	strb.w	r5, [r4, #66]	; 0x42
 80057c4:	6362      	str	r2, [r4, #52]	; 0x34
 80057c6:	bd38      	pop	{r3, r4, r5, pc}
 80057c8:	f880 2040 	strb.w	r2, [r0, #64]	; 0x40
 80057cc:	f7fc fe32 	bl	8002434 <HAL_UART_MspInit>
 80057d0:	e7d8      	b.n	8005784 <HAL_UART_Init+0x10>
 80057d2:	2001      	movs	r0, #1
 80057d4:	4770      	bx	lr
 80057d6:	bf00      	nop

080057d8 <HAL_UART_Transmit>:
 80057d8:	e92d 43f8 	stmdb	sp!, {r3, r4, r5, r6, r7, r8, r9, lr}
 80057dc:	4604      	mov	r4, r0
 80057de:	f890 0041 	ldrb.w	r0, [r0, #65]	; 0x41
 80057e2:	2820      	cmp	r0, #32
 80057e4:	d136      	bne.n	8005854 <HAL_UART_Transmit+0x7c>
 80057e6:	460e      	mov	r6, r1
 80057e8:	b109      	cbz	r1, 80057ee <HAL_UART_Transmit+0x16>
 80057ea:	4615      	mov	r5, r2
 80057ec:	b912      	cbnz	r2, 80057f4 <HAL_UART_Transmit+0x1c>
 80057ee:	2001      	movs	r0, #1
 80057f0:	e8bd 83f8 	ldmia.w	sp!, {r3, r4, r5, r6, r7, r8, r9, pc}
 80057f4:	461f      	mov	r7, r3
 80057f6:	f04f 0800 	mov.w	r8, #0
 80057fa:	2321      	movs	r3, #33	; 0x21
 80057fc:	f8c4 8044 	str.w	r8, [r4, #68]	; 0x44
 8005800:	f884 3041 	strb.w	r3, [r4, #65]	; 0x41
 8005804:	f7fd fc1a 	bl	800303c <HAL_GetTick>
 8005808:	68a3      	ldr	r3, [r4, #8]
 800580a:	4681      	mov	r9, r0
 800580c:	f5b3 5f80 	cmp.w	r3, #4096	; 0x1000
 8005810:	84a5      	strh	r5, [r4, #36]	; 0x24
 8005812:	84e5      	strh	r5, [r4, #38]	; 0x26
 8005814:	d021      	beq.n	800585a <HAL_UART_Transmit+0x82>
 8005816:	8ce3      	ldrh	r3, [r4, #38]	; 0x26
 8005818:	b29b      	uxth	r3, r3
 800581a:	b95b      	cbnz	r3, 8005834 <HAL_UART_Transmit+0x5c>
 800581c:	e023      	b.n	8005866 <HAL_UART_Transmit+0x8e>
 800581e:	6823      	ldr	r3, [r4, #0]
 8005820:	f816 2b01 	ldrb.w	r2, [r6], #1
 8005824:	605a      	str	r2, [r3, #4]
 8005826:	8ce5      	ldrh	r5, [r4, #38]	; 0x26
 8005828:	3d01      	subs	r5, #1
 800582a:	b2ad      	uxth	r5, r5
 800582c:	84e5      	strh	r5, [r4, #38]	; 0x26
 800582e:	8ce1      	ldrh	r1, [r4, #38]	; 0x26
 8005830:	b289      	uxth	r1, r1
 8005832:	b1c1      	cbz	r1, 8005866 <HAL_UART_Transmit+0x8e>
 8005834:	463b      	mov	r3, r7
 8005836:	464a      	mov	r2, r9
 8005838:	2180      	movs	r1, #128	; 0x80
 800583a:	4620      	mov	r0, r4
 800583c:	f7ff ff62 	bl	8005704 <UART_WaitOnFlagUntilTimeout.constprop.0>
 8005840:	b9e0      	cbnz	r0, 800587c <HAL_UART_Transmit+0xa4>
 8005842:	2e00      	cmp	r6, #0
 8005844:	d1eb      	bne.n	800581e <HAL_UART_Transmit+0x46>
 8005846:	f838 3b02 	ldrh.w	r3, [r8], #2
 800584a:	6822      	ldr	r2, [r4, #0]
 800584c:	f3c3 0308 	ubfx	r3, r3, #0, #9
 8005850:	6053      	str	r3, [r2, #4]
 8005852:	e7e8      	b.n	8005826 <HAL_UART_Transmit+0x4e>
 8005854:	2002      	movs	r0, #2
 8005856:	e8bd 83f8 	ldmia.w	sp!, {r3, r4, r5, r6, r7, r8, r9, pc}
 800585a:	6923      	ldr	r3, [r4, #16]
 800585c:	2b00      	cmp	r3, #0
 800585e:	d1da      	bne.n	8005816 <HAL_UART_Transmit+0x3e>
 8005860:	46b0      	mov	r8, r6
 8005862:	461e      	mov	r6, r3
 8005864:	e7d7      	b.n	8005816 <HAL_UART_Transmit+0x3e>
 8005866:	463b      	mov	r3, r7
 8005868:	464a      	mov	r2, r9
 800586a:	2140      	movs	r1, #64	; 0x40
 800586c:	4620      	mov	r0, r4
 800586e:	f7ff ff49 	bl	8005704 <UART_WaitOnFlagUntilTimeout.constprop.0>
 8005872:	2320      	movs	r3, #32
 8005874:	b940      	cbnz	r0, 8005888 <HAL_UART_Transmit+0xb0>
 8005876:	f884 3041 	strb.w	r3, [r4, #65]	; 0x41
 800587a:	e7b9      	b.n	80057f0 <HAL_UART_Transmit+0x18>
 800587c:	2320      	movs	r3, #32
 800587e:	f884 3041 	strb.w	r3, [r4, #65]	; 0x41
 8005882:	2003      	movs	r0, #3
 8005884:	e8bd 83f8 	ldmia.w	sp!, {r3, r4, r5, r6, r7, r8, r9, pc}
 8005888:	2003      	movs	r0, #3
 800588a:	f884 3041 	strb.w	r3, [r4, #65]	; 0x41
 800588e:	e7af      	b.n	80057f0 <HAL_UART_Transmit+0x18>

08005890 <HAL_UART_Receive_IT>:
 8005890:	f890 3042 	ldrb.w	r3, [r0, #66]	; 0x42
 8005894:	2b20      	cmp	r3, #32
 8005896:	d11f      	bne.n	80058d8 <HAL_UART_Receive_IT+0x48>
 8005898:	b101      	cbz	r1, 800589c <HAL_UART_Receive_IT+0xc>
 800589a:	b90a      	cbnz	r2, 80058a0 <HAL_UART_Receive_IT+0x10>
 800589c:	2001      	movs	r0, #1
 800589e:	4770      	bx	lr
 80058a0:	b430      	push	{r4, r5}
 80058a2:	2300      	movs	r3, #0
 80058a4:	2522      	movs	r5, #34	; 0x22
 80058a6:	6904      	ldr	r4, [r0, #16]
 80058a8:	6303      	str	r3, [r0, #48]	; 0x30
 80058aa:	6281      	str	r1, [r0, #40]	; 0x28
 80058ac:	85c2      	strh	r2, [r0, #46]	; 0x2e
 80058ae:	8582      	strh	r2, [r0, #44]	; 0x2c
 80058b0:	6443      	str	r3, [r0, #68]	; 0x44
 80058b2:	6803      	ldr	r3, [r0, #0]
 80058b4:	f880 5042 	strb.w	r5, [r0, #66]	; 0x42
 80058b8:	b11c      	cbz	r4, 80058c2 <HAL_UART_Receive_IT+0x32>
 80058ba:	68da      	ldr	r2, [r3, #12]
 80058bc:	f442 7280 	orr.w	r2, r2, #256	; 0x100
 80058c0:	60da      	str	r2, [r3, #12]
 80058c2:	695a      	ldr	r2, [r3, #20]
 80058c4:	2000      	movs	r0, #0
 80058c6:	bc30      	pop	{r4, r5}
 80058c8:	f042 0201 	orr.w	r2, r2, #1
 80058cc:	615a      	str	r2, [r3, #20]
 80058ce:	68da      	ldr	r2, [r3, #12]
 80058d0:	f042 0220 	orr.w	r2, r2, #32
 80058d4:	60da      	str	r2, [r3, #12]
 80058d6:	4770      	bx	lr
 80058d8:	2002      	movs	r0, #2
 80058da:	4770      	bx	lr

080058dc <HAL_UART_TxCpltCallback>:
 80058dc:	4770      	bx	lr
 80058de:	bf00      	nop

080058e0 <UART_DMAAbortOnError>:
 80058e0:	b508      	push	{r3, lr}
 80058e2:	2300      	movs	r3, #0
 80058e4:	6a40      	ldr	r0, [r0, #36]	; 0x24
 80058e6:	85c3      	strh	r3, [r0, #46]	; 0x2e
 80058e8:	84c3      	strh	r3, [r0, #38]	; 0x26
 80058ea:	f7fc f839 	bl	8001960 <HAL_UART_ErrorCallback>
 80058ee:	bd08      	pop	{r3, pc}

080058f0 <HAL_UARTEx_RxEventCallback>:
 80058f0:	4770      	bx	lr
 80058f2:	bf00      	nop

080058f4 <UART_Receive_IT.part.0>:
 80058f4:	6883      	ldr	r3, [r0, #8]
 80058f6:	f5b3 5f80 	cmp.w	r3, #4096	; 0x1000
 80058fa:	d045      	beq.n	8005988 <UART_Receive_IT.part.0+0x94>
 80058fc:	6a82      	ldr	r2, [r0, #40]	; 0x28
 80058fe:	2b00      	cmp	r3, #0
 8005900:	d039      	beq.n	8005976 <UART_Receive_IT.part.0+0x82>
 8005902:	6803      	ldr	r3, [r0, #0]
 8005904:	685b      	ldr	r3, [r3, #4]
 8005906:	f003 037f 	and.w	r3, r3, #127	; 0x7f
 800590a:	7013      	strb	r3, [r2, #0]
 800590c:	6a83      	ldr	r3, [r0, #40]	; 0x28
 800590e:	3301      	adds	r3, #1
 8005910:	6283      	str	r3, [r0, #40]	; 0x28
 8005912:	8dc3      	ldrh	r3, [r0, #46]	; 0x2e
 8005914:	3b01      	subs	r3, #1
 8005916:	b29b      	uxth	r3, r3
 8005918:	85c3      	strh	r3, [r0, #46]	; 0x2e
 800591a:	2b00      	cmp	r3, #0
 800591c:	d132      	bne.n	8005984 <UART_Receive_IT.part.0+0x90>
 800591e:	b510      	push	{r4, lr}
 8005920:	2420      	movs	r4, #32
 8005922:	6802      	ldr	r2, [r0, #0]
 8005924:	b082      	sub	sp, #8
 8005926:	68d1      	ldr	r1, [r2, #12]
 8005928:	f021 0120 	bic.w	r1, r1, #32
 800592c:	60d1      	str	r1, [r2, #12]
 800592e:	68d1      	ldr	r1, [r2, #12]
 8005930:	f421 7180 	bic.w	r1, r1, #256	; 0x100
 8005934:	60d1      	str	r1, [r2, #12]
 8005936:	6951      	ldr	r1, [r2, #20]
 8005938:	f021 0101 	bic.w	r1, r1, #1
 800593c:	6151      	str	r1, [r2, #20]
 800593e:	f880 4042 	strb.w	r4, [r0, #66]	; 0x42
 8005942:	6343      	str	r3, [r0, #52]	; 0x34
 8005944:	6b01      	ldr	r1, [r0, #48]	; 0x30
 8005946:	2901      	cmp	r1, #1
 8005948:	d129      	bne.n	800599e <UART_Receive_IT.part.0+0xaa>
 800594a:	6303      	str	r3, [r0, #48]	; 0x30
 800594c:	f102 030c 	add.w	r3, r2, #12
 8005950:	e853 3f00 	ldrex	r3, [r3]
 8005954:	f023 0310 	bic.w	r3, r3, #16
 8005958:	f102 040c 	add.w	r4, r2, #12
 800595c:	e844 3100 	strex	r1, r3, [r4]
 8005960:	2900      	cmp	r1, #0
 8005962:	d1f3      	bne.n	800594c <UART_Receive_IT.part.0+0x58>
 8005964:	6813      	ldr	r3, [r2, #0]
 8005966:	06db      	lsls	r3, r3, #27
 8005968:	d423      	bmi.n	80059b2 <UART_Receive_IT.part.0+0xbe>
 800596a:	8d81      	ldrh	r1, [r0, #44]	; 0x2c
 800596c:	f7ff ffc0 	bl	80058f0 <HAL_UARTEx_RxEventCallback>
 8005970:	2000      	movs	r0, #0
 8005972:	b002      	add	sp, #8
 8005974:	bd10      	pop	{r4, pc}
 8005976:	6903      	ldr	r3, [r0, #16]
 8005978:	2b00      	cmp	r3, #0
 800597a:	d1c2      	bne.n	8005902 <UART_Receive_IT.part.0+0xe>
 800597c:	6803      	ldr	r3, [r0, #0]
 800597e:	685b      	ldr	r3, [r3, #4]
 8005980:	7013      	strb	r3, [r2, #0]
 8005982:	e7c3      	b.n	800590c <UART_Receive_IT.part.0+0x18>
 8005984:	2000      	movs	r0, #0
 8005986:	4770      	bx	lr
 8005988:	6903      	ldr	r3, [r0, #16]
 800598a:	b96b      	cbnz	r3, 80059a8 <UART_Receive_IT.part.0+0xb4>
 800598c:	6802      	ldr	r2, [r0, #0]
 800598e:	6a83      	ldr	r3, [r0, #40]	; 0x28
 8005990:	6852      	ldr	r2, [r2, #4]
 8005992:	f3c2 0208 	ubfx	r2, r2, #0, #9
 8005996:	f823 2b02 	strh.w	r2, [r3], #2
 800599a:	6283      	str	r3, [r0, #40]	; 0x28
 800599c:	e7b9      	b.n	8005912 <UART_Receive_IT.part.0+0x1e>
 800599e:	f7fb ffc7 	bl	8001930 <HAL_UART_RxCpltCallback>
 80059a2:	2000      	movs	r0, #0
 80059a4:	b002      	add	sp, #8
 80059a6:	bd10      	pop	{r4, pc}
 80059a8:	6803      	ldr	r3, [r0, #0]
 80059aa:	6a82      	ldr	r2, [r0, #40]	; 0x28
 80059ac:	685b      	ldr	r3, [r3, #4]
 80059ae:	7013      	strb	r3, [r2, #0]
 80059b0:	e7ac      	b.n	800590c <UART_Receive_IT.part.0+0x18>
 80059b2:	9101      	str	r1, [sp, #4]
 80059b4:	6813      	ldr	r3, [r2, #0]
 80059b6:	9301      	str	r3, [sp, #4]
 80059b8:	6853      	ldr	r3, [r2, #4]
 80059ba:	9301      	str	r3, [sp, #4]
 80059bc:	9b01      	ldr	r3, [sp, #4]
 80059be:	e7d4      	b.n	800596a <UART_Receive_IT.part.0+0x76>

080059c0 <HAL_UART_IRQHandler>:
 80059c0:	b570      	push	{r4, r5, r6, lr}
 80059c2:	6803      	ldr	r3, [r0, #0]
 80059c4:	4604      	mov	r4, r0
 80059c6:	681a      	ldr	r2, [r3, #0]
 80059c8:	461d      	mov	r5, r3
 80059ca:	f012 0f0f 	tst.w	r2, #15
 80059ce:	68d9      	ldr	r1, [r3, #12]
 80059d0:	b082      	sub	sp, #8
 80059d2:	695e      	ldr	r6, [r3, #20]
 80059d4:	d16f      	bne.n	8005ab6 <HAL_UART_IRQHandler+0xf6>
 80059d6:	0693      	lsls	r3, r2, #26
 80059d8:	d502      	bpl.n	80059e0 <HAL_UART_IRQHandler+0x20>
 80059da:	068e      	lsls	r6, r1, #26
 80059dc:	f100 80b2 	bmi.w	8005b44 <HAL_UART_IRQHandler+0x184>
 80059e0:	6b23      	ldr	r3, [r4, #48]	; 0x30
 80059e2:	2b01      	cmp	r3, #1
 80059e4:	d00b      	beq.n	80059fe <HAL_UART_IRQHandler+0x3e>
 80059e6:	0616      	lsls	r6, r2, #24
 80059e8:	d502      	bpl.n	80059f0 <HAL_UART_IRQHandler+0x30>
 80059ea:	0608      	lsls	r0, r1, #24
 80059ec:	f100 80b4 	bmi.w	8005b58 <HAL_UART_IRQHandler+0x198>
 80059f0:	0652      	lsls	r2, r2, #25
 80059f2:	d502      	bpl.n	80059fa <HAL_UART_IRQHandler+0x3a>
 80059f4:	064b      	lsls	r3, r1, #25
 80059f6:	f100 80cd 	bmi.w	8005b94 <HAL_UART_IRQHandler+0x1d4>
 80059fa:	b002      	add	sp, #8
 80059fc:	bd70      	pop	{r4, r5, r6, pc}
 80059fe:	06d6      	lsls	r6, r2, #27
 8005a00:	d5f1      	bpl.n	80059e6 <HAL_UART_IRQHandler+0x26>
 8005a02:	06c8      	lsls	r0, r1, #27
 8005a04:	d5ef      	bpl.n	80059e6 <HAL_UART_IRQHandler+0x26>
 8005a06:	2300      	movs	r3, #0
 8005a08:	9301      	str	r3, [sp, #4]
 8005a0a:	682b      	ldr	r3, [r5, #0]
 8005a0c:	9301      	str	r3, [sp, #4]
 8005a0e:	686b      	ldr	r3, [r5, #4]
 8005a10:	9301      	str	r3, [sp, #4]
 8005a12:	9b01      	ldr	r3, [sp, #4]
 8005a14:	696b      	ldr	r3, [r5, #20]
 8005a16:	065b      	lsls	r3, r3, #25
 8005a18:	f140 80ec 	bpl.w	8005bf4 <HAL_UART_IRQHandler+0x234>
 8005a1c:	6be0      	ldr	r0, [r4, #60]	; 0x3c
 8005a1e:	6803      	ldr	r3, [r0, #0]
 8005a20:	685b      	ldr	r3, [r3, #4]
 8005a22:	b29b      	uxth	r3, r3
 8005a24:	2b00      	cmp	r3, #0
 8005a26:	d0e8      	beq.n	80059fa <HAL_UART_IRQHandler+0x3a>
 8005a28:	8da2      	ldrh	r2, [r4, #44]	; 0x2c
 8005a2a:	429a      	cmp	r2, r3
 8005a2c:	d9e5      	bls.n	80059fa <HAL_UART_IRQHandler+0x3a>
 8005a2e:	6981      	ldr	r1, [r0, #24]
 8005a30:	85e3      	strh	r3, [r4, #46]	; 0x2e
 8005a32:	2920      	cmp	r1, #32
 8005a34:	d036      	beq.n	8005aa4 <HAL_UART_IRQHandler+0xe4>
 8005a36:	f105 030c 	add.w	r3, r5, #12
 8005a3a:	e853 3f00 	ldrex	r3, [r3]
 8005a3e:	f423 7380 	bic.w	r3, r3, #256	; 0x100
 8005a42:	f105 010c 	add.w	r1, r5, #12
 8005a46:	e841 3200 	strex	r2, r3, [r1]
 8005a4a:	2a00      	cmp	r2, #0
 8005a4c:	d1f3      	bne.n	8005a36 <HAL_UART_IRQHandler+0x76>
 8005a4e:	f105 0314 	add.w	r3, r5, #20
 8005a52:	e853 3f00 	ldrex	r3, [r3]
 8005a56:	f023 0301 	bic.w	r3, r3, #1
 8005a5a:	f105 0114 	add.w	r1, r5, #20
 8005a5e:	e841 3200 	strex	r2, r3, [r1]
 8005a62:	2a00      	cmp	r2, #0
 8005a64:	d1f3      	bne.n	8005a4e <HAL_UART_IRQHandler+0x8e>
 8005a66:	f105 0314 	add.w	r3, r5, #20
 8005a6a:	e853 3f00 	ldrex	r3, [r3]
 8005a6e:	f023 0340 	bic.w	r3, r3, #64	; 0x40
 8005a72:	f105 0114 	add.w	r1, r5, #20
 8005a76:	e841 3200 	strex	r2, r3, [r1]
 8005a7a:	2a00      	cmp	r2, #0
 8005a7c:	d1f3      	bne.n	8005a66 <HAL_UART_IRQHandler+0xa6>
 8005a7e:	2320      	movs	r3, #32
 8005a80:	f884 3042 	strb.w	r3, [r4, #66]	; 0x42
 8005a84:	6322      	str	r2, [r4, #48]	; 0x30
 8005a86:	f105 030c 	add.w	r3, r5, #12
 8005a8a:	e853 3f00 	ldrex	r3, [r3]
 8005a8e:	f023 0310 	bic.w	r3, r3, #16
 8005a92:	f105 010c 	add.w	r1, r5, #12
 8005a96:	e841 3200 	strex	r2, r3, [r1]
 8005a9a:	2a00      	cmp	r2, #0
 8005a9c:	d1f3      	bne.n	8005a86 <HAL_UART_IRQHandler+0xc6>
 8005a9e:	f7fd fe31 	bl	8003704 <HAL_DMA_Abort>
 8005aa2:	8da2      	ldrh	r2, [r4, #44]	; 0x2c
 8005aa4:	2302      	movs	r3, #2
 8005aa6:	6363      	str	r3, [r4, #52]	; 0x34
 8005aa8:	8de3      	ldrh	r3, [r4, #46]	; 0x2e
 8005aaa:	4620      	mov	r0, r4
 8005aac:	1ad2      	subs	r2, r2, r3
 8005aae:	b291      	uxth	r1, r2
 8005ab0:	f7ff ff1e 	bl	80058f0 <HAL_UARTEx_RxEventCallback>
 8005ab4:	e7a1      	b.n	80059fa <HAL_UART_IRQHandler+0x3a>
 8005ab6:	f006 0601 	and.w	r6, r6, #1
 8005aba:	f401 7090 	and.w	r0, r1, #288	; 0x120
 8005abe:	4330      	orrs	r0, r6
 8005ac0:	d08e      	beq.n	80059e0 <HAL_UART_IRQHandler+0x20>
 8005ac2:	07d0      	lsls	r0, r2, #31
 8005ac4:	d505      	bpl.n	8005ad2 <HAL_UART_IRQHandler+0x112>
 8005ac6:	05cd      	lsls	r5, r1, #23
 8005ac8:	d503      	bpl.n	8005ad2 <HAL_UART_IRQHandler+0x112>
 8005aca:	6c60      	ldr	r0, [r4, #68]	; 0x44
 8005acc:	f040 0001 	orr.w	r0, r0, #1
 8005ad0:	6460      	str	r0, [r4, #68]	; 0x44
 8005ad2:	0750      	lsls	r0, r2, #29
 8005ad4:	d531      	bpl.n	8005b3a <HAL_UART_IRQHandler+0x17a>
 8005ad6:	b14e      	cbz	r6, 8005aec <HAL_UART_IRQHandler+0x12c>
 8005ad8:	6c60      	ldr	r0, [r4, #68]	; 0x44
 8005ada:	0795      	lsls	r5, r2, #30
 8005adc:	f040 0002 	orr.w	r0, r0, #2
 8005ae0:	6460      	str	r0, [r4, #68]	; 0x44
 8005ae2:	d503      	bpl.n	8005aec <HAL_UART_IRQHandler+0x12c>
 8005ae4:	6c60      	ldr	r0, [r4, #68]	; 0x44
 8005ae6:	f040 0004 	orr.w	r0, r0, #4
 8005aea:	6460      	str	r0, [r4, #68]	; 0x44
 8005aec:	0715      	lsls	r5, r2, #28
 8005aee:	d507      	bpl.n	8005b00 <HAL_UART_IRQHandler+0x140>
 8005af0:	f001 0020 	and.w	r0, r1, #32
 8005af4:	4330      	orrs	r0, r6
 8005af6:	d003      	beq.n	8005b00 <HAL_UART_IRQHandler+0x140>
 8005af8:	6c60      	ldr	r0, [r4, #68]	; 0x44
 8005afa:	f040 0008 	orr.w	r0, r0, #8
 8005afe:	6460      	str	r0, [r4, #68]	; 0x44
 8005b00:	6c60      	ldr	r0, [r4, #68]	; 0x44
 8005b02:	2800      	cmp	r0, #0
 8005b04:	f43f af79 	beq.w	80059fa <HAL_UART_IRQHandler+0x3a>
 8005b08:	0690      	lsls	r0, r2, #26
 8005b0a:	d509      	bpl.n	8005b20 <HAL_UART_IRQHandler+0x160>
 8005b0c:	068a      	lsls	r2, r1, #26
 8005b0e:	d507      	bpl.n	8005b20 <HAL_UART_IRQHandler+0x160>
 8005b10:	f894 2042 	ldrb.w	r2, [r4, #66]	; 0x42
 8005b14:	2a22      	cmp	r2, #34	; 0x22
 8005b16:	d103      	bne.n	8005b20 <HAL_UART_IRQHandler+0x160>
 8005b18:	4620      	mov	r0, r4
 8005b1a:	f7ff feeb 	bl	80058f4 <UART_Receive_IT.part.0>
 8005b1e:	6823      	ldr	r3, [r4, #0]
 8005b20:	695b      	ldr	r3, [r3, #20]
 8005b22:	6c65      	ldr	r5, [r4, #68]	; 0x44
 8005b24:	f003 0340 	and.w	r3, r3, #64	; 0x40
 8005b28:	f005 0508 	and.w	r5, r5, #8
 8005b2c:	431d      	orrs	r5, r3
 8005b2e:	4620      	mov	r0, r4
 8005b30:	d13b      	bne.n	8005baa <HAL_UART_IRQHandler+0x1ea>
 8005b32:	f7fb ff15 	bl	8001960 <HAL_UART_ErrorCallback>
 8005b36:	6465      	str	r5, [r4, #68]	; 0x44
 8005b38:	e75f      	b.n	80059fa <HAL_UART_IRQHandler+0x3a>
 8005b3a:	0790      	lsls	r0, r2, #30
 8005b3c:	d5d6      	bpl.n	8005aec <HAL_UART_IRQHandler+0x12c>
 8005b3e:	2e00      	cmp	r6, #0
 8005b40:	d0d4      	beq.n	8005aec <HAL_UART_IRQHandler+0x12c>
 8005b42:	e7cf      	b.n	8005ae4 <HAL_UART_IRQHandler+0x124>
 8005b44:	f890 3042 	ldrb.w	r3, [r0, #66]	; 0x42
 8005b48:	2b22      	cmp	r3, #34	; 0x22
 8005b4a:	f47f af56 	bne.w	80059fa <HAL_UART_IRQHandler+0x3a>
 8005b4e:	b002      	add	sp, #8
 8005b50:	e8bd 4070 	ldmia.w	sp!, {r4, r5, r6, lr}
 8005b54:	f7ff bece 	b.w	80058f4 <UART_Receive_IT.part.0>
 8005b58:	f894 3041 	ldrb.w	r3, [r4, #65]	; 0x41
 8005b5c:	2b21      	cmp	r3, #33	; 0x21
 8005b5e:	f47f af4c 	bne.w	80059fa <HAL_UART_IRQHandler+0x3a>
 8005b62:	68a3      	ldr	r3, [r4, #8]
 8005b64:	f5b3 5f80 	cmp.w	r3, #4096	; 0x1000
 8005b68:	d07f      	beq.n	8005c6a <HAL_UART_IRQHandler+0x2aa>
 8005b6a:	6a23      	ldr	r3, [r4, #32]
 8005b6c:	1c5a      	adds	r2, r3, #1
 8005b6e:	6222      	str	r2, [r4, #32]
 8005b70:	781b      	ldrb	r3, [r3, #0]
 8005b72:	606b      	str	r3, [r5, #4]
 8005b74:	8ce3      	ldrh	r3, [r4, #38]	; 0x26
 8005b76:	3b01      	subs	r3, #1
 8005b78:	b29b      	uxth	r3, r3
 8005b7a:	84e3      	strh	r3, [r4, #38]	; 0x26
 8005b7c:	2b00      	cmp	r3, #0
 8005b7e:	f47f af3c 	bne.w	80059fa <HAL_UART_IRQHandler+0x3a>
 8005b82:	68eb      	ldr	r3, [r5, #12]
 8005b84:	f023 0380 	bic.w	r3, r3, #128	; 0x80
 8005b88:	60eb      	str	r3, [r5, #12]
 8005b8a:	68eb      	ldr	r3, [r5, #12]
 8005b8c:	f043 0340 	orr.w	r3, r3, #64	; 0x40
 8005b90:	60eb      	str	r3, [r5, #12]
 8005b92:	e732      	b.n	80059fa <HAL_UART_IRQHandler+0x3a>
 8005b94:	2220      	movs	r2, #32
 8005b96:	68eb      	ldr	r3, [r5, #12]
 8005b98:	4620      	mov	r0, r4
 8005b9a:	f023 0340 	bic.w	r3, r3, #64	; 0x40
 8005b9e:	60eb      	str	r3, [r5, #12]
 8005ba0:	f884 2041 	strb.w	r2, [r4, #65]	; 0x41
 8005ba4:	f7ff fe9a 	bl	80058dc <HAL_UART_TxCpltCallback>
 8005ba8:	e727      	b.n	80059fa <HAL_UART_IRQHandler+0x3a>
 8005baa:	f7ff fd39 	bl	8005620 <UART_EndRxTransfer>
 8005bae:	6825      	ldr	r5, [r4, #0]
 8005bb0:	696b      	ldr	r3, [r5, #20]
 8005bb2:	065b      	lsls	r3, r3, #25
 8005bb4:	d51a      	bpl.n	8005bec <HAL_UART_IRQHandler+0x22c>
 8005bb6:	f105 0314 	add.w	r3, r5, #20
 8005bba:	e853 3f00 	ldrex	r3, [r3]
 8005bbe:	f023 0340 	bic.w	r3, r3, #64	; 0x40
 8005bc2:	f105 0114 	add.w	r1, r5, #20
 8005bc6:	e841 3200 	strex	r2, r3, [r1]
 8005bca:	2a00      	cmp	r2, #0
 8005bcc:	d1f3      	bne.n	8005bb6 <HAL_UART_IRQHandler+0x1f6>
 8005bce:	6be0      	ldr	r0, [r4, #60]	; 0x3c
 8005bd0:	b160      	cbz	r0, 8005bec <HAL_UART_IRQHandler+0x22c>
 8005bd2:	4b2c      	ldr	r3, [pc, #176]	; (8005c84 <HAL_UART_IRQHandler+0x2c4>)
 8005bd4:	6343      	str	r3, [r0, #52]	; 0x34
 8005bd6:	f7fd fdb9 	bl	800374c <HAL_DMA_Abort_IT>
 8005bda:	2800      	cmp	r0, #0
 8005bdc:	f43f af0d 	beq.w	80059fa <HAL_UART_IRQHandler+0x3a>
 8005be0:	6be0      	ldr	r0, [r4, #60]	; 0x3c
 8005be2:	6b43      	ldr	r3, [r0, #52]	; 0x34
 8005be4:	b002      	add	sp, #8
 8005be6:	e8bd 4070 	ldmia.w	sp!, {r4, r5, r6, lr}
 8005bea:	4718      	bx	r3
 8005bec:	4620      	mov	r0, r4
 8005bee:	f7fb feb7 	bl	8001960 <HAL_UART_ErrorCallback>
 8005bf2:	e702      	b.n	80059fa <HAL_UART_IRQHandler+0x3a>
 8005bf4:	8de2      	ldrh	r2, [r4, #46]	; 0x2e
 8005bf6:	8de3      	ldrh	r3, [r4, #46]	; 0x2e
 8005bf8:	b292      	uxth	r2, r2
 8005bfa:	b29b      	uxth	r3, r3
 8005bfc:	2b00      	cmp	r3, #0
 8005bfe:	f43f aefc 	beq.w	80059fa <HAL_UART_IRQHandler+0x3a>
 8005c02:	8da1      	ldrh	r1, [r4, #44]	; 0x2c
 8005c04:	1a8a      	subs	r2, r1, r2
 8005c06:	b291      	uxth	r1, r2
 8005c08:	2900      	cmp	r1, #0
 8005c0a:	f43f aef6 	beq.w	80059fa <HAL_UART_IRQHandler+0x3a>
 8005c0e:	f105 030c 	add.w	r3, r5, #12
 8005c12:	e853 3f00 	ldrex	r3, [r3]
 8005c16:	f423 7390 	bic.w	r3, r3, #288	; 0x120
 8005c1a:	f105 000c 	add.w	r0, r5, #12
 8005c1e:	e840 3200 	strex	r2, r3, [r0]
 8005c22:	2a00      	cmp	r2, #0
 8005c24:	d1f3      	bne.n	8005c0e <HAL_UART_IRQHandler+0x24e>
 8005c26:	f105 0314 	add.w	r3, r5, #20
 8005c2a:	e853 3f00 	ldrex	r3, [r3]
 8005c2e:	f023 0301 	bic.w	r3, r3, #1
 8005c32:	f105 0014 	add.w	r0, r5, #20
 8005c36:	e840 3200 	strex	r2, r3, [r0]
 8005c3a:	2a00      	cmp	r2, #0
 8005c3c:	d1f3      	bne.n	8005c26 <HAL_UART_IRQHandler+0x266>
 8005c3e:	2320      	movs	r3, #32
 8005c40:	f884 3042 	strb.w	r3, [r4, #66]	; 0x42
 8005c44:	6322      	str	r2, [r4, #48]	; 0x30
 8005c46:	f105 030c 	add.w	r3, r5, #12
 8005c4a:	e853 3f00 	ldrex	r3, [r3]
 8005c4e:	f023 0310 	bic.w	r3, r3, #16
 8005c52:	f105 000c 	add.w	r0, r5, #12
 8005c56:	e840 3200 	strex	r2, r3, [r0]
 8005c5a:	2a00      	cmp	r2, #0
 8005c5c:	d1f3      	bne.n	8005c46 <HAL_UART_IRQHandler+0x286>
 8005c5e:	2302      	movs	r3, #2
 8005c60:	4620      	mov	r0, r4
 8005c62:	6363      	str	r3, [r4, #52]	; 0x34
 8005c64:	f7ff fe44 	bl	80058f0 <HAL_UARTEx_RxEventCallback>
 8005c68:	e6c7      	b.n	80059fa <HAL_UART_IRQHandler+0x3a>
 8005c6a:	6923      	ldr	r3, [r4, #16]
 8005c6c:	2b00      	cmp	r3, #0
 8005c6e:	f47f af7c 	bne.w	8005b6a <HAL_UART_IRQHandler+0x1aa>
 8005c72:	6a23      	ldr	r3, [r4, #32]
 8005c74:	f833 2b02 	ldrh.w	r2, [r3], #2
 8005c78:	f3c2 0208 	ubfx	r2, r2, #0, #9
 8005c7c:	606a      	str	r2, [r5, #4]
 8005c7e:	6223      	str	r3, [r4, #32]
 8005c80:	e778      	b.n	8005b74 <HAL_UART_IRQHandler+0x1b4>
 8005c82:	bf00      	nop
 8005c84:	080058e1 	.word	0x080058e1

08005c88 <USB_CoreInit>:
 8005c88:	b084      	sub	sp, #16
 8005c8a:	a804      	add	r0, sp, #16
 8005c8c:	e900 000e 	stmdb	r0, {r1, r2, r3}
 8005c90:	2000      	movs	r0, #0
 8005c92:	b004      	add	sp, #16
 8005c94:	4770      	bx	lr
 8005c96:	bf00      	nop

08005c98 <USB_EnableGlobalInt>:
 8005c98:	4603      	mov	r3, r0
 8005c9a:	f44f 423f 	mov.w	r2, #48896	; 0xbf00
 8005c9e:	2000      	movs	r0, #0
 8005ca0:	f8a3 0044 	strh.w	r0, [r3, #68]	; 0x44
 8005ca4:	f8a3 2040 	strh.w	r2, [r3, #64]	; 0x40
 8005ca8:	4770      	bx	lr
 8005caa:	bf00      	nop

08005cac <USB_DisableGlobalInt>:
 8005cac:	f244 02ff 	movw	r2, #16639	; 0x40ff
 8005cb0:	4603      	mov	r3, r0
 8005cb2:	f8b0 1040 	ldrh.w	r1, [r0, #64]	; 0x40
 8005cb6:	2000      	movs	r0, #0
 8005cb8:	400a      	ands	r2, r1
 8005cba:	f8a3 2040 	strh.w	r2, [r3, #64]	; 0x40
 8005cbe:	4770      	bx	lr

08005cc0 <USB_SetCurrentMode>:
 8005cc0:	2000      	movs	r0, #0
 8005cc2:	4770      	bx	lr

08005cc4 <USB_DevInit>:
 8005cc4:	b430      	push	{r4, r5}
 8005cc6:	4604      	mov	r4, r0
 8005cc8:	2501      	movs	r5, #1
 8005cca:	2000      	movs	r0, #0
 8005ccc:	b084      	sub	sp, #16
 8005cce:	f10d 0c10 	add.w	ip, sp, #16
 8005cd2:	e90c 000e 	stmdb	ip, {r1, r2, r3}
 8005cd6:	f8a4 5040 	strh.w	r5, [r4, #64]	; 0x40
 8005cda:	f8a4 0040 	strh.w	r0, [r4, #64]	; 0x40
 8005cde:	f8a4 0044 	strh.w	r0, [r4, #68]	; 0x44
 8005ce2:	f8a4 0050 	strh.w	r0, [r4, #80]	; 0x50
 8005ce6:	b004      	add	sp, #16
 8005ce8:	bc30      	pop	{r4, r5}
 8005cea:	4770      	bx	lr

08005cec <USB_ActivateEndpoint>:
 8005cec:	4603      	mov	r3, r0
 8005cee:	b4f0      	push	{r4, r5, r6, r7}
 8005cf0:	780c      	ldrb	r4, [r1, #0]
 8005cf2:	78c8      	ldrb	r0, [r1, #3]
 8005cf4:	f833 2024 	ldrh.w	r2, [r3, r4, lsl #2]
 8005cf8:	f422 42ec 	bic.w	r2, r2, #30208	; 0x7600
 8005cfc:	f022 0270 	bic.w	r2, r2, #112	; 0x70
 8005d00:	0412      	lsls	r2, r2, #16
 8005d02:	0c12      	lsrs	r2, r2, #16
 8005d04:	2803      	cmp	r0, #3
 8005d06:	f200 8199 	bhi.w	800603c <USB_ActivateEndpoint+0x350>
 8005d0a:	e8df f000 	tbb	[pc, r0]
 8005d0e:	4347      	.short	0x4347
 8005d10:	0204      	.short	0x0204
 8005d12:	f442 62c0 	orr.w	r2, r2, #1536	; 0x600
 8005d16:	2000      	movs	r0, #0
 8005d18:	f248 0580 	movw	r5, #32896	; 0x8080
 8005d1c:	432a      	orrs	r2, r5
 8005d1e:	f823 2024 	strh.w	r2, [r3, r4, lsl #2]
 8005d22:	780c      	ldrb	r4, [r1, #0]
 8005d24:	4ec6      	ldr	r6, [pc, #792]	; (8006040 <USB_ActivateEndpoint+0x354>)
 8005d26:	f833 2024 	ldrh.w	r2, [r3, r4, lsl #2]
 8005d2a:	b292      	uxth	r2, r2
 8005d2c:	4032      	ands	r2, r6
 8005d2e:	4322      	orrs	r2, r4
 8005d30:	432a      	orrs	r2, r5
 8005d32:	f823 2024 	strh.w	r2, [r3, r4, lsl #2]
 8005d36:	7b0a      	ldrb	r2, [r1, #12]
 8005d38:	bb9a      	cbnz	r2, 8005da2 <USB_ActivateEndpoint+0xb6>
 8005d3a:	784a      	ldrb	r2, [r1, #1]
 8005d3c:	2a00      	cmp	r2, #0
 8005d3e:	f000 80ee 	beq.w	8005f1e <USB_ActivateEndpoint+0x232>
 8005d42:	780a      	ldrb	r2, [r1, #0]
 8005d44:	88cc      	ldrh	r4, [r1, #6]
 8005d46:	f8b3 5050 	ldrh.w	r5, [r3, #80]	; 0x50
 8005d4a:	eb03 1202 	add.w	r2, r3, r2, lsl #4
 8005d4e:	0864      	lsrs	r4, r4, #1
 8005d50:	f502 6280 	add.w	r2, r2, #1024	; 0x400
 8005d54:	0064      	lsls	r4, r4, #1
 8005d56:	b2ad      	uxth	r5, r5
 8005d58:	5354      	strh	r4, [r2, r5]
 8005d5a:	780c      	ldrb	r4, [r1, #0]
 8005d5c:	f833 5024 	ldrh.w	r5, [r3, r4, lsl #2]
 8005d60:	eb03 0284 	add.w	r2, r3, r4, lsl #2
 8005d64:	066f      	lsls	r7, r5, #25
 8005d66:	f100 8135 	bmi.w	8005fd4 <USB_ActivateEndpoint+0x2e8>
 8005d6a:	bcf0      	pop	{r4, r5, r6, r7}
 8005d6c:	78cb      	ldrb	r3, [r1, #3]
 8005d6e:	2b01      	cmp	r3, #1
 8005d70:	8813      	ldrh	r3, [r2, #0]
 8005d72:	f423 43e0 	bic.w	r3, r3, #28672	; 0x7000
 8005d76:	f023 0340 	bic.w	r3, r3, #64	; 0x40
 8005d7a:	ea4f 4303 	mov.w	r3, r3, lsl #16
 8005d7e:	ea4f 4313 	mov.w	r3, r3, lsr #16
 8005d82:	bf18      	it	ne
 8005d84:	f083 0320 	eorne.w	r3, r3, #32
 8005d88:	f443 4300 	orr.w	r3, r3, #32768	; 0x8000
 8005d8c:	f043 0380 	orr.w	r3, r3, #128	; 0x80
 8005d90:	8013      	strh	r3, [r2, #0]
 8005d92:	4770      	bx	lr
 8005d94:	2000      	movs	r0, #0
 8005d96:	f442 6280 	orr.w	r2, r2, #1024	; 0x400
 8005d9a:	e7bd      	b.n	8005d18 <USB_ActivateEndpoint+0x2c>
 8005d9c:	f442 7200 	orr.w	r2, r2, #512	; 0x200
 8005da0:	e7ba      	b.n	8005d18 <USB_ActivateEndpoint+0x2c>
 8005da2:	78ca      	ldrb	r2, [r1, #3]
 8005da4:	780c      	ldrb	r4, [r1, #0]
 8005da6:	2a02      	cmp	r2, #2
 8005da8:	f833 2024 	ldrh.w	r2, [r3, r4, lsl #2]
 8005dac:	f000 8120 	beq.w	8005ff0 <USB_ActivateEndpoint+0x304>
 8005db0:	f422 42e2 	bic.w	r2, r2, #28928	; 0x7100
 8005db4:	f022 0270 	bic.w	r2, r2, #112	; 0x70
 8005db8:	0412      	lsls	r2, r2, #16
 8005dba:	0c12      	lsrs	r2, r2, #16
 8005dbc:	4315      	orrs	r5, r2
 8005dbe:	f823 5024 	strh.w	r5, [r3, r4, lsl #2]
 8005dc2:	780a      	ldrb	r2, [r1, #0]
 8005dc4:	890c      	ldrh	r4, [r1, #8]
 8005dc6:	f8b3 5050 	ldrh.w	r5, [r3, #80]	; 0x50
 8005dca:	eb03 1202 	add.w	r2, r3, r2, lsl #4
 8005dce:	0864      	lsrs	r4, r4, #1
 8005dd0:	f502 6280 	add.w	r2, r2, #1024	; 0x400
 8005dd4:	0064      	lsls	r4, r4, #1
 8005dd6:	b2ad      	uxth	r5, r5
 8005dd8:	5354      	strh	r4, [r2, r5]
 8005dda:	780a      	ldrb	r2, [r1, #0]
 8005ddc:	894c      	ldrh	r4, [r1, #10]
 8005dde:	f8b3 5050 	ldrh.w	r5, [r3, #80]	; 0x50
 8005de2:	eb03 1202 	add.w	r2, r3, r2, lsl #4
 8005de6:	0864      	lsrs	r4, r4, #1
 8005de8:	f502 6281 	add.w	r2, r2, #1032	; 0x408
 8005dec:	0064      	lsls	r4, r4, #1
 8005dee:	b2ad      	uxth	r5, r5
 8005df0:	5354      	strh	r4, [r2, r5]
 8005df2:	784a      	ldrb	r2, [r1, #1]
 8005df4:	2a00      	cmp	r2, #0
 8005df6:	d144      	bne.n	8005e82 <USB_ActivateEndpoint+0x196>
 8005df8:	780c      	ldrb	r4, [r1, #0]
 8005dfa:	f833 2024 	ldrh.w	r2, [r3, r4, lsl #2]
 8005dfe:	eb03 0584 	add.w	r5, r3, r4, lsl #2
 8005e02:	0452      	lsls	r2, r2, #17
 8005e04:	d510      	bpl.n	8005e28 <USB_ActivateEndpoint+0x13c>
 8005e06:	f833 2024 	ldrh.w	r2, [r3, r4, lsl #2]
 8005e0a:	f422 42e0 	bic.w	r2, r2, #28672	; 0x7000
 8005e0e:	f022 0270 	bic.w	r2, r2, #112	; 0x70
 8005e12:	0412      	lsls	r2, r2, #16
 8005e14:	0c12      	lsrs	r2, r2, #16
 8005e16:	f442 4240 	orr.w	r2, r2, #49152	; 0xc000
 8005e1a:	f042 0280 	orr.w	r2, r2, #128	; 0x80
 8005e1e:	f823 2024 	strh.w	r2, [r3, r4, lsl #2]
 8005e22:	780d      	ldrb	r5, [r1, #0]
 8005e24:	eb03 0585 	add.w	r5, r3, r5, lsl #2
 8005e28:	882a      	ldrh	r2, [r5, #0]
 8005e2a:	0657      	lsls	r7, r2, #25
 8005e2c:	d50e      	bpl.n	8005e4c <USB_ActivateEndpoint+0x160>
 8005e2e:	882a      	ldrh	r2, [r5, #0]
 8005e30:	f422 42e0 	bic.w	r2, r2, #28672	; 0x7000
 8005e34:	f022 0270 	bic.w	r2, r2, #112	; 0x70
 8005e38:	0412      	lsls	r2, r2, #16
 8005e3a:	0c12      	lsrs	r2, r2, #16
 8005e3c:	f442 4200 	orr.w	r2, r2, #32768	; 0x8000
 8005e40:	f042 02c0 	orr.w	r2, r2, #192	; 0xc0
 8005e44:	802a      	strh	r2, [r5, #0]
 8005e46:	780d      	ldrb	r5, [r1, #0]
 8005e48:	eb03 0585 	add.w	r5, r3, r5, lsl #2
 8005e4c:	f248 0480 	movw	r4, #32896	; 0x8080
 8005e50:	882a      	ldrh	r2, [r5, #0]
 8005e52:	f422 4280 	bic.w	r2, r2, #16384	; 0x4000
 8005e56:	f022 0270 	bic.w	r2, r2, #112	; 0x70
 8005e5a:	0412      	lsls	r2, r2, #16
 8005e5c:	0c12      	lsrs	r2, r2, #16
 8005e5e:	f482 5240 	eor.w	r2, r2, #12288	; 0x3000
 8005e62:	4322      	orrs	r2, r4
 8005e64:	802a      	strh	r2, [r5, #0]
 8005e66:	7809      	ldrb	r1, [r1, #0]
 8005e68:	f833 2021 	ldrh.w	r2, [r3, r1, lsl #2]
 8005e6c:	f422 42e0 	bic.w	r2, r2, #28672	; 0x7000
 8005e70:	f022 0240 	bic.w	r2, r2, #64	; 0x40
 8005e74:	0412      	lsls	r2, r2, #16
 8005e76:	0c12      	lsrs	r2, r2, #16
 8005e78:	4322      	orrs	r2, r4
 8005e7a:	f823 2021 	strh.w	r2, [r3, r1, lsl #2]
 8005e7e:	bcf0      	pop	{r4, r5, r6, r7}
 8005e80:	4770      	bx	lr
 8005e82:	780d      	ldrb	r5, [r1, #0]
 8005e84:	f833 2025 	ldrh.w	r2, [r3, r5, lsl #2]
 8005e88:	eb03 0485 	add.w	r4, r3, r5, lsl #2
 8005e8c:	0456      	lsls	r6, r2, #17
 8005e8e:	d510      	bpl.n	8005eb2 <USB_ActivateEndpoint+0x1c6>
 8005e90:	f833 2025 	ldrh.w	r2, [r3, r5, lsl #2]
 8005e94:	f422 42e0 	bic.w	r2, r2, #28672	; 0x7000
 8005e98:	f022 0270 	bic.w	r2, r2, #112	; 0x70
 8005e9c:	0412      	lsls	r2, r2, #16
 8005e9e:	0c12      	lsrs	r2, r2, #16
 8005ea0:	f442 4240 	orr.w	r2, r2, #49152	; 0xc000
 8005ea4:	f042 0280 	orr.w	r2, r2, #128	; 0x80
 8005ea8:	f823 2025 	strh.w	r2, [r3, r5, lsl #2]
 8005eac:	780c      	ldrb	r4, [r1, #0]
 8005eae:	eb03 0484 	add.w	r4, r3, r4, lsl #2
 8005eb2:	8822      	ldrh	r2, [r4, #0]
 8005eb4:	0652      	lsls	r2, r2, #25
 8005eb6:	d50e      	bpl.n	8005ed6 <USB_ActivateEndpoint+0x1ea>
 8005eb8:	8822      	ldrh	r2, [r4, #0]
 8005eba:	f422 42e0 	bic.w	r2, r2, #28672	; 0x7000
 8005ebe:	f022 0270 	bic.w	r2, r2, #112	; 0x70
 8005ec2:	0412      	lsls	r2, r2, #16
 8005ec4:	0c12      	lsrs	r2, r2, #16
 8005ec6:	f442 4200 	orr.w	r2, r2, #32768	; 0x8000
 8005eca:	f042 02c0 	orr.w	r2, r2, #192	; 0xc0
 8005ece:	8022      	strh	r2, [r4, #0]
 8005ed0:	780c      	ldrb	r4, [r1, #0]
 8005ed2:	eb03 0484 	add.w	r4, r3, r4, lsl #2
 8005ed6:	78ca      	ldrb	r2, [r1, #3]
 8005ed8:	2a01      	cmp	r2, #1
 8005eda:	8822      	ldrh	r2, [r4, #0]
 8005edc:	f422 42e0 	bic.w	r2, r2, #28672	; 0x7000
 8005ee0:	f022 0240 	bic.w	r2, r2, #64	; 0x40
 8005ee4:	ea4f 4202 	mov.w	r2, r2, lsl #16
 8005ee8:	ea4f 4212 	mov.w	r2, r2, lsr #16
 8005eec:	bf18      	it	ne
 8005eee:	f082 0220 	eorne.w	r2, r2, #32
 8005ef2:	f442 4200 	orr.w	r2, r2, #32768	; 0x8000
 8005ef6:	f042 0280 	orr.w	r2, r2, #128	; 0x80
 8005efa:	8022      	strh	r2, [r4, #0]
 8005efc:	7809      	ldrb	r1, [r1, #0]
 8005efe:	bcf0      	pop	{r4, r5, r6, r7}
 8005f00:	f833 2021 	ldrh.w	r2, [r3, r1, lsl #2]
 8005f04:	f422 4280 	bic.w	r2, r2, #16384	; 0x4000
 8005f08:	f022 0270 	bic.w	r2, r2, #112	; 0x70
 8005f0c:	0412      	lsls	r2, r2, #16
 8005f0e:	0c12      	lsrs	r2, r2, #16
 8005f10:	f442 4200 	orr.w	r2, r2, #32768	; 0x8000
 8005f14:	f042 0280 	orr.w	r2, r2, #128	; 0x80
 8005f18:	f823 2021 	strh.w	r2, [r3, r1, lsl #2]
 8005f1c:	4770      	bx	lr
 8005f1e:	780a      	ldrb	r2, [r1, #0]
 8005f20:	88cc      	ldrh	r4, [r1, #6]
 8005f22:	f8b3 5050 	ldrh.w	r5, [r3, #80]	; 0x50
 8005f26:	eb03 1202 	add.w	r2, r3, r2, lsl #4
 8005f2a:	0864      	lsrs	r4, r4, #1
 8005f2c:	f502 6281 	add.w	r2, r2, #1032	; 0x408
 8005f30:	0064      	lsls	r4, r4, #1
 8005f32:	b2ad      	uxth	r5, r5
 8005f34:	5354      	strh	r4, [r2, r5]
 8005f36:	780a      	ldrb	r2, [r1, #0]
 8005f38:	f8b3 4050 	ldrh.w	r4, [r3, #80]	; 0x50
 8005f3c:	eb03 1202 	add.w	r2, r3, r2, lsl #4
 8005f40:	f202 420c 	addw	r2, r2, #1036	; 0x40c
 8005f44:	b2a4      	uxth	r4, r4
 8005f46:	5b15      	ldrh	r5, [r2, r4]
 8005f48:	690e      	ldr	r6, [r1, #16]
 8005f4a:	f3c5 0509 	ubfx	r5, r5, #0, #10
 8005f4e:	2e3e      	cmp	r6, #62	; 0x3e
 8005f50:	5315      	strh	r5, [r2, r4]
 8005f52:	d82e      	bhi.n	8005fb2 <USB_ActivateEndpoint+0x2c6>
 8005f54:	2e00      	cmp	r6, #0
 8005f56:	d166      	bne.n	8006026 <USB_ActivateEndpoint+0x33a>
 8005f58:	5b15      	ldrh	r5, [r2, r4]
 8005f5a:	ea6f 4545 	mvn.w	r5, r5, lsl #17
 8005f5e:	ea6f 4555 	mvn.w	r5, r5, lsr #17
 8005f62:	b2ad      	uxth	r5, r5
 8005f64:	5315      	strh	r5, [r2, r4]
 8005f66:	780c      	ldrb	r4, [r1, #0]
 8005f68:	f833 2024 	ldrh.w	r2, [r3, r4, lsl #2]
 8005f6c:	0455      	lsls	r5, r2, #17
 8005f6e:	d50e      	bpl.n	8005f8e <USB_ActivateEndpoint+0x2a2>
 8005f70:	f833 2024 	ldrh.w	r2, [r3, r4, lsl #2]
 8005f74:	f422 42e0 	bic.w	r2, r2, #28672	; 0x7000
 8005f78:	f022 0270 	bic.w	r2, r2, #112	; 0x70
 8005f7c:	0412      	lsls	r2, r2, #16
 8005f7e:	0c12      	lsrs	r2, r2, #16
 8005f80:	f442 4240 	orr.w	r2, r2, #49152	; 0xc000
 8005f84:	f042 0280 	orr.w	r2, r2, #128	; 0x80
 8005f88:	f823 2024 	strh.w	r2, [r3, r4, lsl #2]
 8005f8c:	780c      	ldrb	r4, [r1, #0]
 8005f8e:	2c00      	cmp	r4, #0
 8005f90:	d137      	bne.n	8006002 <USB_ActivateEndpoint+0x316>
 8005f92:	bcf0      	pop	{r4, r5, r6, r7}
 8005f94:	881a      	ldrh	r2, [r3, #0]
 8005f96:	f422 4280 	bic.w	r2, r2, #16384	; 0x4000
 8005f9a:	f022 0270 	bic.w	r2, r2, #112	; 0x70
 8005f9e:	0412      	lsls	r2, r2, #16
 8005fa0:	0c12      	lsrs	r2, r2, #16
 8005fa2:	f482 5240 	eor.w	r2, r2, #12288	; 0x3000
 8005fa6:	f442 4200 	orr.w	r2, r2, #32768	; 0x8000
 8005faa:	f042 0280 	orr.w	r2, r2, #128	; 0x80
 8005fae:	801a      	strh	r2, [r3, #0]
 8005fb0:	4770      	bx	lr
 8005fb2:	06f5      	lsls	r5, r6, #27
 8005fb4:	5b15      	ldrh	r5, [r2, r4]
 8005fb6:	ea4f 1756 	mov.w	r7, r6, lsr #5
 8005fba:	bf08      	it	eq
 8005fbc:	f107 37ff 	addeq.w	r7, r7, #4294967295
 8005fc0:	b2ad      	uxth	r5, r5
 8005fc2:	ea45 2587 	orr.w	r5, r5, r7, lsl #10
 8005fc6:	ea6f 4545 	mvn.w	r5, r5, lsl #17
 8005fca:	ea6f 4555 	mvn.w	r5, r5, lsr #17
 8005fce:	b2ad      	uxth	r5, r5
 8005fd0:	5315      	strh	r5, [r2, r4]
 8005fd2:	e7c8      	b.n	8005f66 <USB_ActivateEndpoint+0x27a>
 8005fd4:	f833 2024 	ldrh.w	r2, [r3, r4, lsl #2]
 8005fd8:	b292      	uxth	r2, r2
 8005fda:	4016      	ands	r6, r2
 8005fdc:	f446 4600 	orr.w	r6, r6, #32768	; 0x8000
 8005fe0:	f046 06c0 	orr.w	r6, r6, #192	; 0xc0
 8005fe4:	f823 6024 	strh.w	r6, [r3, r4, lsl #2]
 8005fe8:	780a      	ldrb	r2, [r1, #0]
 8005fea:	eb03 0282 	add.w	r2, r3, r2, lsl #2
 8005fee:	e6bc      	b.n	8005d6a <USB_ActivateEndpoint+0x7e>
 8005ff0:	b292      	uxth	r2, r2
 8005ff2:	4016      	ands	r6, r2
 8005ff4:	f446 4601 	orr.w	r6, r6, #33024	; 0x8100
 8005ff8:	f046 0680 	orr.w	r6, r6, #128	; 0x80
 8005ffc:	f823 6024 	strh.w	r6, [r3, r4, lsl #2]
 8006000:	e6df      	b.n	8005dc2 <USB_ActivateEndpoint+0xd6>
 8006002:	f833 2024 	ldrh.w	r2, [r3, r4, lsl #2]
 8006006:	f422 4280 	bic.w	r2, r2, #16384	; 0x4000
 800600a:	f022 0270 	bic.w	r2, r2, #112	; 0x70
 800600e:	0412      	lsls	r2, r2, #16
 8006010:	0c12      	lsrs	r2, r2, #16
 8006012:	f482 5200 	eor.w	r2, r2, #8192	; 0x2000
 8006016:	f442 4200 	orr.w	r2, r2, #32768	; 0x8000
 800601a:	f042 0280 	orr.w	r2, r2, #128	; 0x80
 800601e:	f823 2024 	strh.w	r2, [r3, r4, lsl #2]
 8006022:	bcf0      	pop	{r4, r5, r6, r7}
 8006024:	4770      	bx	lr
 8006026:	5b15      	ldrh	r5, [r2, r4]
 8006028:	0877      	lsrs	r7, r6, #1
 800602a:	07f6      	lsls	r6, r6, #31
 800602c:	bf48      	it	mi
 800602e:	3701      	addmi	r7, #1
 8006030:	b2ad      	uxth	r5, r5
 8006032:	ea45 2587 	orr.w	r5, r5, r7, lsl #10
 8006036:	b2ad      	uxth	r5, r5
 8006038:	5315      	strh	r5, [r2, r4]
 800603a:	e794      	b.n	8005f66 <USB_ActivateEndpoint+0x27a>
 800603c:	2001      	movs	r0, #1
 800603e:	e66b      	b.n	8005d18 <USB_ActivateEndpoint+0x2c>
 8006040:	ffff8f8f 	.word	0xffff8f8f

08006044 <USB_DeactivateEndpoint>:
 8006044:	7b0b      	ldrb	r3, [r1, #12]
 8006046:	b410      	push	{r4}
 8006048:	b9d3      	cbnz	r3, 8006080 <USB_DeactivateEndpoint+0x3c>
 800604a:	784b      	ldrb	r3, [r1, #1]
 800604c:	780c      	ldrb	r4, [r1, #0]
 800604e:	2b00      	cmp	r3, #0
 8006050:	f000 80be 	beq.w	80061d0 <USB_DeactivateEndpoint+0x18c>
 8006054:	f830 3024 	ldrh.w	r3, [r0, r4, lsl #2]
 8006058:	eb00 0284 	add.w	r2, r0, r4, lsl #2
 800605c:	065b      	lsls	r3, r3, #25
 800605e:	f100 80d4 	bmi.w	800620a <USB_DeactivateEndpoint+0x1c6>
 8006062:	8813      	ldrh	r3, [r2, #0]
 8006064:	f423 43e0 	bic.w	r3, r3, #28672	; 0x7000
 8006068:	f023 0340 	bic.w	r3, r3, #64	; 0x40
 800606c:	041b      	lsls	r3, r3, #16
 800606e:	0c1b      	lsrs	r3, r3, #16
 8006070:	f443 4300 	orr.w	r3, r3, #32768	; 0x8000
 8006074:	f043 0380 	orr.w	r3, r3, #128	; 0x80
 8006078:	2000      	movs	r0, #0
 800607a:	bc10      	pop	{r4}
 800607c:	8013      	strh	r3, [r2, #0]
 800607e:	4770      	bx	lr
 8006080:	784b      	ldrb	r3, [r1, #1]
 8006082:	780c      	ldrb	r4, [r1, #0]
 8006084:	2b00      	cmp	r3, #0
 8006086:	d151      	bne.n	800612c <USB_DeactivateEndpoint+0xe8>
 8006088:	f830 3024 	ldrh.w	r3, [r0, r4, lsl #2]
 800608c:	eb00 0284 	add.w	r2, r0, r4, lsl #2
 8006090:	045b      	lsls	r3, r3, #17
 8006092:	d510      	bpl.n	80060b6 <USB_DeactivateEndpoint+0x72>
 8006094:	f830 3024 	ldrh.w	r3, [r0, r4, lsl #2]
 8006098:	f423 43e0 	bic.w	r3, r3, #28672	; 0x7000
 800609c:	f023 0370 	bic.w	r3, r3, #112	; 0x70
 80060a0:	041b      	lsls	r3, r3, #16
 80060a2:	0c1b      	lsrs	r3, r3, #16
 80060a4:	f443 4340 	orr.w	r3, r3, #49152	; 0xc000
 80060a8:	f043 0380 	orr.w	r3, r3, #128	; 0x80
 80060ac:	f820 3024 	strh.w	r3, [r0, r4, lsl #2]
 80060b0:	780a      	ldrb	r2, [r1, #0]
 80060b2:	eb00 0282 	add.w	r2, r0, r2, lsl #2
 80060b6:	8813      	ldrh	r3, [r2, #0]
 80060b8:	065c      	lsls	r4, r3, #25
 80060ba:	d50e      	bpl.n	80060da <USB_DeactivateEndpoint+0x96>
 80060bc:	8813      	ldrh	r3, [r2, #0]
 80060be:	f423 43e0 	bic.w	r3, r3, #28672	; 0x7000
 80060c2:	f023 0370 	bic.w	r3, r3, #112	; 0x70
 80060c6:	041b      	lsls	r3, r3, #16
 80060c8:	0c1b      	lsrs	r3, r3, #16
 80060ca:	f443 4300 	orr.w	r3, r3, #32768	; 0x8000
 80060ce:	f043 03c0 	orr.w	r3, r3, #192	; 0xc0
 80060d2:	8013      	strh	r3, [r2, #0]
 80060d4:	780a      	ldrb	r2, [r1, #0]
 80060d6:	eb00 0282 	add.w	r2, r0, r2, lsl #2
 80060da:	f248 0480 	movw	r4, #32896	; 0x8080
 80060de:	8813      	ldrh	r3, [r2, #0]
 80060e0:	f423 43e0 	bic.w	r3, r3, #28672	; 0x7000
 80060e4:	f023 0370 	bic.w	r3, r3, #112	; 0x70
 80060e8:	041b      	lsls	r3, r3, #16
 80060ea:	0c1b      	lsrs	r3, r3, #16
 80060ec:	f443 4300 	orr.w	r3, r3, #32768	; 0x8000
 80060f0:	f043 03c0 	orr.w	r3, r3, #192	; 0xc0
 80060f4:	8013      	strh	r3, [r2, #0]
 80060f6:	780a      	ldrb	r2, [r1, #0]
 80060f8:	f830 3022 	ldrh.w	r3, [r0, r2, lsl #2]
 80060fc:	f423 4380 	bic.w	r3, r3, #16384	; 0x4000
 8006100:	f023 0370 	bic.w	r3, r3, #112	; 0x70
 8006104:	041b      	lsls	r3, r3, #16
 8006106:	0c1b      	lsrs	r3, r3, #16
 8006108:	4323      	orrs	r3, r4
 800610a:	f820 3022 	strh.w	r3, [r0, r2, lsl #2]
 800610e:	780a      	ldrb	r2, [r1, #0]
 8006110:	f830 3022 	ldrh.w	r3, [r0, r2, lsl #2]
 8006114:	f423 43e0 	bic.w	r3, r3, #28672	; 0x7000
 8006118:	f023 0340 	bic.w	r3, r3, #64	; 0x40
 800611c:	041b      	lsls	r3, r3, #16
 800611e:	0c1b      	lsrs	r3, r3, #16
 8006120:	4323      	orrs	r3, r4
 8006122:	f820 3022 	strh.w	r3, [r0, r2, lsl #2]
 8006126:	bc10      	pop	{r4}
 8006128:	2000      	movs	r0, #0
 800612a:	4770      	bx	lr
 800612c:	f830 3024 	ldrh.w	r3, [r0, r4, lsl #2]
 8006130:	eb00 0284 	add.w	r2, r0, r4, lsl #2
 8006134:	045b      	lsls	r3, r3, #17
 8006136:	d510      	bpl.n	800615a <USB_DeactivateEndpoint+0x116>
 8006138:	f830 3024 	ldrh.w	r3, [r0, r4, lsl #2]
 800613c:	f423 43e0 	bic.w	r3, r3, #28672	; 0x7000
 8006140:	f023 0370 	bic.w	r3, r3, #112	; 0x70
 8006144:	041b      	lsls	r3, r3, #16
 8006146:	0c1b      	lsrs	r3, r3, #16
 8006148:	f443 4340 	orr.w	r3, r3, #49152	; 0xc000
 800614c:	f043 0380 	orr.w	r3, r3, #128	; 0x80
 8006150:	f820 3024 	strh.w	r3, [r0, r4, lsl #2]
 8006154:	780a      	ldrb	r2, [r1, #0]
 8006156:	eb00 0282 	add.w	r2, r0, r2, lsl #2
 800615a:	8813      	ldrh	r3, [r2, #0]
 800615c:	065b      	lsls	r3, r3, #25
 800615e:	d50e      	bpl.n	800617e <USB_DeactivateEndpoint+0x13a>
 8006160:	8813      	ldrh	r3, [r2, #0]
 8006162:	f423 43e0 	bic.w	r3, r3, #28672	; 0x7000
 8006166:	f023 0370 	bic.w	r3, r3, #112	; 0x70
 800616a:	041b      	lsls	r3, r3, #16
 800616c:	0c1b      	lsrs	r3, r3, #16
 800616e:	f443 4300 	orr.w	r3, r3, #32768	; 0x8000
 8006172:	f043 03c0 	orr.w	r3, r3, #192	; 0xc0
 8006176:	8013      	strh	r3, [r2, #0]
 8006178:	780a      	ldrb	r2, [r1, #0]
 800617a:	eb00 0282 	add.w	r2, r0, r2, lsl #2
 800617e:	f248 0480 	movw	r4, #32896	; 0x8080
 8006182:	8813      	ldrh	r3, [r2, #0]
 8006184:	f423 43e0 	bic.w	r3, r3, #28672	; 0x7000
 8006188:	f023 0370 	bic.w	r3, r3, #112	; 0x70
 800618c:	041b      	lsls	r3, r3, #16
 800618e:	0c1b      	lsrs	r3, r3, #16
 8006190:	f443 4340 	orr.w	r3, r3, #49152	; 0xc000
 8006194:	f043 0380 	orr.w	r3, r3, #128	; 0x80
 8006198:	8013      	strh	r3, [r2, #0]
 800619a:	780a      	ldrb	r2, [r1, #0]
 800619c:	f830 3022 	ldrh.w	r3, [r0, r2, lsl #2]
 80061a0:	f423 43e0 	bic.w	r3, r3, #28672	; 0x7000
 80061a4:	f023 0340 	bic.w	r3, r3, #64	; 0x40
 80061a8:	041b      	lsls	r3, r3, #16
 80061aa:	0c1b      	lsrs	r3, r3, #16
 80061ac:	4323      	orrs	r3, r4
 80061ae:	f820 3022 	strh.w	r3, [r0, r2, lsl #2]
 80061b2:	780a      	ldrb	r2, [r1, #0]
 80061b4:	f830 3022 	ldrh.w	r3, [r0, r2, lsl #2]
 80061b8:	f423 4380 	bic.w	r3, r3, #16384	; 0x4000
 80061bc:	f023 0370 	bic.w	r3, r3, #112	; 0x70
 80061c0:	041b      	lsls	r3, r3, #16
 80061c2:	0c1b      	lsrs	r3, r3, #16
 80061c4:	4323      	orrs	r3, r4
 80061c6:	f820 3022 	strh.w	r3, [r0, r2, lsl #2]
 80061ca:	bc10      	pop	{r4}
 80061cc:	2000      	movs	r0, #0
 80061ce:	4770      	bx	lr
 80061d0:	f830 3024 	ldrh.w	r3, [r0, r4, lsl #2]
 80061d4:	eb00 0284 	add.w	r2, r0, r4, lsl #2
 80061d8:	045b      	lsls	r3, r3, #17
 80061da:	d510      	bpl.n	80061fe <USB_DeactivateEndpoint+0x1ba>
 80061dc:	f830 3024 	ldrh.w	r3, [r0, r4, lsl #2]
 80061e0:	f423 43e0 	bic.w	r3, r3, #28672	; 0x7000
 80061e4:	f023 0370 	bic.w	r3, r3, #112	; 0x70
 80061e8:	041b      	lsls	r3, r3, #16
 80061ea:	0c1b      	lsrs	r3, r3, #16
 80061ec:	f443 4340 	orr.w	r3, r3, #49152	; 0xc000
 80061f0:	f043 0380 	orr.w	r3, r3, #128	; 0x80
 80061f4:	f820 3024 	strh.w	r3, [r0, r4, lsl #2]
 80061f8:	780a      	ldrb	r2, [r1, #0]
 80061fa:	eb00 0282 	add.w	r2, r0, r2, lsl #2
 80061fe:	8813      	ldrh	r3, [r2, #0]
 8006200:	f423 4380 	bic.w	r3, r3, #16384	; 0x4000
 8006204:	f023 0370 	bic.w	r3, r3, #112	; 0x70
 8006208:	e730      	b.n	800606c <USB_DeactivateEndpoint+0x28>
 800620a:	f830 3024 	ldrh.w	r3, [r0, r4, lsl #2]
 800620e:	f423 43e0 	bic.w	r3, r3, #28672	; 0x7000
 8006212:	f023 0370 	bic.w	r3, r3, #112	; 0x70
 8006216:	041b      	lsls	r3, r3, #16
 8006218:	0c1b      	lsrs	r3, r3, #16
 800621a:	f443 4300 	orr.w	r3, r3, #32768	; 0x8000
 800621e:	f043 03c0 	orr.w	r3, r3, #192	; 0xc0
 8006222:	f820 3024 	strh.w	r3, [r0, r4, lsl #2]
 8006226:	780a      	ldrb	r2, [r1, #0]
 8006228:	eb00 0282 	add.w	r2, r0, r2, lsl #2
 800622c:	e719      	b.n	8006062 <USB_DeactivateEndpoint+0x1e>
 800622e:	bf00      	nop

08006230 <USB_EPStartXfer>:
 8006230:	e92d 41f0 	stmdb	sp!, {r4, r5, r6, r7, r8, lr}
 8006234:	784a      	ldrb	r2, [r1, #1]
 8006236:	4603      	mov	r3, r0
 8006238:	2a01      	cmp	r2, #1
 800623a:	d07b      	beq.n	8006334 <USB_EPStartXfer+0x104>
 800623c:	7b08      	ldrb	r0, [r1, #12]
 800623e:	2800      	cmp	r0, #0
 8006240:	d044      	beq.n	80062cc <USB_EPStartXfer+0x9c>
 8006242:	78c8      	ldrb	r0, [r1, #3]
 8006244:	2802      	cmp	r0, #2
 8006246:	f000 80fe 	beq.w	8006446 <USB_EPStartXfer+0x216>
 800624a:	2801      	cmp	r0, #1
 800624c:	f040 80e8 	bne.w	8006420 <USB_EPStartXfer+0x1f0>
 8006250:	6988      	ldr	r0, [r1, #24]
 8006252:	690c      	ldr	r4, [r1, #16]
 8006254:	42a0      	cmp	r0, r4
 8006256:	bf94      	ite	ls
 8006258:	2500      	movls	r5, #0
 800625a:	1b05      	subhi	r5, r0, r4
 800625c:	618d      	str	r5, [r1, #24]
 800625e:	bf88      	it	hi
 8006260:	4620      	movhi	r0, r4
 8006262:	2a00      	cmp	r2, #0
 8006264:	f040 80eb 	bne.w	800643e <USB_EPStartXfer+0x20e>
 8006268:	f8b3 2050 	ldrh.w	r2, [r3, #80]	; 0x50
 800626c:	780c      	ldrb	r4, [r1, #0]
 800626e:	f203 4504 	addw	r5, r3, #1028	; 0x404
 8006272:	b292      	uxth	r2, r2
 8006274:	442a      	add	r2, r5
 8006276:	0124      	lsls	r4, r4, #4
 8006278:	5aa5      	ldrh	r5, [r4, r2]
 800627a:	283e      	cmp	r0, #62	; 0x3e
 800627c:	f3c5 0509 	ubfx	r5, r5, #0, #10
 8006280:	52a5      	strh	r5, [r4, r2]
 8006282:	f200 8260 	bhi.w	8006746 <USB_EPStartXfer+0x516>
 8006286:	2800      	cmp	r0, #0
 8006288:	f040 833a 	bne.w	8006900 <USB_EPStartXfer+0x6d0>
 800628c:	5aa5      	ldrh	r5, [r4, r2]
 800628e:	ea6f 4545 	mvn.w	r5, r5, lsl #17
 8006292:	ea6f 4555 	mvn.w	r5, r5, lsr #17
 8006296:	b2ad      	uxth	r5, r5
 8006298:	52a5      	strh	r5, [r4, r2]
 800629a:	784a      	ldrb	r2, [r1, #1]
 800629c:	2a00      	cmp	r2, #0
 800629e:	f040 80c2 	bne.w	8006426 <USB_EPStartXfer+0x1f6>
 80062a2:	f8b3 0050 	ldrh.w	r0, [r3, #80]	; 0x50
 80062a6:	780a      	ldrb	r2, [r1, #0]
 80062a8:	b284      	uxth	r4, r0
 80062aa:	f203 400c 	addw	r0, r3, #1036	; 0x40c
 80062ae:	0112      	lsls	r2, r2, #4
 80062b0:	4420      	add	r0, r4
 80062b2:	5a84      	ldrh	r4, [r0, r2]
 80062b4:	f3c4 0409 	ubfx	r4, r4, #0, #10
 80062b8:	5284      	strh	r4, [r0, r2]
 80062ba:	5a84      	ldrh	r4, [r0, r2]
 80062bc:	b2a4      	uxth	r4, r4
 80062be:	f444 4400 	orr.w	r4, r4, #32768	; 0x8000
 80062c2:	5284      	strh	r4, [r0, r2]
 80062c4:	780a      	ldrb	r2, [r1, #0]
 80062c6:	eb03 0282 	add.w	r2, r3, r2, lsl #2
 80062ca:	e022      	b.n	8006312 <USB_EPStartXfer+0xe2>
 80062cc:	698a      	ldr	r2, [r1, #24]
 80062ce:	690c      	ldr	r4, [r1, #16]
 80062d0:	780e      	ldrb	r6, [r1, #0]
 80062d2:	42a2      	cmp	r2, r4
 80062d4:	bf84      	itt	hi
 80062d6:	1b10      	subhi	r0, r2, r4
 80062d8:	4622      	movhi	r2, r4
 80062da:	f8b3 4050 	ldrh.w	r4, [r3, #80]	; 0x50
 80062de:	f203 450c 	addw	r5, r3, #1036	; 0x40c
 80062e2:	b2a4      	uxth	r4, r4
 80062e4:	4425      	add	r5, r4
 80062e6:	0136      	lsls	r6, r6, #4
 80062e8:	5b74      	ldrh	r4, [r6, r5]
 80062ea:	2a3e      	cmp	r2, #62	; 0x3e
 80062ec:	6188      	str	r0, [r1, #24]
 80062ee:	f3c4 0009 	ubfx	r0, r4, #0, #10
 80062f2:	5370      	strh	r0, [r6, r5]
 80062f4:	f200 808a 	bhi.w	800640c <USB_EPStartXfer+0x1dc>
 80062f8:	2a00      	cmp	r2, #0
 80062fa:	f040 8106 	bne.w	800650a <USB_EPStartXfer+0x2da>
 80062fe:	5b72      	ldrh	r2, [r6, r5]
 8006300:	ea6f 4242 	mvn.w	r2, r2, lsl #17
 8006304:	ea6f 4252 	mvn.w	r2, r2, lsr #17
 8006308:	b292      	uxth	r2, r2
 800630a:	5372      	strh	r2, [r6, r5]
 800630c:	780a      	ldrb	r2, [r1, #0]
 800630e:	eb03 0282 	add.w	r2, r3, r2, lsl #2
 8006312:	8813      	ldrh	r3, [r2, #0]
 8006314:	2000      	movs	r0, #0
 8006316:	f423 4380 	bic.w	r3, r3, #16384	; 0x4000
 800631a:	f023 0370 	bic.w	r3, r3, #112	; 0x70
 800631e:	041b      	lsls	r3, r3, #16
 8006320:	0c1b      	lsrs	r3, r3, #16
 8006322:	f483 5340 	eor.w	r3, r3, #12288	; 0x3000
 8006326:	f443 4300 	orr.w	r3, r3, #32768	; 0x8000
 800632a:	f043 0380 	orr.w	r3, r3, #128	; 0x80
 800632e:	8013      	strh	r3, [r2, #0]
 8006330:	e8bd 81f0 	ldmia.w	sp!, {r4, r5, r6, r7, r8, pc}
 8006334:	690c      	ldr	r4, [r1, #16]
 8006336:	698a      	ldr	r2, [r1, #24]
 8006338:	7b08      	ldrb	r0, [r1, #12]
 800633a:	42a2      	cmp	r2, r4
 800633c:	bf28      	it	cs
 800633e:	4622      	movcs	r2, r4
 8006340:	bba8      	cbnz	r0, 80063ae <USB_EPStartXfer+0x17e>
 8006342:	b296      	uxth	r6, r2
 8006344:	88c8      	ldrh	r0, [r1, #6]
 8006346:	3601      	adds	r6, #1
 8006348:	f503 6480 	add.w	r4, r3, #1024	; 0x400
 800634c:	0876      	lsrs	r6, r6, #1
 800634e:	b297      	uxth	r7, r2
 8006350:	eb04 0440 	add.w	r4, r4, r0, lsl #1
 8006354:	694a      	ldr	r2, [r1, #20]
 8006356:	d00d      	beq.n	8006374 <USB_EPStartXfer+0x144>
 8006358:	3202      	adds	r2, #2
 800635a:	eb04 0686 	add.w	r6, r4, r6, lsl #2
 800635e:	f812 5c01 	ldrb.w	r5, [r2, #-1]
 8006362:	f812 0c02 	ldrb.w	r0, [r2, #-2]
 8006366:	3202      	adds	r2, #2
 8006368:	ea40 2005 	orr.w	r0, r0, r5, lsl #8
 800636c:	f824 0b04 	strh.w	r0, [r4], #4
 8006370:	42a6      	cmp	r6, r4
 8006372:	d1f4      	bne.n	800635e <USB_EPStartXfer+0x12e>
 8006374:	f8b3 2050 	ldrh.w	r2, [r3, #80]	; 0x50
 8006378:	7808      	ldrb	r0, [r1, #0]
 800637a:	b294      	uxth	r4, r2
 800637c:	f203 4204 	addw	r2, r3, #1028	; 0x404
 8006380:	4422      	add	r2, r4
 8006382:	0100      	lsls	r0, r0, #4
 8006384:	5287      	strh	r7, [r0, r2]
 8006386:	7809      	ldrb	r1, [r1, #0]
 8006388:	2000      	movs	r0, #0
 800638a:	f833 2021 	ldrh.w	r2, [r3, r1, lsl #2]
 800638e:	f422 42e0 	bic.w	r2, r2, #28672	; 0x7000
 8006392:	f022 0240 	bic.w	r2, r2, #64	; 0x40
 8006396:	0412      	lsls	r2, r2, #16
 8006398:	0c12      	lsrs	r2, r2, #16
 800639a:	f082 0230 	eor.w	r2, r2, #48	; 0x30
 800639e:	f442 4200 	orr.w	r2, r2, #32768	; 0x8000
 80063a2:	f042 0280 	orr.w	r2, r2, #128	; 0x80
 80063a6:	f823 2021 	strh.w	r2, [r3, r1, lsl #2]
 80063aa:	e8bd 81f0 	ldmia.w	sp!, {r4, r5, r6, r7, r8, pc}
 80063ae:	78c8      	ldrb	r0, [r1, #3]
 80063b0:	2802      	cmp	r0, #2
 80063b2:	f000 80b8 	beq.w	8006526 <USB_EPStartXfer+0x2f6>
 80063b6:	7808      	ldrb	r0, [r1, #0]
 80063b8:	6a0c      	ldr	r4, [r1, #32]
 80063ba:	f833 5020 	ldrh.w	r5, [r3, r0, lsl #2]
 80063be:	1aa4      	subs	r4, r4, r2
 80063c0:	f015 0f40 	tst.w	r5, #64	; 0x40
 80063c4:	620c      	str	r4, [r1, #32]
 80063c6:	f8b3 5050 	ldrh.w	r5, [r3, #80]	; 0x50
 80063ca:	f000 8148 	beq.w	800665e <USB_EPStartXfer+0x42e>
 80063ce:	b2ad      	uxth	r5, r5
 80063d0:	f203 440c 	addw	r4, r3, #1036	; 0x40c
 80063d4:	442c      	add	r4, r5
 80063d6:	0100      	lsls	r0, r0, #4
 80063d8:	b295      	uxth	r5, r2
 80063da:	5225      	strh	r5, [r4, r0]
 80063dc:	8948      	ldrh	r0, [r1, #10]
 80063de:	1c6e      	adds	r6, r5, #1
 80063e0:	f503 6480 	add.w	r4, r3, #1024	; 0x400
 80063e4:	0876      	lsrs	r6, r6, #1
 80063e6:	694a      	ldr	r2, [r1, #20]
 80063e8:	eb04 0440 	add.w	r4, r4, r0, lsl #1
 80063ec:	d0cb      	beq.n	8006386 <USB_EPStartXfer+0x156>
 80063ee:	3202      	adds	r2, #2
 80063f0:	eb04 0686 	add.w	r6, r4, r6, lsl #2
 80063f4:	f812 5c01 	ldrb.w	r5, [r2, #-1]
 80063f8:	f812 0c02 	ldrb.w	r0, [r2, #-2]
 80063fc:	3202      	adds	r2, #2
 80063fe:	ea40 2005 	orr.w	r0, r0, r5, lsl #8
 8006402:	f824 0b04 	strh.w	r0, [r4], #4
 8006406:	42b4      	cmp	r4, r6
 8006408:	d1f4      	bne.n	80063f4 <USB_EPStartXfer+0x1c4>
 800640a:	e7bc      	b.n	8006386 <USB_EPStartXfer+0x156>
 800640c:	0950      	lsrs	r0, r2, #5
 800640e:	06d2      	lsls	r2, r2, #27
 8006410:	5b72      	ldrh	r2, [r6, r5]
 8006412:	bf08      	it	eq
 8006414:	f100 30ff 	addeq.w	r0, r0, #4294967295
 8006418:	b292      	uxth	r2, r2
 800641a:	ea42 2280 	orr.w	r2, r2, r0, lsl #10
 800641e:	e76f      	b.n	8006300 <USB_EPStartXfer+0xd0>
 8006420:	2001      	movs	r0, #1
 8006422:	e8bd 81f0 	ldmia.w	sp!, {r4, r5, r6, r7, r8, pc}
 8006426:	2a01      	cmp	r2, #1
 8006428:	d109      	bne.n	800643e <USB_EPStartXfer+0x20e>
 800642a:	f8b3 6050 	ldrh.w	r6, [r3, #80]	; 0x50
 800642e:	780d      	ldrb	r5, [r1, #0]
 8006430:	f203 440c 	addw	r4, r3, #1036	; 0x40c
 8006434:	b2b6      	uxth	r6, r6
 8006436:	b282      	uxth	r2, r0
 8006438:	19a0      	adds	r0, r4, r6
 800643a:	012c      	lsls	r4, r5, #4
 800643c:	5222      	strh	r2, [r4, r0]
 800643e:	780a      	ldrb	r2, [r1, #0]
 8006440:	eb03 0282 	add.w	r2, r3, r2, lsl #2
 8006444:	e765      	b.n	8006312 <USB_EPStartXfer+0xe2>
 8006446:	2a00      	cmp	r2, #0
 8006448:	d13c      	bne.n	80064c4 <USB_EPStartXfer+0x294>
 800644a:	f8b3 2050 	ldrh.w	r2, [r3, #80]	; 0x50
 800644e:	7808      	ldrb	r0, [r1, #0]
 8006450:	f203 4404 	addw	r4, r3, #1028	; 0x404
 8006454:	b292      	uxth	r2, r2
 8006456:	4422      	add	r2, r4
 8006458:	0100      	lsls	r0, r0, #4
 800645a:	5a84      	ldrh	r4, [r0, r2]
 800645c:	690d      	ldr	r5, [r1, #16]
 800645e:	f3c4 0409 	ubfx	r4, r4, #0, #10
 8006462:	2d3e      	cmp	r5, #62	; 0x3e
 8006464:	5284      	strh	r4, [r0, r2]
 8006466:	f240 814f 	bls.w	8006708 <USB_EPStartXfer+0x4d8>
 800646a:	096e      	lsrs	r6, r5, #5
 800646c:	46b4      	mov	ip, r6
 800646e:	5a84      	ldrh	r4, [r0, r2]
 8006470:	f015 071f 	ands.w	r7, r5, #31
 8006474:	bf08      	it	eq
 8006476:	f106 3cff 	addeq.w	ip, r6, #4294967295
 800647a:	b2a4      	uxth	r4, r4
 800647c:	ea44 248c 	orr.w	r4, r4, ip, lsl #10
 8006480:	ea6f 4444 	mvn.w	r4, r4, lsl #17
 8006484:	ea6f 4454 	mvn.w	r4, r4, lsr #17
 8006488:	b2a4      	uxth	r4, r4
 800648a:	5284      	strh	r4, [r0, r2]
 800648c:	784a      	ldrb	r2, [r1, #1]
 800648e:	2a00      	cmp	r2, #0
 8006490:	f040 8180 	bne.w	8006794 <USB_EPStartXfer+0x564>
 8006494:	f8b3 4050 	ldrh.w	r4, [r3, #80]	; 0x50
 8006498:	7808      	ldrb	r0, [r1, #0]
 800649a:	b2a2      	uxth	r2, r4
 800649c:	f203 440c 	addw	r4, r3, #1036	; 0x40c
 80064a0:	4414      	add	r4, r2
 80064a2:	0100      	lsls	r0, r0, #4
 80064a4:	5b02      	ldrh	r2, [r0, r4]
 80064a6:	f3c2 0209 	ubfx	r2, r2, #0, #10
 80064aa:	5302      	strh	r2, [r0, r4]
 80064ac:	b907      	cbnz	r7, 80064b0 <USB_EPStartXfer+0x280>
 80064ae:	3e01      	subs	r6, #1
 80064b0:	5b02      	ldrh	r2, [r0, r4]
 80064b2:	b292      	uxth	r2, r2
 80064b4:	ea42 2286 	orr.w	r2, r2, r6, lsl #10
 80064b8:	ea6f 4242 	mvn.w	r2, r2, lsl #17
 80064bc:	ea6f 4252 	mvn.w	r2, r2, lsr #17
 80064c0:	b292      	uxth	r2, r2
 80064c2:	5302      	strh	r2, [r0, r4]
 80064c4:	69ca      	ldr	r2, [r1, #28]
 80064c6:	2a00      	cmp	r2, #0
 80064c8:	d0b9      	beq.n	800643e <USB_EPStartXfer+0x20e>
 80064ca:	f244 0440 	movw	r4, #16448	; 0x4040
 80064ce:	7808      	ldrb	r0, [r1, #0]
 80064d0:	f833 5020 	ldrh.w	r5, [r3, r0, lsl #2]
 80064d4:	eb03 0280 	add.w	r2, r3, r0, lsl #2
 80064d8:	ea04 0605 	and.w	r6, r4, r5
 80064dc:	43ac      	bics	r4, r5
 80064de:	d002      	beq.n	80064e6 <USB_EPStartXfer+0x2b6>
 80064e0:	2e00      	cmp	r6, #0
 80064e2:	f47f af16 	bne.w	8006312 <USB_EPStartXfer+0xe2>
 80064e6:	f833 2020 	ldrh.w	r2, [r3, r0, lsl #2]
 80064ea:	f422 42e0 	bic.w	r2, r2, #28672	; 0x7000
 80064ee:	f022 0270 	bic.w	r2, r2, #112	; 0x70
 80064f2:	0412      	lsls	r2, r2, #16
 80064f4:	0c12      	lsrs	r2, r2, #16
 80064f6:	f442 4200 	orr.w	r2, r2, #32768	; 0x8000
 80064fa:	f042 02c0 	orr.w	r2, r2, #192	; 0xc0
 80064fe:	f823 2020 	strh.w	r2, [r3, r0, lsl #2]
 8006502:	780a      	ldrb	r2, [r1, #0]
 8006504:	eb03 0282 	add.w	r2, r3, r2, lsl #2
 8006508:	e703      	b.n	8006312 <USB_EPStartXfer+0xe2>
 800650a:	0850      	lsrs	r0, r2, #1
 800650c:	07d7      	lsls	r7, r2, #31
 800650e:	5b72      	ldrh	r2, [r6, r5]
 8006510:	bf48      	it	mi
 8006512:	3001      	addmi	r0, #1
 8006514:	b292      	uxth	r2, r2
 8006516:	ea42 2280 	orr.w	r2, r2, r0, lsl #10
 800651a:	b292      	uxth	r2, r2
 800651c:	5372      	strh	r2, [r6, r5]
 800651e:	780a      	ldrb	r2, [r1, #0]
 8006520:	eb03 0282 	add.w	r2, r3, r2, lsl #2
 8006524:	e6f5      	b.n	8006312 <USB_EPStartXfer+0xe2>
 8006526:	6a08      	ldr	r0, [r1, #32]
 8006528:	4284      	cmp	r4, r0
 800652a:	f080 80b9 	bcs.w	80066a0 <USB_EPStartXfer+0x470>
 800652e:	780e      	ldrb	r6, [r1, #0]
 8006530:	1a80      	subs	r0, r0, r2
 8006532:	f833 5026 	ldrh.w	r5, [r3, r6, lsl #2]
 8006536:	f425 45e0 	bic.w	r5, r5, #28672	; 0x7000
 800653a:	f025 0570 	bic.w	r5, r5, #112	; 0x70
 800653e:	042d      	lsls	r5, r5, #16
 8006540:	0c2d      	lsrs	r5, r5, #16
 8006542:	f445 4501 	orr.w	r5, r5, #33024	; 0x8100
 8006546:	f045 0580 	orr.w	r5, r5, #128	; 0x80
 800654a:	f823 5026 	strh.w	r5, [r3, r6, lsl #2]
 800654e:	780d      	ldrb	r5, [r1, #0]
 8006550:	6208      	str	r0, [r1, #32]
 8006552:	f833 6025 	ldrh.w	r6, [r3, r5, lsl #2]
 8006556:	f016 0f40 	tst.w	r6, #64	; 0x40
 800655a:	784e      	ldrb	r6, [r1, #1]
 800655c:	f000 8128 	beq.w	80067b0 <USB_EPStartXfer+0x580>
 8006560:	2e00      	cmp	r6, #0
 8006562:	f040 81ef 	bne.w	8006944 <USB_EPStartXfer+0x714>
 8006566:	f8b3 c050 	ldrh.w	ip, [r3, #80]	; 0x50
 800656a:	f203 470c 	addw	r7, r3, #1036	; 0x40c
 800656e:	fa1f fc8c 	uxth.w	ip, ip
 8006572:	012e      	lsls	r6, r5, #4
 8006574:	4467      	add	r7, ip
 8006576:	5bbd      	ldrh	r5, [r7, r6]
 8006578:	2a3e      	cmp	r2, #62	; 0x3e
 800657a:	f3c5 0509 	ubfx	r5, r5, #0, #10
 800657e:	53bd      	strh	r5, [r7, r6]
 8006580:	f240 822c 	bls.w	80069dc <USB_EPStartXfer+0x7ac>
 8006584:	06d5      	lsls	r5, r2, #27
 8006586:	5bbd      	ldrh	r5, [r7, r6]
 8006588:	ea4f 1c52 	mov.w	ip, r2, lsr #5
 800658c:	bf08      	it	eq
 800658e:	f10c 3cff 	addeq.w	ip, ip, #4294967295
 8006592:	b2ad      	uxth	r5, r5
 8006594:	ea45 258c 	orr.w	r5, r5, ip, lsl #10
 8006598:	ea6f 4545 	mvn.w	r5, r5, lsl #17
 800659c:	ea6f 4555 	mvn.w	r5, r5, lsr #17
 80065a0:	b2ad      	uxth	r5, r5
 80065a2:	53bd      	strh	r5, [r7, r6]
 80065a4:	b296      	uxth	r6, r2
 80065a6:	894d      	ldrh	r5, [r1, #10]
 80065a8:	3601      	adds	r6, #1
 80065aa:	f503 6c80 	add.w	ip, r3, #1024	; 0x400
 80065ae:	0876      	lsrs	r6, r6, #1
 80065b0:	eb0c 0c45 	add.w	ip, ip, r5, lsl #1
 80065b4:	694d      	ldr	r5, [r1, #20]
 80065b6:	d00d      	beq.n	80065d4 <USB_EPStartXfer+0x3a4>
 80065b8:	eb0c 0e86 	add.w	lr, ip, r6, lsl #2
 80065bc:	1cae      	adds	r6, r5, #2
 80065be:	f816 8c01 	ldrb.w	r8, [r6, #-1]
 80065c2:	f816 7c02 	ldrb.w	r7, [r6, #-2]
 80065c6:	3602      	adds	r6, #2
 80065c8:	ea47 2708 	orr.w	r7, r7, r8, lsl #8
 80065cc:	f82c 7b04 	strh.w	r7, [ip], #4
 80065d0:	45f4      	cmp	ip, lr
 80065d2:	d1f4      	bne.n	80065be <USB_EPStartXfer+0x38e>
 80065d4:	4284      	cmp	r4, r0
 80065d6:	bf2c      	ite	cs
 80065d8:	2400      	movcs	r4, #0
 80065da:	1a84      	subcc	r4, r0, r2
 80065dc:	4415      	add	r5, r2
 80065de:	bf38      	it	cc
 80065e0:	4610      	movcc	r0, r2
 80065e2:	784a      	ldrb	r2, [r1, #1]
 80065e4:	614d      	str	r5, [r1, #20]
 80065e6:	620c      	str	r4, [r1, #32]
 80065e8:	2a00      	cmp	r2, #0
 80065ea:	f040 81d2 	bne.w	8006992 <USB_EPStartXfer+0x762>
 80065ee:	f8b3 2050 	ldrh.w	r2, [r3, #80]	; 0x50
 80065f2:	780c      	ldrb	r4, [r1, #0]
 80065f4:	f203 4604 	addw	r6, r3, #1028	; 0x404
 80065f8:	b292      	uxth	r2, r2
 80065fa:	4432      	add	r2, r6
 80065fc:	0124      	lsls	r4, r4, #4
 80065fe:	5aa6      	ldrh	r6, [r4, r2]
 8006600:	283e      	cmp	r0, #62	; 0x3e
 8006602:	f3c6 0609 	ubfx	r6, r6, #0, #10
 8006606:	52a6      	strh	r6, [r4, r2]
 8006608:	f240 81de 	bls.w	80069c8 <USB_EPStartXfer+0x798>
 800660c:	06c6      	lsls	r6, r0, #27
 800660e:	5aa6      	ldrh	r6, [r4, r2]
 8006610:	ea4f 1750 	mov.w	r7, r0, lsr #5
 8006614:	bf08      	it	eq
 8006616:	f107 37ff 	addeq.w	r7, r7, #4294967295
 800661a:	b2b6      	uxth	r6, r6
 800661c:	ea46 2687 	orr.w	r6, r6, r7, lsl #10
 8006620:	ea6f 4646 	mvn.w	r6, r6, lsl #17
 8006624:	ea6f 4656 	mvn.w	r6, r6, lsr #17
 8006628:	b2b6      	uxth	r6, r6
 800662a:	52a6      	strh	r6, [r4, r2]
 800662c:	890e      	ldrh	r6, [r1, #8]
 800662e:	b280      	uxth	r0, r0
 8006630:	1c42      	adds	r2, r0, #1
 8006632:	f503 6480 	add.w	r4, r3, #1024	; 0x400
 8006636:	eb04 0446 	add.w	r4, r4, r6, lsl #1
 800663a:	0856      	lsrs	r6, r2, #1
 800663c:	f43f aea3 	beq.w	8006386 <USB_EPStartXfer+0x156>
 8006640:	1caa      	adds	r2, r5, #2
 8006642:	eb04 0686 	add.w	r6, r4, r6, lsl #2
 8006646:	f812 5c01 	ldrb.w	r5, [r2, #-1]
 800664a:	f812 0c02 	ldrb.w	r0, [r2, #-2]
 800664e:	3202      	adds	r2, #2
 8006650:	ea40 2005 	orr.w	r0, r0, r5, lsl #8
 8006654:	f824 0b04 	strh.w	r0, [r4], #4
 8006658:	42b4      	cmp	r4, r6
 800665a:	d1f4      	bne.n	8006646 <USB_EPStartXfer+0x416>
 800665c:	e693      	b.n	8006386 <USB_EPStartXfer+0x156>
 800665e:	b2ad      	uxth	r5, r5
 8006660:	f203 4404 	addw	r4, r3, #1028	; 0x404
 8006664:	442c      	add	r4, r5
 8006666:	b295      	uxth	r5, r2
 8006668:	462a      	mov	r2, r5
 800666a:	0100      	lsls	r0, r0, #4
 800666c:	5225      	strh	r5, [r4, r0]
 800666e:	8908      	ldrh	r0, [r1, #8]
 8006670:	3201      	adds	r2, #1
 8006672:	f503 6580 	add.w	r5, r3, #1024	; 0x400
 8006676:	0852      	lsrs	r2, r2, #1
 8006678:	eb05 0540 	add.w	r5, r5, r0, lsl #1
 800667c:	6948      	ldr	r0, [r1, #20]
 800667e:	f43f ae82 	beq.w	8006386 <USB_EPStartXfer+0x156>
 8006682:	3002      	adds	r0, #2
 8006684:	eb05 0282 	add.w	r2, r5, r2, lsl #2
 8006688:	f810 6c01 	ldrb.w	r6, [r0, #-1]
 800668c:	f810 4c02 	ldrb.w	r4, [r0, #-2]
 8006690:	3002      	adds	r0, #2
 8006692:	ea44 2406 	orr.w	r4, r4, r6, lsl #8
 8006696:	f825 4b04 	strh.w	r4, [r5], #4
 800669a:	4295      	cmp	r5, r2
 800669c:	d1f4      	bne.n	8006688 <USB_EPStartXfer+0x458>
 800669e:	e672      	b.n	8006386 <USB_EPStartXfer+0x156>
 80066a0:	780d      	ldrb	r5, [r1, #0]
 80066a2:	f203 4404 	addw	r4, r3, #1028	; 0x404
 80066a6:	f833 2025 	ldrh.w	r2, [r3, r5, lsl #2]
 80066aa:	b287      	uxth	r7, r0
 80066ac:	f422 42e2 	bic.w	r2, r2, #28928	; 0x7100
 80066b0:	f022 0270 	bic.w	r2, r2, #112	; 0x70
 80066b4:	0412      	lsls	r2, r2, #16
 80066b6:	0c12      	lsrs	r2, r2, #16
 80066b8:	f442 4200 	orr.w	r2, r2, #32768	; 0x8000
 80066bc:	f042 0280 	orr.w	r2, r2, #128	; 0x80
 80066c0:	f823 2025 	strh.w	r2, [r3, r5, lsl #2]
 80066c4:	f8b3 2050 	ldrh.w	r2, [r3, #80]	; 0x50
 80066c8:	4638      	mov	r0, r7
 80066ca:	b296      	uxth	r6, r2
 80066cc:	4622      	mov	r2, r4
 80066ce:	780d      	ldrb	r5, [r1, #0]
 80066d0:	4432      	add	r2, r6
 80066d2:	012c      	lsls	r4, r5, #4
 80066d4:	52a7      	strh	r7, [r4, r2]
 80066d6:	890a      	ldrh	r2, [r1, #8]
 80066d8:	3001      	adds	r0, #1
 80066da:	f503 6480 	add.w	r4, r3, #1024	; 0x400
 80066de:	0840      	lsrs	r0, r0, #1
 80066e0:	eb04 0442 	add.w	r4, r4, r2, lsl #1
 80066e4:	694a      	ldr	r2, [r1, #20]
 80066e6:	f43f ae4e 	beq.w	8006386 <USB_EPStartXfer+0x156>
 80066ea:	3202      	adds	r2, #2
 80066ec:	eb04 0580 	add.w	r5, r4, r0, lsl #2
 80066f0:	f812 6c01 	ldrb.w	r6, [r2, #-1]
 80066f4:	f812 0c02 	ldrb.w	r0, [r2, #-2]
 80066f8:	3202      	adds	r2, #2
 80066fa:	ea40 2006 	orr.w	r0, r0, r6, lsl #8
 80066fe:	f824 0b04 	strh.w	r0, [r4], #4
 8006702:	42ac      	cmp	r4, r5
 8006704:	d1f4      	bne.n	80066f0 <USB_EPStartXfer+0x4c0>
 8006706:	e63e      	b.n	8006386 <USB_EPStartXfer+0x156>
 8006708:	2d00      	cmp	r5, #0
 800670a:	f040 80d3 	bne.w	80068b4 <USB_EPStartXfer+0x684>
 800670e:	5a84      	ldrh	r4, [r0, r2]
 8006710:	ea6f 4444 	mvn.w	r4, r4, lsl #17
 8006714:	ea6f 4454 	mvn.w	r4, r4, lsr #17
 8006718:	b2a4      	uxth	r4, r4
 800671a:	5284      	strh	r4, [r0, r2]
 800671c:	784a      	ldrb	r2, [r1, #1]
 800671e:	2a00      	cmp	r2, #0
 8006720:	d138      	bne.n	8006794 <USB_EPStartXfer+0x564>
 8006722:	f8b3 2050 	ldrh.w	r2, [r3, #80]	; 0x50
 8006726:	7808      	ldrb	r0, [r1, #0]
 8006728:	b294      	uxth	r4, r2
 800672a:	f203 420c 	addw	r2, r3, #1036	; 0x40c
 800672e:	4422      	add	r2, r4
 8006730:	0100      	lsls	r0, r0, #4
 8006732:	5a84      	ldrh	r4, [r0, r2]
 8006734:	f3c4 0409 	ubfx	r4, r4, #0, #10
 8006738:	5284      	strh	r4, [r0, r2]
 800673a:	5a84      	ldrh	r4, [r0, r2]
 800673c:	b2a4      	uxth	r4, r4
 800673e:	f444 4400 	orr.w	r4, r4, #32768	; 0x8000
 8006742:	5284      	strh	r4, [r0, r2]
 8006744:	e6be      	b.n	80064c4 <USB_EPStartXfer+0x294>
 8006746:	0945      	lsrs	r5, r0, #5
 8006748:	06c6      	lsls	r6, r0, #27
 800674a:	bf08      	it	eq
 800674c:	f105 35ff 	addeq.w	r5, r5, #4294967295
 8006750:	5aa6      	ldrh	r6, [r4, r2]
 8006752:	02ad      	lsls	r5, r5, #10
 8006754:	b2ad      	uxth	r5, r5
 8006756:	b2b6      	uxth	r6, r6
 8006758:	432e      	orrs	r6, r5
 800675a:	f446 4600 	orr.w	r6, r6, #32768	; 0x8000
 800675e:	52a6      	strh	r6, [r4, r2]
 8006760:	784a      	ldrb	r2, [r1, #1]
 8006762:	2a00      	cmp	r2, #0
 8006764:	f47f ae5f 	bne.w	8006426 <USB_EPStartXfer+0x1f6>
 8006768:	f8b3 0050 	ldrh.w	r0, [r3, #80]	; 0x50
 800676c:	780a      	ldrb	r2, [r1, #0]
 800676e:	b284      	uxth	r4, r0
 8006770:	f203 400c 	addw	r0, r3, #1036	; 0x40c
 8006774:	0112      	lsls	r2, r2, #4
 8006776:	4420      	add	r0, r4
 8006778:	5a84      	ldrh	r4, [r0, r2]
 800677a:	f3c4 0409 	ubfx	r4, r4, #0, #10
 800677e:	5284      	strh	r4, [r0, r2]
 8006780:	5a84      	ldrh	r4, [r0, r2]
 8006782:	b2a4      	uxth	r4, r4
 8006784:	4325      	orrs	r5, r4
 8006786:	f445 4500 	orr.w	r5, r5, #32768	; 0x8000
 800678a:	5285      	strh	r5, [r0, r2]
 800678c:	780a      	ldrb	r2, [r1, #0]
 800678e:	eb03 0282 	add.w	r2, r3, r2, lsl #2
 8006792:	e5be      	b.n	8006312 <USB_EPStartXfer+0xe2>
 8006794:	2a01      	cmp	r2, #1
 8006796:	f47f ae95 	bne.w	80064c4 <USB_EPStartXfer+0x294>
 800679a:	f8b3 2050 	ldrh.w	r2, [r3, #80]	; 0x50
 800679e:	7808      	ldrb	r0, [r1, #0]
 80067a0:	b294      	uxth	r4, r2
 80067a2:	f203 420c 	addw	r2, r3, #1036	; 0x40c
 80067a6:	b2ad      	uxth	r5, r5
 80067a8:	4422      	add	r2, r4
 80067aa:	0100      	lsls	r0, r0, #4
 80067ac:	5285      	strh	r5, [r0, r2]
 80067ae:	e689      	b.n	80064c4 <USB_EPStartXfer+0x294>
 80067b0:	2e00      	cmp	r6, #0
 80067b2:	f040 80e1 	bne.w	8006978 <USB_EPStartXfer+0x748>
 80067b6:	f8b3 c050 	ldrh.w	ip, [r3, #80]	; 0x50
 80067ba:	f203 4704 	addw	r7, r3, #1028	; 0x404
 80067be:	fa1f fc8c 	uxth.w	ip, ip
 80067c2:	012e      	lsls	r6, r5, #4
 80067c4:	4467      	add	r7, ip
 80067c6:	5bbd      	ldrh	r5, [r7, r6]
 80067c8:	2a3e      	cmp	r2, #62	; 0x3e
 80067ca:	f3c5 0509 	ubfx	r5, r5, #0, #10
 80067ce:	53bd      	strh	r5, [r7, r6]
 80067d0:	f240 80ed 	bls.w	80069ae <USB_EPStartXfer+0x77e>
 80067d4:	06d5      	lsls	r5, r2, #27
 80067d6:	5bbd      	ldrh	r5, [r7, r6]
 80067d8:	ea4f 1c52 	mov.w	ip, r2, lsr #5
 80067dc:	bf08      	it	eq
 80067de:	f10c 3cff 	addeq.w	ip, ip, #4294967295
 80067e2:	b2ad      	uxth	r5, r5
 80067e4:	ea45 258c 	orr.w	r5, r5, ip, lsl #10
 80067e8:	ea6f 4545 	mvn.w	r5, r5, lsl #17
 80067ec:	ea6f 4555 	mvn.w	r5, r5, lsr #17
 80067f0:	b2ad      	uxth	r5, r5
 80067f2:	53bd      	strh	r5, [r7, r6]
 80067f4:	f8b1 c008 	ldrh.w	ip, [r1, #8]
 80067f8:	b296      	uxth	r6, r2
 80067fa:	3601      	adds	r6, #1
 80067fc:	eb03 0c4c 	add.w	ip, r3, ip, lsl #1
 8006800:	0876      	lsrs	r6, r6, #1
 8006802:	694d      	ldr	r5, [r1, #20]
 8006804:	f50c 6c80 	add.w	ip, ip, #1024	; 0x400
 8006808:	d00d      	beq.n	8006826 <USB_EPStartXfer+0x5f6>
 800680a:	eb0c 0e86 	add.w	lr, ip, r6, lsl #2
 800680e:	1cae      	adds	r6, r5, #2
 8006810:	f816 8c01 	ldrb.w	r8, [r6, #-1]
 8006814:	f816 7c02 	ldrb.w	r7, [r6, #-2]
 8006818:	3602      	adds	r6, #2
 800681a:	ea47 2708 	orr.w	r7, r7, r8, lsl #8
 800681e:	f82c 7b04 	strh.w	r7, [ip], #4
 8006822:	45f4      	cmp	ip, lr
 8006824:	d1f4      	bne.n	8006810 <USB_EPStartXfer+0x5e0>
 8006826:	4284      	cmp	r4, r0
 8006828:	bf2c      	ite	cs
 800682a:	2400      	movcs	r4, #0
 800682c:	1a84      	subcc	r4, r0, r2
 800682e:	4415      	add	r5, r2
 8006830:	bf38      	it	cc
 8006832:	4610      	movcc	r0, r2
 8006834:	784a      	ldrb	r2, [r1, #1]
 8006836:	614d      	str	r5, [r1, #20]
 8006838:	620c      	str	r4, [r1, #32]
 800683a:	2a00      	cmp	r2, #0
 800683c:	f040 808f 	bne.w	800695e <USB_EPStartXfer+0x72e>
 8006840:	f8b3 2050 	ldrh.w	r2, [r3, #80]	; 0x50
 8006844:	780c      	ldrb	r4, [r1, #0]
 8006846:	b292      	uxth	r2, r2
 8006848:	f202 420c 	addw	r2, r2, #1036	; 0x40c
 800684c:	eb02 1204 	add.w	r2, r2, r4, lsl #4
 8006850:	5a9c      	ldrh	r4, [r3, r2]
 8006852:	283e      	cmp	r0, #62	; 0x3e
 8006854:	f3c4 0409 	ubfx	r4, r4, #0, #10
 8006858:	eb03 0602 	add.w	r6, r3, r2
 800685c:	529c      	strh	r4, [r3, r2]
 800685e:	f240 80cb 	bls.w	80069f8 <USB_EPStartXfer+0x7c8>
 8006862:	06c2      	lsls	r2, r0, #27
 8006864:	8832      	ldrh	r2, [r6, #0]
 8006866:	ea4f 1450 	mov.w	r4, r0, lsr #5
 800686a:	bf08      	it	eq
 800686c:	f104 34ff 	addeq.w	r4, r4, #4294967295
 8006870:	b292      	uxth	r2, r2
 8006872:	ea42 2284 	orr.w	r2, r2, r4, lsl #10
 8006876:	ea6f 4242 	mvn.w	r2, r2, lsl #17
 800687a:	ea6f 4252 	mvn.w	r2, r2, lsr #17
 800687e:	b292      	uxth	r2, r2
 8006880:	8032      	strh	r2, [r6, #0]
 8006882:	b280      	uxth	r0, r0
 8006884:	894c      	ldrh	r4, [r1, #10]
 8006886:	1c42      	adds	r2, r0, #1
 8006888:	eb03 0444 	add.w	r4, r3, r4, lsl #1
 800688c:	0850      	lsrs	r0, r2, #1
 800688e:	f504 6480 	add.w	r4, r4, #1024	; 0x400
 8006892:	f43f ad78 	beq.w	8006386 <USB_EPStartXfer+0x156>
 8006896:	1caa      	adds	r2, r5, #2
 8006898:	eb04 0580 	add.w	r5, r4, r0, lsl #2
 800689c:	f812 6c01 	ldrb.w	r6, [r2, #-1]
 80068a0:	f812 0c02 	ldrb.w	r0, [r2, #-2]
 80068a4:	3202      	adds	r2, #2
 80068a6:	ea40 2006 	orr.w	r0, r0, r6, lsl #8
 80068aa:	f824 0b04 	strh.w	r0, [r4], #4
 80068ae:	42ac      	cmp	r4, r5
 80068b0:	d1f4      	bne.n	800689c <USB_EPStartXfer+0x66c>
 80068b2:	e568      	b.n	8006386 <USB_EPStartXfer+0x156>
 80068b4:	086e      	lsrs	r6, r5, #1
 80068b6:	46b4      	mov	ip, r6
 80068b8:	5a84      	ldrh	r4, [r0, r2]
 80068ba:	f015 0701 	ands.w	r7, r5, #1
 80068be:	bf18      	it	ne
 80068c0:	f106 0c01 	addne.w	ip, r6, #1
 80068c4:	b2a4      	uxth	r4, r4
 80068c6:	ea44 248c 	orr.w	r4, r4, ip, lsl #10
 80068ca:	b2a4      	uxth	r4, r4
 80068cc:	5284      	strh	r4, [r0, r2]
 80068ce:	784a      	ldrb	r2, [r1, #1]
 80068d0:	2a00      	cmp	r2, #0
 80068d2:	f47f af5f 	bne.w	8006794 <USB_EPStartXfer+0x564>
 80068d6:	f8b3 2050 	ldrh.w	r2, [r3, #80]	; 0x50
 80068da:	780c      	ldrb	r4, [r1, #0]
 80068dc:	b292      	uxth	r2, r2
 80068de:	f203 400c 	addw	r0, r3, #1036	; 0x40c
 80068e2:	4410      	add	r0, r2
 80068e4:	0124      	lsls	r4, r4, #4
 80068e6:	5b02      	ldrh	r2, [r0, r4]
 80068e8:	f3c2 0209 	ubfx	r2, r2, #0, #10
 80068ec:	5302      	strh	r2, [r0, r4]
 80068ee:	b107      	cbz	r7, 80068f2 <USB_EPStartXfer+0x6c2>
 80068f0:	3601      	adds	r6, #1
 80068f2:	5b02      	ldrh	r2, [r0, r4]
 80068f4:	b292      	uxth	r2, r2
 80068f6:	ea42 2286 	orr.w	r2, r2, r6, lsl #10
 80068fa:	b292      	uxth	r2, r2
 80068fc:	5302      	strh	r2, [r0, r4]
 80068fe:	e5e1      	b.n	80064c4 <USB_EPStartXfer+0x294>
 8006900:	0846      	lsrs	r6, r0, #1
 8006902:	07c5      	lsls	r5, r0, #31
 8006904:	bf48      	it	mi
 8006906:	3601      	addmi	r6, #1
 8006908:	5aa5      	ldrh	r5, [r4, r2]
 800690a:	02b6      	lsls	r6, r6, #10
 800690c:	b2b6      	uxth	r6, r6
 800690e:	b2ad      	uxth	r5, r5
 8006910:	4335      	orrs	r5, r6
 8006912:	52a5      	strh	r5, [r4, r2]
 8006914:	784a      	ldrb	r2, [r1, #1]
 8006916:	2a00      	cmp	r2, #0
 8006918:	f47f ad85 	bne.w	8006426 <USB_EPStartXfer+0x1f6>
 800691c:	f8b3 2050 	ldrh.w	r2, [r3, #80]	; 0x50
 8006920:	7808      	ldrb	r0, [r1, #0]
 8006922:	b294      	uxth	r4, r2
 8006924:	f203 420c 	addw	r2, r3, #1036	; 0x40c
 8006928:	4422      	add	r2, r4
 800692a:	0100      	lsls	r0, r0, #4
 800692c:	5a84      	ldrh	r4, [r0, r2]
 800692e:	f3c4 0409 	ubfx	r4, r4, #0, #10
 8006932:	5284      	strh	r4, [r0, r2]
 8006934:	5a84      	ldrh	r4, [r0, r2]
 8006936:	b2a4      	uxth	r4, r4
 8006938:	4326      	orrs	r6, r4
 800693a:	5286      	strh	r6, [r0, r2]
 800693c:	780a      	ldrb	r2, [r1, #0]
 800693e:	eb03 0282 	add.w	r2, r3, r2, lsl #2
 8006942:	e4e6      	b.n	8006312 <USB_EPStartXfer+0xe2>
 8006944:	2e01      	cmp	r6, #1
 8006946:	f47f ae2d 	bne.w	80065a4 <USB_EPStartXfer+0x374>
 800694a:	f8b3 7050 	ldrh.w	r7, [r3, #80]	; 0x50
 800694e:	f203 460c 	addw	r6, r3, #1036	; 0x40c
 8006952:	b2bf      	uxth	r7, r7
 8006954:	443e      	add	r6, r7
 8006956:	012d      	lsls	r5, r5, #4
 8006958:	b297      	uxth	r7, r2
 800695a:	5377      	strh	r7, [r6, r5]
 800695c:	e622      	b.n	80065a4 <USB_EPStartXfer+0x374>
 800695e:	2a01      	cmp	r2, #1
 8006960:	d18f      	bne.n	8006882 <USB_EPStartXfer+0x652>
 8006962:	f8b3 2050 	ldrh.w	r2, [r3, #80]	; 0x50
 8006966:	780c      	ldrb	r4, [r1, #0]
 8006968:	b292      	uxth	r2, r2
 800696a:	f202 420c 	addw	r2, r2, #1036	; 0x40c
 800696e:	eb02 1204 	add.w	r2, r2, r4, lsl #4
 8006972:	b284      	uxth	r4, r0
 8006974:	529c      	strh	r4, [r3, r2]
 8006976:	e784      	b.n	8006882 <USB_EPStartXfer+0x652>
 8006978:	2e01      	cmp	r6, #1
 800697a:	f47f af3b 	bne.w	80067f4 <USB_EPStartXfer+0x5c4>
 800697e:	f8b3 7050 	ldrh.w	r7, [r3, #80]	; 0x50
 8006982:	f203 4604 	addw	r6, r3, #1028	; 0x404
 8006986:	b2bf      	uxth	r7, r7
 8006988:	443e      	add	r6, r7
 800698a:	012d      	lsls	r5, r5, #4
 800698c:	b297      	uxth	r7, r2
 800698e:	5377      	strh	r7, [r6, r5]
 8006990:	e730      	b.n	80067f4 <USB_EPStartXfer+0x5c4>
 8006992:	2a01      	cmp	r2, #1
 8006994:	f47f ae4a 	bne.w	800662c <USB_EPStartXfer+0x3fc>
 8006998:	f8b3 2050 	ldrh.w	r2, [r3, #80]	; 0x50
 800699c:	780c      	ldrb	r4, [r1, #0]
 800699e:	b296      	uxth	r6, r2
 80069a0:	f203 4204 	addw	r2, r3, #1028	; 0x404
 80069a4:	4432      	add	r2, r6
 80069a6:	0124      	lsls	r4, r4, #4
 80069a8:	b286      	uxth	r6, r0
 80069aa:	52a6      	strh	r6, [r4, r2]
 80069ac:	e63e      	b.n	800662c <USB_EPStartXfer+0x3fc>
 80069ae:	bb62      	cbnz	r2, 8006a0a <USB_EPStartXfer+0x7da>
 80069b0:	f837 c006 	ldrh.w	ip, [r7, r6]
 80069b4:	694d      	ldr	r5, [r1, #20]
 80069b6:	ea6f 4c4c 	mvn.w	ip, ip, lsl #17
 80069ba:	ea6f 4c5c 	mvn.w	ip, ip, lsr #17
 80069be:	fa1f fc8c 	uxth.w	ip, ip
 80069c2:	f827 c006 	strh.w	ip, [r7, r6]
 80069c6:	e72e      	b.n	8006826 <USB_EPStartXfer+0x5f6>
 80069c8:	2800      	cmp	r0, #0
 80069ca:	d145      	bne.n	8006a58 <USB_EPStartXfer+0x828>
 80069cc:	5aa0      	ldrh	r0, [r4, r2]
 80069ce:	ea6f 4040 	mvn.w	r0, r0, lsl #17
 80069d2:	ea6f 4050 	mvn.w	r0, r0, lsr #17
 80069d6:	b280      	uxth	r0, r0
 80069d8:	52a0      	strh	r0, [r4, r2]
 80069da:	e4d4      	b.n	8006386 <USB_EPStartXfer+0x156>
 80069dc:	2a00      	cmp	r2, #0
 80069de:	d14e      	bne.n	8006a7e <USB_EPStartXfer+0x84e>
 80069e0:	f837 c006 	ldrh.w	ip, [r7, r6]
 80069e4:	694d      	ldr	r5, [r1, #20]
 80069e6:	ea6f 4c4c 	mvn.w	ip, ip, lsl #17
 80069ea:	ea6f 4c5c 	mvn.w	ip, ip, lsr #17
 80069ee:	fa1f fc8c 	uxth.w	ip, ip
 80069f2:	f827 c006 	strh.w	ip, [r7, r6]
 80069f6:	e5ed      	b.n	80065d4 <USB_EPStartXfer+0x3a4>
 80069f8:	b9e0      	cbnz	r0, 8006a34 <USB_EPStartXfer+0x804>
 80069fa:	8832      	ldrh	r2, [r6, #0]
 80069fc:	ea6f 4242 	mvn.w	r2, r2, lsl #17
 8006a00:	ea6f 4252 	mvn.w	r2, r2, lsr #17
 8006a04:	b292      	uxth	r2, r2
 8006a06:	8032      	strh	r2, [r6, #0]
 8006a08:	e4bd      	b.n	8006386 <USB_EPStartXfer+0x156>
 8006a0a:	07d5      	lsls	r5, r2, #31
 8006a0c:	5bbd      	ldrh	r5, [r7, r6]
 8006a0e:	ea4f 0e52 	mov.w	lr, r2, lsr #1
 8006a12:	bf48      	it	mi
 8006a14:	f10e 0e01 	addmi.w	lr, lr, #1
 8006a18:	b2ad      	uxth	r5, r5
 8006a1a:	ea45 258e 	orr.w	r5, r5, lr, lsl #10
 8006a1e:	b2ad      	uxth	r5, r5
 8006a20:	53bd      	strh	r5, [r7, r6]
 8006a22:	890d      	ldrh	r5, [r1, #8]
 8006a24:	f503 6c80 	add.w	ip, r3, #1024	; 0x400
 8006a28:	1c56      	adds	r6, r2, #1
 8006a2a:	eb0c 0c45 	add.w	ip, ip, r5, lsl #1
 8006a2e:	0876      	lsrs	r6, r6, #1
 8006a30:	694d      	ldr	r5, [r1, #20]
 8006a32:	e6ea      	b.n	800680a <USB_EPStartXfer+0x5da>
 8006a34:	8832      	ldrh	r2, [r6, #0]
 8006a36:	0844      	lsrs	r4, r0, #1
 8006a38:	07c7      	lsls	r7, r0, #31
 8006a3a:	bf48      	it	mi
 8006a3c:	3401      	addmi	r4, #1
 8006a3e:	b292      	uxth	r2, r2
 8006a40:	ea42 2284 	orr.w	r2, r2, r4, lsl #10
 8006a44:	b292      	uxth	r2, r2
 8006a46:	8032      	strh	r2, [r6, #0]
 8006a48:	894c      	ldrh	r4, [r1, #10]
 8006a4a:	3001      	adds	r0, #1
 8006a4c:	eb03 0444 	add.w	r4, r3, r4, lsl #1
 8006a50:	0840      	lsrs	r0, r0, #1
 8006a52:	f504 6480 	add.w	r4, r4, #1024	; 0x400
 8006a56:	e71e      	b.n	8006896 <USB_EPStartXfer+0x666>
 8006a58:	07c6      	lsls	r6, r0, #31
 8006a5a:	5aa6      	ldrh	r6, [r4, r2]
 8006a5c:	ea4f 0750 	mov.w	r7, r0, lsr #1
 8006a60:	bf48      	it	mi
 8006a62:	3701      	addmi	r7, #1
 8006a64:	b2b6      	uxth	r6, r6
 8006a66:	ea46 2687 	orr.w	r6, r6, r7, lsl #10
 8006a6a:	b2b6      	uxth	r6, r6
 8006a6c:	52a6      	strh	r6, [r4, r2]
 8006a6e:	890a      	ldrh	r2, [r1, #8]
 8006a70:	3001      	adds	r0, #1
 8006a72:	f503 6480 	add.w	r4, r3, #1024	; 0x400
 8006a76:	0846      	lsrs	r6, r0, #1
 8006a78:	eb04 0442 	add.w	r4, r4, r2, lsl #1
 8006a7c:	e5e0      	b.n	8006640 <USB_EPStartXfer+0x410>
 8006a7e:	07d5      	lsls	r5, r2, #31
 8006a80:	5bbd      	ldrh	r5, [r7, r6]
 8006a82:	ea4f 0e52 	mov.w	lr, r2, lsr #1
 8006a86:	bf48      	it	mi
 8006a88:	f10e 0e01 	addmi.w	lr, lr, #1
 8006a8c:	b2ad      	uxth	r5, r5
 8006a8e:	ea45 258e 	orr.w	r5, r5, lr, lsl #10
 8006a92:	b2ad      	uxth	r5, r5
 8006a94:	53bd      	strh	r5, [r7, r6]
 8006a96:	894d      	ldrh	r5, [r1, #10]
 8006a98:	f503 6c80 	add.w	ip, r3, #1024	; 0x400
 8006a9c:	1c56      	adds	r6, r2, #1
 8006a9e:	eb0c 0c45 	add.w	ip, ip, r5, lsl #1
 8006aa2:	0876      	lsrs	r6, r6, #1
 8006aa4:	694d      	ldr	r5, [r1, #20]
 8006aa6:	e587      	b.n	80065b8 <USB_EPStartXfer+0x388>

08006aa8 <USB_EPSetStall>:
 8006aa8:	784b      	ldrb	r3, [r1, #1]
 8006aaa:	780a      	ldrb	r2, [r1, #0]
 8006aac:	b18b      	cbz	r3, 8006ad2 <USB_EPSetStall+0x2a>
 8006aae:	f830 3022 	ldrh.w	r3, [r0, r2, lsl #2]
 8006ab2:	f423 43e0 	bic.w	r3, r3, #28672	; 0x7000
 8006ab6:	f023 0340 	bic.w	r3, r3, #64	; 0x40
 8006aba:	041b      	lsls	r3, r3, #16
 8006abc:	0c1b      	lsrs	r3, r3, #16
 8006abe:	f083 0310 	eor.w	r3, r3, #16
 8006ac2:	f443 4300 	orr.w	r3, r3, #32768	; 0x8000
 8006ac6:	f043 0380 	orr.w	r3, r3, #128	; 0x80
 8006aca:	f820 3022 	strh.w	r3, [r0, r2, lsl #2]
 8006ace:	2000      	movs	r0, #0
 8006ad0:	4770      	bx	lr
 8006ad2:	f830 3022 	ldrh.w	r3, [r0, r2, lsl #2]
 8006ad6:	f423 4380 	bic.w	r3, r3, #16384	; 0x4000
 8006ada:	f023 0370 	bic.w	r3, r3, #112	; 0x70
 8006ade:	041b      	lsls	r3, r3, #16
 8006ae0:	0c1b      	lsrs	r3, r3, #16
 8006ae2:	f483 5380 	eor.w	r3, r3, #4096	; 0x1000
 8006ae6:	f443 4300 	orr.w	r3, r3, #32768	; 0x8000
 8006aea:	f043 0380 	orr.w	r3, r3, #128	; 0x80
 8006aee:	f820 3022 	strh.w	r3, [r0, r2, lsl #2]
 8006af2:	2000      	movs	r0, #0
 8006af4:	4770      	bx	lr
 8006af6:	bf00      	nop

08006af8 <USB_EPClearStall>:
 8006af8:	7b0b      	ldrb	r3, [r1, #12]
 8006afa:	bb43      	cbnz	r3, 8006b4e <USB_EPClearStall+0x56>
 8006afc:	784b      	ldrb	r3, [r1, #1]
 8006afe:	b343      	cbz	r3, 8006b52 <USB_EPClearStall+0x5a>
 8006b00:	780a      	ldrb	r2, [r1, #0]
 8006b02:	f830 3022 	ldrh.w	r3, [r0, r2, lsl #2]
 8006b06:	065b      	lsls	r3, r3, #25
 8006b08:	d50d      	bpl.n	8006b26 <USB_EPClearStall+0x2e>
 8006b0a:	f830 3022 	ldrh.w	r3, [r0, r2, lsl #2]
 8006b0e:	f423 43e0 	bic.w	r3, r3, #28672	; 0x7000
 8006b12:	f023 0370 	bic.w	r3, r3, #112	; 0x70
 8006b16:	041b      	lsls	r3, r3, #16
 8006b18:	0c1b      	lsrs	r3, r3, #16
 8006b1a:	f443 4300 	orr.w	r3, r3, #32768	; 0x8000
 8006b1e:	f043 03c0 	orr.w	r3, r3, #192	; 0xc0
 8006b22:	f820 3022 	strh.w	r3, [r0, r2, lsl #2]
 8006b26:	78cb      	ldrb	r3, [r1, #3]
 8006b28:	2b01      	cmp	r3, #1
 8006b2a:	d010      	beq.n	8006b4e <USB_EPClearStall+0x56>
 8006b2c:	780a      	ldrb	r2, [r1, #0]
 8006b2e:	f830 3022 	ldrh.w	r3, [r0, r2, lsl #2]
 8006b32:	f423 43e0 	bic.w	r3, r3, #28672	; 0x7000
 8006b36:	f023 0340 	bic.w	r3, r3, #64	; 0x40
 8006b3a:	041b      	lsls	r3, r3, #16
 8006b3c:	0c1b      	lsrs	r3, r3, #16
 8006b3e:	f083 0320 	eor.w	r3, r3, #32
 8006b42:	f443 4300 	orr.w	r3, r3, #32768	; 0x8000
 8006b46:	f043 0380 	orr.w	r3, r3, #128	; 0x80
 8006b4a:	f820 3022 	strh.w	r3, [r0, r2, lsl #2]
 8006b4e:	2000      	movs	r0, #0
 8006b50:	4770      	bx	lr
 8006b52:	b410      	push	{r4}
 8006b54:	780c      	ldrb	r4, [r1, #0]
 8006b56:	f830 3024 	ldrh.w	r3, [r0, r4, lsl #2]
 8006b5a:	eb00 0284 	add.w	r2, r0, r4, lsl #2
 8006b5e:	045b      	lsls	r3, r3, #17
 8006b60:	d510      	bpl.n	8006b84 <USB_EPClearStall+0x8c>
 8006b62:	f830 3024 	ldrh.w	r3, [r0, r4, lsl #2]
 8006b66:	f423 43e0 	bic.w	r3, r3, #28672	; 0x7000
 8006b6a:	f023 0370 	bic.w	r3, r3, #112	; 0x70
 8006b6e:	041b      	lsls	r3, r3, #16
 8006b70:	0c1b      	lsrs	r3, r3, #16
 8006b72:	f443 4340 	orr.w	r3, r3, #49152	; 0xc000
 8006b76:	f043 0380 	orr.w	r3, r3, #128	; 0x80
 8006b7a:	f820 3024 	strh.w	r3, [r0, r4, lsl #2]
 8006b7e:	780a      	ldrb	r2, [r1, #0]
 8006b80:	eb00 0282 	add.w	r2, r0, r2, lsl #2
 8006b84:	8813      	ldrh	r3, [r2, #0]
 8006b86:	2000      	movs	r0, #0
 8006b88:	f423 4380 	bic.w	r3, r3, #16384	; 0x4000
 8006b8c:	f023 0370 	bic.w	r3, r3, #112	; 0x70
 8006b90:	041b      	lsls	r3, r3, #16
 8006b92:	0c1b      	lsrs	r3, r3, #16
 8006b94:	f483 5340 	eor.w	r3, r3, #12288	; 0x3000
 8006b98:	f443 4300 	orr.w	r3, r3, #32768	; 0x8000
 8006b9c:	f043 0380 	orr.w	r3, r3, #128	; 0x80
 8006ba0:	bc10      	pop	{r4}
 8006ba2:	8013      	strh	r3, [r2, #0]
 8006ba4:	4770      	bx	lr
 8006ba6:	bf00      	nop

08006ba8 <USB_SetDevAddress>:
 8006ba8:	b911      	cbnz	r1, 8006bb0 <USB_SetDevAddress+0x8>
 8006baa:	2380      	movs	r3, #128	; 0x80
 8006bac:	f8a0 304c 	strh.w	r3, [r0, #76]	; 0x4c
 8006bb0:	2000      	movs	r0, #0
 8006bb2:	4770      	bx	lr

08006bb4 <USB_DevConnect>:
 8006bb4:	2000      	movs	r0, #0
 8006bb6:	4770      	bx	lr

08006bb8 <USB_DevDisconnect>:
 8006bb8:	2000      	movs	r0, #0
 8006bba:	4770      	bx	lr

08006bbc <USB_ReadInterrupts>:
 8006bbc:	f8b0 0044 	ldrh.w	r0, [r0, #68]	; 0x44
 8006bc0:	b280      	uxth	r0, r0
 8006bc2:	4770      	bx	lr

08006bc4 <USB_EP0_OutStart>:
 8006bc4:	2000      	movs	r0, #0
 8006bc6:	4770      	bx	lr

08006bc8 <USB_WritePMA>:
 8006bc8:	3301      	adds	r3, #1
 8006bca:	085b      	lsrs	r3, r3, #1
 8006bcc:	eb00 0242 	add.w	r2, r0, r2, lsl #1
 8006bd0:	d012      	beq.n	8006bf8 <USB_WritePMA+0x30>
 8006bd2:	f502 6280 	add.w	r2, r2, #1024	; 0x400
 8006bd6:	b410      	push	{r4}
 8006bd8:	3102      	adds	r1, #2
 8006bda:	eb02 0483 	add.w	r4, r2, r3, lsl #2
 8006bde:	f811 0c01 	ldrb.w	r0, [r1, #-1]
 8006be2:	f811 3c02 	ldrb.w	r3, [r1, #-2]
 8006be6:	3102      	adds	r1, #2
 8006be8:	ea43 2300 	orr.w	r3, r3, r0, lsl #8
 8006bec:	f822 3b04 	strh.w	r3, [r2], #4
 8006bf0:	42a2      	cmp	r2, r4
 8006bf2:	d1f4      	bne.n	8006bde <USB_WritePMA+0x16>
 8006bf4:	bc10      	pop	{r4}
 8006bf6:	4770      	bx	lr
 8006bf8:	4770      	bx	lr
 8006bfa:	bf00      	nop

08006bfc <USB_ReadPMA>:
 8006bfc:	eb00 0042 	add.w	r0, r0, r2, lsl #1
 8006c00:	ea5f 0c53 	movs.w	ip, r3, lsr #1
 8006c04:	b4f0      	push	{r4, r5, r6, r7}
 8006c06:	f500 6780 	add.w	r7, r0, #1024	; 0x400
 8006c0a:	d013      	beq.n	8006c34 <USB_ReadPMA+0x38>
 8006c0c:	463d      	mov	r5, r7
 8006c0e:	4664      	mov	r4, ip
 8006c10:	1c88      	adds	r0, r1, #2
 8006c12:	f835 2b04 	ldrh.w	r2, [r5], #4
 8006c16:	3c01      	subs	r4, #1
 8006c18:	b292      	uxth	r2, r2
 8006c1a:	ea4f 2612 	mov.w	r6, r2, lsr #8
 8006c1e:	f800 2c02 	strb.w	r2, [r0, #-2]
 8006c22:	f800 6c01 	strb.w	r6, [r0, #-1]
 8006c26:	f100 0002 	add.w	r0, r0, #2
 8006c2a:	d1f2      	bne.n	8006c12 <USB_ReadPMA+0x16>
 8006c2c:	eb01 014c 	add.w	r1, r1, ip, lsl #1
 8006c30:	eb07 078c 	add.w	r7, r7, ip, lsl #2
 8006c34:	07db      	lsls	r3, r3, #31
 8006c36:	bf48      	it	mi
 8006c38:	883b      	ldrhmi	r3, [r7, #0]
 8006c3a:	bcf0      	pop	{r4, r5, r6, r7}
 8006c3c:	bf48      	it	mi
 8006c3e:	700b      	strbmi	r3, [r1, #0]
 8006c40:	4770      	bx	lr
 8006c42:	bf00      	nop

08006c44 <USBD_HID_GetFSCfgDesc>:
 8006c44:	4603      	mov	r3, r0
 8006c46:	2222      	movs	r2, #34	; 0x22
 8006c48:	4801      	ldr	r0, [pc, #4]	; (8006c50 <USBD_HID_GetFSCfgDesc+0xc>)
 8006c4a:	801a      	strh	r2, [r3, #0]
 8006c4c:	4770      	bx	lr
 8006c4e:	bf00      	nop
 8006c50:	200002b8 	.word	0x200002b8

08006c54 <USBD_HID_GetHSCfgDesc>:
 8006c54:	4603      	mov	r3, r0
 8006c56:	2222      	movs	r2, #34	; 0x22
 8006c58:	4801      	ldr	r0, [pc, #4]	; (8006c60 <USBD_HID_GetHSCfgDesc+0xc>)
 8006c5a:	801a      	strh	r2, [r3, #0]
 8006c5c:	4770      	bx	lr
 8006c5e:	bf00      	nop
 8006c60:	200002dc 	.word	0x200002dc

08006c64 <USBD_HID_GetOtherSpeedCfgDesc>:
 8006c64:	4603      	mov	r3, r0
 8006c66:	2222      	movs	r2, #34	; 0x22
 8006c68:	4801      	ldr	r0, [pc, #4]	; (8006c70 <USBD_HID_GetOtherSpeedCfgDesc+0xc>)
 8006c6a:	801a      	strh	r2, [r3, #0]
 8006c6c:	4770      	bx	lr
 8006c6e:	bf00      	nop
 8006c70:	20000318 	.word	0x20000318

08006c74 <USBD_HID_DataIn>:
 8006c74:	2300      	movs	r3, #0
 8006c76:	f8d0 22c8 	ldr.w	r2, [r0, #712]	; 0x2c8
 8006c7a:	4618      	mov	r0, r3
 8006c7c:	7313      	strb	r3, [r2, #12]
 8006c7e:	4770      	bx	lr

08006c80 <USBD_HID_GetDeviceQualifierDesc>:
 8006c80:	4603      	mov	r3, r0
 8006c82:	220a      	movs	r2, #10
 8006c84:	4801      	ldr	r0, [pc, #4]	; (8006c8c <USBD_HID_GetDeviceQualifierDesc+0xc>)
 8006c86:	801a      	strh	r2, [r3, #0]
 8006c88:	4770      	bx	lr
 8006c8a:	bf00      	nop
 8006c8c:	2000030c 	.word	0x2000030c

08006c90 <USBD_HID_Setup>:
 8006c90:	2300      	movs	r3, #0
 8006c92:	b510      	push	{r4, lr}
 8006c94:	780c      	ldrb	r4, [r1, #0]
 8006c96:	b082      	sub	sp, #8
 8006c98:	f014 0460 	ands.w	r4, r4, #96	; 0x60
 8006c9c:	f8d0 22c8 	ldr.w	r2, [r0, #712]	; 0x2c8
 8006ca0:	f8ad 3006 	strh.w	r3, [sp, #6]
 8006ca4:	d016      	beq.n	8006cd4 <USBD_HID_Setup+0x44>
 8006ca6:	2c20      	cmp	r4, #32
 8006ca8:	d10e      	bne.n	8006cc8 <USBD_HID_Setup+0x38>
 8006caa:	784b      	ldrb	r3, [r1, #1]
 8006cac:	3b02      	subs	r3, #2
 8006cae:	2b09      	cmp	r3, #9
 8006cb0:	d80a      	bhi.n	8006cc8 <USBD_HID_Setup+0x38>
 8006cb2:	e8df f003 	tbb	[pc, r3]
 8006cb6:	3933      	.short	0x3933
 8006cb8:	09090909 	.word	0x09090909
 8006cbc:	2f3f0909 	.word	0x2f3f0909
 8006cc0:	f890 329c 	ldrb.w	r3, [r0, #668]	; 0x29c
 8006cc4:	2b03      	cmp	r3, #3
 8006cc6:	d05a      	beq.n	8006d7e <USBD_HID_Setup+0xee>
 8006cc8:	f000 fc40 	bl	800754c <USBD_CtlError>
 8006ccc:	2402      	movs	r4, #2
 8006cce:	4620      	mov	r0, r4
 8006cd0:	b002      	add	sp, #8
 8006cd2:	bd10      	pop	{r4, pc}
 8006cd4:	784b      	ldrb	r3, [r1, #1]
 8006cd6:	2b0b      	cmp	r3, #11
 8006cd8:	d8f6      	bhi.n	8006cc8 <USBD_HID_Setup+0x38>
 8006cda:	f20f 0c08 	addw	ip, pc, #8
 8006cde:	f85c f023 	ldr.w	pc, [ip, r3, lsl #2]
 8006ce2:	bf00      	nop
 8006ce4:	08006d69 	.word	0x08006d69
 8006ce8:	08006cc9 	.word	0x08006cc9
 8006cec:	08006cc9 	.word	0x08006cc9
 8006cf0:	08006cc9 	.word	0x08006cc9
 8006cf4:	08006cc9 	.word	0x08006cc9
 8006cf8:	08006cc9 	.word	0x08006cc9
 8006cfc:	08006d3f 	.word	0x08006d3f
 8006d00:	08006cc9 	.word	0x08006cc9
 8006d04:	08006cc9 	.word	0x08006cc9
 8006d08:	08006cc9 	.word	0x08006cc9
 8006d0c:	08006cc1 	.word	0x08006cc1
 8006d10:	08006d5b 	.word	0x08006d5b
 8006d14:	788b      	ldrb	r3, [r1, #2]
 8006d16:	2400      	movs	r4, #0
 8006d18:	6013      	str	r3, [r2, #0]
 8006d1a:	e7d8      	b.n	8006cce <USBD_HID_Setup+0x3e>
 8006d1c:	1d11      	adds	r1, r2, #4
 8006d1e:	2201      	movs	r2, #1
 8006d20:	f000 fc46 	bl	80075b0 <USBD_CtlSendData>
 8006d24:	2400      	movs	r4, #0
 8006d26:	e7d2      	b.n	8006cce <USBD_HID_Setup+0x3e>
 8006d28:	4611      	mov	r1, r2
 8006d2a:	2201      	movs	r2, #1
 8006d2c:	f000 fc40 	bl	80075b0 <USBD_CtlSendData>
 8006d30:	2400      	movs	r4, #0
 8006d32:	e7cc      	b.n	8006cce <USBD_HID_Setup+0x3e>
 8006d34:	884b      	ldrh	r3, [r1, #2]
 8006d36:	2400      	movs	r4, #0
 8006d38:	0a1b      	lsrs	r3, r3, #8
 8006d3a:	6053      	str	r3, [r2, #4]
 8006d3c:	e7c7      	b.n	8006cce <USBD_HID_Setup+0x3e>
 8006d3e:	884b      	ldrh	r3, [r1, #2]
 8006d40:	0a1b      	lsrs	r3, r3, #8
 8006d42:	2b22      	cmp	r3, #34	; 0x22
 8006d44:	d01f      	beq.n	8006d86 <USBD_HID_Setup+0xf6>
 8006d46:	2b21      	cmp	r3, #33	; 0x21
 8006d48:	d1be      	bne.n	8006cc8 <USBD_HID_Setup+0x38>
 8006d4a:	88ca      	ldrh	r2, [r1, #6]
 8006d4c:	4911      	ldr	r1, [pc, #68]	; (8006d94 <USBD_HID_Setup+0x104>)
 8006d4e:	2a09      	cmp	r2, #9
 8006d50:	bf28      	it	cs
 8006d52:	2209      	movcs	r2, #9
 8006d54:	f000 fc2c 	bl	80075b0 <USBD_CtlSendData>
 8006d58:	e7b9      	b.n	8006cce <USBD_HID_Setup+0x3e>
 8006d5a:	f890 329c 	ldrb.w	r3, [r0, #668]	; 0x29c
 8006d5e:	2b03      	cmp	r3, #3
 8006d60:	d1b2      	bne.n	8006cc8 <USBD_HID_Setup+0x38>
 8006d62:	788b      	ldrb	r3, [r1, #2]
 8006d64:	6093      	str	r3, [r2, #8]
 8006d66:	e7b2      	b.n	8006cce <USBD_HID_Setup+0x3e>
 8006d68:	f890 229c 	ldrb.w	r2, [r0, #668]	; 0x29c
 8006d6c:	2a03      	cmp	r2, #3
 8006d6e:	d1ab      	bne.n	8006cc8 <USBD_HID_Setup+0x38>
 8006d70:	2202      	movs	r2, #2
 8006d72:	f10d 0106 	add.w	r1, sp, #6
 8006d76:	461c      	mov	r4, r3
 8006d78:	f000 fc1a 	bl	80075b0 <USBD_CtlSendData>
 8006d7c:	e7a7      	b.n	8006cce <USBD_HID_Setup+0x3e>
 8006d7e:	f102 0108 	add.w	r1, r2, #8
 8006d82:	2201      	movs	r2, #1
 8006d84:	e7e6      	b.n	8006d54 <USBD_HID_Setup+0xc4>
 8006d86:	88ca      	ldrh	r2, [r1, #6]
 8006d88:	4903      	ldr	r1, [pc, #12]	; (8006d98 <USBD_HID_Setup+0x108>)
 8006d8a:	2a3f      	cmp	r2, #63	; 0x3f
 8006d8c:	bf28      	it	cs
 8006d8e:	223f      	movcs	r2, #63	; 0x3f
 8006d90:	e7e0      	b.n	8006d54 <USBD_HID_Setup+0xc4>
 8006d92:	bf00      	nop
 8006d94:	20000300 	.word	0x20000300
 8006d98:	20000240 	.word	0x20000240

08006d9c <USBD_HID_DeInit>:
 8006d9c:	b510      	push	{r4, lr}
 8006d9e:	4604      	mov	r4, r0
 8006da0:	2181      	movs	r1, #129	; 0x81
 8006da2:	f000 feed 	bl	8007b80 <USBD_LL_CloseEP>
 8006da6:	2300      	movs	r3, #0
 8006da8:	f8d4 22b8 	ldr.w	r2, [r4, #696]	; 0x2b8
 8006dac:	62e3      	str	r3, [r4, #44]	; 0x2c
 8006dae:	b10a      	cbz	r2, 8006db4 <USBD_HID_DeInit+0x18>
 8006db0:	f8c4 32b8 	str.w	r3, [r4, #696]	; 0x2b8
 8006db4:	2000      	movs	r0, #0
 8006db6:	bd10      	pop	{r4, pc}

08006db8 <USBD_HID_Init>:
 8006db8:	b510      	push	{r4, lr}
 8006dba:	4604      	mov	r4, r0
 8006dbc:	2340      	movs	r3, #64	; 0x40
 8006dbe:	2203      	movs	r2, #3
 8006dc0:	2181      	movs	r1, #129	; 0x81
 8006dc2:	f000 fecd 	bl	8007b60 <USBD_LL_OpenEP>
 8006dc6:	2201      	movs	r2, #1
 8006dc8:	2000      	movs	r0, #0
 8006dca:	f8d4 32c8 	ldr.w	r3, [r4, #712]	; 0x2c8
 8006dce:	62e2      	str	r2, [r4, #44]	; 0x2c
 8006dd0:	7318      	strb	r0, [r3, #12]
 8006dd2:	bd10      	pop	{r4, pc}

08006dd4 <USBD_HID_SendReport>:
 8006dd4:	b538      	push	{r3, r4, r5, lr}
 8006dd6:	f890 329c 	ldrb.w	r3, [r0, #668]	; 0x29c
 8006dda:	2b03      	cmp	r3, #3
 8006ddc:	d001      	beq.n	8006de2 <USBD_HID_SendReport+0xe>
 8006dde:	2000      	movs	r0, #0
 8006de0:	bd38      	pop	{r3, r4, r5, pc}
 8006de2:	f8d0 42c8 	ldr.w	r4, [r0, #712]	; 0x2c8
 8006de6:	7b23      	ldrb	r3, [r4, #12]
 8006de8:	2b00      	cmp	r3, #0
 8006dea:	d1f8      	bne.n	8006dde <USBD_HID_SendReport+0xa>
 8006dec:	2501      	movs	r5, #1
 8006dee:	4613      	mov	r3, r2
 8006df0:	7325      	strb	r5, [r4, #12]
 8006df2:	460a      	mov	r2, r1
 8006df4:	2181      	movs	r1, #129	; 0x81
 8006df6:	f000 ff0f 	bl	8007c18 <USBD_LL_Transmit>
 8006dfa:	2000      	movs	r0, #0
 8006dfc:	bd38      	pop	{r3, r4, r5, pc}
 8006dfe:	bf00      	nop

08006e00 <USBD_Init>:
 8006e00:	b188      	cbz	r0, 8006e26 <USBD_Init+0x26>
 8006e02:	b508      	push	{r3, lr}
 8006e04:	f8d0 32b4 	ldr.w	r3, [r0, #692]	; 0x2b4
 8006e08:	b113      	cbz	r3, 8006e10 <USBD_Init+0x10>
 8006e0a:	2300      	movs	r3, #0
 8006e0c:	f8c0 32b4 	str.w	r3, [r0, #692]	; 0x2b4
 8006e10:	b109      	cbz	r1, 8006e16 <USBD_Init+0x16>
 8006e12:	f8c0 12b0 	str.w	r1, [r0, #688]	; 0x2b0
 8006e16:	2301      	movs	r3, #1
 8006e18:	7002      	strb	r2, [r0, #0]
 8006e1a:	f880 329c 	strb.w	r3, [r0, #668]	; 0x29c
 8006e1e:	f000 fe47 	bl	8007ab0 <USBD_LL_Init>
 8006e22:	2000      	movs	r0, #0
 8006e24:	bd08      	pop	{r3, pc}
 8006e26:	2002      	movs	r0, #2
 8006e28:	4770      	bx	lr
 8006e2a:	bf00      	nop

08006e2c <USBD_RegisterClass>:
 8006e2c:	b119      	cbz	r1, 8006e36 <USBD_RegisterClass+0xa>
 8006e2e:	f8c0 12b4 	str.w	r1, [r0, #692]	; 0x2b4
 8006e32:	2000      	movs	r0, #0
 8006e34:	4770      	bx	lr
 8006e36:	2002      	movs	r0, #2
 8006e38:	4770      	bx	lr
 8006e3a:	bf00      	nop

08006e3c <USBD_Start>:
 8006e3c:	b508      	push	{r3, lr}
 8006e3e:	f000 fe81 	bl	8007b44 <USBD_LL_Start>
 8006e42:	2000      	movs	r0, #0
 8006e44:	bd08      	pop	{r3, pc}
 8006e46:	bf00      	nop

08006e48 <USBD_SetClassConfig>:
 8006e48:	b508      	push	{r3, lr}
 8006e4a:	f8d0 32b4 	ldr.w	r3, [r0, #692]	; 0x2b4
 8006e4e:	b11b      	cbz	r3, 8006e58 <USBD_SetClassConfig+0x10>
 8006e50:	681b      	ldr	r3, [r3, #0]
 8006e52:	4798      	blx	r3
 8006e54:	b900      	cbnz	r0, 8006e58 <USBD_SetClassConfig+0x10>
 8006e56:	bd08      	pop	{r3, pc}
 8006e58:	2002      	movs	r0, #2
 8006e5a:	bd08      	pop	{r3, pc}

08006e5c <USBD_ClrClassConfig>:
 8006e5c:	b508      	push	{r3, lr}
 8006e5e:	f8d0 32b4 	ldr.w	r3, [r0, #692]	; 0x2b4
 8006e62:	685b      	ldr	r3, [r3, #4]
 8006e64:	4798      	blx	r3
 8006e66:	2000      	movs	r0, #0
 8006e68:	bd08      	pop	{r3, pc}
 8006e6a:	bf00      	nop

08006e6c <USBD_LL_SetupStage>:
 8006e6c:	b538      	push	{r3, r4, r5, lr}
 8006e6e:	4604      	mov	r4, r0
 8006e70:	f500 752a 	add.w	r5, r0, #680	; 0x2a8
 8006e74:	4628      	mov	r0, r5
 8006e76:	f000 fb55 	bl	8007524 <USBD_ParseSetupRequest>
 8006e7a:	2001      	movs	r0, #1
 8006e7c:	f894 12a8 	ldrb.w	r1, [r4, #680]	; 0x2a8
 8006e80:	f8b4 22ae 	ldrh.w	r2, [r4, #686]	; 0x2ae
 8006e84:	f001 031f 	and.w	r3, r1, #31
 8006e88:	4283      	cmp	r3, r0
 8006e8a:	e9c4 02a5 	strd	r0, r2, [r4, #660]	; 0x294
 8006e8e:	d009      	beq.n	8006ea4 <USBD_LL_SetupStage+0x38>
 8006e90:	2b02      	cmp	r3, #2
 8006e92:	d013      	beq.n	8006ebc <USBD_LL_SetupStage+0x50>
 8006e94:	b163      	cbz	r3, 8006eb0 <USBD_LL_SetupStage+0x44>
 8006e96:	4620      	mov	r0, r4
 8006e98:	f001 0180 	and.w	r1, r1, #128	; 0x80
 8006e9c:	f000 fe7e 	bl	8007b9c <USBD_LL_StallEP>
 8006ea0:	2000      	movs	r0, #0
 8006ea2:	bd38      	pop	{r3, r4, r5, pc}
 8006ea4:	4629      	mov	r1, r5
 8006ea6:	4620      	mov	r0, r4
 8006ea8:	f000 fa70 	bl	800738c <USBD_StdItfReq>
 8006eac:	2000      	movs	r0, #0
 8006eae:	bd38      	pop	{r3, r4, r5, pc}
 8006eb0:	4629      	mov	r1, r5
 8006eb2:	4620      	mov	r0, r4
 8006eb4:	f000 f8f4 	bl	80070a0 <USBD_StdDevReq>
 8006eb8:	2000      	movs	r0, #0
 8006eba:	bd38      	pop	{r3, r4, r5, pc}
 8006ebc:	4629      	mov	r1, r5
 8006ebe:	4620      	mov	r0, r4
 8006ec0:	f000 fa98 	bl	80073f4 <USBD_StdEPReq>
 8006ec4:	2000      	movs	r0, #0
 8006ec6:	bd38      	pop	{r3, r4, r5, pc}

08006ec8 <USBD_LL_DataOutStage>:
 8006ec8:	b538      	push	{r3, r4, r5, lr}
 8006eca:	4605      	mov	r5, r0
 8006ecc:	b969      	cbnz	r1, 8006eea <USBD_LL_DataOutStage+0x22>
 8006ece:	4613      	mov	r3, r2
 8006ed0:	f8d0 2294 	ldr.w	r2, [r0, #660]	; 0x294
 8006ed4:	2a03      	cmp	r2, #3
 8006ed6:	d015      	beq.n	8006f04 <USBD_LL_DataOutStage+0x3c>
 8006ed8:	2a05      	cmp	r2, #5
 8006eda:	460c      	mov	r4, r1
 8006edc:	d10e      	bne.n	8006efc <USBD_LL_DataOutStage+0x34>
 8006ede:	f8c5 1294 	str.w	r1, [r5, #660]	; 0x294
 8006ee2:	f000 fe5b 	bl	8007b9c <USBD_LL_StallEP>
 8006ee6:	4620      	mov	r0, r4
 8006ee8:	bd38      	pop	{r3, r4, r5, pc}
 8006eea:	f8d0 32b4 	ldr.w	r3, [r0, #692]	; 0x2b4
 8006eee:	699b      	ldr	r3, [r3, #24]
 8006ef0:	b133      	cbz	r3, 8006f00 <USBD_LL_DataOutStage+0x38>
 8006ef2:	f890 229c 	ldrb.w	r2, [r0, #668]	; 0x29c
 8006ef6:	2a03      	cmp	r2, #3
 8006ef8:	d102      	bne.n	8006f00 <USBD_LL_DataOutStage+0x38>
 8006efa:	4798      	blx	r3
 8006efc:	2000      	movs	r0, #0
 8006efe:	bd38      	pop	{r3, r4, r5, pc}
 8006f00:	2002      	movs	r0, #2
 8006f02:	bd38      	pop	{r3, r4, r5, pc}
 8006f04:	e9d0 1258 	ldrd	r1, r2, [r0, #352]	; 0x160
 8006f08:	4291      	cmp	r1, r2
 8006f0a:	d90c      	bls.n	8006f26 <USBD_LL_DataOutStage+0x5e>
 8006f0c:	1a89      	subs	r1, r1, r2
 8006f0e:	428a      	cmp	r2, r1
 8006f10:	bf88      	it	hi
 8006f12:	b28a      	uxthhi	r2, r1
 8006f14:	f8c0 1160 	str.w	r1, [r0, #352]	; 0x160
 8006f18:	bf98      	it	ls
 8006f1a:	b292      	uxthls	r2, r2
 8006f1c:	4619      	mov	r1, r3
 8006f1e:	f000 fb6d 	bl	80075fc <USBD_CtlContinueRx>
 8006f22:	2000      	movs	r0, #0
 8006f24:	bd38      	pop	{r3, r4, r5, pc}
 8006f26:	f8d0 32b4 	ldr.w	r3, [r0, #692]	; 0x2b4
 8006f2a:	691b      	ldr	r3, [r3, #16]
 8006f2c:	b11b      	cbz	r3, 8006f36 <USBD_LL_DataOutStage+0x6e>
 8006f2e:	f890 229c 	ldrb.w	r2, [r0, #668]	; 0x29c
 8006f32:	2a03      	cmp	r2, #3
 8006f34:	d004      	beq.n	8006f40 <USBD_LL_DataOutStage+0x78>
 8006f36:	4628      	mov	r0, r5
 8006f38:	f000 fb6a 	bl	8007610 <USBD_CtlSendStatus>
 8006f3c:	2000      	movs	r0, #0
 8006f3e:	bd38      	pop	{r3, r4, r5, pc}
 8006f40:	4798      	blx	r3
 8006f42:	e7f8      	b.n	8006f36 <USBD_LL_DataOutStage+0x6e>

08006f44 <USBD_LL_DataInStage>:
 8006f44:	b570      	push	{r4, r5, r6, lr}
 8006f46:	4604      	mov	r4, r0
 8006f48:	b981      	cbnz	r1, 8006f6c <USBD_LL_DataInStage+0x28>
 8006f4a:	4613      	mov	r3, r2
 8006f4c:	f8d0 2294 	ldr.w	r2, [r0, #660]	; 0x294
 8006f50:	2a02      	cmp	r2, #2
 8006f52:	d01b      	beq.n	8006f8c <USBD_LL_DataInStage+0x48>
 8006f54:	f032 0304 	bics.w	r3, r2, #4
 8006f58:	d102      	bne.n	8006f60 <USBD_LL_DataInStage+0x1c>
 8006f5a:	2180      	movs	r1, #128	; 0x80
 8006f5c:	f000 fe1e 	bl	8007b9c <USBD_LL_StallEP>
 8006f60:	f894 32a0 	ldrb.w	r3, [r4, #672]	; 0x2a0
 8006f64:	2000      	movs	r0, #0
 8006f66:	2b01      	cmp	r3, #1
 8006f68:	d00d      	beq.n	8006f86 <USBD_LL_DataInStage+0x42>
 8006f6a:	bd70      	pop	{r4, r5, r6, pc}
 8006f6c:	f8d0 32b4 	ldr.w	r3, [r0, #692]	; 0x2b4
 8006f70:	695b      	ldr	r3, [r3, #20]
 8006f72:	b133      	cbz	r3, 8006f82 <USBD_LL_DataInStage+0x3e>
 8006f74:	f890 229c 	ldrb.w	r2, [r0, #668]	; 0x29c
 8006f78:	2a03      	cmp	r2, #3
 8006f7a:	d102      	bne.n	8006f82 <USBD_LL_DataInStage+0x3e>
 8006f7c:	4798      	blx	r3
 8006f7e:	2000      	movs	r0, #0
 8006f80:	bd70      	pop	{r4, r5, r6, pc}
 8006f82:	2002      	movs	r0, #2
 8006f84:	bd70      	pop	{r4, r5, r6, pc}
 8006f86:	f884 02a0 	strb.w	r0, [r4, #672]	; 0x2a0
 8006f8a:	bd70      	pop	{r4, r5, r6, pc}
 8006f8c:	e9d0 2608 	ldrd	r2, r6, [r0, #32]
 8006f90:	42b2      	cmp	r2, r6
 8006f92:	d826      	bhi.n	8006fe2 <USBD_LL_DataInStage+0x9e>
 8006f94:	69c3      	ldr	r3, [r0, #28]
 8006f96:	fbb3 f5f6 	udiv	r5, r3, r6
 8006f9a:	fb06 3515 	mls	r5, r6, r5, r3
 8006f9e:	b95d      	cbnz	r5, 8006fb8 <USBD_LL_DataInStage+0x74>
 8006fa0:	429e      	cmp	r6, r3
 8006fa2:	d809      	bhi.n	8006fb8 <USBD_LL_DataInStage+0x74>
 8006fa4:	f8d0 2298 	ldr.w	r2, [r0, #664]	; 0x298
 8006fa8:	4293      	cmp	r3, r2
 8006faa:	d205      	bcs.n	8006fb8 <USBD_LL_DataInStage+0x74>
 8006fac:	462a      	mov	r2, r5
 8006fae:	f000 fb0d 	bl	80075cc <USBD_CtlContinueSendData>
 8006fb2:	f8c4 5298 	str.w	r5, [r4, #664]	; 0x298
 8006fb6:	e01b      	b.n	8006ff0 <USBD_LL_DataInStage+0xac>
 8006fb8:	f8d4 32b4 	ldr.w	r3, [r4, #692]	; 0x2b4
 8006fbc:	68db      	ldr	r3, [r3, #12]
 8006fbe:	b11b      	cbz	r3, 8006fc8 <USBD_LL_DataInStage+0x84>
 8006fc0:	f894 229c 	ldrb.w	r2, [r4, #668]	; 0x29c
 8006fc4:	2a03      	cmp	r2, #3
 8006fc6:	d01a      	beq.n	8006ffe <USBD_LL_DataInStage+0xba>
 8006fc8:	2180      	movs	r1, #128	; 0x80
 8006fca:	4620      	mov	r0, r4
 8006fcc:	f000 fde6 	bl	8007b9c <USBD_LL_StallEP>
 8006fd0:	4620      	mov	r0, r4
 8006fd2:	f000 fb29 	bl	8007628 <USBD_CtlReceiveStatus>
 8006fd6:	f894 32a0 	ldrb.w	r3, [r4, #672]	; 0x2a0
 8006fda:	2000      	movs	r0, #0
 8006fdc:	2b01      	cmp	r3, #1
 8006fde:	d1c4      	bne.n	8006f6a <USBD_LL_DataInStage+0x26>
 8006fe0:	e7d1      	b.n	8006f86 <USBD_LL_DataInStage+0x42>
 8006fe2:	1b92      	subs	r2, r2, r6
 8006fe4:	460d      	mov	r5, r1
 8006fe6:	6202      	str	r2, [r0, #32]
 8006fe8:	4619      	mov	r1, r3
 8006fea:	b292      	uxth	r2, r2
 8006fec:	f000 faee 	bl	80075cc <USBD_CtlContinueSendData>
 8006ff0:	462b      	mov	r3, r5
 8006ff2:	462a      	mov	r2, r5
 8006ff4:	4629      	mov	r1, r5
 8006ff6:	4620      	mov	r0, r4
 8006ff8:	f000 fe1c 	bl	8007c34 <USBD_LL_PrepareReceive>
 8006ffc:	e7b0      	b.n	8006f60 <USBD_LL_DataInStage+0x1c>
 8006ffe:	4620      	mov	r0, r4
 8007000:	4798      	blx	r3
 8007002:	e7e1      	b.n	8006fc8 <USBD_LL_DataInStage+0x84>

08007004 <USBD_LL_Reset>:
 8007004:	b570      	push	{r4, r5, r6, lr}
 8007006:	2200      	movs	r2, #0
 8007008:	2640      	movs	r6, #64	; 0x40
 800700a:	4604      	mov	r4, r0
 800700c:	2501      	movs	r5, #1
 800700e:	4611      	mov	r1, r2
 8007010:	4633      	mov	r3, r6
 8007012:	f000 fda5 	bl	8007b60 <USBD_LL_OpenEP>
 8007016:	4633      	mov	r3, r6
 8007018:	2180      	movs	r1, #128	; 0x80
 800701a:	4620      	mov	r0, r4
 800701c:	2200      	movs	r2, #0
 800701e:	f8c4 5158 	str.w	r5, [r4, #344]	; 0x158
 8007022:	f8c4 6164 	str.w	r6, [r4, #356]	; 0x164
 8007026:	f000 fd9b 	bl	8007b60 <USBD_LL_OpenEP>
 800702a:	2100      	movs	r1, #0
 800702c:	f8d4 32b8 	ldr.w	r3, [r4, #696]	; 0x2b8
 8007030:	61a5      	str	r5, [r4, #24]
 8007032:	6266      	str	r6, [r4, #36]	; 0x24
 8007034:	f884 529c 	strb.w	r5, [r4, #668]	; 0x29c
 8007038:	f8c4 1294 	str.w	r1, [r4, #660]	; 0x294
 800703c:	6061      	str	r1, [r4, #4]
 800703e:	f8c4 12a4 	str.w	r1, [r4, #676]	; 0x2a4
 8007042:	b123      	cbz	r3, 800704e <USBD_LL_Reset+0x4a>
 8007044:	f8d4 32b4 	ldr.w	r3, [r4, #692]	; 0x2b4
 8007048:	4620      	mov	r0, r4
 800704a:	685b      	ldr	r3, [r3, #4]
 800704c:	4798      	blx	r3
 800704e:	2000      	movs	r0, #0
 8007050:	bd70      	pop	{r4, r5, r6, pc}
 8007052:	bf00      	nop

08007054 <USBD_LL_SetSpeed>:
 8007054:	4603      	mov	r3, r0
 8007056:	2000      	movs	r0, #0
 8007058:	7419      	strb	r1, [r3, #16]
 800705a:	4770      	bx	lr

0800705c <USBD_LL_Suspend>:
 800705c:	4603      	mov	r3, r0
 800705e:	2204      	movs	r2, #4
 8007060:	f890 129c 	ldrb.w	r1, [r0, #668]	; 0x29c
 8007064:	2000      	movs	r0, #0
 8007066:	f883 129d 	strb.w	r1, [r3, #669]	; 0x29d
 800706a:	f883 229c 	strb.w	r2, [r3, #668]	; 0x29c
 800706e:	4770      	bx	lr

08007070 <USBD_LL_Resume>:
 8007070:	f890 329c 	ldrb.w	r3, [r0, #668]	; 0x29c
 8007074:	2b04      	cmp	r3, #4
 8007076:	bf04      	itt	eq
 8007078:	f890 329d 	ldrbeq.w	r3, [r0, #669]	; 0x29d
 800707c:	f880 329c 	strbeq.w	r3, [r0, #668]	; 0x29c
 8007080:	2000      	movs	r0, #0
 8007082:	4770      	bx	lr

08007084 <USBD_LL_SOF>:
 8007084:	f890 229c 	ldrb.w	r2, [r0, #668]	; 0x29c
 8007088:	2a03      	cmp	r2, #3
 800708a:	d001      	beq.n	8007090 <USBD_LL_SOF+0xc>
 800708c:	2000      	movs	r0, #0
 800708e:	4770      	bx	lr
 8007090:	b508      	push	{r3, lr}
 8007092:	f8d0 32b4 	ldr.w	r3, [r0, #692]	; 0x2b4
 8007096:	69db      	ldr	r3, [r3, #28]
 8007098:	b103      	cbz	r3, 800709c <USBD_LL_SOF+0x18>
 800709a:	4798      	blx	r3
 800709c:	2000      	movs	r0, #0
 800709e:	bd08      	pop	{r3, pc}

080070a0 <USBD_StdDevReq>:
 80070a0:	b530      	push	{r4, r5, lr}
 80070a2:	780b      	ldrb	r3, [r1, #0]
 80070a4:	460d      	mov	r5, r1
 80070a6:	f003 0360 	and.w	r3, r3, #96	; 0x60
 80070aa:	2b20      	cmp	r3, #32
 80070ac:	4604      	mov	r4, r0
 80070ae:	b083      	sub	sp, #12
 80070b0:	d00d      	beq.n	80070ce <USBD_StdDevReq+0x2e>
 80070b2:	2b40      	cmp	r3, #64	; 0x40
 80070b4:	d00b      	beq.n	80070ce <USBD_StdDevReq+0x2e>
 80070b6:	b19b      	cbz	r3, 80070e0 <USBD_StdDevReq+0x40>
 80070b8:	2180      	movs	r1, #128	; 0x80
 80070ba:	4620      	mov	r0, r4
 80070bc:	f000 fd6e 	bl	8007b9c <USBD_LL_StallEP>
 80070c0:	4620      	mov	r0, r4
 80070c2:	2100      	movs	r1, #0
 80070c4:	f000 fd6a 	bl	8007b9c <USBD_LL_StallEP>
 80070c8:	2000      	movs	r0, #0
 80070ca:	b003      	add	sp, #12
 80070cc:	bd30      	pop	{r4, r5, pc}
 80070ce:	f8d4 32b4 	ldr.w	r3, [r4, #692]	; 0x2b4
 80070d2:	4629      	mov	r1, r5
 80070d4:	4620      	mov	r0, r4
 80070d6:	689b      	ldr	r3, [r3, #8]
 80070d8:	4798      	blx	r3
 80070da:	2000      	movs	r0, #0
 80070dc:	b003      	add	sp, #12
 80070de:	bd30      	pop	{r4, r5, pc}
 80070e0:	784b      	ldrb	r3, [r1, #1]
 80070e2:	2b09      	cmp	r3, #9
 80070e4:	d8e8      	bhi.n	80070b8 <USBD_StdDevReq+0x18>
 80070e6:	a201      	add	r2, pc, #4	; (adr r2, 80070ec <USBD_StdDevReq+0x4c>)
 80070e8:	f852 f023 	ldr.w	pc, [r2, r3, lsl #2]
 80070ec:	08007147 	.word	0x08007147
 80070f0:	0800716f 	.word	0x0800716f
 80070f4:	080070b9 	.word	0x080070b9
 80070f8:	0800718b 	.word	0x0800718b
 80070fc:	080070b9 	.word	0x080070b9
 8007100:	0800719d 	.word	0x0800719d
 8007104:	080071d5 	.word	0x080071d5
 8007108:	080070b9 	.word	0x080070b9
 800710c:	08007209 	.word	0x08007209
 8007110:	08007115 	.word	0x08007115
 8007114:	7889      	ldrb	r1, [r1, #2]
 8007116:	4d9c      	ldr	r5, [pc, #624]	; (8007388 <USBD_StdDevReq+0x2e8>)
 8007118:	2901      	cmp	r1, #1
 800711a:	7029      	strb	r1, [r5, #0]
 800711c:	d8cc      	bhi.n	80070b8 <USBD_StdDevReq+0x18>
 800711e:	f890 329c 	ldrb.w	r3, [r0, #668]	; 0x29c
 8007122:	2b02      	cmp	r3, #2
 8007124:	f000 810b 	beq.w	800733e <USBD_StdDevReq+0x29e>
 8007128:	2b03      	cmp	r3, #3
 800712a:	f000 80f7 	beq.w	800731c <USBD_StdDevReq+0x27c>
 800712e:	2180      	movs	r1, #128	; 0x80
 8007130:	f000 fd34 	bl	8007b9c <USBD_LL_StallEP>
 8007134:	2100      	movs	r1, #0
 8007136:	4620      	mov	r0, r4
 8007138:	f000 fd30 	bl	8007b9c <USBD_LL_StallEP>
 800713c:	4620      	mov	r0, r4
 800713e:	7829      	ldrb	r1, [r5, #0]
 8007140:	f7ff fe8c 	bl	8006e5c <USBD_ClrClassConfig>
 8007144:	e7c0      	b.n	80070c8 <USBD_StdDevReq+0x28>
 8007146:	f890 329c 	ldrb.w	r3, [r0, #668]	; 0x29c
 800714a:	3b01      	subs	r3, #1
 800714c:	2b02      	cmp	r3, #2
 800714e:	d8b3      	bhi.n	80070b8 <USBD_StdDevReq+0x18>
 8007150:	88ca      	ldrh	r2, [r1, #6]
 8007152:	2a02      	cmp	r2, #2
 8007154:	d1b0      	bne.n	80070b8 <USBD_StdDevReq+0x18>
 8007156:	f8d0 32a4 	ldr.w	r3, [r0, #676]	; 0x2a4
 800715a:	4601      	mov	r1, r0
 800715c:	2b00      	cmp	r3, #0
 800715e:	bf14      	ite	ne
 8007160:	4613      	movne	r3, r2
 8007162:	2300      	moveq	r3, #0
 8007164:	f841 3f0c 	str.w	r3, [r1, #12]!
 8007168:	f000 fa22 	bl	80075b0 <USBD_CtlSendData>
 800716c:	e7ac      	b.n	80070c8 <USBD_StdDevReq+0x28>
 800716e:	f890 329c 	ldrb.w	r3, [r0, #668]	; 0x29c
 8007172:	3b01      	subs	r3, #1
 8007174:	2b02      	cmp	r3, #2
 8007176:	d89f      	bhi.n	80070b8 <USBD_StdDevReq+0x18>
 8007178:	884b      	ldrh	r3, [r1, #2]
 800717a:	2b01      	cmp	r3, #1
 800717c:	d1a4      	bne.n	80070c8 <USBD_StdDevReq+0x28>
 800717e:	2300      	movs	r3, #0
 8007180:	f8c0 32a4 	str.w	r3, [r0, #676]	; 0x2a4
 8007184:	f000 fa44 	bl	8007610 <USBD_CtlSendStatus>
 8007188:	e79e      	b.n	80070c8 <USBD_StdDevReq+0x28>
 800718a:	884b      	ldrh	r3, [r1, #2]
 800718c:	2b01      	cmp	r3, #1
 800718e:	d19b      	bne.n	80070c8 <USBD_StdDevReq+0x28>
 8007190:	f8c0 32a4 	str.w	r3, [r0, #676]	; 0x2a4
 8007194:	4620      	mov	r0, r4
 8007196:	f000 fa3b 	bl	8007610 <USBD_CtlSendStatus>
 800719a:	e795      	b.n	80070c8 <USBD_StdDevReq+0x28>
 800719c:	888b      	ldrh	r3, [r1, #4]
 800719e:	2b00      	cmp	r3, #0
 80071a0:	d18a      	bne.n	80070b8 <USBD_StdDevReq+0x18>
 80071a2:	88cb      	ldrh	r3, [r1, #6]
 80071a4:	2b00      	cmp	r3, #0
 80071a6:	d187      	bne.n	80070b8 <USBD_StdDevReq+0x18>
 80071a8:	884d      	ldrh	r5, [r1, #2]
 80071aa:	2d7f      	cmp	r5, #127	; 0x7f
 80071ac:	d884      	bhi.n	80070b8 <USBD_StdDevReq+0x18>
 80071ae:	f890 329c 	ldrb.w	r3, [r0, #668]	; 0x29c
 80071b2:	2b03      	cmp	r3, #3
 80071b4:	d080      	beq.n	80070b8 <USBD_StdDevReq+0x18>
 80071b6:	b2e9      	uxtb	r1, r5
 80071b8:	f880 129e 	strb.w	r1, [r0, #670]	; 0x29e
 80071bc:	f000 fd1e 	bl	8007bfc <USBD_LL_SetUSBAddress>
 80071c0:	4620      	mov	r0, r4
 80071c2:	f000 fa25 	bl	8007610 <USBD_CtlSendStatus>
 80071c6:	2d00      	cmp	r5, #0
 80071c8:	f000 80da 	beq.w	8007380 <USBD_StdDevReq+0x2e0>
 80071cc:	2302      	movs	r3, #2
 80071ce:	f884 329c 	strb.w	r3, [r4, #668]	; 0x29c
 80071d2:	e779      	b.n	80070c8 <USBD_StdDevReq+0x28>
 80071d4:	2300      	movs	r3, #0
 80071d6:	884a      	ldrh	r2, [r1, #2]
 80071d8:	f8ad 3006 	strh.w	r3, [sp, #6]
 80071dc:	0a13      	lsrs	r3, r2, #8
 80071de:	3b01      	subs	r3, #1
 80071e0:	2b06      	cmp	r3, #6
 80071e2:	f63f af69 	bhi.w	80070b8 <USBD_StdDevReq+0x18>
 80071e6:	a101      	add	r1, pc, #4	; (adr r1, 80071ec <USBD_StdDevReq+0x14c>)
 80071e8:	f851 f023 	ldr.w	pc, [r1, r3, lsl #2]
 80071ec:	080072ad 	.word	0x080072ad
 80071f0:	08007295 	.word	0x08007295
 80071f4:	08007283 	.word	0x08007283
 80071f8:	080070b9 	.word	0x080070b9
 80071fc:	080070b9 	.word	0x080070b9
 8007200:	0800726d 	.word	0x0800726d
 8007204:	0800722d 	.word	0x0800722d
 8007208:	88ca      	ldrh	r2, [r1, #6]
 800720a:	2a01      	cmp	r2, #1
 800720c:	f47f af54 	bne.w	80070b8 <USBD_StdDevReq+0x18>
 8007210:	f890 329c 	ldrb.w	r3, [r0, #668]	; 0x29c
 8007214:	2b02      	cmp	r3, #2
 8007216:	d87a      	bhi.n	800730e <USBD_StdDevReq+0x26e>
 8007218:	2b00      	cmp	r3, #0
 800721a:	f43f af4d 	beq.w	80070b8 <USBD_StdDevReq+0x18>
 800721e:	2300      	movs	r3, #0
 8007220:	4601      	mov	r1, r0
 8007222:	f841 3f08 	str.w	r3, [r1, #8]!
 8007226:	f000 f9c3 	bl	80075b0 <USBD_CtlSendData>
 800722a:	e74d      	b.n	80070c8 <USBD_StdDevReq+0x28>
 800722c:	7c03      	ldrb	r3, [r0, #16]
 800722e:	2b00      	cmp	r3, #0
 8007230:	f47f af42 	bne.w	80070b8 <USBD_StdDevReq+0x18>
 8007234:	f8d0 32b4 	ldr.w	r3, [r0, #692]	; 0x2b4
 8007238:	f10d 0006 	add.w	r0, sp, #6
 800723c:	6b1b      	ldr	r3, [r3, #48]	; 0x30
 800723e:	4798      	blx	r3
 8007240:	2307      	movs	r3, #7
 8007242:	7043      	strb	r3, [r0, #1]
 8007244:	f8bd 2006 	ldrh.w	r2, [sp, #6]
 8007248:	b15a      	cbz	r2, 8007262 <USBD_StdDevReq+0x1c2>
 800724a:	88eb      	ldrh	r3, [r5, #6]
 800724c:	2b00      	cmp	r3, #0
 800724e:	d0a1      	beq.n	8007194 <USBD_StdDevReq+0xf4>
 8007250:	429a      	cmp	r2, r3
 8007252:	bf28      	it	cs
 8007254:	461a      	movcs	r2, r3
 8007256:	4601      	mov	r1, r0
 8007258:	4620      	mov	r0, r4
 800725a:	f8ad 2006 	strh.w	r2, [sp, #6]
 800725e:	f000 f9a7 	bl	80075b0 <USBD_CtlSendData>
 8007262:	88eb      	ldrh	r3, [r5, #6]
 8007264:	2b00      	cmp	r3, #0
 8007266:	f47f af2f 	bne.w	80070c8 <USBD_StdDevReq+0x28>
 800726a:	e793      	b.n	8007194 <USBD_StdDevReq+0xf4>
 800726c:	7c03      	ldrb	r3, [r0, #16]
 800726e:	2b00      	cmp	r3, #0
 8007270:	f47f af22 	bne.w	80070b8 <USBD_StdDevReq+0x18>
 8007274:	f8d0 32b4 	ldr.w	r3, [r0, #692]	; 0x2b4
 8007278:	f10d 0006 	add.w	r0, sp, #6
 800727c:	6b5b      	ldr	r3, [r3, #52]	; 0x34
 800727e:	4798      	blx	r3
 8007280:	e7e0      	b.n	8007244 <USBD_StdDevReq+0x1a4>
 8007282:	b2d2      	uxtb	r2, r2
 8007284:	2a05      	cmp	r2, #5
 8007286:	f63f af17 	bhi.w	80070b8 <USBD_StdDevReq+0x18>
 800728a:	e8df f002 	tbb	[pc, r2]
 800728e:	343a      	.short	0x343a
 8007290:	1722282e 	.word	0x1722282e
 8007294:	7c03      	ldrb	r3, [r0, #16]
 8007296:	2b00      	cmp	r3, #0
 8007298:	d15f      	bne.n	800735a <USBD_StdDevReq+0x2ba>
 800729a:	f8d0 32b4 	ldr.w	r3, [r0, #692]	; 0x2b4
 800729e:	f10d 0006 	add.w	r0, sp, #6
 80072a2:	6a9b      	ldr	r3, [r3, #40]	; 0x28
 80072a4:	4798      	blx	r3
 80072a6:	2302      	movs	r3, #2
 80072a8:	7043      	strb	r3, [r0, #1]
 80072aa:	e7cb      	b.n	8007244 <USBD_StdDevReq+0x1a4>
 80072ac:	f8d0 32b0 	ldr.w	r3, [r0, #688]	; 0x2b0
 80072b0:	f10d 0106 	add.w	r1, sp, #6
 80072b4:	681b      	ldr	r3, [r3, #0]
 80072b6:	7c00      	ldrb	r0, [r0, #16]
 80072b8:	4798      	blx	r3
 80072ba:	e7c3      	b.n	8007244 <USBD_StdDevReq+0x1a4>
 80072bc:	f8d0 32b0 	ldr.w	r3, [r0, #688]	; 0x2b0
 80072c0:	699b      	ldr	r3, [r3, #24]
 80072c2:	2b00      	cmp	r3, #0
 80072c4:	f43f aef8 	beq.w	80070b8 <USBD_StdDevReq+0x18>
 80072c8:	7c20      	ldrb	r0, [r4, #16]
 80072ca:	f10d 0106 	add.w	r1, sp, #6
 80072ce:	4798      	blx	r3
 80072d0:	e7b8      	b.n	8007244 <USBD_StdDevReq+0x1a4>
 80072d2:	f8d0 32b0 	ldr.w	r3, [r0, #688]	; 0x2b0
 80072d6:	695b      	ldr	r3, [r3, #20]
 80072d8:	2b00      	cmp	r3, #0
 80072da:	d1f5      	bne.n	80072c8 <USBD_StdDevReq+0x228>
 80072dc:	e6ec      	b.n	80070b8 <USBD_StdDevReq+0x18>
 80072de:	f8d0 32b0 	ldr.w	r3, [r0, #688]	; 0x2b0
 80072e2:	691b      	ldr	r3, [r3, #16]
 80072e4:	2b00      	cmp	r3, #0
 80072e6:	d1ef      	bne.n	80072c8 <USBD_StdDevReq+0x228>
 80072e8:	e6e6      	b.n	80070b8 <USBD_StdDevReq+0x18>
 80072ea:	f8d0 32b0 	ldr.w	r3, [r0, #688]	; 0x2b0
 80072ee:	68db      	ldr	r3, [r3, #12]
 80072f0:	2b00      	cmp	r3, #0
 80072f2:	d1e9      	bne.n	80072c8 <USBD_StdDevReq+0x228>
 80072f4:	e6e0      	b.n	80070b8 <USBD_StdDevReq+0x18>
 80072f6:	f8d0 32b0 	ldr.w	r3, [r0, #688]	; 0x2b0
 80072fa:	689b      	ldr	r3, [r3, #8]
 80072fc:	2b00      	cmp	r3, #0
 80072fe:	d1e3      	bne.n	80072c8 <USBD_StdDevReq+0x228>
 8007300:	e6da      	b.n	80070b8 <USBD_StdDevReq+0x18>
 8007302:	f8d0 32b0 	ldr.w	r3, [r0, #688]	; 0x2b0
 8007306:	685b      	ldr	r3, [r3, #4]
 8007308:	2b00      	cmp	r3, #0
 800730a:	d1dd      	bne.n	80072c8 <USBD_StdDevReq+0x228>
 800730c:	e6d4      	b.n	80070b8 <USBD_StdDevReq+0x18>
 800730e:	2b03      	cmp	r3, #3
 8007310:	f47f aed2 	bne.w	80070b8 <USBD_StdDevReq+0x18>
 8007314:	1d01      	adds	r1, r0, #4
 8007316:	f000 f94b 	bl	80075b0 <USBD_CtlSendData>
 800731a:	e6d5      	b.n	80070c8 <USBD_StdDevReq+0x28>
 800731c:	b331      	cbz	r1, 800736c <USBD_StdDevReq+0x2cc>
 800731e:	6841      	ldr	r1, [r0, #4]
 8007320:	2901      	cmp	r1, #1
 8007322:	f43f af37 	beq.w	8007194 <USBD_StdDevReq+0xf4>
 8007326:	b2c9      	uxtb	r1, r1
 8007328:	f7ff fd98 	bl	8006e5c <USBD_ClrClassConfig>
 800732c:	7829      	ldrb	r1, [r5, #0]
 800732e:	4620      	mov	r0, r4
 8007330:	6061      	str	r1, [r4, #4]
 8007332:	f7ff fd89 	bl	8006e48 <USBD_SetClassConfig>
 8007336:	2802      	cmp	r0, #2
 8007338:	f47f af2c 	bne.w	8007194 <USBD_StdDevReq+0xf4>
 800733c:	e6bc      	b.n	80070b8 <USBD_StdDevReq+0x18>
 800733e:	2900      	cmp	r1, #0
 8007340:	f43f af28 	beq.w	8007194 <USBD_StdDevReq+0xf4>
 8007344:	2101      	movs	r1, #1
 8007346:	2303      	movs	r3, #3
 8007348:	6041      	str	r1, [r0, #4]
 800734a:	f880 329c 	strb.w	r3, [r0, #668]	; 0x29c
 800734e:	f7ff fd7b 	bl	8006e48 <USBD_SetClassConfig>
 8007352:	2802      	cmp	r0, #2
 8007354:	f47f af1e 	bne.w	8007194 <USBD_StdDevReq+0xf4>
 8007358:	e6ae      	b.n	80070b8 <USBD_StdDevReq+0x18>
 800735a:	f8d0 32b4 	ldr.w	r3, [r0, #692]	; 0x2b4
 800735e:	f10d 0006 	add.w	r0, sp, #6
 8007362:	6adb      	ldr	r3, [r3, #44]	; 0x2c
 8007364:	4798      	blx	r3
 8007366:	2302      	movs	r3, #2
 8007368:	7043      	strb	r3, [r0, #1]
 800736a:	e76b      	b.n	8007244 <USBD_StdDevReq+0x1a4>
 800736c:	2302      	movs	r3, #2
 800736e:	6041      	str	r1, [r0, #4]
 8007370:	f880 329c 	strb.w	r3, [r0, #668]	; 0x29c
 8007374:	f7ff fd72 	bl	8006e5c <USBD_ClrClassConfig>
 8007378:	4620      	mov	r0, r4
 800737a:	f000 f949 	bl	8007610 <USBD_CtlSendStatus>
 800737e:	e6a3      	b.n	80070c8 <USBD_StdDevReq+0x28>
 8007380:	2301      	movs	r3, #1
 8007382:	f884 329c 	strb.w	r3, [r4, #668]	; 0x29c
 8007386:	e69f      	b.n	80070c8 <USBD_StdDevReq+0x28>
 8007388:	20001dac 	.word	0x20001dac

0800738c <USBD_StdItfReq>:
 800738c:	b538      	push	{r3, r4, r5, lr}
 800738e:	780b      	ldrb	r3, [r1, #0]
 8007390:	460d      	mov	r5, r1
 8007392:	f003 0260 	and.w	r2, r3, #96	; 0x60
 8007396:	2a40      	cmp	r2, #64	; 0x40
 8007398:	4604      	mov	r4, r0
 800739a:	d00a      	beq.n	80073b2 <USBD_StdItfReq+0x26>
 800739c:	065b      	lsls	r3, r3, #25
 800739e:	d508      	bpl.n	80073b2 <USBD_StdItfReq+0x26>
 80073a0:	2180      	movs	r1, #128	; 0x80
 80073a2:	f000 fbfb 	bl	8007b9c <USBD_LL_StallEP>
 80073a6:	4620      	mov	r0, r4
 80073a8:	2100      	movs	r1, #0
 80073aa:	f000 fbf7 	bl	8007b9c <USBD_LL_StallEP>
 80073ae:	2000      	movs	r0, #0
 80073b0:	bd38      	pop	{r3, r4, r5, pc}
 80073b2:	f894 329c 	ldrb.w	r3, [r4, #668]	; 0x29c
 80073b6:	3b01      	subs	r3, #1
 80073b8:	2b02      	cmp	r3, #2
 80073ba:	d811      	bhi.n	80073e0 <USBD_StdItfReq+0x54>
 80073bc:	792b      	ldrb	r3, [r5, #4]
 80073be:	2b03      	cmp	r3, #3
 80073c0:	d80e      	bhi.n	80073e0 <USBD_StdItfReq+0x54>
 80073c2:	f8d4 32b4 	ldr.w	r3, [r4, #692]	; 0x2b4
 80073c6:	4629      	mov	r1, r5
 80073c8:	689b      	ldr	r3, [r3, #8]
 80073ca:	4620      	mov	r0, r4
 80073cc:	4798      	blx	r3
 80073ce:	88eb      	ldrh	r3, [r5, #6]
 80073d0:	2b00      	cmp	r3, #0
 80073d2:	d1ec      	bne.n	80073ae <USBD_StdItfReq+0x22>
 80073d4:	2800      	cmp	r0, #0
 80073d6:	d1ea      	bne.n	80073ae <USBD_StdItfReq+0x22>
 80073d8:	4620      	mov	r0, r4
 80073da:	f000 f919 	bl	8007610 <USBD_CtlSendStatus>
 80073de:	e7e6      	b.n	80073ae <USBD_StdItfReq+0x22>
 80073e0:	2180      	movs	r1, #128	; 0x80
 80073e2:	4620      	mov	r0, r4
 80073e4:	f000 fbda 	bl	8007b9c <USBD_LL_StallEP>
 80073e8:	4620      	mov	r0, r4
 80073ea:	2100      	movs	r1, #0
 80073ec:	f000 fbd6 	bl	8007b9c <USBD_LL_StallEP>
 80073f0:	2000      	movs	r0, #0
 80073f2:	bd38      	pop	{r3, r4, r5, pc}

080073f4 <USBD_StdEPReq>:
 80073f4:	b570      	push	{r4, r5, r6, lr}
 80073f6:	780b      	ldrb	r3, [r1, #0]
 80073f8:	4604      	mov	r4, r0
 80073fa:	f003 0360 	and.w	r3, r3, #96	; 0x60
 80073fe:	2b20      	cmp	r3, #32
 8007400:	d00c      	beq.n	800741c <USBD_StdEPReq+0x28>
 8007402:	2b40      	cmp	r3, #64	; 0x40
 8007404:	d00a      	beq.n	800741c <USBD_StdEPReq+0x28>
 8007406:	b183      	cbz	r3, 800742a <USBD_StdEPReq+0x36>
 8007408:	2180      	movs	r1, #128	; 0x80
 800740a:	4620      	mov	r0, r4
 800740c:	f000 fbc6 	bl	8007b9c <USBD_LL_StallEP>
 8007410:	4620      	mov	r0, r4
 8007412:	2100      	movs	r1, #0
 8007414:	f000 fbc2 	bl	8007b9c <USBD_LL_StallEP>
 8007418:	2000      	movs	r0, #0
 800741a:	bd70      	pop	{r4, r5, r6, pc}
 800741c:	f8d4 32b4 	ldr.w	r3, [r4, #692]	; 0x2b4
 8007420:	4620      	mov	r0, r4
 8007422:	689b      	ldr	r3, [r3, #8]
 8007424:	4798      	blx	r3
 8007426:	2000      	movs	r0, #0
 8007428:	bd70      	pop	{r4, r5, r6, pc}
 800742a:	784b      	ldrb	r3, [r1, #1]
 800742c:	888a      	ldrh	r2, [r1, #4]
 800742e:	2b01      	cmp	r3, #1
 8007430:	b2d5      	uxtb	r5, r2
 8007432:	d03d      	beq.n	80074b0 <USBD_StdEPReq+0xbc>
 8007434:	2b03      	cmp	r3, #3
 8007436:	d02a      	beq.n	800748e <USBD_StdEPReq+0x9a>
 8007438:	2b00      	cmp	r3, #0
 800743a:	d1e5      	bne.n	8007408 <USBD_StdEPReq+0x14>
 800743c:	f890 329c 	ldrb.w	r3, [r0, #668]	; 0x29c
 8007440:	2b02      	cmp	r3, #2
 8007442:	d04e      	beq.n	80074e2 <USBD_StdEPReq+0xee>
 8007444:	2b03      	cmp	r3, #3
 8007446:	d1df      	bne.n	8007408 <USBD_StdEPReq+0x14>
 8007448:	f005 030f 	and.w	r3, r5, #15
 800744c:	eb03 0383 	add.w	r3, r3, r3, lsl #2
 8007450:	0612      	lsls	r2, r2, #24
 8007452:	eb00 0383 	add.w	r3, r0, r3, lsl #2
 8007456:	d453      	bmi.n	8007500 <USBD_StdEPReq+0x10c>
 8007458:	f8d3 3158 	ldr.w	r3, [r3, #344]	; 0x158
 800745c:	2b00      	cmp	r3, #0
 800745e:	d0d3      	beq.n	8007408 <USBD_StdEPReq+0x14>
 8007460:	f005 037f 	and.w	r3, r5, #127	; 0x7f
 8007464:	eb03 0683 	add.w	r6, r3, r3, lsl #2
 8007468:	eb00 0686 	add.w	r6, r0, r6, lsl #2
 800746c:	f506 76aa 	add.w	r6, r6, #340	; 0x154
 8007470:	b133      	cbz	r3, 8007480 <USBD_StdEPReq+0x8c>
 8007472:	4629      	mov	r1, r5
 8007474:	4620      	mov	r0, r4
 8007476:	f000 fbad 	bl	8007bd4 <USBD_LL_IsStallEP>
 800747a:	2800      	cmp	r0, #0
 800747c:	d04b      	beq.n	8007516 <USBD_StdEPReq+0x122>
 800747e:	2301      	movs	r3, #1
 8007480:	6033      	str	r3, [r6, #0]
 8007482:	4631      	mov	r1, r6
 8007484:	4620      	mov	r0, r4
 8007486:	2202      	movs	r2, #2
 8007488:	f000 f892 	bl	80075b0 <USBD_CtlSendData>
 800748c:	e7c4      	b.n	8007418 <USBD_StdEPReq+0x24>
 800748e:	f890 329c 	ldrb.w	r3, [r0, #668]	; 0x29c
 8007492:	2b02      	cmp	r3, #2
 8007494:	d01b      	beq.n	80074ce <USBD_StdEPReq+0xda>
 8007496:	2b03      	cmp	r3, #3
 8007498:	d1b6      	bne.n	8007408 <USBD_StdEPReq+0x14>
 800749a:	884b      	ldrh	r3, [r1, #2]
 800749c:	b923      	cbnz	r3, 80074a8 <USBD_StdEPReq+0xb4>
 800749e:	066a      	lsls	r2, r5, #25
 80074a0:	d002      	beq.n	80074a8 <USBD_StdEPReq+0xb4>
 80074a2:	88cb      	ldrh	r3, [r1, #6]
 80074a4:	2b00      	cmp	r3, #0
 80074a6:	d038      	beq.n	800751a <USBD_StdEPReq+0x126>
 80074a8:	4620      	mov	r0, r4
 80074aa:	f000 f8b1 	bl	8007610 <USBD_CtlSendStatus>
 80074ae:	e7b3      	b.n	8007418 <USBD_StdEPReq+0x24>
 80074b0:	f890 329c 	ldrb.w	r3, [r0, #668]	; 0x29c
 80074b4:	2b02      	cmp	r3, #2
 80074b6:	d00a      	beq.n	80074ce <USBD_StdEPReq+0xda>
 80074b8:	2b03      	cmp	r3, #3
 80074ba:	d1a5      	bne.n	8007408 <USBD_StdEPReq+0x14>
 80074bc:	884b      	ldrh	r3, [r1, #2]
 80074be:	2b00      	cmp	r3, #0
 80074c0:	d1aa      	bne.n	8007418 <USBD_StdEPReq+0x24>
 80074c2:	066e      	lsls	r6, r5, #25
 80074c4:	d0f0      	beq.n	80074a8 <USBD_StdEPReq+0xb4>
 80074c6:	4629      	mov	r1, r5
 80074c8:	f000 fb76 	bl	8007bb8 <USBD_LL_ClearStallEP>
 80074cc:	e7ec      	b.n	80074a8 <USBD_StdEPReq+0xb4>
 80074ce:	066b      	lsls	r3, r5, #25
 80074d0:	d09a      	beq.n	8007408 <USBD_StdEPReq+0x14>
 80074d2:	4629      	mov	r1, r5
 80074d4:	f000 fb62 	bl	8007b9c <USBD_LL_StallEP>
 80074d8:	4620      	mov	r0, r4
 80074da:	2180      	movs	r1, #128	; 0x80
 80074dc:	f000 fb5e 	bl	8007b9c <USBD_LL_StallEP>
 80074e0:	e79a      	b.n	8007418 <USBD_StdEPReq+0x24>
 80074e2:	0668      	lsls	r0, r5, #25
 80074e4:	d190      	bne.n	8007408 <USBD_StdEPReq+0x14>
 80074e6:	2300      	movs	r3, #0
 80074e8:	0611      	lsls	r1, r2, #24
 80074ea:	bf4c      	ite	mi
 80074ec:	f104 0114 	addmi.w	r1, r4, #20
 80074f0:	f504 71aa 	addpl.w	r1, r4, #340	; 0x154
 80074f4:	4620      	mov	r0, r4
 80074f6:	2202      	movs	r2, #2
 80074f8:	600b      	str	r3, [r1, #0]
 80074fa:	f000 f859 	bl	80075b0 <USBD_CtlSendData>
 80074fe:	e78b      	b.n	8007418 <USBD_StdEPReq+0x24>
 8007500:	699b      	ldr	r3, [r3, #24]
 8007502:	2b00      	cmp	r3, #0
 8007504:	d080      	beq.n	8007408 <USBD_StdEPReq+0x14>
 8007506:	f005 037f 	and.w	r3, r5, #127	; 0x7f
 800750a:	1c5e      	adds	r6, r3, #1
 800750c:	eb06 0686 	add.w	r6, r6, r6, lsl #2
 8007510:	eb00 0686 	add.w	r6, r0, r6, lsl #2
 8007514:	e7ac      	b.n	8007470 <USBD_StdEPReq+0x7c>
 8007516:	6030      	str	r0, [r6, #0]
 8007518:	e7b3      	b.n	8007482 <USBD_StdEPReq+0x8e>
 800751a:	4629      	mov	r1, r5
 800751c:	f000 fb3e 	bl	8007b9c <USBD_LL_StallEP>
 8007520:	e7c2      	b.n	80074a8 <USBD_StdEPReq+0xb4>
 8007522:	bf00      	nop

08007524 <USBD_ParseSetupRequest>:
 8007524:	780b      	ldrb	r3, [r1, #0]
 8007526:	7003      	strb	r3, [r0, #0]
 8007528:	784b      	ldrb	r3, [r1, #1]
 800752a:	7043      	strb	r3, [r0, #1]
 800752c:	78ca      	ldrb	r2, [r1, #3]
 800752e:	788b      	ldrb	r3, [r1, #2]
 8007530:	eb03 2302 	add.w	r3, r3, r2, lsl #8
 8007534:	8043      	strh	r3, [r0, #2]
 8007536:	794a      	ldrb	r2, [r1, #5]
 8007538:	790b      	ldrb	r3, [r1, #4]
 800753a:	eb03 2302 	add.w	r3, r3, r2, lsl #8
 800753e:	8083      	strh	r3, [r0, #4]
 8007540:	79ca      	ldrb	r2, [r1, #7]
 8007542:	798b      	ldrb	r3, [r1, #6]
 8007544:	eb03 2302 	add.w	r3, r3, r2, lsl #8
 8007548:	80c3      	strh	r3, [r0, #6]
 800754a:	4770      	bx	lr

0800754c <USBD_CtlError>:
 800754c:	b510      	push	{r4, lr}
 800754e:	4604      	mov	r4, r0
 8007550:	2180      	movs	r1, #128	; 0x80
 8007552:	f000 fb23 	bl	8007b9c <USBD_LL_StallEP>
 8007556:	4620      	mov	r0, r4
 8007558:	e8bd 4010 	ldmia.w	sp!, {r4, lr}
 800755c:	2100      	movs	r1, #0
 800755e:	f000 bb1d 	b.w	8007b9c <USBD_LL_StallEP>
 8007562:	bf00      	nop

08007564 <USBD_GetString>:
 8007564:	b308      	cbz	r0, 80075aa <USBD_GetString+0x46>
 8007566:	7803      	ldrb	r3, [r0, #0]
 8007568:	b470      	push	{r4, r5, r6}
 800756a:	b1fb      	cbz	r3, 80075ac <USBD_GetString+0x48>
 800756c:	4604      	mov	r4, r0
 800756e:	f1c0 0601 	rsb	r6, r0, #1
 8007572:	19a3      	adds	r3, r4, r6
 8007574:	f814 5f01 	ldrb.w	r5, [r4, #1]!
 8007578:	b2db      	uxtb	r3, r3
 800757a:	2d00      	cmp	r5, #0
 800757c:	d1f9      	bne.n	8007572 <USBD_GetString+0xe>
 800757e:	3301      	adds	r3, #1
 8007580:	005b      	lsls	r3, r3, #1
 8007582:	2403      	movs	r4, #3
 8007584:	8013      	strh	r3, [r2, #0]
 8007586:	700b      	strb	r3, [r1, #0]
 8007588:	704c      	strb	r4, [r1, #1]
 800758a:	7804      	ldrb	r4, [r0, #0]
 800758c:	b15c      	cbz	r4, 80075a6 <USBD_GetString+0x42>
 800758e:	2302      	movs	r3, #2
 8007590:	2500      	movs	r5, #0
 8007592:	1c5a      	adds	r2, r3, #1
 8007594:	b2d2      	uxtb	r2, r2
 8007596:	54cc      	strb	r4, [r1, r3]
 8007598:	548d      	strb	r5, [r1, r2]
 800759a:	f810 4f01 	ldrb.w	r4, [r0, #1]!
 800759e:	3302      	adds	r3, #2
 80075a0:	b2db      	uxtb	r3, r3
 80075a2:	2c00      	cmp	r4, #0
 80075a4:	d1f5      	bne.n	8007592 <USBD_GetString+0x2e>
 80075a6:	bc70      	pop	{r4, r5, r6}
 80075a8:	4770      	bx	lr
 80075aa:	4770      	bx	lr
 80075ac:	2302      	movs	r3, #2
 80075ae:	e7e8      	b.n	8007582 <USBD_GetString+0x1e>

080075b0 <USBD_CtlSendData>:
 80075b0:	b538      	push	{r3, r4, r5, lr}
 80075b2:	4613      	mov	r3, r2
 80075b4:	2502      	movs	r5, #2
 80075b6:	460a      	mov	r2, r1
 80075b8:	e9c0 3307 	strd	r3, r3, [r0, #28]
 80075bc:	2100      	movs	r1, #0
 80075be:	f8c0 5294 	str.w	r5, [r0, #660]	; 0x294
 80075c2:	f000 fb29 	bl	8007c18 <USBD_LL_Transmit>
 80075c6:	2000      	movs	r0, #0
 80075c8:	bd38      	pop	{r3, r4, r5, pc}
 80075ca:	bf00      	nop

080075cc <USBD_CtlContinueSendData>:
 80075cc:	b510      	push	{r4, lr}
 80075ce:	460c      	mov	r4, r1
 80075d0:	4613      	mov	r3, r2
 80075d2:	2100      	movs	r1, #0
 80075d4:	4622      	mov	r2, r4
 80075d6:	f000 fb1f 	bl	8007c18 <USBD_LL_Transmit>
 80075da:	2000      	movs	r0, #0
 80075dc:	bd10      	pop	{r4, pc}
 80075de:	bf00      	nop

080075e0 <USBD_CtlPrepareRx>:
 80075e0:	b538      	push	{r3, r4, r5, lr}
 80075e2:	4613      	mov	r3, r2
 80075e4:	2503      	movs	r5, #3
 80075e6:	460a      	mov	r2, r1
 80075e8:	e9c0 3357 	strd	r3, r3, [r0, #348]	; 0x15c
 80075ec:	2100      	movs	r1, #0
 80075ee:	f8c0 5294 	str.w	r5, [r0, #660]	; 0x294
 80075f2:	f000 fb1f 	bl	8007c34 <USBD_LL_PrepareReceive>
 80075f6:	2000      	movs	r0, #0
 80075f8:	bd38      	pop	{r3, r4, r5, pc}
 80075fa:	bf00      	nop

080075fc <USBD_CtlContinueRx>:
 80075fc:	b510      	push	{r4, lr}
 80075fe:	460c      	mov	r4, r1
 8007600:	4613      	mov	r3, r2
 8007602:	2100      	movs	r1, #0
 8007604:	4622      	mov	r2, r4
 8007606:	f000 fb15 	bl	8007c34 <USBD_LL_PrepareReceive>
 800760a:	2000      	movs	r0, #0
 800760c:	bd10      	pop	{r4, pc}
 800760e:	bf00      	nop

08007610 <USBD_CtlSendStatus>:
 8007610:	b508      	push	{r3, lr}
 8007612:	2204      	movs	r2, #4
 8007614:	2300      	movs	r3, #0
 8007616:	f8c0 2294 	str.w	r2, [r0, #660]	; 0x294
 800761a:	4619      	mov	r1, r3
 800761c:	461a      	mov	r2, r3
 800761e:	f000 fafb 	bl	8007c18 <USBD_LL_Transmit>
 8007622:	2000      	movs	r0, #0
 8007624:	bd08      	pop	{r3, pc}
 8007626:	bf00      	nop

08007628 <USBD_CtlReceiveStatus>:
 8007628:	b508      	push	{r3, lr}
 800762a:	2205      	movs	r2, #5
 800762c:	2300      	movs	r3, #0
 800762e:	f8c0 2294 	str.w	r2, [r0, #660]	; 0x294
 8007632:	4619      	mov	r1, r3
 8007634:	461a      	mov	r2, r3
 8007636:	f000 fafd 	bl	8007c34 <USBD_LL_PrepareReceive>
 800763a:	2000      	movs	r0, #0
 800763c:	bd08      	pop	{r3, pc}
 800763e:	bf00      	nop

08007640 <MX_USB_DEVICE_Init>:
 8007640:	b508      	push	{r3, lr}
 8007642:	4b1d      	ldr	r3, [pc, #116]	; (80076b8 <MX_USB_DEVICE_Init+0x78>)
 8007644:	781a      	ldrb	r2, [r3, #0]
 8007646:	b132      	cbz	r2, 8007656 <MX_USB_DEVICE_Init+0x16>
 8007648:	2a01      	cmp	r2, #1
 800764a:	d01f      	beq.n	800768c <MX_USB_DEVICE_Init+0x4c>
 800764c:	481b      	ldr	r0, [pc, #108]	; (80076bc <MX_USB_DEVICE_Init+0x7c>)
 800764e:	f7ff fbf5 	bl	8006e3c <USBD_Start>
 8007652:	b9b8      	cbnz	r0, 8007684 <MX_USB_DEVICE_Init+0x44>
 8007654:	bd08      	pop	{r3, pc}
 8007656:	491a      	ldr	r1, [pc, #104]	; (80076c0 <MX_USB_DEVICE_Init+0x80>)
 8007658:	4818      	ldr	r0, [pc, #96]	; (80076bc <MX_USB_DEVICE_Init+0x7c>)
 800765a:	f7ff fbd1 	bl	8006e00 <USBD_Init>
 800765e:	bb28      	cbnz	r0, 80076ac <MX_USB_DEVICE_Init+0x6c>
 8007660:	4918      	ldr	r1, [pc, #96]	; (80076c4 <MX_USB_DEVICE_Init+0x84>)
 8007662:	4816      	ldr	r0, [pc, #88]	; (80076bc <MX_USB_DEVICE_Init+0x7c>)
 8007664:	f7ff fbe2 	bl	8006e2c <USBD_RegisterClass>
 8007668:	b9e8      	cbnz	r0, 80076a6 <MX_USB_DEVICE_Init+0x66>
 800766a:	4917      	ldr	r1, [pc, #92]	; (80076c8 <MX_USB_DEVICE_Init+0x88>)
 800766c:	4813      	ldr	r0, [pc, #76]	; (80076bc <MX_USB_DEVICE_Init+0x7c>)
 800766e:	f000 f96d 	bl	800794c <USBD_CDC_RegisterInterface>
 8007672:	2800      	cmp	r0, #0
 8007674:	d0ea      	beq.n	800764c <MX_USB_DEVICE_Init+0xc>
 8007676:	f7f9 fad9 	bl	8000c2c <Error_Handler>
 800767a:	4810      	ldr	r0, [pc, #64]	; (80076bc <MX_USB_DEVICE_Init+0x7c>)
 800767c:	f7ff fbde 	bl	8006e3c <USBD_Start>
 8007680:	2800      	cmp	r0, #0
 8007682:	d0e7      	beq.n	8007654 <MX_USB_DEVICE_Init+0x14>
 8007684:	e8bd 4008 	ldmia.w	sp!, {r3, lr}
 8007688:	f7f9 bad0 	b.w	8000c2c <Error_Handler>
 800768c:	2200      	movs	r2, #0
 800768e:	490f      	ldr	r1, [pc, #60]	; (80076cc <MX_USB_DEVICE_Init+0x8c>)
 8007690:	480a      	ldr	r0, [pc, #40]	; (80076bc <MX_USB_DEVICE_Init+0x7c>)
 8007692:	f7ff fbb5 	bl	8006e00 <USBD_Init>
 8007696:	b960      	cbnz	r0, 80076b2 <MX_USB_DEVICE_Init+0x72>
 8007698:	490d      	ldr	r1, [pc, #52]	; (80076d0 <MX_USB_DEVICE_Init+0x90>)
 800769a:	4808      	ldr	r0, [pc, #32]	; (80076bc <MX_USB_DEVICE_Init+0x7c>)
 800769c:	f7ff fbc6 	bl	8006e2c <USBD_RegisterClass>
 80076a0:	2800      	cmp	r0, #0
 80076a2:	d0d3      	beq.n	800764c <MX_USB_DEVICE_Init+0xc>
 80076a4:	e7e7      	b.n	8007676 <MX_USB_DEVICE_Init+0x36>
 80076a6:	f7f9 fac1 	bl	8000c2c <Error_Handler>
 80076aa:	e7de      	b.n	800766a <MX_USB_DEVICE_Init+0x2a>
 80076ac:	f7f9 fabe 	bl	8000c2c <Error_Handler>
 80076b0:	e7d6      	b.n	8007660 <MX_USB_DEVICE_Init+0x20>
 80076b2:	f7f9 fabb 	bl	8000c2c <Error_Handler>
 80076b6:	e7ef      	b.n	8007698 <MX_USB_DEVICE_Init+0x58>
 80076b8:	20001ba9 	.word	0x20001ba9
 80076bc:	200027a8 	.word	0x200027a8
 80076c0:	20000024 	.word	0x20000024
 80076c4:	200000e0 	.word	0x200000e0
 80076c8:	20000014 	.word	0x20000014
 80076cc:	20000118 	.word	0x20000118
 80076d0:	2000018c 	.word	0x2000018c

080076d4 <USBD_CDC_EP0_RxReady>:
 80076d4:	f8d0 32bc 	ldr.w	r3, [r0, #700]	; 0x2bc
 80076d8:	b183      	cbz	r3, 80076fc <USBD_CDC_EP0_RxReady+0x28>
 80076da:	b510      	push	{r4, lr}
 80076dc:	f8d0 42c4 	ldr.w	r4, [r0, #708]	; 0x2c4
 80076e0:	f894 0200 	ldrb.w	r0, [r4, #512]	; 0x200
 80076e4:	28ff      	cmp	r0, #255	; 0xff
 80076e6:	d007      	beq.n	80076f8 <USBD_CDC_EP0_RxReady+0x24>
 80076e8:	689b      	ldr	r3, [r3, #8]
 80076ea:	4621      	mov	r1, r4
 80076ec:	f894 2201 	ldrb.w	r2, [r4, #513]	; 0x201
 80076f0:	4798      	blx	r3
 80076f2:	23ff      	movs	r3, #255	; 0xff
 80076f4:	f884 3200 	strb.w	r3, [r4, #512]	; 0x200
 80076f8:	2000      	movs	r0, #0
 80076fa:	bd10      	pop	{r4, pc}
 80076fc:	2000      	movs	r0, #0
 80076fe:	4770      	bx	lr

08007700 <USBD_CDC_GetFSCfgDesc>:
 8007700:	4603      	mov	r3, r0
 8007702:	2243      	movs	r2, #67	; 0x43
 8007704:	4801      	ldr	r0, [pc, #4]	; (800770c <USBD_CDC_GetFSCfgDesc+0xc>)
 8007706:	801a      	strh	r2, [r3, #0]
 8007708:	4770      	bx	lr
 800770a:	bf00      	nop
 800770c:	20000374 	.word	0x20000374

08007710 <USBD_CDC_GetHSCfgDesc>:
 8007710:	4603      	mov	r3, r0
 8007712:	2243      	movs	r2, #67	; 0x43
 8007714:	4801      	ldr	r0, [pc, #4]	; (800771c <USBD_CDC_GetHSCfgDesc+0xc>)
 8007716:	801a      	strh	r2, [r3, #0]
 8007718:	4770      	bx	lr
 800771a:	bf00      	nop
 800771c:	200003b8 	.word	0x200003b8

08007720 <USBD_CDC_GetOtherSpeedCfgDesc>:
 8007720:	4603      	mov	r3, r0
 8007722:	2243      	movs	r2, #67	; 0x43
 8007724:	4801      	ldr	r0, [pc, #4]	; (800772c <USBD_CDC_GetOtherSpeedCfgDesc+0xc>)
 8007726:	801a      	strh	r2, [r3, #0]
 8007728:	4770      	bx	lr
 800772a:	bf00      	nop
 800772c:	20000408 	.word	0x20000408

08007730 <USBD_CDC_GetDeviceQualifierDescriptor>:
 8007730:	4603      	mov	r3, r0
 8007732:	220a      	movs	r2, #10
 8007734:	4801      	ldr	r0, [pc, #4]	; (800773c <USBD_CDC_GetDeviceQualifierDescriptor+0xc>)
 8007736:	801a      	strh	r2, [r3, #0]
 8007738:	4770      	bx	lr
 800773a:	bf00      	nop
 800773c:	200003fc 	.word	0x200003fc

08007740 <USBD_CDC_DataOut>:
 8007740:	b538      	push	{r3, r4, r5, lr}
 8007742:	4604      	mov	r4, r0
 8007744:	f8d0 52c4 	ldr.w	r5, [r0, #708]	; 0x2c4
 8007748:	f000 fa82 	bl	8007c50 <USBD_LL_GetRxDataSize>
 800774c:	f8d4 32b8 	ldr.w	r3, [r4, #696]	; 0x2b8
 8007750:	f8c5 020c 	str.w	r0, [r5, #524]	; 0x20c
 8007754:	b14b      	cbz	r3, 800776a <USBD_CDC_DataOut+0x2a>
 8007756:	f8d4 32bc 	ldr.w	r3, [r4, #700]	; 0x2bc
 800775a:	f8d5 0204 	ldr.w	r0, [r5, #516]	; 0x204
 800775e:	68db      	ldr	r3, [r3, #12]
 8007760:	f505 7103 	add.w	r1, r5, #524	; 0x20c
 8007764:	4798      	blx	r3
 8007766:	2000      	movs	r0, #0
 8007768:	bd38      	pop	{r3, r4, r5, pc}
 800776a:	2002      	movs	r0, #2
 800776c:	bd38      	pop	{r3, r4, r5, pc}
 800776e:	bf00      	nop

08007770 <USBD_CDC_DataIn>:
 8007770:	f8d0 22b8 	ldr.w	r2, [r0, #696]	; 0x2b8
 8007774:	b1fa      	cbz	r2, 80077b6 <USBD_CDC_DataIn+0x46>
 8007776:	eb01 0381 	add.w	r3, r1, r1, lsl #2
 800777a:	b570      	push	{r4, r5, r6, lr}
 800777c:	eb00 0683 	add.w	r6, r0, r3, lsl #2
 8007780:	69f2      	ldr	r2, [r6, #28]
 8007782:	4604      	mov	r4, r0
 8007784:	b14a      	cbz	r2, 800779a <USBD_CDC_DataIn+0x2a>
 8007786:	f8d0 52c0 	ldr.w	r5, [r0, #704]	; 0x2c0
 800778a:	eb05 03c3 	add.w	r3, r5, r3, lsl #3
 800778e:	6a1b      	ldr	r3, [r3, #32]
 8007790:	fbb2 f5f3 	udiv	r5, r2, r3
 8007794:	fb03 2515 	mls	r5, r3, r5, r2
 8007798:	b135      	cbz	r5, 80077a8 <USBD_CDC_DataIn+0x38>
 800779a:	2300      	movs	r3, #0
 800779c:	f8d4 22c4 	ldr.w	r2, [r4, #708]	; 0x2c4
 80077a0:	4618      	mov	r0, r3
 80077a2:	f8c2 3214 	str.w	r3, [r2, #532]	; 0x214
 80077a6:	bd70      	pop	{r4, r5, r6, pc}
 80077a8:	462b      	mov	r3, r5
 80077aa:	462a      	mov	r2, r5
 80077ac:	61f5      	str	r5, [r6, #28]
 80077ae:	f000 fa33 	bl	8007c18 <USBD_LL_Transmit>
 80077b2:	4628      	mov	r0, r5
 80077b4:	bd70      	pop	{r4, r5, r6, pc}
 80077b6:	2002      	movs	r0, #2
 80077b8:	4770      	bx	lr
 80077ba:	bf00      	nop

080077bc <USBD_CDC_Setup>:
 80077bc:	e92d 41f0 	stmdb	sp!, {r4, r5, r6, r7, r8, lr}
 80077c0:	2700      	movs	r7, #0
 80077c2:	780b      	ldrb	r3, [r1, #0]
 80077c4:	b082      	sub	sp, #8
 80077c6:	f013 0660 	ands.w	r6, r3, #96	; 0x60
 80077ca:	460c      	mov	r4, r1
 80077cc:	4605      	mov	r5, r0
 80077ce:	f8d0 82c4 	ldr.w	r8, [r0, #708]	; 0x2c4
 80077d2:	f88d 7005 	strb.w	r7, [sp, #5]
 80077d6:	f8ad 7006 	strh.w	r7, [sp, #6]
 80077da:	d013      	beq.n	8007804 <USBD_CDC_Setup+0x48>
 80077dc:	2e20      	cmp	r6, #32
 80077de:	d117      	bne.n	8007810 <USBD_CDC_Setup+0x54>
 80077e0:	88ce      	ldrh	r6, [r1, #6]
 80077e2:	b1f6      	cbz	r6, 8007822 <USBD_CDC_Setup+0x66>
 80077e4:	061b      	lsls	r3, r3, #24
 80077e6:	d53f      	bpl.n	8007868 <USBD_CDC_Setup+0xac>
 80077e8:	f8d0 32bc 	ldr.w	r3, [r0, #700]	; 0x2bc
 80077ec:	4632      	mov	r2, r6
 80077ee:	4641      	mov	r1, r8
 80077f0:	689b      	ldr	r3, [r3, #8]
 80077f2:	7860      	ldrb	r0, [r4, #1]
 80077f4:	4798      	blx	r3
 80077f6:	4641      	mov	r1, r8
 80077f8:	4628      	mov	r0, r5
 80077fa:	88e2      	ldrh	r2, [r4, #6]
 80077fc:	463e      	mov	r6, r7
 80077fe:	f7ff fed7 	bl	80075b0 <USBD_CtlSendData>
 8007802:	e00a      	b.n	800781a <USBD_CDC_Setup+0x5e>
 8007804:	784b      	ldrb	r3, [r1, #1]
 8007806:	2b0a      	cmp	r3, #10
 8007808:	d01f      	beq.n	800784a <USBD_CDC_Setup+0x8e>
 800780a:	2b0b      	cmp	r3, #11
 800780c:	d027      	beq.n	800785e <USBD_CDC_Setup+0xa2>
 800780e:	b193      	cbz	r3, 8007836 <USBD_CDC_Setup+0x7a>
 8007810:	4621      	mov	r1, r4
 8007812:	4628      	mov	r0, r5
 8007814:	f7ff fe9a 	bl	800754c <USBD_CtlError>
 8007818:	2602      	movs	r6, #2
 800781a:	4630      	mov	r0, r6
 800781c:	b002      	add	sp, #8
 800781e:	e8bd 81f0 	ldmia.w	sp!, {r4, r5, r6, r7, r8, pc}
 8007822:	f8d0 32bc 	ldr.w	r3, [r0, #700]	; 0x2bc
 8007826:	4632      	mov	r2, r6
 8007828:	7848      	ldrb	r0, [r1, #1]
 800782a:	689b      	ldr	r3, [r3, #8]
 800782c:	4798      	blx	r3
 800782e:	4630      	mov	r0, r6
 8007830:	b002      	add	sp, #8
 8007832:	e8bd 81f0 	ldmia.w	sp!, {r4, r5, r6, r7, r8, pc}
 8007836:	f890 329c 	ldrb.w	r3, [r0, #668]	; 0x29c
 800783a:	2b03      	cmp	r3, #3
 800783c:	d1e8      	bne.n	8007810 <USBD_CDC_Setup+0x54>
 800783e:	2202      	movs	r2, #2
 8007840:	f10d 0106 	add.w	r1, sp, #6
 8007844:	f7ff feb4 	bl	80075b0 <USBD_CtlSendData>
 8007848:	e7e7      	b.n	800781a <USBD_CDC_Setup+0x5e>
 800784a:	f890 329c 	ldrb.w	r3, [r0, #668]	; 0x29c
 800784e:	2b03      	cmp	r3, #3
 8007850:	d1de      	bne.n	8007810 <USBD_CDC_Setup+0x54>
 8007852:	2201      	movs	r2, #1
 8007854:	f10d 0105 	add.w	r1, sp, #5
 8007858:	f7ff feaa 	bl	80075b0 <USBD_CtlSendData>
 800785c:	e7dd      	b.n	800781a <USBD_CDC_Setup+0x5e>
 800785e:	f890 329c 	ldrb.w	r3, [r0, #668]	; 0x29c
 8007862:	2b03      	cmp	r3, #3
 8007864:	d0d9      	beq.n	800781a <USBD_CDC_Setup+0x5e>
 8007866:	e7d3      	b.n	8007810 <USBD_CDC_Setup+0x54>
 8007868:	784b      	ldrb	r3, [r1, #1]
 800786a:	4632      	mov	r2, r6
 800786c:	f888 6201 	strb.w	r6, [r8, #513]	; 0x201
 8007870:	4641      	mov	r1, r8
 8007872:	f888 3200 	strb.w	r3, [r8, #512]	; 0x200
 8007876:	f7ff feb3 	bl	80075e0 <USBD_CtlPrepareRx>
 800787a:	463e      	mov	r6, r7
 800787c:	e7cd      	b.n	800781a <USBD_CDC_Setup+0x5e>
 800787e:	bf00      	nop

08007880 <USBD_CDC_DeInit>:
 8007880:	b538      	push	{r3, r4, r5, lr}
 8007882:	4604      	mov	r4, r0
 8007884:	2500      	movs	r5, #0
 8007886:	2182      	movs	r1, #130	; 0x82
 8007888:	f000 f97a 	bl	8007b80 <USBD_LL_CloseEP>
 800788c:	2101      	movs	r1, #1
 800788e:	4620      	mov	r0, r4
 8007890:	6425      	str	r5, [r4, #64]	; 0x40
 8007892:	f000 f975 	bl	8007b80 <USBD_LL_CloseEP>
 8007896:	4620      	mov	r0, r4
 8007898:	2183      	movs	r1, #131	; 0x83
 800789a:	f8c4 516c 	str.w	r5, [r4, #364]	; 0x16c
 800789e:	f000 f96f 	bl	8007b80 <USBD_LL_CloseEP>
 80078a2:	f8d4 32b8 	ldr.w	r3, [r4, #696]	; 0x2b8
 80078a6:	6565      	str	r5, [r4, #84]	; 0x54
 80078a8:	b12b      	cbz	r3, 80078b6 <USBD_CDC_DeInit+0x36>
 80078aa:	f8d4 32bc 	ldr.w	r3, [r4, #700]	; 0x2bc
 80078ae:	685b      	ldr	r3, [r3, #4]
 80078b0:	4798      	blx	r3
 80078b2:	f8c4 52b8 	str.w	r5, [r4, #696]	; 0x2b8
 80078b6:	2000      	movs	r0, #0
 80078b8:	bd38      	pop	{r3, r4, r5, pc}
 80078ba:	bf00      	nop

080078bc <USBD_CDC_Init>:
 80078bc:	b570      	push	{r4, r5, r6, lr}
 80078be:	7c03      	ldrb	r3, [r0, #16]
 80078c0:	4604      	mov	r4, r0
 80078c2:	2501      	movs	r5, #1
 80078c4:	bb73      	cbnz	r3, 8007924 <USBD_CDC_Init+0x68>
 80078c6:	f44f 7300 	mov.w	r3, #512	; 0x200
 80078ca:	2202      	movs	r2, #2
 80078cc:	2182      	movs	r1, #130	; 0x82
 80078ce:	f000 f947 	bl	8007b60 <USBD_LL_OpenEP>
 80078d2:	4629      	mov	r1, r5
 80078d4:	f44f 7300 	mov.w	r3, #512	; 0x200
 80078d8:	2202      	movs	r2, #2
 80078da:	4620      	mov	r0, r4
 80078dc:	6425      	str	r5, [r4, #64]	; 0x40
 80078de:	f000 f93f 	bl	8007b60 <USBD_LL_OpenEP>
 80078e2:	f8c4 516c 	str.w	r5, [r4, #364]	; 0x16c
 80078e6:	2601      	movs	r6, #1
 80078e8:	2203      	movs	r2, #3
 80078ea:	2183      	movs	r1, #131	; 0x83
 80078ec:	2308      	movs	r3, #8
 80078ee:	4620      	mov	r0, r4
 80078f0:	f000 f936 	bl	8007b60 <USBD_LL_OpenEP>
 80078f4:	f8d4 32bc 	ldr.w	r3, [r4, #700]	; 0x2bc
 80078f8:	6566      	str	r6, [r4, #84]	; 0x54
 80078fa:	681b      	ldr	r3, [r3, #0]
 80078fc:	f8d4 52c4 	ldr.w	r5, [r4, #708]	; 0x2c4
 8007900:	4798      	blx	r3
 8007902:	2300      	movs	r3, #0
 8007904:	f8c5 3214 	str.w	r3, [r5, #532]	; 0x214
 8007908:	f8c5 3218 	str.w	r3, [r5, #536]	; 0x218
 800790c:	7c23      	ldrb	r3, [r4, #16]
 800790e:	4631      	mov	r1, r6
 8007910:	4620      	mov	r0, r4
 8007912:	f8d5 2204 	ldr.w	r2, [r5, #516]	; 0x204
 8007916:	b9a3      	cbnz	r3, 8007942 <USBD_CDC_Init+0x86>
 8007918:	f44f 7300 	mov.w	r3, #512	; 0x200
 800791c:	f000 f98a 	bl	8007c34 <USBD_LL_PrepareReceive>
 8007920:	2000      	movs	r0, #0
 8007922:	bd70      	pop	{r4, r5, r6, pc}
 8007924:	2340      	movs	r3, #64	; 0x40
 8007926:	2202      	movs	r2, #2
 8007928:	2182      	movs	r1, #130	; 0x82
 800792a:	f000 f919 	bl	8007b60 <USBD_LL_OpenEP>
 800792e:	4629      	mov	r1, r5
 8007930:	2340      	movs	r3, #64	; 0x40
 8007932:	2202      	movs	r2, #2
 8007934:	4620      	mov	r0, r4
 8007936:	6425      	str	r5, [r4, #64]	; 0x40
 8007938:	f000 f912 	bl	8007b60 <USBD_LL_OpenEP>
 800793c:	f8c4 516c 	str.w	r5, [r4, #364]	; 0x16c
 8007940:	e7d1      	b.n	80078e6 <USBD_CDC_Init+0x2a>
 8007942:	2340      	movs	r3, #64	; 0x40
 8007944:	f000 f976 	bl	8007c34 <USBD_LL_PrepareReceive>
 8007948:	2000      	movs	r0, #0
 800794a:	bd70      	pop	{r4, r5, r6, pc}

0800794c <USBD_CDC_RegisterInterface>:
 800794c:	b119      	cbz	r1, 8007956 <USBD_CDC_RegisterInterface+0xa>
 800794e:	f8c0 12bc 	str.w	r1, [r0, #700]	; 0x2bc
 8007952:	2000      	movs	r0, #0
 8007954:	4770      	bx	lr
 8007956:	2002      	movs	r0, #2
 8007958:	4770      	bx	lr
 800795a:	bf00      	nop

0800795c <USBD_CDC_SetTxBuffer>:
 800795c:	f8d0 32c4 	ldr.w	r3, [r0, #708]	; 0x2c4
 8007960:	2000      	movs	r0, #0
 8007962:	f8c3 1208 	str.w	r1, [r3, #520]	; 0x208
 8007966:	f8c3 2210 	str.w	r2, [r3, #528]	; 0x210
 800796a:	4770      	bx	lr

0800796c <USBD_CDC_SetRxBuffer>:
 800796c:	f8d0 32c4 	ldr.w	r3, [r0, #708]	; 0x2c4
 8007970:	2000      	movs	r0, #0
 8007972:	f8c3 1204 	str.w	r1, [r3, #516]	; 0x204
 8007976:	4770      	bx	lr

08007978 <USBD_CDC_TransmitPacket>:
 8007978:	b538      	push	{r3, r4, r5, lr}
 800797a:	f8d0 32b8 	ldr.w	r3, [r0, #696]	; 0x2b8
 800797e:	f8d0 22c4 	ldr.w	r2, [r0, #708]	; 0x2c4
 8007982:	b193      	cbz	r3, 80079aa <USBD_CDC_TransmitPacket+0x32>
 8007984:	f8d2 4214 	ldr.w	r4, [r2, #532]	; 0x214
 8007988:	b10c      	cbz	r4, 800798e <USBD_CDC_TransmitPacket+0x16>
 800798a:	2001      	movs	r0, #1
 800798c:	bd38      	pop	{r3, r4, r5, pc}
 800798e:	2501      	movs	r5, #1
 8007990:	f8d2 3210 	ldr.w	r3, [r2, #528]	; 0x210
 8007994:	f8c2 5214 	str.w	r5, [r2, #532]	; 0x214
 8007998:	2182      	movs	r1, #130	; 0x82
 800799a:	f8d2 2208 	ldr.w	r2, [r2, #520]	; 0x208
 800799e:	6443      	str	r3, [r0, #68]	; 0x44
 80079a0:	b29b      	uxth	r3, r3
 80079a2:	f000 f939 	bl	8007c18 <USBD_LL_Transmit>
 80079a6:	4620      	mov	r0, r4
 80079a8:	bd38      	pop	{r3, r4, r5, pc}
 80079aa:	2002      	movs	r0, #2
 80079ac:	bd38      	pop	{r3, r4, r5, pc}
 80079ae:	bf00      	nop

080079b0 <USBD_CDC_ReceivePacket>:
 80079b0:	f8d0 22b8 	ldr.w	r2, [r0, #696]	; 0x2b8
 80079b4:	b510      	push	{r4, lr}
 80079b6:	b19a      	cbz	r2, 80079e0 <USBD_CDC_ReceivePacket+0x30>
 80079b8:	f8d0 32c4 	ldr.w	r3, [r0, #708]	; 0x2c4
 80079bc:	7c04      	ldrb	r4, [r0, #16]
 80079be:	f8d3 2204 	ldr.w	r2, [r3, #516]	; 0x204
 80079c2:	b134      	cbz	r4, 80079d2 <USBD_CDC_ReceivePacket+0x22>
 80079c4:	2400      	movs	r4, #0
 80079c6:	2340      	movs	r3, #64	; 0x40
 80079c8:	2101      	movs	r1, #1
 80079ca:	f000 f933 	bl	8007c34 <USBD_LL_PrepareReceive>
 80079ce:	4620      	mov	r0, r4
 80079d0:	bd10      	pop	{r4, pc}
 80079d2:	f44f 7300 	mov.w	r3, #512	; 0x200
 80079d6:	2101      	movs	r1, #1
 80079d8:	f000 f92c 	bl	8007c34 <USBD_LL_PrepareReceive>
 80079dc:	4620      	mov	r0, r4
 80079de:	bd10      	pop	{r4, pc}
 80079e0:	2402      	movs	r4, #2
 80079e2:	4620      	mov	r0, r4
 80079e4:	bd10      	pop	{r4, pc}
 80079e6:	bf00      	nop

080079e8 <HAL_PCD_MspInit>:
 80079e8:	4b0e      	ldr	r3, [pc, #56]	; (8007a24 <HAL_PCD_MspInit+0x3c>)
 80079ea:	6802      	ldr	r2, [r0, #0]
 80079ec:	429a      	cmp	r2, r3
 80079ee:	d000      	beq.n	80079f2 <HAL_PCD_MspInit+0xa>
 80079f0:	4770      	bx	lr
 80079f2:	f503 33da 	add.w	r3, r3, #111616	; 0x1b400
 80079f6:	69d8      	ldr	r0, [r3, #28]
 80079f8:	b500      	push	{lr}
 80079fa:	f440 0000 	orr.w	r0, r0, #8388608	; 0x800000
 80079fe:	61d8      	str	r0, [r3, #28]
 8007a00:	69db      	ldr	r3, [r3, #28]
 8007a02:	b083      	sub	sp, #12
 8007a04:	f403 0300 	and.w	r3, r3, #8388608	; 0x800000
 8007a08:	9301      	str	r3, [sp, #4]
 8007a0a:	2200      	movs	r2, #0
 8007a0c:	2102      	movs	r1, #2
 8007a0e:	2014      	movs	r0, #20
 8007a10:	9b01      	ldr	r3, [sp, #4]
 8007a12:	f7fb fd9d 	bl	8003550 <HAL_NVIC_SetPriority>
 8007a16:	2014      	movs	r0, #20
 8007a18:	b003      	add	sp, #12
 8007a1a:	f85d eb04 	ldr.w	lr, [sp], #4
 8007a1e:	f7fb bdcf 	b.w	80035c0 <HAL_NVIC_EnableIRQ>
 8007a22:	bf00      	nop
 8007a24:	40005c00 	.word	0x40005c00

08007a28 <HAL_PCD_SetupStageCallback>:
 8007a28:	f500 7126 	add.w	r1, r0, #664	; 0x298
 8007a2c:	f8d0 02d4 	ldr.w	r0, [r0, #724]	; 0x2d4
 8007a30:	f7ff ba1c 	b.w	8006e6c <USBD_LL_SetupStage>

08007a34 <HAL_PCD_DataOutStageCallback>:
 8007a34:	eb01 0381 	add.w	r3, r1, r1, lsl #2
 8007a38:	eb00 03c3 	add.w	r3, r0, r3, lsl #3
 8007a3c:	f8d3 2164 	ldr.w	r2, [r3, #356]	; 0x164
 8007a40:	f8d0 02d4 	ldr.w	r0, [r0, #724]	; 0x2d4
 8007a44:	f7ff ba40 	b.w	8006ec8 <USBD_LL_DataOutStage>

08007a48 <HAL_PCD_DataInStageCallback>:
 8007a48:	eb01 0381 	add.w	r3, r1, r1, lsl #2
 8007a4c:	eb00 03c3 	add.w	r3, r0, r3, lsl #3
 8007a50:	6a5a      	ldr	r2, [r3, #36]	; 0x24
 8007a52:	f8d0 02d4 	ldr.w	r0, [r0, #724]	; 0x2d4
 8007a56:	f7ff ba75 	b.w	8006f44 <USBD_LL_DataInStage>
 8007a5a:	bf00      	nop

08007a5c <HAL_PCD_SOFCallback>:
 8007a5c:	f8d0 02d4 	ldr.w	r0, [r0, #724]	; 0x2d4
 8007a60:	f7ff bb10 	b.w	8007084 <USBD_LL_SOF>

08007a64 <HAL_PCD_ResetCallback>:
 8007a64:	b510      	push	{r4, lr}
 8007a66:	7983      	ldrb	r3, [r0, #6]
 8007a68:	4604      	mov	r4, r0
 8007a6a:	2b02      	cmp	r3, #2
 8007a6c:	d001      	beq.n	8007a72 <HAL_PCD_ResetCallback+0xe>
 8007a6e:	f7f9 f8dd 	bl	8000c2c <Error_Handler>
 8007a72:	f8d4 02d4 	ldr.w	r0, [r4, #724]	; 0x2d4
 8007a76:	2101      	movs	r1, #1
 8007a78:	f7ff faec 	bl	8007054 <USBD_LL_SetSpeed>
 8007a7c:	f8d4 02d4 	ldr.w	r0, [r4, #724]	; 0x2d4
 8007a80:	e8bd 4010 	ldmia.w	sp!, {r4, lr}
 8007a84:	f7ff babe 	b.w	8007004 <USBD_LL_Reset>

08007a88 <HAL_PCD_SuspendCallback>:
 8007a88:	b510      	push	{r4, lr}
 8007a8a:	4604      	mov	r4, r0
 8007a8c:	f8d0 02d4 	ldr.w	r0, [r0, #724]	; 0x2d4
 8007a90:	f7ff fae4 	bl	800705c <USBD_LL_Suspend>
 8007a94:	7aa3      	ldrb	r3, [r4, #10]
 8007a96:	b123      	cbz	r3, 8007aa2 <HAL_PCD_SuspendCallback+0x1a>
 8007a98:	4a02      	ldr	r2, [pc, #8]	; (8007aa4 <HAL_PCD_SuspendCallback+0x1c>)
 8007a9a:	6913      	ldr	r3, [r2, #16]
 8007a9c:	f043 0306 	orr.w	r3, r3, #6
 8007aa0:	6113      	str	r3, [r2, #16]
 8007aa2:	bd10      	pop	{r4, pc}
 8007aa4:	e000ed00 	.word	0xe000ed00

08007aa8 <HAL_PCD_ResumeCallback>:
 8007aa8:	f8d0 02d4 	ldr.w	r0, [r0, #724]	; 0x2d4
 8007aac:	f7ff bae0 	b.w	8007070 <USBD_LL_Resume>

08007ab0 <USBD_LL_Init>:
 8007ab0:	b538      	push	{r3, r4, r5, lr}
 8007ab2:	4604      	mov	r4, r0
 8007ab4:	2300      	movs	r3, #0
 8007ab6:	2108      	movs	r1, #8
 8007ab8:	2202      	movs	r2, #2
 8007aba:	4820      	ldr	r0, [pc, #128]	; (8007b3c <USBD_LL_Init+0x8c>)
 8007abc:	4d20      	ldr	r5, [pc, #128]	; (8007b40 <USBD_LL_Init+0x90>)
 8007abe:	f8c0 42d4 	str.w	r4, [r0, #724]	; 0x2d4
 8007ac2:	8143      	strh	r3, [r0, #10]
 8007ac4:	f8c4 02c0 	str.w	r0, [r4, #704]	; 0x2c0
 8007ac8:	6005      	str	r5, [r0, #0]
 8007aca:	7101      	strb	r1, [r0, #4]
 8007acc:	7182      	strb	r2, [r0, #6]
 8007ace:	7303      	strb	r3, [r0, #12]
 8007ad0:	f7fc f95e 	bl	8003d90 <HAL_PCD_Init>
 8007ad4:	bb70      	cbnz	r0, 8007b34 <USBD_LL_Init+0x84>
 8007ad6:	2200      	movs	r2, #0
 8007ad8:	2340      	movs	r3, #64	; 0x40
 8007ada:	4611      	mov	r1, r2
 8007adc:	f8d4 02c0 	ldr.w	r0, [r4, #704]	; 0x2c0
 8007ae0:	f7fd f894 	bl	8004c0c <HAL_PCDEx_PMAConfig>
 8007ae4:	2380      	movs	r3, #128	; 0x80
 8007ae6:	2200      	movs	r2, #0
 8007ae8:	4619      	mov	r1, r3
 8007aea:	f8d4 02c0 	ldr.w	r0, [r4, #704]	; 0x2c0
 8007aee:	f7fd f88d 	bl	8004c0c <HAL_PCDEx_PMAConfig>
 8007af2:	23c0      	movs	r3, #192	; 0xc0
 8007af4:	2200      	movs	r2, #0
 8007af6:	2101      	movs	r1, #1
 8007af8:	f8d4 02c0 	ldr.w	r0, [r4, #704]	; 0x2c0
 8007afc:	f7fd f886 	bl	8004c0c <HAL_PCDEx_PMAConfig>
 8007b00:	f44f 7380 	mov.w	r3, #256	; 0x100
 8007b04:	2200      	movs	r2, #0
 8007b06:	2181      	movs	r1, #129	; 0x81
 8007b08:	f8d4 02c0 	ldr.w	r0, [r4, #704]	; 0x2c0
 8007b0c:	f7fd f87e 	bl	8004c0c <HAL_PCDEx_PMAConfig>
 8007b10:	f44f 73a0 	mov.w	r3, #320	; 0x140
 8007b14:	2200      	movs	r2, #0
 8007b16:	2182      	movs	r1, #130	; 0x82
 8007b18:	f8d4 02c0 	ldr.w	r0, [r4, #704]	; 0x2c0
 8007b1c:	f7fd f876 	bl	8004c0c <HAL_PCDEx_PMAConfig>
 8007b20:	f44f 73c0 	mov.w	r3, #384	; 0x180
 8007b24:	2200      	movs	r2, #0
 8007b26:	2183      	movs	r1, #131	; 0x83
 8007b28:	f8d4 02c0 	ldr.w	r0, [r4, #704]	; 0x2c0
 8007b2c:	f7fd f86e 	bl	8004c0c <HAL_PCDEx_PMAConfig>
 8007b30:	2000      	movs	r0, #0
 8007b32:	bd38      	pop	{r3, r4, r5, pc}
 8007b34:	f7f9 f87a 	bl	8000c2c <Error_Handler>
 8007b38:	e7cd      	b.n	8007ad6 <USBD_LL_Init+0x26>
 8007b3a:	bf00      	nop
 8007b3c:	20002a74 	.word	0x20002a74
 8007b40:	40005c00 	.word	0x40005c00

08007b44 <USBD_LL_Start>:
 8007b44:	b508      	push	{r3, lr}
 8007b46:	f8d0 02c0 	ldr.w	r0, [r0, #704]	; 0x2c0
 8007b4a:	f7fc f985 	bl	8003e58 <HAL_PCD_Start>
 8007b4e:	2803      	cmp	r0, #3
 8007b50:	bf96      	itet	ls
 8007b52:	4b02      	ldrls	r3, [pc, #8]	; (8007b5c <USBD_LL_Start+0x18>)
 8007b54:	2002      	movhi	r0, #2
 8007b56:	5c18      	ldrbls	r0, [r3, r0]
 8007b58:	bd08      	pop	{r3, pc}
 8007b5a:	bf00      	nop
 8007b5c:	0800936c 	.word	0x0800936c

08007b60 <USBD_LL_OpenEP>:
 8007b60:	b510      	push	{r4, lr}
 8007b62:	4614      	mov	r4, r2
 8007b64:	f8d0 02c0 	ldr.w	r0, [r0, #704]	; 0x2c0
 8007b68:	461a      	mov	r2, r3
 8007b6a:	4623      	mov	r3, r4
 8007b6c:	f7fc ff34 	bl	80049d8 <HAL_PCD_EP_Open>
 8007b70:	2803      	cmp	r0, #3
 8007b72:	bf96      	itet	ls
 8007b74:	4b01      	ldrls	r3, [pc, #4]	; (8007b7c <USBD_LL_OpenEP+0x1c>)
 8007b76:	2002      	movhi	r0, #2
 8007b78:	5c18      	ldrbls	r0, [r3, r0]
 8007b7a:	bd10      	pop	{r4, pc}
 8007b7c:	0800936c 	.word	0x0800936c

08007b80 <USBD_LL_CloseEP>:
 8007b80:	b508      	push	{r3, lr}
 8007b82:	f8d0 02c0 	ldr.w	r0, [r0, #704]	; 0x2c0
 8007b86:	f7fc ff5b 	bl	8004a40 <HAL_PCD_EP_Close>
 8007b8a:	2803      	cmp	r0, #3
 8007b8c:	bf96      	itet	ls
 8007b8e:	4b02      	ldrls	r3, [pc, #8]	; (8007b98 <USBD_LL_CloseEP+0x18>)
 8007b90:	2002      	movhi	r0, #2
 8007b92:	5c18      	ldrbls	r0, [r3, r0]
 8007b94:	bd08      	pop	{r3, pc}
 8007b96:	bf00      	nop
 8007b98:	0800936c 	.word	0x0800936c

08007b9c <USBD_LL_StallEP>:
 8007b9c:	b508      	push	{r3, lr}
 8007b9e:	f8d0 02c0 	ldr.w	r0, [r0, #704]	; 0x2c0
 8007ba2:	f7fc ffb9 	bl	8004b18 <HAL_PCD_EP_SetStall>
 8007ba6:	2803      	cmp	r0, #3
 8007ba8:	bf96      	itet	ls
 8007baa:	4b02      	ldrls	r3, [pc, #8]	; (8007bb4 <USBD_LL_StallEP+0x18>)
 8007bac:	2002      	movhi	r0, #2
 8007bae:	5c18      	ldrbls	r0, [r3, r0]
 8007bb0:	bd08      	pop	{r3, pc}
 8007bb2:	bf00      	nop
 8007bb4:	0800936c 	.word	0x0800936c

08007bb8 <USBD_LL_ClearStallEP>:
 8007bb8:	b508      	push	{r3, lr}
 8007bba:	f8d0 02c0 	ldr.w	r0, [r0, #704]	; 0x2c0
 8007bbe:	f7fc ffe9 	bl	8004b94 <HAL_PCD_EP_ClrStall>
 8007bc2:	2803      	cmp	r0, #3
 8007bc4:	bf96      	itet	ls
 8007bc6:	4b02      	ldrls	r3, [pc, #8]	; (8007bd0 <USBD_LL_ClearStallEP+0x18>)
 8007bc8:	2002      	movhi	r0, #2
 8007bca:	5c18      	ldrbls	r0, [r3, r0]
 8007bcc:	bd08      	pop	{r3, pc}
 8007bce:	bf00      	nop
 8007bd0:	0800936c 	.word	0x0800936c

08007bd4 <USBD_LL_IsStallEP>:
 8007bd4:	060a      	lsls	r2, r1, #24
 8007bd6:	f8d0 32c0 	ldr.w	r3, [r0, #704]	; 0x2c0
 8007bda:	d406      	bmi.n	8007bea <USBD_LL_IsStallEP+0x16>
 8007bdc:	eb01 0181 	add.w	r1, r1, r1, lsl #2
 8007be0:	eb03 01c1 	add.w	r1, r3, r1, lsl #3
 8007be4:	f891 0152 	ldrb.w	r0, [r1, #338]	; 0x152
 8007be8:	4770      	bx	lr
 8007bea:	f001 017f 	and.w	r1, r1, #127	; 0x7f
 8007bee:	eb01 0181 	add.w	r1, r1, r1, lsl #2
 8007bf2:	eb03 01c1 	add.w	r1, r3, r1, lsl #3
 8007bf6:	7c88      	ldrb	r0, [r1, #18]
 8007bf8:	4770      	bx	lr
 8007bfa:	bf00      	nop

08007bfc <USBD_LL_SetUSBAddress>:
 8007bfc:	b508      	push	{r3, lr}
 8007bfe:	f8d0 02c0 	ldr.w	r0, [r0, #704]	; 0x2c0
 8007c02:	f7fc fed5 	bl	80049b0 <HAL_PCD_SetAddress>
 8007c06:	2803      	cmp	r0, #3
 8007c08:	bf96      	itet	ls
 8007c0a:	4b02      	ldrls	r3, [pc, #8]	; (8007c14 <USBD_LL_SetUSBAddress+0x18>)
 8007c0c:	2002      	movhi	r0, #2
 8007c0e:	5c18      	ldrbls	r0, [r3, r0]
 8007c10:	bd08      	pop	{r3, pc}
 8007c12:	bf00      	nop
 8007c14:	0800936c 	.word	0x0800936c

08007c18 <USBD_LL_Transmit>:
 8007c18:	b508      	push	{r3, lr}
 8007c1a:	f8d0 02c0 	ldr.w	r0, [r0, #704]	; 0x2c0
 8007c1e:	f7fc ff63 	bl	8004ae8 <HAL_PCD_EP_Transmit>
 8007c22:	2803      	cmp	r0, #3
 8007c24:	bf96      	itet	ls
 8007c26:	4b02      	ldrls	r3, [pc, #8]	; (8007c30 <USBD_LL_Transmit+0x18>)
 8007c28:	2002      	movhi	r0, #2
 8007c2a:	5c18      	ldrbls	r0, [r3, r0]
 8007c2c:	bd08      	pop	{r3, pc}
 8007c2e:	bf00      	nop
 8007c30:	0800936c 	.word	0x0800936c

08007c34 <USBD_LL_PrepareReceive>:
 8007c34:	b508      	push	{r3, lr}
 8007c36:	f8d0 02c0 	ldr.w	r0, [r0, #704]	; 0x2c0
 8007c3a:	f7fc ff33 	bl	8004aa4 <HAL_PCD_EP_Receive>
 8007c3e:	2803      	cmp	r0, #3
 8007c40:	bf96      	itet	ls
 8007c42:	4b02      	ldrls	r3, [pc, #8]	; (8007c4c <USBD_LL_PrepareReceive+0x18>)
 8007c44:	2002      	movhi	r0, #2
 8007c46:	5c18      	ldrbls	r0, [r3, r0]
 8007c48:	bd08      	pop	{r3, pc}
 8007c4a:	bf00      	nop
 8007c4c:	0800936c 	.word	0x0800936c

08007c50 <USBD_LL_GetRxDataSize>:
 8007c50:	f8d0 02c0 	ldr.w	r0, [r0, #704]	; 0x2c0
 8007c54:	f7fc bf3e 	b.w	8004ad4 <HAL_PCD_EP_GetRxCount>

08007c58 <USBD_static_malloc>:
 8007c58:	4800      	ldr	r0, [pc, #0]	; (8007c5c <USBD_static_malloc+0x4>)
 8007c5a:	4770      	bx	lr
 8007c5c:	20001db0 	.word	0x20001db0

08007c60 <USBD_static_free>:
 8007c60:	4770      	bx	lr
 8007c62:	bf00      	nop

08007c64 <HAL_PCDEx_SetConnectionState>:
 8007c64:	4770      	bx	lr
 8007c66:	bf00      	nop

08007c68 <__errno>:
 8007c68:	4b01      	ldr	r3, [pc, #4]	; (8007c70 <__errno+0x8>)
 8007c6a:	6818      	ldr	r0, [r3, #0]
 8007c6c:	4770      	bx	lr
 8007c6e:	bf00      	nop
 8007c70:	2000044c 	.word	0x2000044c

08007c74 <__libc_init_array>:
 8007c74:	b570      	push	{r4, r5, r6, lr}
 8007c76:	2600      	movs	r6, #0
 8007c78:	4d0c      	ldr	r5, [pc, #48]	; (8007cac <__libc_init_array+0x38>)
 8007c7a:	4c0d      	ldr	r4, [pc, #52]	; (8007cb0 <__libc_init_array+0x3c>)
 8007c7c:	1b64      	subs	r4, r4, r5
 8007c7e:	10a4      	asrs	r4, r4, #2
 8007c80:	42a6      	cmp	r6, r4
 8007c82:	d109      	bne.n	8007c98 <__libc_init_array+0x24>
 8007c84:	f000 fc8e 	bl	80085a4 <_init>
 8007c88:	2600      	movs	r6, #0
 8007c8a:	4d0a      	ldr	r5, [pc, #40]	; (8007cb4 <__libc_init_array+0x40>)
 8007c8c:	4c0a      	ldr	r4, [pc, #40]	; (8007cb8 <__libc_init_array+0x44>)
 8007c8e:	1b64      	subs	r4, r4, r5
 8007c90:	10a4      	asrs	r4, r4, #2
 8007c92:	42a6      	cmp	r6, r4
 8007c94:	d105      	bne.n	8007ca2 <__libc_init_array+0x2e>
 8007c96:	bd70      	pop	{r4, r5, r6, pc}
 8007c98:	f855 3b04 	ldr.w	r3, [r5], #4
 8007c9c:	4798      	blx	r3
 8007c9e:	3601      	adds	r6, #1
 8007ca0:	e7ee      	b.n	8007c80 <__libc_init_array+0xc>
 8007ca2:	f855 3b04 	ldr.w	r3, [r5], #4
 8007ca6:	4798      	blx	r3
 8007ca8:	3601      	adds	r6, #1
 8007caa:	e7f2      	b.n	8007c92 <__libc_init_array+0x1e>
 8007cac:	080093a4 	.word	0x080093a4
 8007cb0:	080093a4 	.word	0x080093a4
 8007cb4:	080093a4 	.word	0x080093a4
 8007cb8:	080093a8 	.word	0x080093a8

08007cbc <memcpy>:
 8007cbc:	440a      	add	r2, r1
 8007cbe:	4291      	cmp	r1, r2
 8007cc0:	f100 33ff 	add.w	r3, r0, #4294967295
 8007cc4:	d100      	bne.n	8007cc8 <memcpy+0xc>
 8007cc6:	4770      	bx	lr
 8007cc8:	b510      	push	{r4, lr}
 8007cca:	f811 4b01 	ldrb.w	r4, [r1], #1
 8007cce:	4291      	cmp	r1, r2
 8007cd0:	f803 4f01 	strb.w	r4, [r3, #1]!
 8007cd4:	d1f9      	bne.n	8007cca <memcpy+0xe>
 8007cd6:	bd10      	pop	{r4, pc}

08007cd8 <memset>:
 8007cd8:	4603      	mov	r3, r0
 8007cda:	4402      	add	r2, r0
 8007cdc:	4293      	cmp	r3, r2
 8007cde:	d100      	bne.n	8007ce2 <memset+0xa>
 8007ce0:	4770      	bx	lr
 8007ce2:	f803 1b01 	strb.w	r1, [r3], #1
 8007ce6:	e7f9      	b.n	8007cdc <memset+0x4>

08007ce8 <sniprintf>:
 8007ce8:	b40c      	push	{r2, r3}
 8007cea:	b530      	push	{r4, r5, lr}
 8007cec:	4b17      	ldr	r3, [pc, #92]	; (8007d4c <sniprintf+0x64>)
 8007cee:	1e0c      	subs	r4, r1, #0
 8007cf0:	681d      	ldr	r5, [r3, #0]
 8007cf2:	b09d      	sub	sp, #116	; 0x74
 8007cf4:	da08      	bge.n	8007d08 <sniprintf+0x20>
 8007cf6:	238b      	movs	r3, #139	; 0x8b
 8007cf8:	f04f 30ff 	mov.w	r0, #4294967295
 8007cfc:	602b      	str	r3, [r5, #0]
 8007cfe:	b01d      	add	sp, #116	; 0x74
 8007d00:	e8bd 4030 	ldmia.w	sp!, {r4, r5, lr}
 8007d04:	b002      	add	sp, #8
 8007d06:	4770      	bx	lr
 8007d08:	f44f 7302 	mov.w	r3, #520	; 0x208
 8007d0c:	f8ad 3014 	strh.w	r3, [sp, #20]
 8007d10:	bf0c      	ite	eq
 8007d12:	4623      	moveq	r3, r4
 8007d14:	f104 33ff 	addne.w	r3, r4, #4294967295
 8007d18:	9304      	str	r3, [sp, #16]
 8007d1a:	9307      	str	r3, [sp, #28]
 8007d1c:	f64f 73ff 	movw	r3, #65535	; 0xffff
 8007d20:	9002      	str	r0, [sp, #8]
 8007d22:	9006      	str	r0, [sp, #24]
 8007d24:	f8ad 3016 	strh.w	r3, [sp, #22]
 8007d28:	4628      	mov	r0, r5
 8007d2a:	ab21      	add	r3, sp, #132	; 0x84
 8007d2c:	9a20      	ldr	r2, [sp, #128]	; 0x80
 8007d2e:	a902      	add	r1, sp, #8
 8007d30:	9301      	str	r3, [sp, #4]
 8007d32:	f000 f887 	bl	8007e44 <_svfiprintf_r>
 8007d36:	1c43      	adds	r3, r0, #1
 8007d38:	bfbc      	itt	lt
 8007d3a:	238b      	movlt	r3, #139	; 0x8b
 8007d3c:	602b      	strlt	r3, [r5, #0]
 8007d3e:	2c00      	cmp	r4, #0
 8007d40:	d0dd      	beq.n	8007cfe <sniprintf+0x16>
 8007d42:	2200      	movs	r2, #0
 8007d44:	9b02      	ldr	r3, [sp, #8]
 8007d46:	701a      	strb	r2, [r3, #0]
 8007d48:	e7d9      	b.n	8007cfe <sniprintf+0x16>
 8007d4a:	bf00      	nop
 8007d4c:	2000044c 	.word	0x2000044c

08007d50 <strchr>:
 8007d50:	4603      	mov	r3, r0
 8007d52:	b2c9      	uxtb	r1, r1
 8007d54:	4618      	mov	r0, r3
 8007d56:	f813 2b01 	ldrb.w	r2, [r3], #1
 8007d5a:	b112      	cbz	r2, 8007d62 <strchr+0x12>
 8007d5c:	428a      	cmp	r2, r1
 8007d5e:	d1f9      	bne.n	8007d54 <strchr+0x4>
 8007d60:	4770      	bx	lr
 8007d62:	2900      	cmp	r1, #0
 8007d64:	bf18      	it	ne
 8007d66:	2000      	movne	r0, #0
 8007d68:	4770      	bx	lr

08007d6a <strncmp>:
 8007d6a:	b510      	push	{r4, lr}
 8007d6c:	b16a      	cbz	r2, 8007d8a <strncmp+0x20>
 8007d6e:	3901      	subs	r1, #1
 8007d70:	1884      	adds	r4, r0, r2
 8007d72:	f810 3b01 	ldrb.w	r3, [r0], #1
 8007d76:	f811 2f01 	ldrb.w	r2, [r1, #1]!
 8007d7a:	4293      	cmp	r3, r2
 8007d7c:	d103      	bne.n	8007d86 <strncmp+0x1c>
 8007d7e:	42a0      	cmp	r0, r4
 8007d80:	d001      	beq.n	8007d86 <strncmp+0x1c>
 8007d82:	2b00      	cmp	r3, #0
 8007d84:	d1f5      	bne.n	8007d72 <strncmp+0x8>
 8007d86:	1a98      	subs	r0, r3, r2
 8007d88:	bd10      	pop	{r4, pc}
 8007d8a:	4610      	mov	r0, r2
 8007d8c:	e7fc      	b.n	8007d88 <strncmp+0x1e>

08007d8e <__ssputs_r>:
 8007d8e:	e92d 47f0 	stmdb	sp!, {r4, r5, r6, r7, r8, r9, sl, lr}
 8007d92:	688e      	ldr	r6, [r1, #8]
 8007d94:	4682      	mov	sl, r0
 8007d96:	429e      	cmp	r6, r3
 8007d98:	460c      	mov	r4, r1
 8007d9a:	4690      	mov	r8, r2
 8007d9c:	461f      	mov	r7, r3
 8007d9e:	d838      	bhi.n	8007e12 <__ssputs_r+0x84>
 8007da0:	898a      	ldrh	r2, [r1, #12]
 8007da2:	f412 6f90 	tst.w	r2, #1152	; 0x480
 8007da6:	d032      	beq.n	8007e0e <__ssputs_r+0x80>
 8007da8:	6825      	ldr	r5, [r4, #0]
 8007daa:	6909      	ldr	r1, [r1, #16]
 8007dac:	3301      	adds	r3, #1
 8007dae:	eba5 0901 	sub.w	r9, r5, r1
 8007db2:	6965      	ldr	r5, [r4, #20]
 8007db4:	444b      	add	r3, r9
 8007db6:	eb05 0545 	add.w	r5, r5, r5, lsl #1
 8007dba:	eb05 75d5 	add.w	r5, r5, r5, lsr #31
 8007dbe:	106d      	asrs	r5, r5, #1
 8007dc0:	429d      	cmp	r5, r3
 8007dc2:	bf38      	it	cc
 8007dc4:	461d      	movcc	r5, r3
 8007dc6:	0553      	lsls	r3, r2, #21
 8007dc8:	d531      	bpl.n	8007e2e <__ssputs_r+0xa0>
 8007dca:	4629      	mov	r1, r5
 8007dcc:	f000 fb44 	bl	8008458 <_malloc_r>
 8007dd0:	4606      	mov	r6, r0
 8007dd2:	b950      	cbnz	r0, 8007dea <__ssputs_r+0x5c>
 8007dd4:	230c      	movs	r3, #12
 8007dd6:	f04f 30ff 	mov.w	r0, #4294967295
 8007dda:	f8ca 3000 	str.w	r3, [sl]
 8007dde:	89a3      	ldrh	r3, [r4, #12]
 8007de0:	f043 0340 	orr.w	r3, r3, #64	; 0x40
 8007de4:	81a3      	strh	r3, [r4, #12]
 8007de6:	e8bd 87f0 	ldmia.w	sp!, {r4, r5, r6, r7, r8, r9, sl, pc}
 8007dea:	464a      	mov	r2, r9
 8007dec:	6921      	ldr	r1, [r4, #16]
 8007dee:	f7ff ff65 	bl	8007cbc <memcpy>
 8007df2:	89a3      	ldrh	r3, [r4, #12]
 8007df4:	f423 6390 	bic.w	r3, r3, #1152	; 0x480
 8007df8:	f043 0380 	orr.w	r3, r3, #128	; 0x80
 8007dfc:	81a3      	strh	r3, [r4, #12]
 8007dfe:	6126      	str	r6, [r4, #16]
 8007e00:	444e      	add	r6, r9
 8007e02:	6026      	str	r6, [r4, #0]
 8007e04:	463e      	mov	r6, r7
 8007e06:	6165      	str	r5, [r4, #20]
 8007e08:	eba5 0509 	sub.w	r5, r5, r9
 8007e0c:	60a5      	str	r5, [r4, #8]
 8007e0e:	42be      	cmp	r6, r7
 8007e10:	d900      	bls.n	8007e14 <__ssputs_r+0x86>
 8007e12:	463e      	mov	r6, r7
 8007e14:	4632      	mov	r2, r6
 8007e16:	4641      	mov	r1, r8
 8007e18:	6820      	ldr	r0, [r4, #0]
 8007e1a:	f000 fab7 	bl	800838c <memmove>
 8007e1e:	68a3      	ldr	r3, [r4, #8]
 8007e20:	6822      	ldr	r2, [r4, #0]
 8007e22:	1b9b      	subs	r3, r3, r6
 8007e24:	4432      	add	r2, r6
 8007e26:	2000      	movs	r0, #0
 8007e28:	60a3      	str	r3, [r4, #8]
 8007e2a:	6022      	str	r2, [r4, #0]
 8007e2c:	e7db      	b.n	8007de6 <__ssputs_r+0x58>
 8007e2e:	462a      	mov	r2, r5
 8007e30:	f000 fb6c 	bl	800850c <_realloc_r>
 8007e34:	4606      	mov	r6, r0
 8007e36:	2800      	cmp	r0, #0
 8007e38:	d1e1      	bne.n	8007dfe <__ssputs_r+0x70>
 8007e3a:	4650      	mov	r0, sl
 8007e3c:	6921      	ldr	r1, [r4, #16]
 8007e3e:	f000 fabf 	bl	80083c0 <_free_r>
 8007e42:	e7c7      	b.n	8007dd4 <__ssputs_r+0x46>

08007e44 <_svfiprintf_r>:
 8007e44:	e92d 4ff0 	stmdb	sp!, {r4, r5, r6, r7, r8, r9, sl, fp, lr}
 8007e48:	4698      	mov	r8, r3
 8007e4a:	898b      	ldrh	r3, [r1, #12]
 8007e4c:	4607      	mov	r7, r0
 8007e4e:	061b      	lsls	r3, r3, #24
 8007e50:	460d      	mov	r5, r1
 8007e52:	4614      	mov	r4, r2
 8007e54:	b09d      	sub	sp, #116	; 0x74
 8007e56:	d50e      	bpl.n	8007e76 <_svfiprintf_r+0x32>
 8007e58:	690b      	ldr	r3, [r1, #16]
 8007e5a:	b963      	cbnz	r3, 8007e76 <_svfiprintf_r+0x32>
 8007e5c:	2140      	movs	r1, #64	; 0x40
 8007e5e:	f000 fafb 	bl	8008458 <_malloc_r>
 8007e62:	6028      	str	r0, [r5, #0]
 8007e64:	6128      	str	r0, [r5, #16]
 8007e66:	b920      	cbnz	r0, 8007e72 <_svfiprintf_r+0x2e>
 8007e68:	230c      	movs	r3, #12
 8007e6a:	603b      	str	r3, [r7, #0]
 8007e6c:	f04f 30ff 	mov.w	r0, #4294967295
 8007e70:	e0d1      	b.n	8008016 <_svfiprintf_r+0x1d2>
 8007e72:	2340      	movs	r3, #64	; 0x40
 8007e74:	616b      	str	r3, [r5, #20]
 8007e76:	2300      	movs	r3, #0
 8007e78:	9309      	str	r3, [sp, #36]	; 0x24
 8007e7a:	2320      	movs	r3, #32
 8007e7c:	f88d 3029 	strb.w	r3, [sp, #41]	; 0x29
 8007e80:	2330      	movs	r3, #48	; 0x30
 8007e82:	f04f 0901 	mov.w	r9, #1
 8007e86:	f8cd 800c 	str.w	r8, [sp, #12]
 8007e8a:	f8df 81a4 	ldr.w	r8, [pc, #420]	; 8008030 <_svfiprintf_r+0x1ec>
 8007e8e:	f88d 302a 	strb.w	r3, [sp, #42]	; 0x2a
 8007e92:	4623      	mov	r3, r4
 8007e94:	469a      	mov	sl, r3
 8007e96:	f813 2b01 	ldrb.w	r2, [r3], #1
 8007e9a:	b10a      	cbz	r2, 8007ea0 <_svfiprintf_r+0x5c>
 8007e9c:	2a25      	cmp	r2, #37	; 0x25
 8007e9e:	d1f9      	bne.n	8007e94 <_svfiprintf_r+0x50>
 8007ea0:	ebba 0b04 	subs.w	fp, sl, r4
 8007ea4:	d00b      	beq.n	8007ebe <_svfiprintf_r+0x7a>
 8007ea6:	465b      	mov	r3, fp
 8007ea8:	4622      	mov	r2, r4
 8007eaa:	4629      	mov	r1, r5
 8007eac:	4638      	mov	r0, r7
 8007eae:	f7ff ff6e 	bl	8007d8e <__ssputs_r>
 8007eb2:	3001      	adds	r0, #1
 8007eb4:	f000 80aa 	beq.w	800800c <_svfiprintf_r+0x1c8>
 8007eb8:	9a09      	ldr	r2, [sp, #36]	; 0x24
 8007eba:	445a      	add	r2, fp
 8007ebc:	9209      	str	r2, [sp, #36]	; 0x24
 8007ebe:	f89a 3000 	ldrb.w	r3, [sl]
 8007ec2:	2b00      	cmp	r3, #0
 8007ec4:	f000 80a2 	beq.w	800800c <_svfiprintf_r+0x1c8>
 8007ec8:	2300      	movs	r3, #0
 8007eca:	f04f 32ff 	mov.w	r2, #4294967295
 8007ece:	e9cd 2305 	strd	r2, r3, [sp, #20]
 8007ed2:	f10a 0a01 	add.w	sl, sl, #1
 8007ed6:	9304      	str	r3, [sp, #16]
 8007ed8:	9307      	str	r3, [sp, #28]
 8007eda:	f88d 3053 	strb.w	r3, [sp, #83]	; 0x53
 8007ede:	931a      	str	r3, [sp, #104]	; 0x68
 8007ee0:	4654      	mov	r4, sl
 8007ee2:	2205      	movs	r2, #5
 8007ee4:	f814 1b01 	ldrb.w	r1, [r4], #1
 8007ee8:	4851      	ldr	r0, [pc, #324]	; (8008030 <_svfiprintf_r+0x1ec>)
 8007eea:	f000 fa41 	bl	8008370 <memchr>
 8007eee:	9a04      	ldr	r2, [sp, #16]
 8007ef0:	b9d8      	cbnz	r0, 8007f2a <_svfiprintf_r+0xe6>
 8007ef2:	06d0      	lsls	r0, r2, #27
 8007ef4:	bf44      	itt	mi
 8007ef6:	2320      	movmi	r3, #32
 8007ef8:	f88d 3053 	strbmi.w	r3, [sp, #83]	; 0x53
 8007efc:	0711      	lsls	r1, r2, #28
 8007efe:	bf44      	itt	mi
 8007f00:	232b      	movmi	r3, #43	; 0x2b
 8007f02:	f88d 3053 	strbmi.w	r3, [sp, #83]	; 0x53
 8007f06:	f89a 3000 	ldrb.w	r3, [sl]
 8007f0a:	2b2a      	cmp	r3, #42	; 0x2a
 8007f0c:	d015      	beq.n	8007f3a <_svfiprintf_r+0xf6>
 8007f0e:	4654      	mov	r4, sl
 8007f10:	2000      	movs	r0, #0
 8007f12:	f04f 0c0a 	mov.w	ip, #10
 8007f16:	9a07      	ldr	r2, [sp, #28]
 8007f18:	4621      	mov	r1, r4
 8007f1a:	f811 3b01 	ldrb.w	r3, [r1], #1
 8007f1e:	3b30      	subs	r3, #48	; 0x30
 8007f20:	2b09      	cmp	r3, #9
 8007f22:	d94e      	bls.n	8007fc2 <_svfiprintf_r+0x17e>
 8007f24:	b1b0      	cbz	r0, 8007f54 <_svfiprintf_r+0x110>
 8007f26:	9207      	str	r2, [sp, #28]
 8007f28:	e014      	b.n	8007f54 <_svfiprintf_r+0x110>
 8007f2a:	eba0 0308 	sub.w	r3, r0, r8
 8007f2e:	fa09 f303 	lsl.w	r3, r9, r3
 8007f32:	4313      	orrs	r3, r2
 8007f34:	46a2      	mov	sl, r4
 8007f36:	9304      	str	r3, [sp, #16]
 8007f38:	e7d2      	b.n	8007ee0 <_svfiprintf_r+0x9c>
 8007f3a:	9b03      	ldr	r3, [sp, #12]
 8007f3c:	1d19      	adds	r1, r3, #4
 8007f3e:	681b      	ldr	r3, [r3, #0]
 8007f40:	9103      	str	r1, [sp, #12]
 8007f42:	2b00      	cmp	r3, #0
 8007f44:	bfbb      	ittet	lt
 8007f46:	425b      	neglt	r3, r3
 8007f48:	f042 0202 	orrlt.w	r2, r2, #2
 8007f4c:	9307      	strge	r3, [sp, #28]
 8007f4e:	9307      	strlt	r3, [sp, #28]
 8007f50:	bfb8      	it	lt
 8007f52:	9204      	strlt	r2, [sp, #16]
 8007f54:	7823      	ldrb	r3, [r4, #0]
 8007f56:	2b2e      	cmp	r3, #46	; 0x2e
 8007f58:	d10c      	bne.n	8007f74 <_svfiprintf_r+0x130>
 8007f5a:	7863      	ldrb	r3, [r4, #1]
 8007f5c:	2b2a      	cmp	r3, #42	; 0x2a
 8007f5e:	d135      	bne.n	8007fcc <_svfiprintf_r+0x188>
 8007f60:	9b03      	ldr	r3, [sp, #12]
 8007f62:	3402      	adds	r4, #2
 8007f64:	1d1a      	adds	r2, r3, #4
 8007f66:	681b      	ldr	r3, [r3, #0]
 8007f68:	9203      	str	r2, [sp, #12]
 8007f6a:	2b00      	cmp	r3, #0
 8007f6c:	bfb8      	it	lt
 8007f6e:	f04f 33ff 	movlt.w	r3, #4294967295
 8007f72:	9305      	str	r3, [sp, #20]
 8007f74:	f8df a0c8 	ldr.w	sl, [pc, #200]	; 8008040 <_svfiprintf_r+0x1fc>
 8007f78:	2203      	movs	r2, #3
 8007f7a:	4650      	mov	r0, sl
 8007f7c:	7821      	ldrb	r1, [r4, #0]
 8007f7e:	f000 f9f7 	bl	8008370 <memchr>
 8007f82:	b140      	cbz	r0, 8007f96 <_svfiprintf_r+0x152>
 8007f84:	2340      	movs	r3, #64	; 0x40
 8007f86:	eba0 000a 	sub.w	r0, r0, sl
 8007f8a:	fa03 f000 	lsl.w	r0, r3, r0
 8007f8e:	9b04      	ldr	r3, [sp, #16]
 8007f90:	3401      	adds	r4, #1
 8007f92:	4303      	orrs	r3, r0
 8007f94:	9304      	str	r3, [sp, #16]
 8007f96:	f814 1b01 	ldrb.w	r1, [r4], #1
 8007f9a:	2206      	movs	r2, #6
 8007f9c:	4825      	ldr	r0, [pc, #148]	; (8008034 <_svfiprintf_r+0x1f0>)
 8007f9e:	f88d 1028 	strb.w	r1, [sp, #40]	; 0x28
 8007fa2:	f000 f9e5 	bl	8008370 <memchr>
 8007fa6:	2800      	cmp	r0, #0
 8007fa8:	d038      	beq.n	800801c <_svfiprintf_r+0x1d8>
 8007faa:	4b23      	ldr	r3, [pc, #140]	; (8008038 <_svfiprintf_r+0x1f4>)
 8007fac:	bb1b      	cbnz	r3, 8007ff6 <_svfiprintf_r+0x1b2>
 8007fae:	9b03      	ldr	r3, [sp, #12]
 8007fb0:	3307      	adds	r3, #7
 8007fb2:	f023 0307 	bic.w	r3, r3, #7
 8007fb6:	3308      	adds	r3, #8
 8007fb8:	9303      	str	r3, [sp, #12]
 8007fba:	9b09      	ldr	r3, [sp, #36]	; 0x24
 8007fbc:	4433      	add	r3, r6
 8007fbe:	9309      	str	r3, [sp, #36]	; 0x24
 8007fc0:	e767      	b.n	8007e92 <_svfiprintf_r+0x4e>
 8007fc2:	460c      	mov	r4, r1
 8007fc4:	2001      	movs	r0, #1
 8007fc6:	fb0c 3202 	mla	r2, ip, r2, r3
 8007fca:	e7a5      	b.n	8007f18 <_svfiprintf_r+0xd4>
 8007fcc:	2300      	movs	r3, #0
 8007fce:	f04f 0c0a 	mov.w	ip, #10
 8007fd2:	4619      	mov	r1, r3
 8007fd4:	3401      	adds	r4, #1
 8007fd6:	9305      	str	r3, [sp, #20]
 8007fd8:	4620      	mov	r0, r4
 8007fda:	f810 2b01 	ldrb.w	r2, [r0], #1
 8007fde:	3a30      	subs	r2, #48	; 0x30
 8007fe0:	2a09      	cmp	r2, #9
 8007fe2:	d903      	bls.n	8007fec <_svfiprintf_r+0x1a8>
 8007fe4:	2b00      	cmp	r3, #0
 8007fe6:	d0c5      	beq.n	8007f74 <_svfiprintf_r+0x130>
 8007fe8:	9105      	str	r1, [sp, #20]
 8007fea:	e7c3      	b.n	8007f74 <_svfiprintf_r+0x130>
 8007fec:	4604      	mov	r4, r0
 8007fee:	2301      	movs	r3, #1
 8007ff0:	fb0c 2101 	mla	r1, ip, r1, r2
 8007ff4:	e7f0      	b.n	8007fd8 <_svfiprintf_r+0x194>
 8007ff6:	ab03      	add	r3, sp, #12
 8007ff8:	9300      	str	r3, [sp, #0]
 8007ffa:	462a      	mov	r2, r5
 8007ffc:	4638      	mov	r0, r7
 8007ffe:	4b0f      	ldr	r3, [pc, #60]	; (800803c <_svfiprintf_r+0x1f8>)
 8008000:	a904      	add	r1, sp, #16
 8008002:	f3af 8000 	nop.w
 8008006:	1c42      	adds	r2, r0, #1
 8008008:	4606      	mov	r6, r0
 800800a:	d1d6      	bne.n	8007fba <_svfiprintf_r+0x176>
 800800c:	89ab      	ldrh	r3, [r5, #12]
 800800e:	065b      	lsls	r3, r3, #25
 8008010:	f53f af2c 	bmi.w	8007e6c <_svfiprintf_r+0x28>
 8008014:	9809      	ldr	r0, [sp, #36]	; 0x24
 8008016:	b01d      	add	sp, #116	; 0x74
 8008018:	e8bd 8ff0 	ldmia.w	sp!, {r4, r5, r6, r7, r8, r9, sl, fp, pc}
 800801c:	ab03      	add	r3, sp, #12
 800801e:	9300      	str	r3, [sp, #0]
 8008020:	462a      	mov	r2, r5
 8008022:	4638      	mov	r0, r7
 8008024:	4b05      	ldr	r3, [pc, #20]	; (800803c <_svfiprintf_r+0x1f8>)
 8008026:	a904      	add	r1, sp, #16
 8008028:	f000 f87c 	bl	8008124 <_printf_i>
 800802c:	e7eb      	b.n	8008006 <_svfiprintf_r+0x1c2>
 800802e:	bf00      	nop
 8008030:	08009370 	.word	0x08009370
 8008034:	0800937a 	.word	0x0800937a
 8008038:	00000000 	.word	0x00000000
 800803c:	08007d8f 	.word	0x08007d8f
 8008040:	08009376 	.word	0x08009376

08008044 <_printf_common>:
 8008044:	e92d 47f0 	stmdb	sp!, {r4, r5, r6, r7, r8, r9, sl, lr}
 8008048:	4616      	mov	r6, r2
 800804a:	4699      	mov	r9, r3
 800804c:	688a      	ldr	r2, [r1, #8]
 800804e:	690b      	ldr	r3, [r1, #16]
 8008050:	4607      	mov	r7, r0
 8008052:	4293      	cmp	r3, r2
 8008054:	bfb8      	it	lt
 8008056:	4613      	movlt	r3, r2
 8008058:	6033      	str	r3, [r6, #0]
 800805a:	f891 2043 	ldrb.w	r2, [r1, #67]	; 0x43
 800805e:	460c      	mov	r4, r1
 8008060:	f8dd 8020 	ldr.w	r8, [sp, #32]
 8008064:	b10a      	cbz	r2, 800806a <_printf_common+0x26>
 8008066:	3301      	adds	r3, #1
 8008068:	6033      	str	r3, [r6, #0]
 800806a:	6823      	ldr	r3, [r4, #0]
 800806c:	0699      	lsls	r1, r3, #26
 800806e:	bf42      	ittt	mi
 8008070:	6833      	ldrmi	r3, [r6, #0]
 8008072:	3302      	addmi	r3, #2
 8008074:	6033      	strmi	r3, [r6, #0]
 8008076:	6825      	ldr	r5, [r4, #0]
 8008078:	f015 0506 	ands.w	r5, r5, #6
 800807c:	d106      	bne.n	800808c <_printf_common+0x48>
 800807e:	f104 0a19 	add.w	sl, r4, #25
 8008082:	68e3      	ldr	r3, [r4, #12]
 8008084:	6832      	ldr	r2, [r6, #0]
 8008086:	1a9b      	subs	r3, r3, r2
 8008088:	42ab      	cmp	r3, r5
 800808a:	dc28      	bgt.n	80080de <_printf_common+0x9a>
 800808c:	f894 2043 	ldrb.w	r2, [r4, #67]	; 0x43
 8008090:	1e13      	subs	r3, r2, #0
 8008092:	6822      	ldr	r2, [r4, #0]
 8008094:	bf18      	it	ne
 8008096:	2301      	movne	r3, #1
 8008098:	0692      	lsls	r2, r2, #26
 800809a:	d42d      	bmi.n	80080f8 <_printf_common+0xb4>
 800809c:	4649      	mov	r1, r9
 800809e:	4638      	mov	r0, r7
 80080a0:	f104 0243 	add.w	r2, r4, #67	; 0x43
 80080a4:	47c0      	blx	r8
 80080a6:	3001      	adds	r0, #1
 80080a8:	d020      	beq.n	80080ec <_printf_common+0xa8>
 80080aa:	6823      	ldr	r3, [r4, #0]
 80080ac:	68e5      	ldr	r5, [r4, #12]
 80080ae:	f003 0306 	and.w	r3, r3, #6
 80080b2:	2b04      	cmp	r3, #4
 80080b4:	bf18      	it	ne
 80080b6:	2500      	movne	r5, #0
 80080b8:	6832      	ldr	r2, [r6, #0]
 80080ba:	f04f 0600 	mov.w	r6, #0
 80080be:	68a3      	ldr	r3, [r4, #8]
 80080c0:	bf08      	it	eq
 80080c2:	1aad      	subeq	r5, r5, r2
 80080c4:	6922      	ldr	r2, [r4, #16]
 80080c6:	bf08      	it	eq
 80080c8:	ea25 75e5 	biceq.w	r5, r5, r5, asr #31
 80080cc:	4293      	cmp	r3, r2
 80080ce:	bfc4      	itt	gt
 80080d0:	1a9b      	subgt	r3, r3, r2
 80080d2:	18ed      	addgt	r5, r5, r3
 80080d4:	341a      	adds	r4, #26
 80080d6:	42b5      	cmp	r5, r6
 80080d8:	d11a      	bne.n	8008110 <_printf_common+0xcc>
 80080da:	2000      	movs	r0, #0
 80080dc:	e008      	b.n	80080f0 <_printf_common+0xac>
 80080de:	2301      	movs	r3, #1
 80080e0:	4652      	mov	r2, sl
 80080e2:	4649      	mov	r1, r9
 80080e4:	4638      	mov	r0, r7
 80080e6:	47c0      	blx	r8
 80080e8:	3001      	adds	r0, #1
 80080ea:	d103      	bne.n	80080f4 <_printf_common+0xb0>
 80080ec:	f04f 30ff 	mov.w	r0, #4294967295
 80080f0:	e8bd 87f0 	ldmia.w	sp!, {r4, r5, r6, r7, r8, r9, sl, pc}
 80080f4:	3501      	adds	r5, #1
 80080f6:	e7c4      	b.n	8008082 <_printf_common+0x3e>
 80080f8:	2030      	movs	r0, #48	; 0x30
 80080fa:	18e1      	adds	r1, r4, r3
 80080fc:	f881 0043 	strb.w	r0, [r1, #67]	; 0x43
 8008100:	1c5a      	adds	r2, r3, #1
 8008102:	f894 1045 	ldrb.w	r1, [r4, #69]	; 0x45
 8008106:	4422      	add	r2, r4
 8008108:	3302      	adds	r3, #2
 800810a:	f882 1043 	strb.w	r1, [r2, #67]	; 0x43
 800810e:	e7c5      	b.n	800809c <_printf_common+0x58>
 8008110:	2301      	movs	r3, #1
 8008112:	4622      	mov	r2, r4
 8008114:	4649      	mov	r1, r9
 8008116:	4638      	mov	r0, r7
 8008118:	47c0      	blx	r8
 800811a:	3001      	adds	r0, #1
 800811c:	d0e6      	beq.n	80080ec <_printf_common+0xa8>
 800811e:	3601      	adds	r6, #1
 8008120:	e7d9      	b.n	80080d6 <_printf_common+0x92>
	...

08008124 <_printf_i>:
 8008124:	e92d 47ff 	stmdb	sp!, {r0, r1, r2, r3, r4, r5, r6, r7, r8, r9, sl, lr}
 8008128:	460c      	mov	r4, r1
 800812a:	7e27      	ldrb	r7, [r4, #24]
 800812c:	4691      	mov	r9, r2
 800812e:	2f78      	cmp	r7, #120	; 0x78
 8008130:	4680      	mov	r8, r0
 8008132:	469a      	mov	sl, r3
 8008134:	990c      	ldr	r1, [sp, #48]	; 0x30
 8008136:	f104 0243 	add.w	r2, r4, #67	; 0x43
 800813a:	d807      	bhi.n	800814c <_printf_i+0x28>
 800813c:	2f62      	cmp	r7, #98	; 0x62
 800813e:	d80a      	bhi.n	8008156 <_printf_i+0x32>
 8008140:	2f00      	cmp	r7, #0
 8008142:	f000 80d9 	beq.w	80082f8 <_printf_i+0x1d4>
 8008146:	2f58      	cmp	r7, #88	; 0x58
 8008148:	f000 80a4 	beq.w	8008294 <_printf_i+0x170>
 800814c:	f104 0642 	add.w	r6, r4, #66	; 0x42
 8008150:	f884 7042 	strb.w	r7, [r4, #66]	; 0x42
 8008154:	e03a      	b.n	80081cc <_printf_i+0xa8>
 8008156:	f1a7 0363 	sub.w	r3, r7, #99	; 0x63
 800815a:	2b15      	cmp	r3, #21
 800815c:	d8f6      	bhi.n	800814c <_printf_i+0x28>
 800815e:	a001      	add	r0, pc, #4	; (adr r0, 8008164 <_printf_i+0x40>)
 8008160:	f850 f023 	ldr.w	pc, [r0, r3, lsl #2]
 8008164:	080081bd 	.word	0x080081bd
 8008168:	080081d1 	.word	0x080081d1
 800816c:	0800814d 	.word	0x0800814d
 8008170:	0800814d 	.word	0x0800814d
 8008174:	0800814d 	.word	0x0800814d
 8008178:	0800814d 	.word	0x0800814d
 800817c:	080081d1 	.word	0x080081d1
 8008180:	0800814d 	.word	0x0800814d
 8008184:	0800814d 	.word	0x0800814d
 8008188:	0800814d 	.word	0x0800814d
 800818c:	0800814d 	.word	0x0800814d
 8008190:	080082df 	.word	0x080082df
 8008194:	08008201 	.word	0x08008201
 8008198:	080082c1 	.word	0x080082c1
 800819c:	0800814d 	.word	0x0800814d
 80081a0:	0800814d 	.word	0x0800814d
 80081a4:	08008301 	.word	0x08008301
 80081a8:	0800814d 	.word	0x0800814d
 80081ac:	08008201 	.word	0x08008201
 80081b0:	0800814d 	.word	0x0800814d
 80081b4:	0800814d 	.word	0x0800814d
 80081b8:	080082c9 	.word	0x080082c9
 80081bc:	680b      	ldr	r3, [r1, #0]
 80081be:	f104 0642 	add.w	r6, r4, #66	; 0x42
 80081c2:	1d1a      	adds	r2, r3, #4
 80081c4:	681b      	ldr	r3, [r3, #0]
 80081c6:	600a      	str	r2, [r1, #0]
 80081c8:	f884 3042 	strb.w	r3, [r4, #66]	; 0x42
 80081cc:	2301      	movs	r3, #1
 80081ce:	e0a4      	b.n	800831a <_printf_i+0x1f6>
 80081d0:	6825      	ldr	r5, [r4, #0]
 80081d2:	6808      	ldr	r0, [r1, #0]
 80081d4:	062e      	lsls	r6, r5, #24
 80081d6:	f100 0304 	add.w	r3, r0, #4
 80081da:	d50a      	bpl.n	80081f2 <_printf_i+0xce>
 80081dc:	6805      	ldr	r5, [r0, #0]
 80081de:	600b      	str	r3, [r1, #0]
 80081e0:	2d00      	cmp	r5, #0
 80081e2:	da03      	bge.n	80081ec <_printf_i+0xc8>
 80081e4:	232d      	movs	r3, #45	; 0x2d
 80081e6:	426d      	negs	r5, r5
 80081e8:	f884 3043 	strb.w	r3, [r4, #67]	; 0x43
 80081ec:	230a      	movs	r3, #10
 80081ee:	485e      	ldr	r0, [pc, #376]	; (8008368 <_printf_i+0x244>)
 80081f0:	e019      	b.n	8008226 <_printf_i+0x102>
 80081f2:	f015 0f40 	tst.w	r5, #64	; 0x40
 80081f6:	6805      	ldr	r5, [r0, #0]
 80081f8:	600b      	str	r3, [r1, #0]
 80081fa:	bf18      	it	ne
 80081fc:	b22d      	sxthne	r5, r5
 80081fe:	e7ef      	b.n	80081e0 <_printf_i+0xbc>
 8008200:	680b      	ldr	r3, [r1, #0]
 8008202:	6825      	ldr	r5, [r4, #0]
 8008204:	1d18      	adds	r0, r3, #4
 8008206:	6008      	str	r0, [r1, #0]
 8008208:	0628      	lsls	r0, r5, #24
 800820a:	d501      	bpl.n	8008210 <_printf_i+0xec>
 800820c:	681d      	ldr	r5, [r3, #0]
 800820e:	e002      	b.n	8008216 <_printf_i+0xf2>
 8008210:	0669      	lsls	r1, r5, #25
 8008212:	d5fb      	bpl.n	800820c <_printf_i+0xe8>
 8008214:	881d      	ldrh	r5, [r3, #0]
 8008216:	2f6f      	cmp	r7, #111	; 0x6f
 8008218:	bf0c      	ite	eq
 800821a:	2308      	moveq	r3, #8
 800821c:	230a      	movne	r3, #10
 800821e:	4852      	ldr	r0, [pc, #328]	; (8008368 <_printf_i+0x244>)
 8008220:	2100      	movs	r1, #0
 8008222:	f884 1043 	strb.w	r1, [r4, #67]	; 0x43
 8008226:	6866      	ldr	r6, [r4, #4]
 8008228:	2e00      	cmp	r6, #0
 800822a:	bfa8      	it	ge
 800822c:	6821      	ldrge	r1, [r4, #0]
 800822e:	60a6      	str	r6, [r4, #8]
 8008230:	bfa4      	itt	ge
 8008232:	f021 0104 	bicge.w	r1, r1, #4
 8008236:	6021      	strge	r1, [r4, #0]
 8008238:	b90d      	cbnz	r5, 800823e <_printf_i+0x11a>
 800823a:	2e00      	cmp	r6, #0
 800823c:	d04d      	beq.n	80082da <_printf_i+0x1b6>
 800823e:	4616      	mov	r6, r2
 8008240:	fbb5 f1f3 	udiv	r1, r5, r3
 8008244:	fb03 5711 	mls	r7, r3, r1, r5
 8008248:	5dc7      	ldrb	r7, [r0, r7]
 800824a:	f806 7d01 	strb.w	r7, [r6, #-1]!
 800824e:	462f      	mov	r7, r5
 8008250:	42bb      	cmp	r3, r7
 8008252:	460d      	mov	r5, r1
 8008254:	d9f4      	bls.n	8008240 <_printf_i+0x11c>
 8008256:	2b08      	cmp	r3, #8
 8008258:	d10b      	bne.n	8008272 <_printf_i+0x14e>
 800825a:	6823      	ldr	r3, [r4, #0]
 800825c:	07df      	lsls	r7, r3, #31
 800825e:	d508      	bpl.n	8008272 <_printf_i+0x14e>
 8008260:	6923      	ldr	r3, [r4, #16]
 8008262:	6861      	ldr	r1, [r4, #4]
 8008264:	4299      	cmp	r1, r3
 8008266:	bfde      	ittt	le
 8008268:	2330      	movle	r3, #48	; 0x30
 800826a:	f806 3c01 	strble.w	r3, [r6, #-1]
 800826e:	f106 36ff 	addle.w	r6, r6, #4294967295
 8008272:	1b92      	subs	r2, r2, r6
 8008274:	6122      	str	r2, [r4, #16]
 8008276:	464b      	mov	r3, r9
 8008278:	4621      	mov	r1, r4
 800827a:	4640      	mov	r0, r8
 800827c:	f8cd a000 	str.w	sl, [sp]
 8008280:	aa03      	add	r2, sp, #12
 8008282:	f7ff fedf 	bl	8008044 <_printf_common>
 8008286:	3001      	adds	r0, #1
 8008288:	d14c      	bne.n	8008324 <_printf_i+0x200>
 800828a:	f04f 30ff 	mov.w	r0, #4294967295
 800828e:	b004      	add	sp, #16
 8008290:	e8bd 87f0 	ldmia.w	sp!, {r4, r5, r6, r7, r8, r9, sl, pc}
 8008294:	4834      	ldr	r0, [pc, #208]	; (8008368 <_printf_i+0x244>)
 8008296:	f884 7045 	strb.w	r7, [r4, #69]	; 0x45
 800829a:	680e      	ldr	r6, [r1, #0]
 800829c:	6823      	ldr	r3, [r4, #0]
 800829e:	f856 5b04 	ldr.w	r5, [r6], #4
 80082a2:	061f      	lsls	r7, r3, #24
 80082a4:	600e      	str	r6, [r1, #0]
 80082a6:	d514      	bpl.n	80082d2 <_printf_i+0x1ae>
 80082a8:	07d9      	lsls	r1, r3, #31
 80082aa:	bf44      	itt	mi
 80082ac:	f043 0320 	orrmi.w	r3, r3, #32
 80082b0:	6023      	strmi	r3, [r4, #0]
 80082b2:	b91d      	cbnz	r5, 80082bc <_printf_i+0x198>
 80082b4:	6823      	ldr	r3, [r4, #0]
 80082b6:	f023 0320 	bic.w	r3, r3, #32
 80082ba:	6023      	str	r3, [r4, #0]
 80082bc:	2310      	movs	r3, #16
 80082be:	e7af      	b.n	8008220 <_printf_i+0xfc>
 80082c0:	6823      	ldr	r3, [r4, #0]
 80082c2:	f043 0320 	orr.w	r3, r3, #32
 80082c6:	6023      	str	r3, [r4, #0]
 80082c8:	2378      	movs	r3, #120	; 0x78
 80082ca:	4828      	ldr	r0, [pc, #160]	; (800836c <_printf_i+0x248>)
 80082cc:	f884 3045 	strb.w	r3, [r4, #69]	; 0x45
 80082d0:	e7e3      	b.n	800829a <_printf_i+0x176>
 80082d2:	065e      	lsls	r6, r3, #25
 80082d4:	bf48      	it	mi
 80082d6:	b2ad      	uxthmi	r5, r5
 80082d8:	e7e6      	b.n	80082a8 <_printf_i+0x184>
 80082da:	4616      	mov	r6, r2
 80082dc:	e7bb      	b.n	8008256 <_printf_i+0x132>
 80082de:	680b      	ldr	r3, [r1, #0]
 80082e0:	6826      	ldr	r6, [r4, #0]
 80082e2:	1d1d      	adds	r5, r3, #4
 80082e4:	6960      	ldr	r0, [r4, #20]
 80082e6:	600d      	str	r5, [r1, #0]
 80082e8:	0635      	lsls	r5, r6, #24
 80082ea:	681b      	ldr	r3, [r3, #0]
 80082ec:	d501      	bpl.n	80082f2 <_printf_i+0x1ce>
 80082ee:	6018      	str	r0, [r3, #0]
 80082f0:	e002      	b.n	80082f8 <_printf_i+0x1d4>
 80082f2:	0671      	lsls	r1, r6, #25
 80082f4:	d5fb      	bpl.n	80082ee <_printf_i+0x1ca>
 80082f6:	8018      	strh	r0, [r3, #0]
 80082f8:	2300      	movs	r3, #0
 80082fa:	4616      	mov	r6, r2
 80082fc:	6123      	str	r3, [r4, #16]
 80082fe:	e7ba      	b.n	8008276 <_printf_i+0x152>
 8008300:	680b      	ldr	r3, [r1, #0]
 8008302:	1d1a      	adds	r2, r3, #4
 8008304:	600a      	str	r2, [r1, #0]
 8008306:	681e      	ldr	r6, [r3, #0]
 8008308:	2100      	movs	r1, #0
 800830a:	4630      	mov	r0, r6
 800830c:	6862      	ldr	r2, [r4, #4]
 800830e:	f000 f82f 	bl	8008370 <memchr>
 8008312:	b108      	cbz	r0, 8008318 <_printf_i+0x1f4>
 8008314:	1b80      	subs	r0, r0, r6
 8008316:	6060      	str	r0, [r4, #4]
 8008318:	6863      	ldr	r3, [r4, #4]
 800831a:	6123      	str	r3, [r4, #16]
 800831c:	2300      	movs	r3, #0
 800831e:	f884 3043 	strb.w	r3, [r4, #67]	; 0x43
 8008322:	e7a8      	b.n	8008276 <_printf_i+0x152>
 8008324:	4632      	mov	r2, r6
 8008326:	4649      	mov	r1, r9
 8008328:	4640      	mov	r0, r8
 800832a:	6923      	ldr	r3, [r4, #16]
 800832c:	47d0      	blx	sl
 800832e:	3001      	adds	r0, #1
 8008330:	d0ab      	beq.n	800828a <_printf_i+0x166>
 8008332:	6823      	ldr	r3, [r4, #0]
 8008334:	079b      	lsls	r3, r3, #30
 8008336:	d413      	bmi.n	8008360 <_printf_i+0x23c>
 8008338:	68e0      	ldr	r0, [r4, #12]
 800833a:	9b03      	ldr	r3, [sp, #12]
 800833c:	4298      	cmp	r0, r3
 800833e:	bfb8      	it	lt
 8008340:	4618      	movlt	r0, r3
 8008342:	e7a4      	b.n	800828e <_printf_i+0x16a>
 8008344:	2301      	movs	r3, #1
 8008346:	4632      	mov	r2, r6
 8008348:	4649      	mov	r1, r9
 800834a:	4640      	mov	r0, r8
 800834c:	47d0      	blx	sl
 800834e:	3001      	adds	r0, #1
 8008350:	d09b      	beq.n	800828a <_printf_i+0x166>
 8008352:	3501      	adds	r5, #1
 8008354:	68e3      	ldr	r3, [r4, #12]
 8008356:	9903      	ldr	r1, [sp, #12]
 8008358:	1a5b      	subs	r3, r3, r1
 800835a:	42ab      	cmp	r3, r5
 800835c:	dcf2      	bgt.n	8008344 <_printf_i+0x220>
 800835e:	e7eb      	b.n	8008338 <_printf_i+0x214>
 8008360:	2500      	movs	r5, #0
 8008362:	f104 0619 	add.w	r6, r4, #25
 8008366:	e7f5      	b.n	8008354 <_printf_i+0x230>
 8008368:	08009381 	.word	0x08009381
 800836c:	08009392 	.word	0x08009392

08008370 <memchr>:
 8008370:	4603      	mov	r3, r0
 8008372:	b510      	push	{r4, lr}
 8008374:	b2c9      	uxtb	r1, r1
 8008376:	4402      	add	r2, r0
 8008378:	4293      	cmp	r3, r2
 800837a:	4618      	mov	r0, r3
 800837c:	d101      	bne.n	8008382 <memchr+0x12>
 800837e:	2000      	movs	r0, #0
 8008380:	e003      	b.n	800838a <memchr+0x1a>
 8008382:	7804      	ldrb	r4, [r0, #0]
 8008384:	3301      	adds	r3, #1
 8008386:	428c      	cmp	r4, r1
 8008388:	d1f6      	bne.n	8008378 <memchr+0x8>
 800838a:	bd10      	pop	{r4, pc}

0800838c <memmove>:
 800838c:	4288      	cmp	r0, r1
 800838e:	b510      	push	{r4, lr}
 8008390:	eb01 0402 	add.w	r4, r1, r2
 8008394:	d902      	bls.n	800839c <memmove+0x10>
 8008396:	4284      	cmp	r4, r0
 8008398:	4623      	mov	r3, r4
 800839a:	d807      	bhi.n	80083ac <memmove+0x20>
 800839c:	1e43      	subs	r3, r0, #1
 800839e:	42a1      	cmp	r1, r4
 80083a0:	d008      	beq.n	80083b4 <memmove+0x28>
 80083a2:	f811 2b01 	ldrb.w	r2, [r1], #1
 80083a6:	f803 2f01 	strb.w	r2, [r3, #1]!
 80083aa:	e7f8      	b.n	800839e <memmove+0x12>
 80083ac:	4601      	mov	r1, r0
 80083ae:	4402      	add	r2, r0
 80083b0:	428a      	cmp	r2, r1
 80083b2:	d100      	bne.n	80083b6 <memmove+0x2a>
 80083b4:	bd10      	pop	{r4, pc}
 80083b6:	f813 4d01 	ldrb.w	r4, [r3, #-1]!
 80083ba:	f802 4d01 	strb.w	r4, [r2, #-1]!
 80083be:	e7f7      	b.n	80083b0 <memmove+0x24>

080083c0 <_free_r>:
 80083c0:	b538      	push	{r3, r4, r5, lr}
 80083c2:	4605      	mov	r5, r0
 80083c4:	2900      	cmp	r1, #0
 80083c6:	d043      	beq.n	8008450 <_free_r+0x90>
 80083c8:	f851 3c04 	ldr.w	r3, [r1, #-4]
 80083cc:	1f0c      	subs	r4, r1, #4
 80083ce:	2b00      	cmp	r3, #0
 80083d0:	bfb8      	it	lt
 80083d2:	18e4      	addlt	r4, r4, r3
 80083d4:	f000 f8d0 	bl	8008578 <__malloc_lock>
 80083d8:	4a1e      	ldr	r2, [pc, #120]	; (8008454 <_free_r+0x94>)
 80083da:	6813      	ldr	r3, [r2, #0]
 80083dc:	4610      	mov	r0, r2
 80083de:	b933      	cbnz	r3, 80083ee <_free_r+0x2e>
 80083e0:	6063      	str	r3, [r4, #4]
 80083e2:	6014      	str	r4, [r2, #0]
 80083e4:	4628      	mov	r0, r5
 80083e6:	e8bd 4038 	ldmia.w	sp!, {r3, r4, r5, lr}
 80083ea:	f000 b8cb 	b.w	8008584 <__malloc_unlock>
 80083ee:	42a3      	cmp	r3, r4
 80083f0:	d90a      	bls.n	8008408 <_free_r+0x48>
 80083f2:	6821      	ldr	r1, [r4, #0]
 80083f4:	1862      	adds	r2, r4, r1
 80083f6:	4293      	cmp	r3, r2
 80083f8:	bf01      	itttt	eq
 80083fa:	681a      	ldreq	r2, [r3, #0]
 80083fc:	685b      	ldreq	r3, [r3, #4]
 80083fe:	1852      	addeq	r2, r2, r1
 8008400:	6022      	streq	r2, [r4, #0]
 8008402:	6063      	str	r3, [r4, #4]
 8008404:	6004      	str	r4, [r0, #0]
 8008406:	e7ed      	b.n	80083e4 <_free_r+0x24>
 8008408:	461a      	mov	r2, r3
 800840a:	685b      	ldr	r3, [r3, #4]
 800840c:	b10b      	cbz	r3, 8008412 <_free_r+0x52>
 800840e:	42a3      	cmp	r3, r4
 8008410:	d9fa      	bls.n	8008408 <_free_r+0x48>
 8008412:	6811      	ldr	r1, [r2, #0]
 8008414:	1850      	adds	r0, r2, r1
 8008416:	42a0      	cmp	r0, r4
 8008418:	d10b      	bne.n	8008432 <_free_r+0x72>
 800841a:	6820      	ldr	r0, [r4, #0]
 800841c:	4401      	add	r1, r0
 800841e:	1850      	adds	r0, r2, r1
 8008420:	4283      	cmp	r3, r0
 8008422:	6011      	str	r1, [r2, #0]
 8008424:	d1de      	bne.n	80083e4 <_free_r+0x24>
 8008426:	6818      	ldr	r0, [r3, #0]
 8008428:	685b      	ldr	r3, [r3, #4]
 800842a:	4401      	add	r1, r0
 800842c:	6011      	str	r1, [r2, #0]
 800842e:	6053      	str	r3, [r2, #4]
 8008430:	e7d8      	b.n	80083e4 <_free_r+0x24>
 8008432:	d902      	bls.n	800843a <_free_r+0x7a>
 8008434:	230c      	movs	r3, #12
 8008436:	602b      	str	r3, [r5, #0]
 8008438:	e7d4      	b.n	80083e4 <_free_r+0x24>
 800843a:	6820      	ldr	r0, [r4, #0]
 800843c:	1821      	adds	r1, r4, r0
 800843e:	428b      	cmp	r3, r1
 8008440:	bf01      	itttt	eq
 8008442:	6819      	ldreq	r1, [r3, #0]
 8008444:	685b      	ldreq	r3, [r3, #4]
 8008446:	1809      	addeq	r1, r1, r0
 8008448:	6021      	streq	r1, [r4, #0]
 800844a:	6063      	str	r3, [r4, #4]
 800844c:	6054      	str	r4, [r2, #4]
 800844e:	e7c9      	b.n	80083e4 <_free_r+0x24>
 8008450:	bd38      	pop	{r3, r4, r5, pc}
 8008452:	bf00      	nop
 8008454:	20001fec 	.word	0x20001fec

08008458 <_malloc_r>:
 8008458:	b5f8      	push	{r3, r4, r5, r6, r7, lr}
 800845a:	1ccd      	adds	r5, r1, #3
 800845c:	f025 0503 	bic.w	r5, r5, #3
 8008460:	3508      	adds	r5, #8
 8008462:	2d0c      	cmp	r5, #12
 8008464:	bf38      	it	cc
 8008466:	250c      	movcc	r5, #12
 8008468:	2d00      	cmp	r5, #0
 800846a:	4606      	mov	r6, r0
 800846c:	db01      	blt.n	8008472 <_malloc_r+0x1a>
 800846e:	42a9      	cmp	r1, r5
 8008470:	d903      	bls.n	800847a <_malloc_r+0x22>
 8008472:	230c      	movs	r3, #12
 8008474:	6033      	str	r3, [r6, #0]
 8008476:	2000      	movs	r0, #0
 8008478:	bdf8      	pop	{r3, r4, r5, r6, r7, pc}
 800847a:	f000 f87d 	bl	8008578 <__malloc_lock>
 800847e:	4921      	ldr	r1, [pc, #132]	; (8008504 <_malloc_r+0xac>)
 8008480:	680a      	ldr	r2, [r1, #0]
 8008482:	4614      	mov	r4, r2
 8008484:	b99c      	cbnz	r4, 80084ae <_malloc_r+0x56>
 8008486:	4f20      	ldr	r7, [pc, #128]	; (8008508 <_malloc_r+0xb0>)
 8008488:	683b      	ldr	r3, [r7, #0]
 800848a:	b923      	cbnz	r3, 8008496 <_malloc_r+0x3e>
 800848c:	4621      	mov	r1, r4
 800848e:	4630      	mov	r0, r6
 8008490:	f000 f862 	bl	8008558 <_sbrk_r>
 8008494:	6038      	str	r0, [r7, #0]
 8008496:	4629      	mov	r1, r5
 8008498:	4630      	mov	r0, r6
 800849a:	f000 f85d 	bl	8008558 <_sbrk_r>
 800849e:	1c43      	adds	r3, r0, #1
 80084a0:	d123      	bne.n	80084ea <_malloc_r+0x92>
 80084a2:	230c      	movs	r3, #12
 80084a4:	4630      	mov	r0, r6
 80084a6:	6033      	str	r3, [r6, #0]
 80084a8:	f000 f86c 	bl	8008584 <__malloc_unlock>
 80084ac:	e7e3      	b.n	8008476 <_malloc_r+0x1e>
 80084ae:	6823      	ldr	r3, [r4, #0]
 80084b0:	1b5b      	subs	r3, r3, r5
 80084b2:	d417      	bmi.n	80084e4 <_malloc_r+0x8c>
 80084b4:	2b0b      	cmp	r3, #11
 80084b6:	d903      	bls.n	80084c0 <_malloc_r+0x68>
 80084b8:	6023      	str	r3, [r4, #0]
 80084ba:	441c      	add	r4, r3
 80084bc:	6025      	str	r5, [r4, #0]
 80084be:	e004      	b.n	80084ca <_malloc_r+0x72>
 80084c0:	6863      	ldr	r3, [r4, #4]
 80084c2:	42a2      	cmp	r2, r4
 80084c4:	bf0c      	ite	eq
 80084c6:	600b      	streq	r3, [r1, #0]
 80084c8:	6053      	strne	r3, [r2, #4]
 80084ca:	4630      	mov	r0, r6
 80084cc:	f000 f85a 	bl	8008584 <__malloc_unlock>
 80084d0:	f104 000b 	add.w	r0, r4, #11
 80084d4:	1d23      	adds	r3, r4, #4
 80084d6:	f020 0007 	bic.w	r0, r0, #7
 80084da:	1ac2      	subs	r2, r0, r3
 80084dc:	d0cc      	beq.n	8008478 <_malloc_r+0x20>
 80084de:	1a1b      	subs	r3, r3, r0
 80084e0:	50a3      	str	r3, [r4, r2]
 80084e2:	e7c9      	b.n	8008478 <_malloc_r+0x20>
 80084e4:	4622      	mov	r2, r4
 80084e6:	6864      	ldr	r4, [r4, #4]
 80084e8:	e7cc      	b.n	8008484 <_malloc_r+0x2c>
 80084ea:	1cc4      	adds	r4, r0, #3
 80084ec:	f024 0403 	bic.w	r4, r4, #3
 80084f0:	42a0      	cmp	r0, r4
 80084f2:	d0e3      	beq.n	80084bc <_malloc_r+0x64>
 80084f4:	1a21      	subs	r1, r4, r0
 80084f6:	4630      	mov	r0, r6
 80084f8:	f000 f82e 	bl	8008558 <_sbrk_r>
 80084fc:	3001      	adds	r0, #1
 80084fe:	d1dd      	bne.n	80084bc <_malloc_r+0x64>
 8008500:	e7cf      	b.n	80084a2 <_malloc_r+0x4a>
 8008502:	bf00      	nop
 8008504:	20001fec 	.word	0x20001fec
 8008508:	20001ff0 	.word	0x20001ff0

0800850c <_realloc_r>:
 800850c:	b5f8      	push	{r3, r4, r5, r6, r7, lr}
 800850e:	4607      	mov	r7, r0
 8008510:	4614      	mov	r4, r2
 8008512:	460e      	mov	r6, r1
 8008514:	b921      	cbnz	r1, 8008520 <_realloc_r+0x14>
 8008516:	4611      	mov	r1, r2
 8008518:	e8bd 40f8 	ldmia.w	sp!, {r3, r4, r5, r6, r7, lr}
 800851c:	f7ff bf9c 	b.w	8008458 <_malloc_r>
 8008520:	b922      	cbnz	r2, 800852c <_realloc_r+0x20>
 8008522:	f7ff ff4d 	bl	80083c0 <_free_r>
 8008526:	4625      	mov	r5, r4
 8008528:	4628      	mov	r0, r5
 800852a:	bdf8      	pop	{r3, r4, r5, r6, r7, pc}
 800852c:	f000 f830 	bl	8008590 <_malloc_usable_size_r>
 8008530:	42a0      	cmp	r0, r4
 8008532:	d20f      	bcs.n	8008554 <_realloc_r+0x48>
 8008534:	4621      	mov	r1, r4
 8008536:	4638      	mov	r0, r7
 8008538:	f7ff ff8e 	bl	8008458 <_malloc_r>
 800853c:	4605      	mov	r5, r0
 800853e:	2800      	cmp	r0, #0
 8008540:	d0f2      	beq.n	8008528 <_realloc_r+0x1c>
 8008542:	4631      	mov	r1, r6
 8008544:	4622      	mov	r2, r4
 8008546:	f7ff fbb9 	bl	8007cbc <memcpy>
 800854a:	4631      	mov	r1, r6
 800854c:	4638      	mov	r0, r7
 800854e:	f7ff ff37 	bl	80083c0 <_free_r>
 8008552:	e7e9      	b.n	8008528 <_realloc_r+0x1c>
 8008554:	4635      	mov	r5, r6
 8008556:	e7e7      	b.n	8008528 <_realloc_r+0x1c>

08008558 <_sbrk_r>:
 8008558:	b538      	push	{r3, r4, r5, lr}
 800855a:	2300      	movs	r3, #0
 800855c:	4d05      	ldr	r5, [pc, #20]	; (8008574 <_sbrk_r+0x1c>)
 800855e:	4604      	mov	r4, r0
 8008560:	4608      	mov	r0, r1
 8008562:	602b      	str	r3, [r5, #0]
 8008564:	f7f9 ffee 	bl	8002544 <_sbrk>
 8008568:	1c43      	adds	r3, r0, #1
 800856a:	d102      	bne.n	8008572 <_sbrk_r+0x1a>
 800856c:	682b      	ldr	r3, [r5, #0]
 800856e:	b103      	cbz	r3, 8008572 <_sbrk_r+0x1a>
 8008570:	6023      	str	r3, [r4, #0]
 8008572:	bd38      	pop	{r3, r4, r5, pc}
 8008574:	20002d4c 	.word	0x20002d4c

08008578 <__malloc_lock>:
 8008578:	4801      	ldr	r0, [pc, #4]	; (8008580 <__malloc_lock+0x8>)
 800857a:	f000 b811 	b.w	80085a0 <__retarget_lock_acquire_recursive>
 800857e:	bf00      	nop
 8008580:	20002d54 	.word	0x20002d54

08008584 <__malloc_unlock>:
 8008584:	4801      	ldr	r0, [pc, #4]	; (800858c <__malloc_unlock+0x8>)
 8008586:	f000 b80c 	b.w	80085a2 <__retarget_lock_release_recursive>
 800858a:	bf00      	nop
 800858c:	20002d54 	.word	0x20002d54

08008590 <_malloc_usable_size_r>:
 8008590:	f851 3c04 	ldr.w	r3, [r1, #-4]
 8008594:	1f18      	subs	r0, r3, #4
 8008596:	2b00      	cmp	r3, #0
 8008598:	bfbc      	itt	lt
 800859a:	580b      	ldrlt	r3, [r1, r0]
 800859c:	18c0      	addlt	r0, r0, r3
 800859e:	4770      	bx	lr

080085a0 <__retarget_lock_acquire_recursive>:
 80085a0:	4770      	bx	lr

080085a2 <__retarget_lock_release_recursive>:
 80085a2:	4770      	bx	lr

080085a4 <_init>:
 80085a4:	b5f8      	push	{r3, r4, r5, r6, r7, lr}
 80085a6:	bf00      	nop
 80085a8:	bcf8      	pop	{r3, r4, r5, r6, r7}
 80085aa:	bc08      	pop	{r3}
 80085ac:	469e      	mov	lr, r3
 80085ae:	4770      	bx	lr

080085b0 <_fini>:
 80085b0:	b5f8      	push	{r3, r4, r5, r6, r7, lr}
 80085b2:	bf00      	nop
 80085b4:	bcf8      	pop	{r3, r4, r5, r6, r7}
 80085b6:	bc08      	pop	{r3}
 80085b8:	469e      	mov	lr, r3
 80085ba:	4770      	bx	lr
