
TaikoSensors.elf:     file format elf32-littlearm

Sections:
Idx Name          Size      VMA       LMA       File off  Algn
  0 .isr_vector   0000010c  08000000  08000000  00010000  2**0
                  CONTENTS, ALLOC, LOAD, READONLY, DATA
  1 .text         00008abc  0800010c  0800010c  0001010c  2**2
                  CONTENTS, ALLOC, LOAD, READONLY, CODE
  2 .rodata       00000df4  08008bc8  08008bc8  00018bc8  2**2
                  CONTENTS, ALLOC, LOAD, READONLY, DATA
  3 .ARM.extab    00000000  080099bc  080099bc  000204a8  2**0
                  CONTENTS
  4 .ARM          00000000  080099bc  080099bc  000204a8  2**0
                  CONTENTS
  5 .preinit_array 00000000  080099bc  080099bc  000204a8  2**0
                  CONTENTS, ALLOC, LOAD, DATA
  6 .init_array   00000004  080099bc  080099bc  000199bc  2**2
                  CONTENTS, ALLOC, LOAD, DATA
  7 .fini_array   00000004  080099c0  080099c0  000199c0  2**2
                  CONTENTS, ALLOC, LOAD, DATA
  8 .data         000004a8  20000000  080099c4  00020000  2**2
                  CONTENTS, ALLOC, LOAD, DATA
  9 .bss          000028b4  200004a8  08009e6c  000204a8  2**3
                  ALLOC
 10 ._user_heap_stack 00000804  20002d5c  08009e6c  00022d5c  2**0
                  ALLOC
 11 .ARM.attributes 00000029  00000000  00000000  000204a8  2**0
                  CONTENTS, READONLY
 12 .debug_info   000308f2  00000000  00000000  000204d1  2**0
                  CONTENTS, READONLY, DEBUGGING, OCTETS
 13 .debug_abbrev 00005e48  00000000  00000000  00050dc3  2**0
                  CONTENTS, READONLY, DEBUGGING, OCTETS
 14 .debug_loc    00018d8b  00000000  00000000  00056c0b  2**0
                  CONTENTS, READONLY, DEBUGGING, OCTETS
 15 .debug_aranges 00001850  00000000  00000000  0006f998  2**3
                  CONTENTS, READONLY, DEBUGGING, OCTETS
 16 .debug_ranges 00001c88  00000000  00000000  000711e8  2**3
                  CONTENTS, READONLY, DEBUGGING, OCTETS
 17 .debug_macro  0001dfaa  00000000  00000000  00072e70  2**0
                  CONTENTS, READONLY, DEBUGGING, OCTETS
 18 .debug_line   0002821b  00000000  00000000  00090e1a  2**0
                  CONTENTS, READONLY, DEBUGGING, OCTETS
 19 .debug_str    00097f45  00000000  00000000  000b9035  2**0
                  CONTENTS, READONLY, DEBUGGING, OCTETS
 20 .comment      00000053  00000000  00000000  00150f7a  2**0
                  CONTENTS, READONLY
 21 .debug_frame  000045c8  00000000  00000000  00150fd0  2**2
                  CONTENTS, READONLY, DEBUGGING, OCTETS

Disassembly of section .text:

0800010c <__do_global_dtors_aux>:
 800010c:	b510      	push	{r4, lr}
 800010e:	4c05      	ldr	r4, [pc, #20]	; (8000124 <__do_global_dtors_aux+0x18>)
 8000110:	7823      	ldrb	r3, [r4, #0]
 8000112:	b933      	cbnz	r3, 8000122 <__do_global_dtors_aux+0x16>
 8000114:	4b04      	ldr	r3, [pc, #16]	; (8000128 <__do_global_dtors_aux+0x1c>)
 8000116:	b113      	cbz	r3, 800011e <__do_global_dtors_aux+0x12>
 8000118:	4804      	ldr	r0, [pc, #16]	; (800012c <__do_global_dtors_aux+0x20>)
 800011a:	f3af 8000 	nop.w
 800011e:	2301      	movs	r3, #1
 8000120:	7023      	strb	r3, [r4, #0]
 8000122:	bd10      	pop	{r4, pc}
 8000124:	200004a8 	.word	0x200004a8
 8000128:	00000000 	.word	0x00000000
 800012c:	08008bb0 	.word	0x08008bb0

08000130 <frame_dummy>:
 8000130:	b508      	push	{r3, lr}
 8000132:	4b03      	ldr	r3, [pc, #12]	; (8000140 <frame_dummy+0x10>)
 8000134:	b11b      	cbz	r3, 800013e <frame_dummy+0xe>
 8000136:	4903      	ldr	r1, [pc, #12]	; (8000144 <frame_dummy+0x14>)
 8000138:	4803      	ldr	r0, [pc, #12]	; (8000148 <frame_dummy+0x18>)
 800013a:	f3af 8000 	nop.w
 800013e:	bd08      	pop	{r3, pc}
 8000140:	00000000 	.word	0x00000000
 8000144:	200004ac 	.word	0x200004ac
 8000148:	08008bb0 	.word	0x08008bb0

0800014c <strcmp>:
 800014c:	f810 2b01 	ldrb.w	r2, [r0], #1
 8000150:	f811 3b01 	ldrb.w	r3, [r1], #1
 8000154:	2a01      	cmp	r2, #1
 8000156:	bf28      	it	cs
 8000158:	429a      	cmpcs	r2, r3
 800015a:	d0f7      	beq.n	800014c <strcmp>
 800015c:	1ad0      	subs	r0, r2, r3
 800015e:	4770      	bx	lr

08000160 <strlen>:
 8000160:	4603      	mov	r3, r0
 8000162:	f813 2b01 	ldrb.w	r2, [r3], #1
 8000166:	2a00      	cmp	r2, #0
 8000168:	d1fb      	bne.n	8000162 <strlen+0x2>
 800016a:	1a18      	subs	r0, r3, r0
 800016c:	3801      	subs	r0, #1
 800016e:	4770      	bx	lr

08000170 <__aeabi_frsub>:
 8000170:	f080 4000 	eor.w	r0, r0, #2147483648	; 0x80000000
 8000174:	e002      	b.n	800017c <__addsf3>
 8000176:	bf00      	nop

08000178 <__aeabi_fsub>:
 8000178:	f081 4100 	eor.w	r1, r1, #2147483648	; 0x80000000

0800017c <__addsf3>:
 800017c:	0042      	lsls	r2, r0, #1
 800017e:	bf1f      	itttt	ne
 8000180:	ea5f 0341 	movsne.w	r3, r1, lsl #1
 8000184:	ea92 0f03 	teqne	r2, r3
 8000188:	ea7f 6c22 	mvnsne.w	ip, r2, asr #24
 800018c:	ea7f 6c23 	mvnsne.w	ip, r3, asr #24
 8000190:	d06a      	beq.n	8000268 <__addsf3+0xec>
 8000192:	ea4f 6212 	mov.w	r2, r2, lsr #24
 8000196:	ebd2 6313 	rsbs	r3, r2, r3, lsr #24
 800019a:	bfc1      	itttt	gt
 800019c:	18d2      	addgt	r2, r2, r3
 800019e:	4041      	eorgt	r1, r0
 80001a0:	4048      	eorgt	r0, r1
 80001a2:	4041      	eorgt	r1, r0
 80001a4:	bfb8      	it	lt
 80001a6:	425b      	neglt	r3, r3
 80001a8:	2b19      	cmp	r3, #25
 80001aa:	bf88      	it	hi
 80001ac:	4770      	bxhi	lr
 80001ae:	f010 4f00 	tst.w	r0, #2147483648	; 0x80000000
 80001b2:	f440 0000 	orr.w	r0, r0, #8388608	; 0x800000
 80001b6:	f020 407f 	bic.w	r0, r0, #4278190080	; 0xff000000
 80001ba:	bf18      	it	ne
 80001bc:	4240      	negne	r0, r0
 80001be:	f011 4f00 	tst.w	r1, #2147483648	; 0x80000000
 80001c2:	f441 0100 	orr.w	r1, r1, #8388608	; 0x800000
 80001c6:	f021 417f 	bic.w	r1, r1, #4278190080	; 0xff000000
 80001ca:	bf18      	it	ne
 80001cc:	4249      	negne	r1, r1
 80001ce:	ea92 0f03 	teq	r2, r3
 80001d2:	d03f      	beq.n	8000254 <__addsf3+0xd8>
 80001d4:	f1a2 0201 	sub.w	r2, r2, #1
 80001d8:	fa41 fc03 	asr.w	ip, r1, r3
 80001dc:	eb10 000c 	adds.w	r0, r0, ip
 80001e0:	f1c3 0320 	rsb	r3, r3, #32
 80001e4:	fa01 f103 	lsl.w	r1, r1, r3
 80001e8:	f000 4300 	and.w	r3, r0, #2147483648	; 0x80000000
 80001ec:	d502      	bpl.n	80001f4 <__addsf3+0x78>
 80001ee:	4249      	negs	r1, r1
 80001f0:	eb60 0040 	sbc.w	r0, r0, r0, lsl #1
 80001f4:	f5b0 0f00 	cmp.w	r0, #8388608	; 0x800000
 80001f8:	d313      	bcc.n	8000222 <__addsf3+0xa6>
 80001fa:	f1b0 7f80 	cmp.w	r0, #16777216	; 0x1000000
 80001fe:	d306      	bcc.n	800020e <__addsf3+0x92>
 8000200:	0840      	lsrs	r0, r0, #1
 8000202:	ea4f 0131 	mov.w	r1, r1, rrx
 8000206:	f102 0201 	add.w	r2, r2, #1
 800020a:	2afe      	cmp	r2, #254	; 0xfe
 800020c:	d251      	bcs.n	80002b2 <__addsf3+0x136>
 800020e:	f1b1 4f00 	cmp.w	r1, #2147483648	; 0x80000000
 8000212:	eb40 50c2 	adc.w	r0, r0, r2, lsl #23
 8000216:	bf08      	it	eq
 8000218:	f020 0001 	biceq.w	r0, r0, #1
 800021c:	ea40 0003 	orr.w	r0, r0, r3
 8000220:	4770      	bx	lr
 8000222:	0049      	lsls	r1, r1, #1
 8000224:	eb40 0000 	adc.w	r0, r0, r0
 8000228:	3a01      	subs	r2, #1
 800022a:	bf28      	it	cs
 800022c:	f5b0 0f00 	cmpcs.w	r0, #8388608	; 0x800000
 8000230:	d2ed      	bcs.n	800020e <__addsf3+0x92>
 8000232:	fab0 fc80 	clz	ip, r0
 8000236:	f1ac 0c08 	sub.w	ip, ip, #8
 800023a:	ebb2 020c 	subs.w	r2, r2, ip
 800023e:	fa00 f00c 	lsl.w	r0, r0, ip
 8000242:	bfaa      	itet	ge
 8000244:	eb00 50c2 	addge.w	r0, r0, r2, lsl #23
 8000248:	4252      	neglt	r2, r2
 800024a:	4318      	orrge	r0, r3
 800024c:	bfbc      	itt	lt
 800024e:	40d0      	lsrlt	r0, r2
 8000250:	4318      	orrlt	r0, r3
 8000252:	4770      	bx	lr
 8000254:	f092 0f00 	teq	r2, #0
 8000258:	f481 0100 	eor.w	r1, r1, #8388608	; 0x800000
 800025c:	bf06      	itte	eq
 800025e:	f480 0000 	eoreq.w	r0, r0, #8388608	; 0x800000
 8000262:	3201      	addeq	r2, #1
 8000264:	3b01      	subne	r3, #1
 8000266:	e7b5      	b.n	80001d4 <__addsf3+0x58>
 8000268:	ea4f 0341 	mov.w	r3, r1, lsl #1
 800026c:	ea7f 6c22 	mvns.w	ip, r2, asr #24
 8000270:	bf18      	it	ne
 8000272:	ea7f 6c23 	mvnsne.w	ip, r3, asr #24
 8000276:	d021      	beq.n	80002bc <__addsf3+0x140>
 8000278:	ea92 0f03 	teq	r2, r3
 800027c:	d004      	beq.n	8000288 <__addsf3+0x10c>
 800027e:	f092 0f00 	teq	r2, #0
 8000282:	bf08      	it	eq
 8000284:	4608      	moveq	r0, r1
 8000286:	4770      	bx	lr
 8000288:	ea90 0f01 	teq	r0, r1
 800028c:	bf1c      	itt	ne
 800028e:	2000      	movne	r0, #0
 8000290:	4770      	bxne	lr
 8000292:	f012 4f7f 	tst.w	r2, #4278190080	; 0xff000000
 8000296:	d104      	bne.n	80002a2 <__addsf3+0x126>
 8000298:	0040      	lsls	r0, r0, #1
 800029a:	bf28      	it	cs
 800029c:	f040 4000 	orrcs.w	r0, r0, #2147483648	; 0x80000000
 80002a0:	4770      	bx	lr
 80002a2:	f112 7200 	adds.w	r2, r2, #33554432	; 0x2000000
 80002a6:	bf3c      	itt	cc
 80002a8:	f500 0000 	addcc.w	r0, r0, #8388608	; 0x800000
 80002ac:	4770      	bxcc	lr
 80002ae:	f000 4300 	and.w	r3, r0, #2147483648	; 0x80000000
 80002b2:	f043 40fe 	orr.w	r0, r3, #2130706432	; 0x7f000000
 80002b6:	f440 0000 	orr.w	r0, r0, #8388608	; 0x800000
 80002ba:	4770      	bx	lr
 80002bc:	ea7f 6222 	mvns.w	r2, r2, asr #24
 80002c0:	bf16      	itet	ne
 80002c2:	4608      	movne	r0, r1
 80002c4:	ea7f 6323 	mvnseq.w	r3, r3, asr #24
 80002c8:	4601      	movne	r1, r0
 80002ca:	0242      	lsls	r2, r0, #9
 80002cc:	bf06      	itte	eq
 80002ce:	ea5f 2341 	movseq.w	r3, r1, lsl #9
 80002d2:	ea90 0f01 	teqeq	r0, r1
 80002d6:	f440 0080 	orrne.w	r0, r0, #4194304	; 0x400000
 80002da:	4770      	bx	lr

080002dc <__aeabi_ui2f>:
 80002dc:	f04f 0300 	mov.w	r3, #0
 80002e0:	e004      	b.n	80002ec <__aeabi_i2f+0x8>
 80002e2:	bf00      	nop

080002e4 <__aeabi_i2f>:
 80002e4:	f010 4300 	ands.w	r3, r0, #2147483648	; 0x80000000
 80002e8:	bf48      	it	mi
 80002ea:	4240      	negmi	r0, r0
 80002ec:	ea5f 0c00 	movs.w	ip, r0
 80002f0:	bf08      	it	eq
 80002f2:	4770      	bxeq	lr
 80002f4:	f043 4396 	orr.w	r3, r3, #1258291200	; 0x4b000000
 80002f8:	4601      	mov	r1, r0
 80002fa:	f04f 0000 	mov.w	r0, #0
 80002fe:	e01c      	b.n	800033a <__aeabi_l2f+0x2a>

08000300 <__aeabi_ul2f>:
 8000300:	ea50 0201 	orrs.w	r2, r0, r1
 8000304:	bf08      	it	eq
 8000306:	4770      	bxeq	lr
 8000308:	f04f 0300 	mov.w	r3, #0
 800030c:	e00a      	b.n	8000324 <__aeabi_l2f+0x14>
 800030e:	bf00      	nop

08000310 <__aeabi_l2f>:
 8000310:	ea50 0201 	orrs.w	r2, r0, r1
 8000314:	bf08      	it	eq
 8000316:	4770      	bxeq	lr
 8000318:	f011 4300 	ands.w	r3, r1, #2147483648	; 0x80000000
 800031c:	d502      	bpl.n	8000324 <__aeabi_l2f+0x14>
 800031e:	4240      	negs	r0, r0
 8000320:	eb61 0141 	sbc.w	r1, r1, r1, lsl #1
 8000324:	ea5f 0c01 	movs.w	ip, r1
 8000328:	bf02      	ittt	eq
 800032a:	4684      	moveq	ip, r0
 800032c:	4601      	moveq	r1, r0
 800032e:	2000      	moveq	r0, #0
 8000330:	f043 43b6 	orr.w	r3, r3, #1526726656	; 0x5b000000
 8000334:	bf08      	it	eq
 8000336:	f1a3 5380 	subeq.w	r3, r3, #268435456	; 0x10000000
 800033a:	f5a3 0300 	sub.w	r3, r3, #8388608	; 0x800000
 800033e:	fabc f28c 	clz	r2, ip
 8000342:	3a08      	subs	r2, #8
 8000344:	eba3 53c2 	sub.w	r3, r3, r2, lsl #23
 8000348:	db10      	blt.n	800036c <__aeabi_l2f+0x5c>
 800034a:	fa01 fc02 	lsl.w	ip, r1, r2
 800034e:	4463      	add	r3, ip
 8000350:	fa00 fc02 	lsl.w	ip, r0, r2
 8000354:	f1c2 0220 	rsb	r2, r2, #32
 8000358:	f1bc 4f00 	cmp.w	ip, #2147483648	; 0x80000000
 800035c:	fa20 f202 	lsr.w	r2, r0, r2
 8000360:	eb43 0002 	adc.w	r0, r3, r2
 8000364:	bf08      	it	eq
 8000366:	f020 0001 	biceq.w	r0, r0, #1
 800036a:	4770      	bx	lr
 800036c:	f102 0220 	add.w	r2, r2, #32
 8000370:	fa01 fc02 	lsl.w	ip, r1, r2
 8000374:	f1c2 0220 	rsb	r2, r2, #32
 8000378:	ea50 004c 	orrs.w	r0, r0, ip, lsl #1
 800037c:	fa21 f202 	lsr.w	r2, r1, r2
 8000380:	eb43 0002 	adc.w	r0, r3, r2
 8000384:	bf08      	it	eq
 8000386:	ea20 70dc 	biceq.w	r0, r0, ip, lsr #31
 800038a:	4770      	bx	lr

0800038c <__aeabi_fmul>:
 800038c:	f04f 0cff 	mov.w	ip, #255	; 0xff
 8000390:	ea1c 52d0 	ands.w	r2, ip, r0, lsr #23
 8000394:	bf1e      	ittt	ne
 8000396:	ea1c 53d1 	andsne.w	r3, ip, r1, lsr #23
 800039a:	ea92 0f0c 	teqne	r2, ip
 800039e:	ea93 0f0c 	teqne	r3, ip
 80003a2:	d06f      	beq.n	8000484 <__aeabi_fmul+0xf8>
 80003a4:	441a      	add	r2, r3
 80003a6:	ea80 0c01 	eor.w	ip, r0, r1
 80003aa:	0240      	lsls	r0, r0, #9
 80003ac:	bf18      	it	ne
 80003ae:	ea5f 2141 	movsne.w	r1, r1, lsl #9
 80003b2:	d01e      	beq.n	80003f2 <__aeabi_fmul+0x66>
 80003b4:	f04f 6300 	mov.w	r3, #134217728	; 0x8000000
 80003b8:	ea43 1050 	orr.w	r0, r3, r0, lsr #5
 80003bc:	ea43 1151 	orr.w	r1, r3, r1, lsr #5
 80003c0:	fba0 3101 	umull	r3, r1, r0, r1
 80003c4:	f00c 4000 	and.w	r0, ip, #2147483648	; 0x80000000
 80003c8:	f5b1 0f00 	cmp.w	r1, #8388608	; 0x800000
 80003cc:	bf3e      	ittt	cc
 80003ce:	0049      	lslcc	r1, r1, #1
 80003d0:	ea41 71d3 	orrcc.w	r1, r1, r3, lsr #31
 80003d4:	005b      	lslcc	r3, r3, #1
 80003d6:	ea40 0001 	orr.w	r0, r0, r1
 80003da:	f162 027f 	sbc.w	r2, r2, #127	; 0x7f
 80003de:	2afd      	cmp	r2, #253	; 0xfd
 80003e0:	d81d      	bhi.n	800041e <__aeabi_fmul+0x92>
 80003e2:	f1b3 4f00 	cmp.w	r3, #2147483648	; 0x80000000
 80003e6:	eb40 50c2 	adc.w	r0, r0, r2, lsl #23
 80003ea:	bf08      	it	eq
 80003ec:	f020 0001 	biceq.w	r0, r0, #1
 80003f0:	4770      	bx	lr
 80003f2:	f090 0f00 	teq	r0, #0
 80003f6:	f00c 4c00 	and.w	ip, ip, #2147483648	; 0x80000000
 80003fa:	bf08      	it	eq
 80003fc:	0249      	lsleq	r1, r1, #9
 80003fe:	ea4c 2050 	orr.w	r0, ip, r0, lsr #9
 8000402:	ea40 2051 	orr.w	r0, r0, r1, lsr #9
 8000406:	3a7f      	subs	r2, #127	; 0x7f
 8000408:	bfc2      	ittt	gt
 800040a:	f1d2 03ff 	rsbsgt	r3, r2, #255	; 0xff
 800040e:	ea40 50c2 	orrgt.w	r0, r0, r2, lsl #23
 8000412:	4770      	bxgt	lr
 8000414:	f440 0000 	orr.w	r0, r0, #8388608	; 0x800000
 8000418:	f04f 0300 	mov.w	r3, #0
 800041c:	3a01      	subs	r2, #1
 800041e:	dc5d      	bgt.n	80004dc <__aeabi_fmul+0x150>
 8000420:	f112 0f19 	cmn.w	r2, #25
 8000424:	bfdc      	itt	le
 8000426:	f000 4000 	andle.w	r0, r0, #2147483648	; 0x80000000
 800042a:	4770      	bxle	lr
 800042c:	f1c2 0200 	rsb	r2, r2, #0
 8000430:	0041      	lsls	r1, r0, #1
 8000432:	fa21 f102 	lsr.w	r1, r1, r2
 8000436:	f1c2 0220 	rsb	r2, r2, #32
 800043a:	fa00 fc02 	lsl.w	ip, r0, r2
 800043e:	ea5f 0031 	movs.w	r0, r1, rrx
 8000442:	f140 0000 	adc.w	r0, r0, #0
 8000446:	ea53 034c 	orrs.w	r3, r3, ip, lsl #1
 800044a:	bf08      	it	eq
 800044c:	ea20 70dc 	biceq.w	r0, r0, ip, lsr #31
 8000450:	4770      	bx	lr
 8000452:	f092 0f00 	teq	r2, #0
 8000456:	f000 4c00 	and.w	ip, r0, #2147483648	; 0x80000000
 800045a:	bf02      	ittt	eq
 800045c:	0040      	lsleq	r0, r0, #1
 800045e:	f410 0f00 	tsteq.w	r0, #8388608	; 0x800000
 8000462:	3a01      	subeq	r2, #1
 8000464:	d0f9      	beq.n	800045a <__aeabi_fmul+0xce>
 8000466:	ea40 000c 	orr.w	r0, r0, ip
 800046a:	f093 0f00 	teq	r3, #0
 800046e:	f001 4c00 	and.w	ip, r1, #2147483648	; 0x80000000
 8000472:	bf02      	ittt	eq
 8000474:	0049      	lsleq	r1, r1, #1
 8000476:	f411 0f00 	tsteq.w	r1, #8388608	; 0x800000
 800047a:	3b01      	subeq	r3, #1
 800047c:	d0f9      	beq.n	8000472 <__aeabi_fmul+0xe6>
 800047e:	ea41 010c 	orr.w	r1, r1, ip
 8000482:	e78f      	b.n	80003a4 <__aeabi_fmul+0x18>
 8000484:	ea0c 53d1 	and.w	r3, ip, r1, lsr #23
 8000488:	ea92 0f0c 	teq	r2, ip
 800048c:	bf18      	it	ne
 800048e:	ea93 0f0c 	teqne	r3, ip
 8000492:	d00a      	beq.n	80004aa <__aeabi_fmul+0x11e>
 8000494:	f030 4c00 	bics.w	ip, r0, #2147483648	; 0x80000000
 8000498:	bf18      	it	ne
 800049a:	f031 4c00 	bicsne.w	ip, r1, #2147483648	; 0x80000000
 800049e:	d1d8      	bne.n	8000452 <__aeabi_fmul+0xc6>
 80004a0:	ea80 0001 	eor.w	r0, r0, r1
 80004a4:	f000 4000 	and.w	r0, r0, #2147483648	; 0x80000000
 80004a8:	4770      	bx	lr
 80004aa:	f090 0f00 	teq	r0, #0
 80004ae:	bf17      	itett	ne
 80004b0:	f090 4f00 	teqne	r0, #2147483648	; 0x80000000
 80004b4:	4608      	moveq	r0, r1
 80004b6:	f091 0f00 	teqne	r1, #0
 80004ba:	f091 4f00 	teqne	r1, #2147483648	; 0x80000000
 80004be:	d014      	beq.n	80004ea <__aeabi_fmul+0x15e>
 80004c0:	ea92 0f0c 	teq	r2, ip
 80004c4:	d101      	bne.n	80004ca <__aeabi_fmul+0x13e>
 80004c6:	0242      	lsls	r2, r0, #9
 80004c8:	d10f      	bne.n	80004ea <__aeabi_fmul+0x15e>
 80004ca:	ea93 0f0c 	teq	r3, ip
 80004ce:	d103      	bne.n	80004d8 <__aeabi_fmul+0x14c>
 80004d0:	024b      	lsls	r3, r1, #9
 80004d2:	bf18      	it	ne
 80004d4:	4608      	movne	r0, r1
 80004d6:	d108      	bne.n	80004ea <__aeabi_fmul+0x15e>
 80004d8:	ea80 0001 	eor.w	r0, r0, r1
 80004dc:	f000 4000 	and.w	r0, r0, #2147483648	; 0x80000000
 80004e0:	f040 40fe 	orr.w	r0, r0, #2130706432	; 0x7f000000
 80004e4:	f440 0000 	orr.w	r0, r0, #8388608	; 0x800000
 80004e8:	4770      	bx	lr
 80004ea:	f040 40fe 	orr.w	r0, r0, #2130706432	; 0x7f000000
 80004ee:	f440 0040 	orr.w	r0, r0, #12582912	; 0xc00000
 80004f2:	4770      	bx	lr

080004f4 <__aeabi_fdiv>:
 80004f4:	f04f 0cff 	mov.w	ip, #255	; 0xff
 80004f8:	ea1c 52d0 	ands.w	r2, ip, r0, lsr #23
 80004fc:	bf1e      	ittt	ne
 80004fe:	ea1c 53d1 	andsne.w	r3, ip, r1, lsr #23
 8000502:	ea92 0f0c 	teqne	r2, ip
 8000506:	ea93 0f0c 	teqne	r3, ip
 800050a:	d069      	beq.n	80005e0 <__aeabi_fdiv+0xec>
 800050c:	eba2 0203 	sub.w	r2, r2, r3
 8000510:	ea80 0c01 	eor.w	ip, r0, r1
 8000514:	0249      	lsls	r1, r1, #9
 8000516:	ea4f 2040 	mov.w	r0, r0, lsl #9
 800051a:	d037      	beq.n	800058c <__aeabi_fdiv+0x98>
 800051c:	f04f 5380 	mov.w	r3, #268435456	; 0x10000000
 8000520:	ea43 1111 	orr.w	r1, r3, r1, lsr #4
 8000524:	ea43 1310 	orr.w	r3, r3, r0, lsr #4
 8000528:	f00c 4000 	and.w	r0, ip, #2147483648	; 0x80000000
 800052c:	428b      	cmp	r3, r1
 800052e:	bf38      	it	cc
 8000530:	005b      	lslcc	r3, r3, #1
 8000532:	f142 027d 	adc.w	r2, r2, #125	; 0x7d
 8000536:	f44f 0c00 	mov.w	ip, #8388608	; 0x800000
 800053a:	428b      	cmp	r3, r1
 800053c:	bf24      	itt	cs
 800053e:	1a5b      	subcs	r3, r3, r1
 8000540:	ea40 000c 	orrcs.w	r0, r0, ip
 8000544:	ebb3 0f51 	cmp.w	r3, r1, lsr #1
 8000548:	bf24      	itt	cs
 800054a:	eba3 0351 	subcs.w	r3, r3, r1, lsr #1
 800054e:	ea40 005c 	orrcs.w	r0, r0, ip, lsr #1
 8000552:	ebb3 0f91 	cmp.w	r3, r1, lsr #2
 8000556:	bf24      	itt	cs
 8000558:	eba3 0391 	subcs.w	r3, r3, r1, lsr #2
 800055c:	ea40 009c 	orrcs.w	r0, r0, ip, lsr #2
 8000560:	ebb3 0fd1 	cmp.w	r3, r1, lsr #3
 8000564:	bf24      	itt	cs
 8000566:	eba3 03d1 	subcs.w	r3, r3, r1, lsr #3
 800056a:	ea40 00dc 	orrcs.w	r0, r0, ip, lsr #3
 800056e:	011b      	lsls	r3, r3, #4
 8000570:	bf18      	it	ne
 8000572:	ea5f 1c1c 	movsne.w	ip, ip, lsr #4
 8000576:	d1e0      	bne.n	800053a <__aeabi_fdiv+0x46>
 8000578:	2afd      	cmp	r2, #253	; 0xfd
 800057a:	f63f af50 	bhi.w	800041e <__aeabi_fmul+0x92>
 800057e:	428b      	cmp	r3, r1
 8000580:	eb40 50c2 	adc.w	r0, r0, r2, lsl #23
 8000584:	bf08      	it	eq
 8000586:	f020 0001 	biceq.w	r0, r0, #1
 800058a:	4770      	bx	lr
 800058c:	f00c 4c00 	and.w	ip, ip, #2147483648	; 0x80000000
 8000590:	ea4c 2050 	orr.w	r0, ip, r0, lsr #9
 8000594:	327f      	adds	r2, #127	; 0x7f
 8000596:	bfc2      	ittt	gt
 8000598:	f1d2 03ff 	rsbsgt	r3, r2, #255	; 0xff
 800059c:	ea40 50c2 	orrgt.w	r0, r0, r2, lsl #23
 80005a0:	4770      	bxgt	lr
 80005a2:	f440 0000 	orr.w	r0, r0, #8388608	; 0x800000
 80005a6:	f04f 0300 	mov.w	r3, #0
 80005aa:	3a01      	subs	r2, #1
 80005ac:	e737      	b.n	800041e <__aeabi_fmul+0x92>
 80005ae:	f092 0f00 	teq	r2, #0
 80005b2:	f000 4c00 	and.w	ip, r0, #2147483648	; 0x80000000
 80005b6:	bf02      	ittt	eq
 80005b8:	0040      	lsleq	r0, r0, #1
 80005ba:	f410 0f00 	tsteq.w	r0, #8388608	; 0x800000
 80005be:	3a01      	subeq	r2, #1
 80005c0:	d0f9      	beq.n	80005b6 <__aeabi_fdiv+0xc2>
 80005c2:	ea40 000c 	orr.w	r0, r0, ip
 80005c6:	f093 0f00 	teq	r3, #0
 80005ca:	f001 4c00 	and.w	ip, r1, #2147483648	; 0x80000000
 80005ce:	bf02      	ittt	eq
 80005d0:	0049      	lsleq	r1, r1, #1
 80005d2:	f411 0f00 	tsteq.w	r1, #8388608	; 0x800000
 80005d6:	3b01      	subeq	r3, #1
 80005d8:	d0f9      	beq.n	80005ce <__aeabi_fdiv+0xda>
 80005da:	ea41 010c 	orr.w	r1, r1, ip
 80005de:	e795      	b.n	800050c <__aeabi_fdiv+0x18>
 80005e0:	ea0c 53d1 	and.w	r3, ip, r1, lsr #23
 80005e4:	ea92 0f0c 	teq	r2, ip
 80005e8:	d108      	bne.n	80005fc <__aeabi_fdiv+0x108>
 80005ea:	0242      	lsls	r2, r0, #9
 80005ec:	f47f af7d 	bne.w	80004ea <__aeabi_fmul+0x15e>
 80005f0:	ea93 0f0c 	teq	r3, ip
 80005f4:	f47f af70 	bne.w	80004d8 <__aeabi_fmul+0x14c>
 80005f8:	4608      	mov	r0, r1
 80005fa:	e776      	b.n	80004ea <__aeabi_fmul+0x15e>
 80005fc:	ea93 0f0c 	teq	r3, ip
 8000600:	d104      	bne.n	800060c <__aeabi_fdiv+0x118>
 8000602:	024b      	lsls	r3, r1, #9
 8000604:	f43f af4c 	beq.w	80004a0 <__aeabi_fmul+0x114>
 8000608:	4608      	mov	r0, r1
 800060a:	e76e      	b.n	80004ea <__aeabi_fmul+0x15e>
 800060c:	f030 4c00 	bics.w	ip, r0, #2147483648	; 0x80000000
 8000610:	bf18      	it	ne
 8000612:	f031 4c00 	bicsne.w	ip, r1, #2147483648	; 0x80000000
 8000616:	d1ca      	bne.n	80005ae <__aeabi_fdiv+0xba>
 8000618:	f030 4200 	bics.w	r2, r0, #2147483648	; 0x80000000
 800061c:	f47f af5c 	bne.w	80004d8 <__aeabi_fmul+0x14c>
 8000620:	f031 4300 	bics.w	r3, r1, #2147483648	; 0x80000000
 8000624:	f47f af3c 	bne.w	80004a0 <__aeabi_fmul+0x114>
 8000628:	e75f      	b.n	80004ea <__aeabi_fmul+0x15e>
 800062a:	bf00      	nop

0800062c <__gesf2>:
 800062c:	f04f 3cff 	mov.w	ip, #4294967295
 8000630:	e006      	b.n	8000640 <__cmpsf2+0x4>
 8000632:	bf00      	nop

08000634 <__lesf2>:
 8000634:	f04f 0c01 	mov.w	ip, #1
 8000638:	e002      	b.n	8000640 <__cmpsf2+0x4>
 800063a:	bf00      	nop

0800063c <__cmpsf2>:
 800063c:	f04f 0c01 	mov.w	ip, #1
 8000640:	f84d cd04 	str.w	ip, [sp, #-4]!
 8000644:	ea4f 0240 	mov.w	r2, r0, lsl #1
 8000648:	ea4f 0341 	mov.w	r3, r1, lsl #1
 800064c:	ea7f 6c22 	mvns.w	ip, r2, asr #24
 8000650:	bf18      	it	ne
 8000652:	ea7f 6c23 	mvnsne.w	ip, r3, asr #24
 8000656:	d011      	beq.n	800067c <__cmpsf2+0x40>
 8000658:	b001      	add	sp, #4
 800065a:	ea52 0c53 	orrs.w	ip, r2, r3, lsr #1
 800065e:	bf18      	it	ne
 8000660:	ea90 0f01 	teqne	r0, r1
 8000664:	bf58      	it	pl
 8000666:	ebb2 0003 	subspl.w	r0, r2, r3
 800066a:	bf88      	it	hi
 800066c:	17c8      	asrhi	r0, r1, #31
 800066e:	bf38      	it	cc
 8000670:	ea6f 70e1 	mvncc.w	r0, r1, asr #31
 8000674:	bf18      	it	ne
 8000676:	f040 0001 	orrne.w	r0, r0, #1
 800067a:	4770      	bx	lr
 800067c:	ea7f 6c22 	mvns.w	ip, r2, asr #24
 8000680:	d102      	bne.n	8000688 <__cmpsf2+0x4c>
 8000682:	ea5f 2c40 	movs.w	ip, r0, lsl #9
 8000686:	d105      	bne.n	8000694 <__cmpsf2+0x58>
 8000688:	ea7f 6c23 	mvns.w	ip, r3, asr #24
 800068c:	d1e4      	bne.n	8000658 <__cmpsf2+0x1c>
 800068e:	ea5f 2c41 	movs.w	ip, r1, lsl #9
 8000692:	d0e1      	beq.n	8000658 <__cmpsf2+0x1c>
 8000694:	f85d 0b04 	ldr.w	r0, [sp], #4
 8000698:	4770      	bx	lr
 800069a:	bf00      	nop

0800069c <__aeabi_cfrcmple>:
 800069c:	4684      	mov	ip, r0
 800069e:	4608      	mov	r0, r1
 80006a0:	4661      	mov	r1, ip
 80006a2:	e7ff      	b.n	80006a4 <__aeabi_cfcmpeq>

080006a4 <__aeabi_cfcmpeq>:
 80006a4:	b50f      	push	{r0, r1, r2, r3, lr}
 80006a6:	f7ff ffc9 	bl	800063c <__cmpsf2>
 80006aa:	2800      	cmp	r0, #0
 80006ac:	bf48      	it	mi
 80006ae:	f110 0f00 	cmnmi.w	r0, #0
 80006b2:	bd0f      	pop	{r0, r1, r2, r3, pc}

080006b4 <__aeabi_fcmpeq>:
 80006b4:	f84d ed08 	str.w	lr, [sp, #-8]!
 80006b8:	f7ff fff4 	bl	80006a4 <__aeabi_cfcmpeq>
 80006bc:	bf0c      	ite	eq
 80006be:	2001      	moveq	r0, #1
 80006c0:	2000      	movne	r0, #0
 80006c2:	f85d fb08 	ldr.w	pc, [sp], #8
 80006c6:	bf00      	nop

080006c8 <__aeabi_fcmplt>:
 80006c8:	f84d ed08 	str.w	lr, [sp, #-8]!
 80006cc:	f7ff ffea 	bl	80006a4 <__aeabi_cfcmpeq>
 80006d0:	bf34      	ite	cc
 80006d2:	2001      	movcc	r0, #1
 80006d4:	2000      	movcs	r0, #0
 80006d6:	f85d fb08 	ldr.w	pc, [sp], #8
 80006da:	bf00      	nop

080006dc <__aeabi_fcmple>:
 80006dc:	f84d ed08 	str.w	lr, [sp, #-8]!
 80006e0:	f7ff ffe0 	bl	80006a4 <__aeabi_cfcmpeq>
 80006e4:	bf94      	ite	ls
 80006e6:	2001      	movls	r0, #1
 80006e8:	2000      	movhi	r0, #0
 80006ea:	f85d fb08 	ldr.w	pc, [sp], #8
 80006ee:	bf00      	nop

080006f0 <__aeabi_fcmpge>:
 80006f0:	f84d ed08 	str.w	lr, [sp, #-8]!
 80006f4:	f7ff ffd2 	bl	800069c <__aeabi_cfrcmple>
 80006f8:	bf94      	ite	ls
 80006fa:	2001      	movls	r0, #1
 80006fc:	2000      	movhi	r0, #0
 80006fe:	f85d fb08 	ldr.w	pc, [sp], #8
 8000702:	bf00      	nop

08000704 <__aeabi_fcmpgt>:
 8000704:	f84d ed08 	str.w	lr, [sp, #-8]!
 8000708:	f7ff ffc8 	bl	800069c <__aeabi_cfrcmple>
 800070c:	bf34      	ite	cc
 800070e:	2001      	movcc	r0, #1
 8000710:	2000      	movcs	r0, #0
 8000712:	f85d fb08 	ldr.w	pc, [sp], #8
 8000716:	bf00      	nop

08000718 <__aeabi_f2iz>:
 8000718:	ea4f 0240 	mov.w	r2, r0, lsl #1
 800071c:	f1b2 4ffe 	cmp.w	r2, #2130706432	; 0x7f000000
 8000720:	d30f      	bcc.n	8000742 <__aeabi_f2iz+0x2a>
 8000722:	f04f 039e 	mov.w	r3, #158	; 0x9e
 8000726:	ebb3 6212 	subs.w	r2, r3, r2, lsr #24
 800072a:	d90d      	bls.n	8000748 <__aeabi_f2iz+0x30>
 800072c:	ea4f 2300 	mov.w	r3, r0, lsl #8
 8000730:	f043 4300 	orr.w	r3, r3, #2147483648	; 0x80000000
 8000734:	f010 4f00 	tst.w	r0, #2147483648	; 0x80000000
 8000738:	fa23 f002 	lsr.w	r0, r3, r2
 800073c:	bf18      	it	ne
 800073e:	4240      	negne	r0, r0
 8000740:	4770      	bx	lr
 8000742:	f04f 0000 	mov.w	r0, #0
 8000746:	4770      	bx	lr
 8000748:	f112 0f61 	cmn.w	r2, #97	; 0x61
 800074c:	d101      	bne.n	8000752 <__aeabi_f2iz+0x3a>
 800074e:	0242      	lsls	r2, r0, #9
 8000750:	d105      	bne.n	800075e <__aeabi_f2iz+0x46>
 8000752:	f010 4000 	ands.w	r0, r0, #2147483648	; 0x80000000
 8000756:	bf08      	it	eq
 8000758:	f06f 4000 	mvneq.w	r0, #2147483648	; 0x80000000
 800075c:	4770      	bx	lr
 800075e:	f04f 0000 	mov.w	r0, #0
 8000762:	4770      	bx	lr

08000764 <__aeabi_f2uiz>:
 8000764:	0042      	lsls	r2, r0, #1
 8000766:	d20e      	bcs.n	8000786 <__aeabi_f2uiz+0x22>
 8000768:	f1b2 4ffe 	cmp.w	r2, #2130706432	; 0x7f000000
 800076c:	d30b      	bcc.n	8000786 <__aeabi_f2uiz+0x22>
 800076e:	f04f 039e 	mov.w	r3, #158	; 0x9e
 8000772:	ebb3 6212 	subs.w	r2, r3, r2, lsr #24
 8000776:	d409      	bmi.n	800078c <__aeabi_f2uiz+0x28>
 8000778:	ea4f 2300 	mov.w	r3, r0, lsl #8
 800077c:	f043 4300 	orr.w	r3, r3, #2147483648	; 0x80000000
 8000780:	fa23 f002 	lsr.w	r0, r3, r2
 8000784:	4770      	bx	lr
 8000786:	f04f 0000 	mov.w	r0, #0
 800078a:	4770      	bx	lr
 800078c:	f112 0f61 	cmn.w	r2, #97	; 0x61
 8000790:	d101      	bne.n	8000796 <__aeabi_f2uiz+0x32>
 8000792:	0242      	lsls	r2, r0, #9
 8000794:	d102      	bne.n	800079c <__aeabi_f2uiz+0x38>
 8000796:	f04f 30ff 	mov.w	r0, #4294967295
 800079a:	4770      	bx	lr
 800079c:	f04f 0000 	mov.w	r0, #0
 80007a0:	4770      	bx	lr
 80007a2:	bf00      	nop

080007a4 <MX_GPIO_Init>:
  * @brief GPIO Initialization Function
  * @param None
  * @retval None
  */
static void MX_GPIO_Init(void)
{
 80007a4:	b570      	push	{r4, r5, r6, lr}
 80007a6:	b088      	sub	sp, #32
  GPIO_InitTypeDef GPIO_InitStruct = {0};
 80007a8:	2400      	movs	r4, #0
 80007aa:	9404      	str	r4, [sp, #16]
 80007ac:	9405      	str	r4, [sp, #20]
 80007ae:	9406      	str	r4, [sp, #24]
 80007b0:	9407      	str	r4, [sp, #28]
  /* USER CODE BEGIN MX_GPIO_Init_1 */

  /* USER CODE END MX_GPIO_Init_1 */

  /* GPIO Ports Clock Enable */
  __HAL_RCC_GPIOD_CLK_ENABLE();
 80007b2:	4b21      	ldr	r3, [pc, #132]	; (8000838 <MX_GPIO_Init+0x94>)
 80007b4:	699a      	ldr	r2, [r3, #24]
 80007b6:	f042 0220 	orr.w	r2, r2, #32
 80007ba:	619a      	str	r2, [r3, #24]
 80007bc:	699a      	ldr	r2, [r3, #24]
 80007be:	f002 0220 	and.w	r2, r2, #32
 80007c2:	9201      	str	r2, [sp, #4]
 80007c4:	9a01      	ldr	r2, [sp, #4]
  __HAL_RCC_GPIOA_CLK_ENABLE();
 80007c6:	699a      	ldr	r2, [r3, #24]
 80007c8:	f042 0204 	orr.w	r2, r2, #4
 80007cc:	619a      	str	r2, [r3, #24]
 80007ce:	699a      	ldr	r2, [r3, #24]
 80007d0:	f002 0204 	and.w	r2, r2, #4
 80007d4:	9202      	str	r2, [sp, #8]
 80007d6:	9a02      	ldr	r2, [sp, #8]
  __HAL_RCC_GPIOB_CLK_ENABLE();
 80007d8:	699a      	ldr	r2, [r3, #24]
 80007da:	f042 0208 	orr.w	r2, r2, #8
 80007de:	619a      	str	r2, [r3, #24]
 80007e0:	699b      	ldr	r3, [r3, #24]
 80007e2:	f003 0308 	and.w	r3, r3, #8
 80007e6:	9303      	str	r3, [sp, #12]
 80007e8:	9b03      	ldr	r3, [sp, #12]

  /*Configure GPIO pin Output Level */
  HAL_GPIO_WritePin(GPIOB, XLED1_Pin|XLED2_Pin|XLED3_Pin|XLED4_Pin
 80007ea:	4d14      	ldr	r5, [pc, #80]	; (800083c <MX_GPIO_Init+0x98>)
 80007ec:	4622      	mov	r2, r4
 80007ee:	f24f 0120 	movw	r1, #61472	; 0xf020
 80007f2:	4628      	mov	r0, r5
 80007f4:	f003 fc43 	bl	800407e <HAL_GPIO_WritePin>
                          |XGOOD_Pin, GPIO_PIN_RESET);

  /*Configure GPIO pins : XLED1_Pin XLED2_Pin XLED3_Pin XLED4_Pin
                           XGOOD_Pin */
  GPIO_InitStruct.Pin = XLED1_Pin|XLED2_Pin|XLED3_Pin|XLED4_Pin
 80007f8:	f24f 0320 	movw	r3, #61472	; 0xf020
 80007fc:	9304      	str	r3, [sp, #16]
                          |XGOOD_Pin;
  GPIO_InitStruct.Mode = GPIO_MODE_OUTPUT_PP;
 80007fe:	2601      	movs	r6, #1
 8000800:	9605      	str	r6, [sp, #20]
  GPIO_InitStruct.Pull = GPIO_NOPULL;
 8000802:	9406      	str	r4, [sp, #24]
  GPIO_InitStruct.Speed = GPIO_SPEED_FREQ_LOW;
 8000804:	2302      	movs	r3, #2
 8000806:	9307      	str	r3, [sp, #28]
  HAL_GPIO_Init(GPIOB, &GPIO_InitStruct);
 8000808:	a904      	add	r1, sp, #16
 800080a:	4628      	mov	r0, r5
 800080c:	f003 fb20 	bl	8003e50 <HAL_GPIO_Init>

  /*Configure GPIO pin : K1_Pin */
  GPIO_InitStruct.Pin = K1_Pin;
 8000810:	f44f 4300 	mov.w	r3, #32768	; 0x8000
 8000814:	9304      	str	r3, [sp, #16]
  GPIO_InitStruct.Mode = GPIO_MODE_INPUT;
 8000816:	9405      	str	r4, [sp, #20]
  GPIO_InitStruct.Pull = GPIO_PULLUP;
 8000818:	9606      	str	r6, [sp, #24]
  HAL_GPIO_Init(K1_GPIO_Port, &GPIO_InitStruct);
 800081a:	a904      	add	r1, sp, #16
 800081c:	4808      	ldr	r0, [pc, #32]	; (8000840 <MX_GPIO_Init+0x9c>)
 800081e:	f003 fb17 	bl	8003e50 <HAL_GPIO_Init>

  /*Configure GPIO pins : K2_Pin K3_Pin */
  GPIO_InitStruct.Pin = K2_Pin|K3_Pin;
 8000822:	2318      	movs	r3, #24
 8000824:	9304      	str	r3, [sp, #16]
  GPIO_InitStruct.Mode = GPIO_MODE_INPUT;
 8000826:	9405      	str	r4, [sp, #20]
  GPIO_InitStruct.Pull = GPIO_PULLUP;
 8000828:	9606      	str	r6, [sp, #24]
  HAL_GPIO_Init(GPIOB, &GPIO_InitStruct);
 800082a:	a904      	add	r1, sp, #16
 800082c:	4628      	mov	r0, r5
 800082e:	f003 fb0f 	bl	8003e50 <HAL_GPIO_Init>

  /* USER CODE BEGIN MX_GPIO_Init_2 */

  /* USER CODE END MX_GPIO_Init_2 */
}
 8000832:	b008      	add	sp, #32
 8000834:	bd70      	pop	{r4, r5, r6, pc}
 8000836:	bf00      	nop
 8000838:	40021000 	.word	0x40021000
 800083c:	40010c00 	.word	0x40010c00
 8000840:	40010800 	.word	0x40010800

08000844 <MX_DMA_Init>:
{
 8000844:	b500      	push	{lr}
 8000846:	b083      	sub	sp, #12
  __HAL_RCC_DMA1_CLK_ENABLE();
 8000848:	4b0e      	ldr	r3, [pc, #56]	; (8000884 <MX_DMA_Init+0x40>)
 800084a:	695a      	ldr	r2, [r3, #20]
 800084c:	f042 0201 	orr.w	r2, r2, #1
 8000850:	615a      	str	r2, [r3, #20]
 8000852:	695b      	ldr	r3, [r3, #20]
 8000854:	f003 0301 	and.w	r3, r3, #1
 8000858:	9301      	str	r3, [sp, #4]
 800085a:	9b01      	ldr	r3, [sp, #4]
  HAL_NVIC_SetPriority(DMA1_Channel1_IRQn, 0, 0);
 800085c:	2200      	movs	r2, #0
 800085e:	4611      	mov	r1, r2
 8000860:	200b      	movs	r0, #11
 8000862:	f002 ffa3 	bl	80037ac <HAL_NVIC_SetPriority>
  HAL_NVIC_EnableIRQ(DMA1_Channel1_IRQn);
 8000866:	200b      	movs	r0, #11
 8000868:	f002 ffd4 	bl	8003814 <HAL_NVIC_EnableIRQ>
  HAL_NVIC_SetPriority(DMA1_Channel3_IRQn, 0, 0);
 800086c:	2200      	movs	r2, #0
 800086e:	4611      	mov	r1, r2
 8000870:	200d      	movs	r0, #13
 8000872:	f002 ff9b 	bl	80037ac <HAL_NVIC_SetPriority>
  HAL_NVIC_EnableIRQ(DMA1_Channel3_IRQn);
 8000876:	200d      	movs	r0, #13
 8000878:	f002 ffcc 	bl	8003814 <HAL_NVIC_EnableIRQ>
}
 800087c:	b003      	add	sp, #12
 800087e:	f85d fb04 	ldr.w	pc, [sp], #4
 8000882:	bf00      	nop
 8000884:	40021000 	.word	0x40021000

08000888 <xgood_led_blink_handler>:
{
 8000888:	b538      	push	{r3, r4, r5, lr}
 800088a:	4604      	mov	r4, r0
    if (sensor_config_load_failed()) {
 800088c:	f001 fde6 	bl	800245c <sensor_config_load_failed>
 8000890:	b1e8      	cbz	r0, 80008ce <xgood_led_blink_handler+0x46>
        uint32_t elapsed = current_ms - g_xgood_blink.last_toggle_ms;
 8000892:	4a1c      	ldr	r2, [pc, #112]	; (8000904 <xgood_led_blink_handler+0x7c>)
 8000894:	6813      	ldr	r3, [r2, #0]
 8000896:	1ae3      	subs	r3, r4, r3
        if (g_xgood_blink.led_state) {
 8000898:	7912      	ldrb	r2, [r2, #4]
 800089a:	b15a      	cbz	r2, 80008b4 <xgood_led_blink_handler+0x2c>
            if (elapsed >= 200) {
 800089c:	2bc7      	cmp	r3, #199	; 0xc7
 800089e:	d92f      	bls.n	8000900 <xgood_led_blink_handler+0x78>
                HAL_GPIO_WritePin(XGOOD_GPIO_Port, XGOOD_Pin, GPIO_PIN_SET);
 80008a0:	2201      	movs	r2, #1
 80008a2:	2120      	movs	r1, #32
 80008a4:	4818      	ldr	r0, [pc, #96]	; (8000908 <xgood_led_blink_handler+0x80>)
 80008a6:	f003 fbea 	bl	800407e <HAL_GPIO_WritePin>
                g_xgood_blink.led_state = false;
 80008aa:	4b16      	ldr	r3, [pc, #88]	; (8000904 <xgood_led_blink_handler+0x7c>)
 80008ac:	2200      	movs	r2, #0
 80008ae:	711a      	strb	r2, [r3, #4]
                g_xgood_blink.last_toggle_ms = current_ms;
 80008b0:	601c      	str	r4, [r3, #0]
 80008b2:	e025      	b.n	8000900 <xgood_led_blink_handler+0x78>
            if (elapsed >= 800) {
 80008b4:	f5b3 7f48 	cmp.w	r3, #800	; 0x320
 80008b8:	d322      	bcc.n	8000900 <xgood_led_blink_handler+0x78>
                HAL_GPIO_WritePin(XGOOD_GPIO_Port, XGOOD_Pin, GPIO_PIN_RESET);
 80008ba:	2200      	movs	r2, #0
 80008bc:	2120      	movs	r1, #32
 80008be:	4812      	ldr	r0, [pc, #72]	; (8000908 <xgood_led_blink_handler+0x80>)
 80008c0:	f003 fbdd 	bl	800407e <HAL_GPIO_WritePin>
                g_xgood_blink.led_state = true;
 80008c4:	4b0f      	ldr	r3, [pc, #60]	; (8000904 <xgood_led_blink_handler+0x7c>)
 80008c6:	2201      	movs	r2, #1
 80008c8:	711a      	strb	r2, [r3, #4]
                g_xgood_blink.last_toggle_ms = current_ms;
 80008ca:	601c      	str	r4, [r3, #0]
 80008cc:	e018      	b.n	8000900 <xgood_led_blink_handler+0x78>
    else if (g_USB_device_type == DEVICE_TYPE_DRUMCONTROLLER) {
 80008ce:	4b0f      	ldr	r3, [pc, #60]	; (800090c <xgood_led_blink_handler+0x84>)
 80008d0:	781b      	ldrb	r3, [r3, #0]
 80008d2:	2b01      	cmp	r3, #1
 80008d4:	d10f      	bne.n	80008f6 <xgood_led_blink_handler+0x6e>
        uint32_t elapsed = current_ms - g_xgood_blink.last_toggle_ms;
 80008d6:	4b0b      	ldr	r3, [pc, #44]	; (8000904 <xgood_led_blink_handler+0x7c>)
 80008d8:	681b      	ldr	r3, [r3, #0]
 80008da:	1ae3      	subs	r3, r4, r3
        if (elapsed >= 100) { // 100ms = half period for 5Hz
 80008dc:	2b63      	cmp	r3, #99	; 0x63
 80008de:	d90f      	bls.n	8000900 <xgood_led_blink_handler+0x78>
            g_xgood_blink.led_state = !g_xgood_blink.led_state;
 80008e0:	4d08      	ldr	r5, [pc, #32]	; (8000904 <xgood_led_blink_handler+0x7c>)
 80008e2:	792a      	ldrb	r2, [r5, #4]
 80008e4:	f082 0201 	eor.w	r2, r2, #1
 80008e8:	712a      	strb	r2, [r5, #4]
            HAL_GPIO_WritePin(XGOOD_GPIO_Port, XGOOD_Pin, g_xgood_blink.led_state ? GPIO_PIN_SET : GPIO_PIN_RESET);
 80008ea:	2120      	movs	r1, #32
 80008ec:	4806      	ldr	r0, [pc, #24]	; (8000908 <xgood_led_blink_handler+0x80>)
 80008ee:	f003 fbc6 	bl	800407e <HAL_GPIO_WritePin>
            g_xgood_blink.last_toggle_ms = current_ms;
 80008f2:	602c      	str	r4, [r5, #0]
 80008f4:	e004      	b.n	8000900 <xgood_led_blink_handler+0x78>
        HAL_GPIO_WritePin(XGOOD_GPIO_Port, XGOOD_Pin, GPIO_PIN_RESET); // ON (active low)
 80008f6:	2200      	movs	r2, #0
 80008f8:	2120      	movs	r1, #32
 80008fa:	4803      	ldr	r0, [pc, #12]	; (8000908 <xgood_led_blink_handler+0x80>)
 80008fc:	f003 fbbf 	bl	800407e <HAL_GPIO_WritePin>
}
 8000900:	bd38      	pop	{r3, r4, r5, pc}
 8000902:	bf00      	nop
 8000904:	20000884 	.word	0x20000884
 8000908:	40010c00 	.word	0x40010c00
 800090c:	20001ba9 	.word	0x20001ba9

08000910 <HAL_ADC_ConvHalfCpltCallback>:
/* USER CODE BEGIN 4 */

//static uint16_t arrADC1_DMA_copy[DMA_BUFFER_SAMPLES];
void HAL_ADC_ConvHalfCpltCallback(ADC_HandleTypeDef* hadc)
{
    if (hadc->Instance == ADC1)
 8000910:	6802      	ldr	r2, [r0, #0]
 8000912:	4b0e      	ldr	r3, [pc, #56]	; (800094c <HAL_ADC_ConvHalfCpltCallback+0x3c>)
 8000914:	429a      	cmp	r2, r3
 8000916:	d000      	beq.n	800091a <HAL_ADC_ConvHalfCpltCallback+0xa>
 8000918:	4770      	bx	lr
{
 800091a:	b510      	push	{r4, lr}
    {
        /* Process first half of DMA buffer (samples 0-239) */
//    	memcpy(arrADC1_DMA_copy, arrADC1_DMA, sizeof(arrADC1_DMA)); // for breakpoint
        extract_envelope_from_samples(arrADC1_DMA, 0);
 800091c:	2100      	movs	r1, #0
 800091e:	480c      	ldr	r0, [pc, #48]	; (8000950 <HAL_ADC_ConvHalfCpltCallback+0x40>)
 8000920:	f000 fed6 	bl	80016d0 <extract_envelope_from_samples>
        trigger_fsm_process();
 8000924:	f000 fe28 	bl	8001578 <trigger_fsm_process>
        cooldown_fsm_process();
 8000928:	f000 fbe0 	bl	80010ec <cooldown_fsm_process>
        decay_adjusted_threshold();
 800092c:	f000 fe38 	bl	80015a0 <decay_adjusted_threshold>
        increment_system_ms();
 8000930:	f000 fe82 	bl	8001638 <increment_system_ms>

        /* Check if LEDs need to turn off */
        led_check_turn_off(g_system_ms);
 8000934:	4c07      	ldr	r4, [pc, #28]	; (8000954 <HAL_ADC_ConvHalfCpltCallback+0x44>)
 8000936:	6820      	ldr	r0, [r4, #0]
 8000938:	f000 fe86 	bl	8001648 <led_check_turn_off>

        /* Output max values every 100ms */
        debug_output_if_needed(g_system_ms);
 800093c:	6820      	ldr	r0, [r4, #0]
 800093e:	f000 ff49 	bl	80017d4 <debug_output_if_needed>

        /* Process afterglow expirations and send buffered HID reports */
        hid_process_afterglow();
 8000942:	f000 fce7 	bl	8001314 <hid_process_afterglow>
        hid_send_buffered_reports();
 8000946:	f000 fc5b 	bl	8001200 <hid_send_buffered_reports>

        /* LED handling is done in main loop only to avoid interrupt context issues */
    }
}
 800094a:	bd10      	pop	{r4, pc}
 800094c:	40012400 	.word	0x40012400
 8000950:	200004c4 	.word	0x200004c4
 8000954:	200011e4 	.word	0x200011e4

08000958 <HAL_ADC_ConvCpltCallback>:

void HAL_ADC_ConvCpltCallback(ADC_HandleTypeDef* hadc)
{
    if (hadc->Instance == ADC1)
 8000958:	6802      	ldr	r2, [r0, #0]
 800095a:	4b0e      	ldr	r3, [pc, #56]	; (8000994 <HAL_ADC_ConvCpltCallback+0x3c>)
 800095c:	429a      	cmp	r2, r3
 800095e:	d000      	beq.n	8000962 <HAL_ADC_ConvCpltCallback+0xa>
 8000960:	4770      	bx	lr
{
 8000962:	b510      	push	{r4, lr}
    {
        /* Process second half of DMA buffer (samples 240-479) */
//    	memcpy(arrADC1_DMA_copy, arrADC1_DMA, sizeof(arrADC1_DMA)); // for breakpoint
        extract_envelope_from_samples(arrADC1_DMA, 240);
 8000964:	21f0      	movs	r1, #240	; 0xf0
 8000966:	480c      	ldr	r0, [pc, #48]	; (8000998 <HAL_ADC_ConvCpltCallback+0x40>)
 8000968:	f000 feb2 	bl	80016d0 <extract_envelope_from_samples>
        trigger_fsm_process();
 800096c:	f000 fe04 	bl	8001578 <trigger_fsm_process>
        cooldown_fsm_process();
 8000970:	f000 fbbc 	bl	80010ec <cooldown_fsm_process>
        decay_adjusted_threshold();
 8000974:	f000 fe14 	bl	80015a0 <decay_adjusted_threshold>
        increment_system_ms();
 8000978:	f000 fe5e 	bl	8001638 <increment_system_ms>

        /* Check if LEDs need to turn off */
        led_check_turn_off(g_system_ms);
 800097c:	4c07      	ldr	r4, [pc, #28]	; (800099c <HAL_ADC_ConvCpltCallback+0x44>)
 800097e:	6820      	ldr	r0, [r4, #0]
 8000980:	f000 fe62 	bl	8001648 <led_check_turn_off>

        /* Output max values every 100ms */
        debug_output_if_needed(g_system_ms);
 8000984:	6820      	ldr	r0, [r4, #0]
 8000986:	f000 ff25 	bl	80017d4 <debug_output_if_needed>

        /* Process afterglow expirations and send buffered HID reports */
        hid_process_afterglow();
 800098a:	f000 fcc3 	bl	8001314 <hid_process_afterglow>
        hid_send_buffered_reports();
 800098e:	f000 fc37 	bl	8001200 <hid_send_buffered_reports>

        /* LED handling is done in main loop only to avoid interrupt context issues */
    }
}
 8000992:	bd10      	pop	{r4, pc}
 8000994:	40012400 	.word	0x40012400
 8000998:	200004c4 	.word	0x200004c4
 800099c:	200011e4 	.word	0x200011e4

080009a0 <Error_Handler>:
  \details Disables IRQ interrupts by setting the I-bit in the CPSR.
           Can only be executed in Privileged modes.
 */
__STATIC_FORCEINLINE void __disable_irq(void)
{
  __ASM volatile ("cpsid i" : : : "memory");
 80009a0:	b672      	cpsid	i
void Error_Handler(void)
{
  /* USER CODE BEGIN Error_Handler_Debug */
  /* User can add his own implementation to report the HAL error return state */
  __disable_irq();
  while (1)
 80009a2:	e7fe      	b.n	80009a2 <Error_Handler+0x2>

080009a4 <MX_ADC1_Init>:
{
 80009a4:	b500      	push	{lr}
 80009a6:	b085      	sub	sp, #20
  ADC_ChannelConfTypeDef sConfig = {0};
 80009a8:	2300      	movs	r3, #0
 80009aa:	9301      	str	r3, [sp, #4]
 80009ac:	9302      	str	r3, [sp, #8]
 80009ae:	9303      	str	r3, [sp, #12]
  hadc1.Instance = ADC1;
 80009b0:	4827      	ldr	r0, [pc, #156]	; (8000a50 <MX_ADC1_Init+0xac>)
 80009b2:	4a28      	ldr	r2, [pc, #160]	; (8000a54 <MX_ADC1_Init+0xb0>)
 80009b4:	6002      	str	r2, [r0, #0]
  hadc1.Init.ScanConvMode = ADC_SCAN_ENABLE;
 80009b6:	f44f 7280 	mov.w	r2, #256	; 0x100
 80009ba:	6082      	str	r2, [r0, #8]
  hadc1.Init.ContinuousConvMode = DISABLE;
 80009bc:	7303      	strb	r3, [r0, #12]
  hadc1.Init.DiscontinuousConvMode = DISABLE;
 80009be:	7503      	strb	r3, [r0, #20]
  hadc1.Init.ExternalTrigConv = ADC_EXTERNALTRIGCONV_T3_TRGO;
 80009c0:	f44f 2200 	mov.w	r2, #524288	; 0x80000
 80009c4:	61c2      	str	r2, [r0, #28]
  hadc1.Init.DataAlign = ADC_DATAALIGN_RIGHT;
 80009c6:	6043      	str	r3, [r0, #4]
  hadc1.Init.NbrOfConversion = 5;
 80009c8:	2305      	movs	r3, #5
 80009ca:	6103      	str	r3, [r0, #16]
  if (HAL_ADC_Init(&hadc1) != HAL_OK)
 80009cc:	f002 fe58 	bl	8003680 <HAL_ADC_Init>
 80009d0:	2800      	cmp	r0, #0
 80009d2:	d131      	bne.n	8000a38 <MX_ADC1_Init+0x94>
  sConfig.Channel = ADC_CHANNEL_0;
 80009d4:	2300      	movs	r3, #0
 80009d6:	9301      	str	r3, [sp, #4]
  sConfig.Rank = ADC_REGULAR_RANK_1;
 80009d8:	2201      	movs	r2, #1
 80009da:	9202      	str	r2, [sp, #8]
  sConfig.SamplingTime = ADC_SAMPLETIME_1CYCLE_5;
 80009dc:	9303      	str	r3, [sp, #12]
  if (HAL_ADC_ConfigChannel(&hadc1, &sConfig) != HAL_OK)
 80009de:	a901      	add	r1, sp, #4
 80009e0:	481b      	ldr	r0, [pc, #108]	; (8000a50 <MX_ADC1_Init+0xac>)
 80009e2:	f002 fca9 	bl	8003338 <HAL_ADC_ConfigChannel>
 80009e6:	bb48      	cbnz	r0, 8000a3c <MX_ADC1_Init+0x98>
  sConfig.Channel = ADC_CHANNEL_1;
 80009e8:	2301      	movs	r3, #1
 80009ea:	9301      	str	r3, [sp, #4]
  sConfig.Rank = ADC_REGULAR_RANK_2;
 80009ec:	2302      	movs	r3, #2
 80009ee:	9302      	str	r3, [sp, #8]
  if (HAL_ADC_ConfigChannel(&hadc1, &sConfig) != HAL_OK)
 80009f0:	a901      	add	r1, sp, #4
 80009f2:	4817      	ldr	r0, [pc, #92]	; (8000a50 <MX_ADC1_Init+0xac>)
 80009f4:	f002 fca0 	bl	8003338 <HAL_ADC_ConfigChannel>
 80009f8:	bb10      	cbnz	r0, 8000a40 <MX_ADC1_Init+0x9c>
  sConfig.Channel = ADC_CHANNEL_2;
 80009fa:	2302      	movs	r3, #2
 80009fc:	9301      	str	r3, [sp, #4]
  sConfig.Rank = ADC_REGULAR_RANK_3;
 80009fe:	2303      	movs	r3, #3
 8000a00:	9302      	str	r3, [sp, #8]
  if (HAL_ADC_ConfigChannel(&hadc1, &sConfig) != HAL_OK)
 8000a02:	a901      	add	r1, sp, #4
 8000a04:	4812      	ldr	r0, [pc, #72]	; (8000a50 <MX_ADC1_Init+0xac>)
 8000a06:	f002 fc97 	bl	8003338 <HAL_ADC_ConfigChannel>
 8000a0a:	b9d8      	cbnz	r0, 8000a44 <MX_ADC1_Init+0xa0>
  sConfig.Channel = ADC_CHANNEL_3;
 8000a0c:	2303      	movs	r3, #3
 8000a0e:	9301      	str	r3, [sp, #4]
  sConfig.Rank = ADC_REGULAR_RANK_4;
 8000a10:	2304      	movs	r3, #4
 8000a12:	9302      	str	r3, [sp, #8]
  if (HAL_ADC_ConfigChannel(&hadc1, &sConfig) != HAL_OK)
 8000a14:	eb0d 0103 	add.w	r1, sp, r3
 8000a18:	480d      	ldr	r0, [pc, #52]	; (8000a50 <MX_ADC1_Init+0xac>)
 8000a1a:	f002 fc8d 	bl	8003338 <HAL_ADC_ConfigChannel>
 8000a1e:	b998      	cbnz	r0, 8000a48 <MX_ADC1_Init+0xa4>
  sConfig.Channel = ADC_CHANNEL_4;
 8000a20:	2304      	movs	r3, #4
 8000a22:	9301      	str	r3, [sp, #4]
  sConfig.Rank = ADC_REGULAR_RANK_5;
 8000a24:	2305      	movs	r3, #5
 8000a26:	9302      	str	r3, [sp, #8]
  if (HAL_ADC_ConfigChannel(&hadc1, &sConfig) != HAL_OK)
 8000a28:	a901      	add	r1, sp, #4
 8000a2a:	4809      	ldr	r0, [pc, #36]	; (8000a50 <MX_ADC1_Init+0xac>)
 8000a2c:	f002 fc84 	bl	8003338 <HAL_ADC_ConfigChannel>
 8000a30:	b960      	cbnz	r0, 8000a4c <MX_ADC1_Init+0xa8>
}
 8000a32:	b005      	add	sp, #20
 8000a34:	f85d fb04 	ldr.w	pc, [sp], #4
    Error_Handler();
 8000a38:	f7ff ffb2 	bl	80009a0 <Error_Handler>
    Error_Handler();
 8000a3c:	f7ff ffb0 	bl	80009a0 <Error_Handler>
    Error_Handler();
 8000a40:	f7ff ffae 	bl	80009a0 <Error_Handler>
    Error_Handler();
 8000a44:	f7ff ffac 	bl	80009a0 <Error_Handler>
    Error_Handler();
 8000a48:	f7ff ffaa 	bl	80009a0 <Error_Handler>
    Error_Handler();
 8000a4c:	f7ff ffa8 	bl	80009a0 <Error_Handler>
 8000a50:	200020c8 	.word	0x200020c8
 8000a54:	40012400 	.word	0x40012400

08000a58 <MX_USART3_UART_Init>:
{
 8000a58:	b508      	push	{r3, lr}
  huart3.Instance = USART3;
 8000a5a:	480a      	ldr	r0, [pc, #40]	; (8000a84 <MX_USART3_UART_Init+0x2c>)
 8000a5c:	4b0a      	ldr	r3, [pc, #40]	; (8000a88 <MX_USART3_UART_Init+0x30>)
 8000a5e:	6003      	str	r3, [r0, #0]
  huart3.Init.BaudRate = 115200;
 8000a60:	f44f 33e1 	mov.w	r3, #115200	; 0x1c200
 8000a64:	6043      	str	r3, [r0, #4]
  huart3.Init.WordLength = UART_WORDLENGTH_8B;
 8000a66:	2300      	movs	r3, #0
 8000a68:	6083      	str	r3, [r0, #8]
  huart3.Init.StopBits = UART_STOPBITS_1;
 8000a6a:	60c3      	str	r3, [r0, #12]
  huart3.Init.Parity = UART_PARITY_NONE;
 8000a6c:	6103      	str	r3, [r0, #16]
  huart3.Init.Mode = UART_MODE_TX_RX;
 8000a6e:	220c      	movs	r2, #12
 8000a70:	6142      	str	r2, [r0, #20]
  huart3.Init.HwFlowCtl = UART_HWCONTROL_NONE;
 8000a72:	6183      	str	r3, [r0, #24]
  huart3.Init.OverSampling = UART_OVERSAMPLING_16;
 8000a74:	61c3      	str	r3, [r0, #28]
  if (HAL_UART_Init(&huart3) != HAL_OK)
 8000a76:	f005 f946 	bl	8005d06 <HAL_UART_Init>
 8000a7a:	b900      	cbnz	r0, 8000a7e <MX_USART3_UART_Init+0x26>
}
 8000a7c:	bd08      	pop	{r3, pc}
    Error_Handler();
 8000a7e:	f7ff ff8f 	bl	80009a0 <Error_Handler>
 8000a82:	bf00      	nop
 8000a84:	20002038 	.word	0x20002038
 8000a88:	40004800 	.word	0x40004800

08000a8c <MX_TIM1_Init>:
{
 8000a8c:	b500      	push	{lr}
 8000a8e:	b087      	sub	sp, #28
  TIM_ClockConfigTypeDef sClockSourceConfig = {0};
 8000a90:	2300      	movs	r3, #0
 8000a92:	9302      	str	r3, [sp, #8]
 8000a94:	9303      	str	r3, [sp, #12]
 8000a96:	9304      	str	r3, [sp, #16]
 8000a98:	9305      	str	r3, [sp, #20]
  TIM_MasterConfigTypeDef sMasterConfig = {0};
 8000a9a:	9300      	str	r3, [sp, #0]
 8000a9c:	9301      	str	r3, [sp, #4]
  htim1.Instance = TIM1;
 8000a9e:	4814      	ldr	r0, [pc, #80]	; (8000af0 <MX_TIM1_Init+0x64>)
 8000aa0:	4a14      	ldr	r2, [pc, #80]	; (8000af4 <MX_TIM1_Init+0x68>)
 8000aa2:	6002      	str	r2, [r0, #0]
  htim1.Init.Prescaler = 47;
 8000aa4:	222f      	movs	r2, #47	; 0x2f
 8000aa6:	6042      	str	r2, [r0, #4]
  htim1.Init.CounterMode = TIM_COUNTERMODE_UP;
 8000aa8:	6083      	str	r3, [r0, #8]
  htim1.Init.Period = 499;
 8000aaa:	f240 12f3 	movw	r2, #499	; 0x1f3
 8000aae:	60c2      	str	r2, [r0, #12]
  htim1.Init.ClockDivision = TIM_CLOCKDIVISION_DIV1;
 8000ab0:	6103      	str	r3, [r0, #16]
  htim1.Init.RepetitionCounter = 0;
 8000ab2:	6143      	str	r3, [r0, #20]
  htim1.Init.AutoReloadPreload = TIM_AUTORELOAD_PRELOAD_ENABLE;
 8000ab4:	2380      	movs	r3, #128	; 0x80
 8000ab6:	6183      	str	r3, [r0, #24]
  if (HAL_TIM_Base_Init(&htim1) != HAL_OK)
 8000ab8:	f004 ff52 	bl	8005960 <HAL_TIM_Base_Init>
 8000abc:	b990      	cbnz	r0, 8000ae4 <MX_TIM1_Init+0x58>
  sClockSourceConfig.ClockSource = TIM_CLOCKSOURCE_INTERNAL;
 8000abe:	f44f 5380 	mov.w	r3, #4096	; 0x1000
 8000ac2:	9302      	str	r3, [sp, #8]
  if (HAL_TIM_ConfigClockSource(&htim1, &sClockSourceConfig) != HAL_OK)
 8000ac4:	a902      	add	r1, sp, #8
 8000ac6:	480a      	ldr	r0, [pc, #40]	; (8000af0 <MX_TIM1_Init+0x64>)
 8000ac8:	f004 ff81 	bl	80059ce <HAL_TIM_ConfigClockSource>
 8000acc:	b960      	cbnz	r0, 8000ae8 <MX_TIM1_Init+0x5c>
  sMasterConfig.MasterOutputTrigger = TIM_TRGO_RESET;
 8000ace:	2300      	movs	r3, #0
 8000ad0:	9300      	str	r3, [sp, #0]
  sMasterConfig.MasterSlaveMode = TIM_MASTERSLAVEMODE_DISABLE;
 8000ad2:	9301      	str	r3, [sp, #4]
  if (HAL_TIMEx_MasterConfigSynchronization(&htim1, &sMasterConfig) != HAL_OK)
 8000ad4:	4669      	mov	r1, sp
 8000ad6:	4806      	ldr	r0, [pc, #24]	; (8000af0 <MX_TIM1_Init+0x64>)
 8000ad8:	f004 fff8 	bl	8005acc <HAL_TIMEx_MasterConfigSynchronization>
 8000adc:	b930      	cbnz	r0, 8000aec <MX_TIM1_Init+0x60>
}
 8000ade:	b007      	add	sp, #28
 8000ae0:	f85d fb04 	ldr.w	pc, [sp], #4
    Error_Handler();
 8000ae4:	f7ff ff5c 	bl	80009a0 <Error_Handler>
    Error_Handler();
 8000ae8:	f7ff ff5a 	bl	80009a0 <Error_Handler>
    Error_Handler();
 8000aec:	f7ff ff58 	bl	80009a0 <Error_Handler>
 8000af0:	2000213c 	.word	0x2000213c
 8000af4:	40012c00 	.word	0x40012c00

08000af8 <MX_TIM3_Init>:
{
 8000af8:	b500      	push	{lr}
 8000afa:	b087      	sub	sp, #28
  TIM_ClockConfigTypeDef sClockSourceConfig = {0};
 8000afc:	2300      	movs	r3, #0
 8000afe:	9302      	str	r3, [sp, #8]
 8000b00:	9303      	str	r3, [sp, #12]
 8000b02:	9304      	str	r3, [sp, #16]
 8000b04:	9305      	str	r3, [sp, #20]
  TIM_MasterConfigTypeDef sMasterConfig = {0};
 8000b06:	9300      	str	r3, [sp, #0]
 8000b08:	9301      	str	r3, [sp, #4]
  htim3.Instance = TIM3;
 8000b0a:	4814      	ldr	r0, [pc, #80]	; (8000b5c <MX_TIM3_Init+0x64>)
 8000b0c:	4a14      	ldr	r2, [pc, #80]	; (8000b60 <MX_TIM3_Init+0x68>)
 8000b0e:	6002      	str	r2, [r0, #0]
  htim3.Init.Prescaler = 99;
 8000b10:	2263      	movs	r2, #99	; 0x63
 8000b12:	6042      	str	r2, [r0, #4]
  htim3.Init.CounterMode = TIM_COUNTERMODE_UP;
 8000b14:	6083      	str	r3, [r0, #8]
  htim3.Init.Period = 9;
 8000b16:	2209      	movs	r2, #9
 8000b18:	60c2      	str	r2, [r0, #12]
  htim3.Init.ClockDivision = TIM_CLOCKDIVISION_DIV1;
 8000b1a:	6103      	str	r3, [r0, #16]
  htim3.Init.AutoReloadPreload = TIM_AUTORELOAD_PRELOAD_ENABLE;
 8000b1c:	2380      	movs	r3, #128	; 0x80
 8000b1e:	6183      	str	r3, [r0, #24]
  if (HAL_TIM_Base_Init(&htim3) != HAL_OK)
 8000b20:	f004 ff1e 	bl	8005960 <HAL_TIM_Base_Init>
 8000b24:	b998      	cbnz	r0, 8000b4e <MX_TIM3_Init+0x56>
  sClockSourceConfig.ClockSource = TIM_CLOCKSOURCE_INTERNAL;
 8000b26:	f44f 5380 	mov.w	r3, #4096	; 0x1000
 8000b2a:	9302      	str	r3, [sp, #8]
  if (HAL_TIM_ConfigClockSource(&htim3, &sClockSourceConfig) != HAL_OK)
 8000b2c:	a902      	add	r1, sp, #8
 8000b2e:	480b      	ldr	r0, [pc, #44]	; (8000b5c <MX_TIM3_Init+0x64>)
 8000b30:	f004 ff4d 	bl	80059ce <HAL_TIM_ConfigClockSource>
 8000b34:	b968      	cbnz	r0, 8000b52 <MX_TIM3_Init+0x5a>
  sMasterConfig.MasterOutputTrigger = TIM_TRGO_UPDATE;
 8000b36:	2320      	movs	r3, #32
 8000b38:	9300      	str	r3, [sp, #0]
  sMasterConfig.MasterSlaveMode = TIM_MASTERSLAVEMODE_DISABLE;
 8000b3a:	2300      	movs	r3, #0
 8000b3c:	9301      	str	r3, [sp, #4]
  if (HAL_TIMEx_MasterConfigSynchronization(&htim3, &sMasterConfig) != HAL_OK)
 8000b3e:	4669      	mov	r1, sp
 8000b40:	4806      	ldr	r0, [pc, #24]	; (8000b5c <MX_TIM3_Init+0x64>)
 8000b42:	f004 ffc3 	bl	8005acc <HAL_TIMEx_MasterConfigSynchronization>
 8000b46:	b930      	cbnz	r0, 8000b56 <MX_TIM3_Init+0x5e>
}
 8000b48:	b007      	add	sp, #28
 8000b4a:	f85d fb04 	ldr.w	pc, [sp], #4
    Error_Handler();
 8000b4e:	f7ff ff27 	bl	80009a0 <Error_Handler>
    Error_Handler();
 8000b52:	f7ff ff25 	bl	80009a0 <Error_Handler>
    Error_Handler();
 8000b56:	f7ff ff23 	bl	80009a0 <Error_Handler>
 8000b5a:	bf00      	nop
 8000b5c:	20002080 	.word	0x20002080
 8000b60:	40000400 	.word	0x40000400

08000b64 <SystemClock_Config>:
{
 8000b64:	b500      	push	{lr}
 8000b66:	b095      	sub	sp, #84	; 0x54
  RCC_OscInitTypeDef RCC_OscInitStruct = {0};
 8000b68:	2300      	movs	r3, #0
 8000b6a:	930d      	str	r3, [sp, #52]	; 0x34
 8000b6c:	930f      	str	r3, [sp, #60]	; 0x3c
 8000b6e:	9310      	str	r3, [sp, #64]	; 0x40
  RCC_ClkInitTypeDef RCC_ClkInitStruct = {0};
 8000b70:	9305      	str	r3, [sp, #20]
 8000b72:	9306      	str	r3, [sp, #24]
 8000b74:	9307      	str	r3, [sp, #28]
 8000b76:	9308      	str	r3, [sp, #32]
 8000b78:	9309      	str	r3, [sp, #36]	; 0x24
  RCC_PeriphCLKInitTypeDef PeriphClkInit = {0};
 8000b7a:	9301      	str	r3, [sp, #4]
 8000b7c:	9302      	str	r3, [sp, #8]
 8000b7e:	9303      	str	r3, [sp, #12]
 8000b80:	9304      	str	r3, [sp, #16]
  RCC_OscInitStruct.OscillatorType = RCC_OSCILLATORTYPE_HSE;
 8000b82:	2201      	movs	r2, #1
 8000b84:	920a      	str	r2, [sp, #40]	; 0x28
  RCC_OscInitStruct.HSEState = RCC_HSE_ON;
 8000b86:	f44f 3380 	mov.w	r3, #65536	; 0x10000
 8000b8a:	930b      	str	r3, [sp, #44]	; 0x2c
  RCC_OscInitStruct.HSEPredivValue = RCC_HSE_PREDIV_DIV2;
 8000b8c:	f44f 3100 	mov.w	r1, #131072	; 0x20000
 8000b90:	910c      	str	r1, [sp, #48]	; 0x30
  RCC_OscInitStruct.HSIState = RCC_HSI_ON;
 8000b92:	920e      	str	r2, [sp, #56]	; 0x38
  RCC_OscInitStruct.PLL.PLLState = RCC_PLL_ON;
 8000b94:	2202      	movs	r2, #2
 8000b96:	9211      	str	r2, [sp, #68]	; 0x44
  RCC_OscInitStruct.PLL.PLLSource = RCC_PLLSOURCE_HSE;
 8000b98:	9312      	str	r3, [sp, #72]	; 0x48
  RCC_OscInitStruct.PLL.PLLMUL = RCC_PLL_MUL6;
 8000b9a:	f44f 1380 	mov.w	r3, #1048576	; 0x100000
 8000b9e:	9313      	str	r3, [sp, #76]	; 0x4c
  if (HAL_RCC_OscConfig(&RCC_OscInitStruct) != HAL_OK)
 8000ba0:	a80a      	add	r0, sp, #40	; 0x28
 8000ba2:	f004 fa9b 	bl	80050dc <HAL_RCC_OscConfig>
 8000ba6:	b9e8      	cbnz	r0, 8000be4 <SystemClock_Config+0x80>
  RCC_ClkInitStruct.ClockType = RCC_CLOCKTYPE_HCLK|RCC_CLOCKTYPE_SYSCLK
 8000ba8:	230f      	movs	r3, #15
 8000baa:	9305      	str	r3, [sp, #20]
  RCC_ClkInitStruct.SYSCLKSource = RCC_SYSCLKSOURCE_PLLCLK;
 8000bac:	2302      	movs	r3, #2
 8000bae:	9306      	str	r3, [sp, #24]
  RCC_ClkInitStruct.AHBCLKDivider = RCC_SYSCLK_DIV1;
 8000bb0:	2300      	movs	r3, #0
 8000bb2:	9307      	str	r3, [sp, #28]
  RCC_ClkInitStruct.APB1CLKDivider = RCC_HCLK_DIV2;
 8000bb4:	f44f 6280 	mov.w	r2, #1024	; 0x400
 8000bb8:	9208      	str	r2, [sp, #32]
  RCC_ClkInitStruct.APB2CLKDivider = RCC_HCLK_DIV1;
 8000bba:	9309      	str	r3, [sp, #36]	; 0x24
  if (HAL_RCC_ClockConfig(&RCC_ClkInitStruct, FLASH_LATENCY_1) != HAL_OK)
 8000bbc:	2101      	movs	r1, #1
 8000bbe:	a805      	add	r0, sp, #20
 8000bc0:	f004 fcc4 	bl	800554c <HAL_RCC_ClockConfig>
 8000bc4:	b980      	cbnz	r0, 8000be8 <SystemClock_Config+0x84>
  PeriphClkInit.PeriphClockSelection = RCC_PERIPHCLK_ADC|RCC_PERIPHCLK_USB;
 8000bc6:	2312      	movs	r3, #18
 8000bc8:	9301      	str	r3, [sp, #4]
  PeriphClkInit.AdcClockSelection = RCC_ADCPCLK2_DIV4;
 8000bca:	f44f 4380 	mov.w	r3, #16384	; 0x4000
 8000bce:	9303      	str	r3, [sp, #12]
  PeriphClkInit.UsbClockSelection = RCC_USBCLKSOURCE_PLL;
 8000bd0:	f44f 0380 	mov.w	r3, #4194304	; 0x400000
 8000bd4:	9304      	str	r3, [sp, #16]
  if (HAL_RCCEx_PeriphCLKConfig(&PeriphClkInit) != HAL_OK)
 8000bd6:	a801      	add	r0, sp, #4
 8000bd8:	f004 fd94 	bl	8005704 <HAL_RCCEx_PeriphCLKConfig>
 8000bdc:	b930      	cbnz	r0, 8000bec <SystemClock_Config+0x88>
}
 8000bde:	b015      	add	sp, #84	; 0x54
 8000be0:	f85d fb04 	ldr.w	pc, [sp], #4
    Error_Handler();
 8000be4:	f7ff fedc 	bl	80009a0 <Error_Handler>
    Error_Handler();
 8000be8:	f7ff feda 	bl	80009a0 <Error_Handler>
    Error_Handler();
 8000bec:	f7ff fed8 	bl	80009a0 <Error_Handler>

08000bf0 <main>:
{
 8000bf0:	b570      	push	{r4, r5, r6, lr}
  HAL_Init();
 8000bf2:	f002 fb2d 	bl	8003250 <HAL_Init>
  SystemClock_Config();
 8000bf6:	f7ff ffb5 	bl	8000b64 <SystemClock_Config>
  HAL_Delay(10);
 8000bfa:	200a      	movs	r0, #10
 8000bfc:	f002 fb4c 	bl	8003298 <HAL_Delay>
  MX_GPIO_Init();
 8000c00:	f7ff fdd0 	bl	80007a4 <MX_GPIO_Init>
  MX_DMA_Init();
 8000c04:	f7ff fe1e 	bl	8000844 <MX_DMA_Init>
  MX_ADC1_Init();
 8000c08:	f7ff fecc 	bl	80009a4 <MX_ADC1_Init>
  MX_USART3_UART_Init();
 8000c0c:	f7ff ff24 	bl	8000a58 <MX_USART3_UART_Init>
  MX_TIM1_Init();
 8000c10:	f7ff ff3c 	bl	8000a8c <MX_TIM1_Init>
  MX_TIM3_Init();
 8000c14:	f7ff ff70 	bl	8000af8 <MX_TIM3_Init>
  uint8_t k1 = HAL_GPIO_ReadPin(K1_GPIO_Port, K1_Pin);
 8000c18:	f44f 4100 	mov.w	r1, #32768	; 0x8000
 8000c1c:	481b      	ldr	r0, [pc, #108]	; (8000c8c <main+0x9c>)
 8000c1e:	f003 fa27 	bl	8004070 <HAL_GPIO_ReadPin>
 8000c22:	4605      	mov	r5, r0
  uint8_t k2 = HAL_GPIO_ReadPin(K2_GPIO_Port, K2_Pin);
 8000c24:	4e1a      	ldr	r6, [pc, #104]	; (8000c90 <main+0xa0>)
 8000c26:	2108      	movs	r1, #8
 8000c28:	4630      	mov	r0, r6
 8000c2a:	f003 fa21 	bl	8004070 <HAL_GPIO_ReadPin>
 8000c2e:	4604      	mov	r4, r0
  uint8_t k3 = HAL_GPIO_ReadPin(K3_GPIO_Port, K3_Pin);
 8000c30:	2110      	movs	r1, #16
 8000c32:	4630      	mov	r0, r6
 8000c34:	f003 fa1c 	bl	8004070 <HAL_GPIO_ReadPin>
  if((k1 == 0) || (k2 == 0) || (k3 == 0))
 8000c38:	b10d      	cbz	r5, 8000c3e <main+0x4e>
 8000c3a:	b104      	cbz	r4, 8000c3e <main+0x4e>
 8000c3c:	bb10      	cbnz	r0, 8000c84 <main+0x94>
	  g_USB_device_type = DEVICE_TYPE_DRUMCONTROLLER;
 8000c3e:	4b15      	ldr	r3, [pc, #84]	; (8000c94 <main+0xa4>)
 8000c40:	2201      	movs	r2, #1
 8000c42:	701a      	strb	r2, [r3, #0]
  MX_USB_DEVICE_Init();
 8000c44:	f007 f81a 	bl	8007c7c <MX_USB_DEVICE_Init>
  HAL_ADC_Start_DMA(&hadc1, (uint32_t*)arrADC1_DMA, DMA_BUFFER_SAMPLES);
 8000c48:	f44f 72f0 	mov.w	r2, #480	; 0x1e0
 8000c4c:	4912      	ldr	r1, [pc, #72]	; (8000c98 <main+0xa8>)
 8000c4e:	4813      	ldr	r0, [pc, #76]	; (8000c9c <main+0xac>)
 8000c50:	f002 fc52 	bl	80034f8 <HAL_ADC_Start_DMA>
  HAL_TIM_Base_Start_IT(&htim3); // start TIM3 so ADC will start
 8000c54:	4812      	ldr	r0, [pc, #72]	; (8000ca0 <main+0xb0>)
 8000c56:	f004 fe0d 	bl	8005874 <HAL_TIM_Base_Start_IT>
  piezosensor_init();
 8000c5a:	f000 f957 	bl	8000f0c <piezosensor_init>
  debug_init();
 8000c5e:	f000 fd19 	bl	8001694 <debug_init>
  sensor_config_init();
 8000c62:	f000 ff5d 	bl	8001b20 <sensor_config_init>
  HAL_GPIO_WritePin(XGOOD_GPIO_Port, XGOOD_Pin, GPIO_PIN_RESET);
 8000c66:	2200      	movs	r2, #0
 8000c68:	2120      	movs	r1, #32
 8000c6a:	4809      	ldr	r0, [pc, #36]	; (8000c90 <main+0xa0>)
 8000c6c:	f003 fa07 	bl	800407e <HAL_GPIO_WritePin>
    uart_terminal_tick(g_system_ms);
 8000c70:	4c0c      	ldr	r4, [pc, #48]	; (8000ca4 <main+0xb4>)
 8000c72:	6820      	ldr	r0, [r4, #0]
 8000c74:	f001 fdae 	bl	80027d4 <uart_terminal_tick>
    usb_cdc_process();
 8000c78:	f001 ff0a 	bl	8002a90 <usb_cdc_process>
    xgood_led_blink_handler(g_system_ms);
 8000c7c:	6820      	ldr	r0, [r4, #0]
 8000c7e:	f7ff fe03 	bl	8000888 <xgood_led_blink_handler>
  while (1)
 8000c82:	e7f5      	b.n	8000c70 <main+0x80>
	  g_USB_device_type = DEVICE_TYPE_KEYBOARD_CDC_COMPOSITE;
 8000c84:	4b03      	ldr	r3, [pc, #12]	; (8000c94 <main+0xa4>)
 8000c86:	2200      	movs	r2, #0
 8000c88:	701a      	strb	r2, [r3, #0]
 8000c8a:	e7db      	b.n	8000c44 <main+0x54>
 8000c8c:	40010800 	.word	0x40010800
 8000c90:	40010c00 	.word	0x40010c00
 8000c94:	20001ba9 	.word	0x20001ba9
 8000c98:	200004c4 	.word	0x200004c4
 8000c9c:	200020c8 	.word	0x200020c8
 8000ca0:	20002080 	.word	0x20002080
 8000ca4:	200011e4 	.word	0x200011e4

08000ca8 <ring_buffer_add>:
 *      Runs every 1ms. No critical section - accepts dirty reads from main loop.
 */
static void ring_buffer_add(PiezoSensor_t *sensor, uint16_t value)
{
    /* Add value at head position */
    sensor->envelope_ring_buffer[sensor->ring_buffer_head] = value;
 8000ca8:	f8b0 3202 	ldrh.w	r3, [r0, #514]	; 0x202
 8000cac:	eb00 0243 	add.w	r2, r0, r3, lsl #1
 8000cb0:	8051      	strh	r1, [r2, #2]

    /* Increment head */
    sensor->ring_buffer_head++;
 8000cb2:	3301      	adds	r3, #1
 8000cb4:	b29b      	uxth	r3, r3
 8000cb6:	f8a0 3202 	strh.w	r3, [r0, #514]	; 0x202
    if (sensor->ring_buffer_head >= ENVELOPE_RING_BUFFER_SIZE) {
 8000cba:	2bff      	cmp	r3, #255	; 0xff
 8000cbc:	d902      	bls.n	8000cc4 <ring_buffer_add+0x1c>
        sensor->ring_buffer_head = 0;
 8000cbe:	2300      	movs	r3, #0
 8000cc0:	f8a0 3202 	strh.w	r3, [r0, #514]	; 0x202
    }

    /* If buffer is full, increment tail to maintain window size */
    if (sensor->ring_buffer_count >= ENVELOPE_RING_BUFFER_SIZE) {
 8000cc4:	f8b0 3206 	ldrh.w	r3, [r0, #518]	; 0x206
 8000cc8:	2bff      	cmp	r3, #255	; 0xff
 8000cca:	d90b      	bls.n	8000ce4 <ring_buffer_add+0x3c>
        sensor->ring_buffer_tail++;
 8000ccc:	f8b0 3204 	ldrh.w	r3, [r0, #516]	; 0x204
 8000cd0:	3301      	adds	r3, #1
 8000cd2:	b29b      	uxth	r3, r3
 8000cd4:	f8a0 3204 	strh.w	r3, [r0, #516]	; 0x204
        if (sensor->ring_buffer_tail >= ENVELOPE_RING_BUFFER_SIZE) {
 8000cd8:	2bff      	cmp	r3, #255	; 0xff
 8000cda:	d906      	bls.n	8000cea <ring_buffer_add+0x42>
            sensor->ring_buffer_tail = 0;
 8000cdc:	2300      	movs	r3, #0
 8000cde:	f8a0 3204 	strh.w	r3, [r0, #516]	; 0x204
 8000ce2:	4770      	bx	lr
        }
        /* Count stays the same when buffer is full (fixed-size window) */
    } else {
        sensor->ring_buffer_count++;
 8000ce4:	3301      	adds	r3, #1
 8000ce6:	f8a0 3206 	strh.w	r3, [r0, #518]	; 0x206
    }
}
 8000cea:	4770      	bx	lr

08000cec <ring_buffer_get_average>:
 * @param sensor Pointer to the sensor structure
 * @return Average value * 10 (fixed-point with 1 decimal place)
 * @note Accepts dirty reads - main loop may read slightly stale data from ISR updates
 */
static uint32_t ring_buffer_get_average(PiezoSensor_t *sensor)
{
 8000cec:	b410      	push	{r4}
    if (sensor->ring_buffer_count == 0) {
 8000cee:	f8b0 4206 	ldrh.w	r4, [r0, #518]	; 0x206
 8000cf2:	b1ac      	cbz	r4, 8000d20 <ring_buffer_get_average+0x34>
        return 0;
    }

    uint32_t sum = 0;
    for (uint16_t i = 0; i < sensor->ring_buffer_count; i++) {
 8000cf4:	2200      	movs	r2, #0
    uint32_t sum = 0;
 8000cf6:	4611      	mov	r1, r2
    for (uint16_t i = 0; i < sensor->ring_buffer_count; i++) {
 8000cf8:	4294      	cmp	r4, r2
 8000cfa:	d90a      	bls.n	8000d12 <ring_buffer_get_average+0x26>
        uint16_t idx = (sensor->ring_buffer_tail + i) & (ENVELOPE_RING_BUFFER_MOD_MASK);
 8000cfc:	f8b0 3204 	ldrh.w	r3, [r0, #516]	; 0x204
 8000d00:	4413      	add	r3, r2
 8000d02:	b2db      	uxtb	r3, r3
        sum += sensor->envelope_ring_buffer[idx];
 8000d04:	eb00 0343 	add.w	r3, r0, r3, lsl #1
 8000d08:	885b      	ldrh	r3, [r3, #2]
 8000d0a:	4419      	add	r1, r3
    for (uint16_t i = 0; i < sensor->ring_buffer_count; i++) {
 8000d0c:	3201      	adds	r2, #1
 8000d0e:	b292      	uxth	r2, r2
 8000d10:	e7f2      	b.n	8000cf8 <ring_buffer_get_average+0xc>
    }

    /* Return as fixed-point * 10 (multiply by 10 early to preserve precision) */
    return (sum * 10) / sensor->ring_buffer_count;
 8000d12:	eb01 0181 	add.w	r1, r1, r1, lsl #2
 8000d16:	0048      	lsls	r0, r1, #1
 8000d18:	fbb0 f0f4 	udiv	r0, r0, r4
}
 8000d1c:	bc10      	pop	{r4}
 8000d1e:	4770      	bx	lr
        return 0;
 8000d20:	2000      	movs	r0, #0
 8000d22:	e7fb      	b.n	8000d1c <ring_buffer_get_average+0x30>

08000d24 <ring_buffer_get_latest>:
 * @param sensor Pointer to the sensor structure
 * @return Latest envelope value or 0 if buffer empty
 * @note Accepts dirty reads - may return slightly stale data if ISR updates simultaneously
 */
static uint16_t ring_buffer_get_latest(PiezoSensor_t *sensor)
{
 8000d24:	4603      	mov	r3, r0
    if (sensor->ring_buffer_count == 0) {
 8000d26:	f8b0 0206 	ldrh.w	r0, [r0, #518]	; 0x206
 8000d2a:	b148      	cbz	r0, 8000d40 <ring_buffer_get_latest+0x1c>
        return 0;
    }

    /* Latest is one position before head (accounting for wrap) */
    uint16_t latest_idx = (sensor->ring_buffer_head == 0) ?
 8000d2c:	f8b3 2202 	ldrh.w	r2, [r3, #514]	; 0x202
 8000d30:	b112      	cbz	r2, 8000d38 <ring_buffer_get_latest+0x14>
 8000d32:	3a01      	subs	r2, #1
 8000d34:	b290      	uxth	r0, r2
 8000d36:	e000      	b.n	8000d3a <ring_buffer_get_latest+0x16>
 8000d38:	20ff      	movs	r0, #255	; 0xff
                          (ENVELOPE_RING_BUFFER_SIZE - 1) :
                          (sensor->ring_buffer_head - 1);

    return sensor->envelope_ring_buffer[latest_idx];
 8000d3a:	eb03 0340 	add.w	r3, r3, r0, lsl #1
 8000d3e:	8858      	ldrh	r0, [r3, #2]
}
 8000d40:	4770      	bx	lr
	...

08000d44 <wait_for_trigger_state>:
            break;
    }
}

static void wait_for_trigger_state(void)
{
 8000d44:	b5f8      	push	{r3, r4, r5, r6, r7, lr}
	/* get the max ring buffer value among all sensors */
	uint16_t max_envelope = 0;
	for(int i = 0; i< SENSORS_ACTIVE; i++)
 8000d46:	2400      	movs	r4, #0
	uint16_t max_envelope = 0;
 8000d48:	4626      	mov	r6, r4
	for(int i = 0; i< SENSORS_ACTIVE; i++)
 8000d4a:	e000      	b.n	8000d4e <wait_for_trigger_state+0xa>
 8000d4c:	3401      	adds	r4, #1
 8000d4e:	2c03      	cmp	r4, #3
 8000d50:	dc0a      	bgt.n	8000d68 <wait_for_trigger_state+0x24>
	{
		/* Get latest envelope value */
		uint16_t latest_envelope = ring_buffer_get_latest(&g_sensors[i]);
 8000d52:	4b30      	ldr	r3, [pc, #192]	; (8000e14 <wait_for_trigger_state+0xd0>)
 8000d54:	f44f 7014 	mov.w	r0, #592	; 0x250
 8000d58:	fb00 3004 	mla	r0, r0, r4, r3
 8000d5c:	f7ff ffe2 	bl	8000d24 <ring_buffer_get_latest>
		if(latest_envelope > max_envelope)
 8000d60:	4286      	cmp	r6, r0
 8000d62:	d2f3      	bcs.n	8000d4c <wait_for_trigger_state+0x8>
			max_envelope = latest_envelope;
 8000d64:	4606      	mov	r6, r0
 8000d66:	e7f1      	b.n	8000d4c <wait_for_trigger_state+0x8>
	}

    /* Check each active sensor that is not in cooldown */

	for (int i = 0; i < SENSORS_ACTIVE; i++) {
 8000d68:	2400      	movs	r4, #0
 8000d6a:	e01c      	b.n	8000da6 <wait_for_trigger_state+0x62>
            /* Add all active sensors to tournament and boost the threshold */
            for (int j = 0; j < SENSORS_ACTIVE; j++) {
//                if (g_sensors[j].cooldown_state == COOLDOWN_STATE_ACTIVE)
            	if(1) // add all sensors to be eligible for tournament, no matter cooling down
                {
                    g_tournament.contender_sensors[g_tournament.num_contenders++] = j;
 8000d6c:	4b2a      	ldr	r3, [pc, #168]	; (8000e18 <wait_for_trigger_state+0xd4>)
 8000d6e:	791a      	ldrb	r2, [r3, #4]
 8000d70:	1c51      	adds	r1, r2, #1
 8000d72:	7119      	strb	r1, [r3, #4]
 8000d74:	549c      	strb	r4, [r3, r2]
                    g_sensors[j].rms_accumulator = 0;  // Reset accumulator
 8000d76:	4b27      	ldr	r3, [pc, #156]	; (8000e14 <wait_for_trigger_state+0xd0>)
 8000d78:	f44f 7514 	mov.w	r5, #592	; 0x250
 8000d7c:	fb05 3504 	mla	r5, r5, r4, r3
 8000d80:	2300      	movs	r3, #0
 8000d82:	f8c5 3210 	str.w	r3, [r5, #528]	; 0x210
                    g_sensors[j].rms_sample_count = 0;
 8000d86:	f8a5 3214 	strh.w	r3, [r5, #532]	; 0x214
                    g_sensors[j].adjusted_threshold = (float)max_envelope * g_trigger_fsm.threshold_multiplier_boost;
 8000d8a:	4630      	mov	r0, r6
 8000d8c:	f7ff faa6 	bl	80002dc <__aeabi_ui2f>
 8000d90:	4b22      	ldr	r3, [pc, #136]	; (8000e1c <wait_for_trigger_state+0xd8>)
 8000d92:	6959      	ldr	r1, [r3, #20]
 8000d94:	f7ff fafa 	bl	800038c <__aeabi_fmul>
 8000d98:	f8c5 024c 	str.w	r0, [r5, #588]	; 0x24c
            for (int j = 0; j < SENSORS_ACTIVE; j++) {
 8000d9c:	3401      	adds	r4, #1
 8000d9e:	2c03      	cmp	r4, #3
 8000da0:	dde4      	ble.n	8000d6c <wait_for_trigger_state+0x28>
            }

            return;
        }
    }
}
 8000da2:	bdf8      	pop	{r3, r4, r5, r6, r7, pc}
	for (int i = 0; i < SENSORS_ACTIVE; i++) {
 8000da4:	3401      	adds	r4, #1
 8000da6:	2c03      	cmp	r4, #3
 8000da8:	dcfb      	bgt.n	8000da2 <wait_for_trigger_state+0x5e>
        if (g_sensors[i].cooldown_state != COOLDOWN_STATE_ACTIVE) {
 8000daa:	f44f 7314 	mov.w	r3, #592	; 0x250
 8000dae:	fb03 f304 	mul.w	r3, r3, r4
 8000db2:	4a18      	ldr	r2, [pc, #96]	; (8000e14 <wait_for_trigger_state+0xd0>)
 8000db4:	5cd3      	ldrb	r3, [r2, r3]
 8000db6:	2b00      	cmp	r3, #0
 8000db8:	d1f4      	bne.n	8000da4 <wait_for_trigger_state+0x60>
        uint16_t latest_envelope = ring_buffer_get_latest(&g_sensors[i]);
 8000dba:	f44f 7514 	mov.w	r5, #592	; 0x250
 8000dbe:	fb05 2504 	mla	r5, r5, r4, r2
 8000dc2:	4628      	mov	r0, r5
 8000dc4:	f7ff ffae 	bl	8000d24 <ring_buffer_get_latest>
 8000dc8:	4607      	mov	r7, r0
		g_sensors[i].trigger_value = latest_envelope;
 8000dca:	f8a5 020c 	strh.w	r0, [r5, #524]	; 0x20c
        if ((latest_envelope > g_sensors[i].adjusted_threshold) && (latest_envelope > ((max_envelope * 7) >> 3) )) {
 8000dce:	f7ff fa89 	bl	80002e4 <__aeabi_i2f>
 8000dd2:	f8d5 124c 	ldr.w	r1, [r5, #588]	; 0x24c
 8000dd6:	f7ff fc95 	bl	8000704 <__aeabi_fcmpgt>
 8000dda:	2800      	cmp	r0, #0
 8000ddc:	d0e2      	beq.n	8000da4 <wait_for_trigger_state+0x60>
 8000dde:	ebc6 03c6 	rsb	r3, r6, r6, lsl #3
 8000de2:	ebb7 0fe3 	cmp.w	r7, r3, asr #3
 8000de6:	dddd      	ble.n	8000da4 <wait_for_trigger_state+0x60>
        	g_sensors[i].tournament_bonus_multiplier = (uint32_t)(g_sensor_config.threshold_multiplier_boost * 10);
 8000de8:	4b0d      	ldr	r3, [pc, #52]	; (8000e20 <wait_for_trigger_state+0xdc>)
 8000dea:	f8d3 0022 	ldr.w	r0, [r3, #34]	; 0x22
 8000dee:	490d      	ldr	r1, [pc, #52]	; (8000e24 <wait_for_trigger_state+0xe0>)
 8000df0:	f7ff facc 	bl	800038c <__aeabi_fmul>
 8000df4:	f7ff fcb6 	bl	8000764 <__aeabi_f2uiz>
 8000df8:	f8c5 0234 	str.w	r0, [r5, #564]	; 0x234
            g_trigger_fsm.state = TRIGGER_STATE_TOURNAMENT;
 8000dfc:	4b07      	ldr	r3, [pc, #28]	; (8000e1c <wait_for_trigger_state+0xd8>)
 8000dfe:	2201      	movs	r2, #1
 8000e00:	701a      	strb	r2, [r3, #0]
            g_trigger_fsm.tournament_start_ms = g_system_ms;
 8000e02:	4a09      	ldr	r2, [pc, #36]	; (8000e28 <wait_for_trigger_state+0xe4>)
 8000e04:	6812      	ldr	r2, [r2, #0]
 8000e06:	605a      	str	r2, [r3, #4]
            g_tournament.num_contenders = 0;
 8000e08:	4b03      	ldr	r3, [pc, #12]	; (8000e18 <wait_for_trigger_state+0xd4>)
 8000e0a:	2400      	movs	r4, #0
 8000e0c:	711c      	strb	r4, [r3, #4]
            g_tournament.winner_idx = 0;
 8000e0e:	715c      	strb	r4, [r3, #5]
            g_tournament.best_rms = 0;  // Fixed-point *10
 8000e10:	609c      	str	r4, [r3, #8]
            for (int j = 0; j < SENSORS_ACTIVE; j++) {
 8000e12:	e7c4      	b.n	8000d9e <wait_for_trigger_state+0x5a>
 8000e14:	200008a4 	.word	0x200008a4
 8000e18:	200011e8 	.word	0x200011e8
 8000e1c:	200011f4 	.word	0x200011f4
 8000e20:	2000121c 	.word	0x2000121c
 8000e24:	41200000 	.word	0x41200000
 8000e28:	200011e4 	.word	0x200011e4

08000e2c <tournament_state>:

static void tournament_state(void)
{
 8000e2c:	b538      	push	{r3, r4, r5, lr}
    /* Calculate average envelope for each contender during tournament */
    for (int i = 0; i < g_tournament.num_contenders; i++) {
 8000e2e:	2500      	movs	r5, #0
 8000e30:	e012      	b.n	8000e58 <tournament_state+0x2c>
        {
        	g_sensors[sensor_id].rms_accumulator = g_sensors[sensor_id].trigger_value;
        	g_sensors[sensor_id].rms_sample_count = 1;
        }
        /* Get latest envelope and add to accumulator */
        uint16_t envelope = ring_buffer_get_latest(&g_sensors[sensor_id]);
 8000e32:	4b32      	ldr	r3, [pc, #200]	; (8000efc <tournament_state+0xd0>)
 8000e34:	f44f 7214 	mov.w	r2, #592	; 0x250
 8000e38:	fb02 3404 	mla	r4, r2, r4, r3
 8000e3c:	4620      	mov	r0, r4
 8000e3e:	f7ff ff71 	bl	8000d24 <ring_buffer_get_latest>
        g_sensors[sensor_id].rms_accumulator += envelope;
 8000e42:	f8d4 3210 	ldr.w	r3, [r4, #528]	; 0x210
 8000e46:	4403      	add	r3, r0
 8000e48:	f8c4 3210 	str.w	r3, [r4, #528]	; 0x210
        g_sensors[sensor_id].rms_sample_count++;
 8000e4c:	f8b4 3214 	ldrh.w	r3, [r4, #532]	; 0x214
 8000e50:	3301      	adds	r3, #1
 8000e52:	f8a4 3214 	strh.w	r3, [r4, #532]	; 0x214
    for (int i = 0; i < g_tournament.num_contenders; i++) {
 8000e56:	3501      	adds	r5, #1
 8000e58:	4b29      	ldr	r3, [pc, #164]	; (8000f00 <tournament_state+0xd4>)
 8000e5a:	791b      	ldrb	r3, [r3, #4]
 8000e5c:	42ab      	cmp	r3, r5
 8000e5e:	dd16      	ble.n	8000e8e <tournament_state+0x62>
        uint8_t sensor_id = g_tournament.contender_sensors[i];
 8000e60:	4b27      	ldr	r3, [pc, #156]	; (8000f00 <tournament_state+0xd4>)
 8000e62:	5d5c      	ldrb	r4, [r3, r5]
        if(g_sensors[sensor_id].rms_sample_count == 0)
 8000e64:	4a25      	ldr	r2, [pc, #148]	; (8000efc <tournament_state+0xd0>)
 8000e66:	f44f 7314 	mov.w	r3, #592	; 0x250
 8000e6a:	fb03 2304 	mla	r3, r3, r4, r2
 8000e6e:	f8b3 3214 	ldrh.w	r3, [r3, #532]	; 0x214
 8000e72:	2b00      	cmp	r3, #0
 8000e74:	d1dd      	bne.n	8000e32 <tournament_state+0x6>
        	g_sensors[sensor_id].rms_accumulator = g_sensors[sensor_id].trigger_value;
 8000e76:	f44f 7314 	mov.w	r3, #592	; 0x250
 8000e7a:	fb03 2304 	mla	r3, r3, r4, r2
 8000e7e:	f8b3 220c 	ldrh.w	r2, [r3, #524]	; 0x20c
 8000e82:	f8c3 2210 	str.w	r2, [r3, #528]	; 0x210
        	g_sensors[sensor_id].rms_sample_count = 1;
 8000e86:	2201      	movs	r2, #1
 8000e88:	f8a3 2214 	strh.w	r2, [r3, #532]	; 0x214
 8000e8c:	e7d1      	b.n	8000e32 <tournament_state+0x6>
    }

    /* Check if tournament duration has elapsed */
    uint32_t elapsed_ms = g_system_ms - g_trigger_fsm.tournament_start_ms;
 8000e8e:	4a1d      	ldr	r2, [pc, #116]	; (8000f04 <tournament_state+0xd8>)
 8000e90:	6812      	ldr	r2, [r2, #0]
 8000e92:	491d      	ldr	r1, [pc, #116]	; (8000f08 <tournament_state+0xdc>)
 8000e94:	6848      	ldr	r0, [r1, #4]
 8000e96:	1a12      	subs	r2, r2, r0
    if (elapsed_ms >= g_trigger_fsm.tournament_duration_ms) {
 8000e98:	8989      	ldrh	r1, [r1, #12]
 8000e9a:	4291      	cmp	r1, r2
 8000e9c:	d927      	bls.n	8000eee <tournament_state+0xc2>
            }
        }

        g_trigger_fsm.state = TRIGGER_STATE_FINAL;
    }
}
 8000e9e:	bd38      	pop	{r3, r4, r5, pc}
        for (int i = 0; i < g_tournament.num_contenders; i++) {
 8000ea0:	3101      	adds	r1, #1
 8000ea2:	428b      	cmp	r3, r1
 8000ea4:	dd25      	ble.n	8000ef2 <tournament_state+0xc6>
            uint8_t sensor_id = g_tournament.contender_sensors[i];
 8000ea6:	4a16      	ldr	r2, [pc, #88]	; (8000f00 <tournament_state+0xd4>)
 8000ea8:	5c52      	ldrb	r2, [r2, r1]
            if (g_sensors[sensor_id].rms_sample_count > 0) {
 8000eaa:	4c14      	ldr	r4, [pc, #80]	; (8000efc <tournament_state+0xd0>)
 8000eac:	f44f 7014 	mov.w	r0, #592	; 0x250
 8000eb0:	fb00 4002 	mla	r0, r0, r2, r4
 8000eb4:	f8b0 0214 	ldrh.w	r0, [r0, #532]	; 0x214
 8000eb8:	2800      	cmp	r0, #0
 8000eba:	d0f1      	beq.n	8000ea0 <tournament_state+0x74>
                g_sensors[sensor_id].rms_value = (g_sensors[sensor_id].rms_accumulator * g_sensors[sensor_id].tournament_bonus_multiplier ) /
 8000ebc:	4620      	mov	r0, r4
 8000ebe:	f44f 7414 	mov.w	r4, #592	; 0x250
 8000ec2:	fb04 0202 	mla	r2, r4, r2, r0
 8000ec6:	f8d2 4210 	ldr.w	r4, [r2, #528]	; 0x210
 8000eca:	f8d2 0234 	ldr.w	r0, [r2, #564]	; 0x234
 8000ece:	fb00 f004 	mul.w	r0, r0, r4
                                               g_sensors[sensor_id].rms_sample_count;
 8000ed2:	f8b2 4214 	ldrh.w	r4, [r2, #532]	; 0x214
                g_sensors[sensor_id].rms_value = (g_sensors[sensor_id].rms_accumulator * g_sensors[sensor_id].tournament_bonus_multiplier ) /
 8000ed6:	fbb0 f0f4 	udiv	r0, r0, r4
 8000eda:	f8c2 0218 	str.w	r0, [r2, #536]	; 0x218
                if (g_sensors[sensor_id].rms_value > g_tournament.best_rms) {
 8000ede:	4a08      	ldr	r2, [pc, #32]	; (8000f00 <tournament_state+0xd4>)
 8000ee0:	6892      	ldr	r2, [r2, #8]
 8000ee2:	4290      	cmp	r0, r2
 8000ee4:	d9dc      	bls.n	8000ea0 <tournament_state+0x74>
                    g_tournament.best_rms = g_sensors[sensor_id].rms_value;
 8000ee6:	4a06      	ldr	r2, [pc, #24]	; (8000f00 <tournament_state+0xd4>)
 8000ee8:	6090      	str	r0, [r2, #8]
                    g_tournament.winner_idx = i;
 8000eea:	7151      	strb	r1, [r2, #5]
 8000eec:	e7d8      	b.n	8000ea0 <tournament_state+0x74>
        for (int i = 0; i < g_tournament.num_contenders; i++) {
 8000eee:	2100      	movs	r1, #0
 8000ef0:	e7d7      	b.n	8000ea2 <tournament_state+0x76>
        g_trigger_fsm.state = TRIGGER_STATE_FINAL;
 8000ef2:	4b05      	ldr	r3, [pc, #20]	; (8000f08 <tournament_state+0xdc>)
 8000ef4:	2202      	movs	r2, #2
 8000ef6:	701a      	strb	r2, [r3, #0]
}
 8000ef8:	e7d1      	b.n	8000e9e <tournament_state+0x72>
 8000efa:	bf00      	nop
 8000efc:	200008a4 	.word	0x200008a4
 8000f00:	200011e8 	.word	0x200011e8
 8000f04:	200011e4 	.word	0x200011e4
 8000f08:	200011f4 	.word	0x200011f4

08000f0c <piezosensor_init>:
{
 8000f0c:	b570      	push	{r4, r5, r6, lr}
    for (int i = 0; i < SENSORS_ACTIVE; i++) {
 8000f0e:	2400      	movs	r4, #0
 8000f10:	e07a      	b.n	8001008 <piezosensor_init+0xfc>
        if (i == 0) g_sensors[i].hid_keycode = SENSOR_0_KEYCODE;
 8000f12:	220e      	movs	r2, #14
 8000f14:	f885 221c 	strb.w	r2, [r5, #540]	; 0x21c
        if (i == 0) g_sensors[i].drumcontroller_keycode = SENSOR_0_DRUMCONTROLLER_KEYCODE;
 8000f18:	b304      	cbz	r4, 8000f5c <piezosensor_init+0x50>
        else if (i == 1) g_sensors[i].drumcontroller_keycode = SENSOR_1_DRUMCONTROLLER_KEYCODE;
 8000f1a:	2c01      	cmp	r4, #1
 8000f1c:	d03c      	beq.n	8000f98 <piezosensor_init+0x8c>
        else if (i == 2) g_sensors[i].drumcontroller_keycode = SENSOR_2_DRUMCONTROLLER_KEYCODE;
 8000f1e:	2c02      	cmp	r4, #2
 8000f20:	d044      	beq.n	8000fac <piezosensor_init+0xa0>
        else if (i == 3) g_sensors[i].drumcontroller_keycode = SENSOR_3_DRUMCONTROLLER_KEYCODE;
 8000f22:	2c03      	cmp	r4, #3
 8000f24:	d122      	bne.n	8000f6c <piezosensor_init+0x60>
 8000f26:	4a6c      	ldr	r2, [pc, #432]	; (80010d8 <piezosensor_init+0x1cc>)
 8000f28:	f44f 7314 	mov.w	r3, #592	; 0x250
 8000f2c:	fb03 2304 	mla	r3, r3, r4, r2
 8000f30:	2240      	movs	r2, #64	; 0x40
 8000f32:	f8a3 221e 	strh.w	r2, [r3, #542]	; 0x21e
 8000f36:	e019      	b.n	8000f6c <piezosensor_init+0x60>
        else if (i == 1) g_sensors[i].hid_keycode = SENSOR_1_KEYCODE;
 8000f38:	4a67      	ldr	r2, [pc, #412]	; (80010d8 <piezosensor_init+0x1cc>)
 8000f3a:	f44f 7314 	mov.w	r3, #592	; 0x250
 8000f3e:	fb03 2304 	mla	r3, r3, r4, r2
 8000f42:	220d      	movs	r2, #13
 8000f44:	f883 221c 	strb.w	r2, [r3, #540]	; 0x21c
 8000f48:	e7e6      	b.n	8000f18 <piezosensor_init+0xc>
        else if (i == 2) g_sensors[i].hid_keycode = SENSOR_2_KEYCODE;
 8000f4a:	4a63      	ldr	r2, [pc, #396]	; (80010d8 <piezosensor_init+0x1cc>)
 8000f4c:	f44f 7314 	mov.w	r3, #592	; 0x250
 8000f50:	fb03 2304 	mla	r3, r3, r4, r2
 8000f54:	2209      	movs	r2, #9
 8000f56:	f883 221c 	strb.w	r2, [r3, #540]	; 0x21c
 8000f5a:	e7dd      	b.n	8000f18 <piezosensor_init+0xc>
        if (i == 0) g_sensors[i].drumcontroller_keycode = SENSOR_0_DRUMCONTROLLER_KEYCODE;
 8000f5c:	4a5e      	ldr	r2, [pc, #376]	; (80010d8 <piezosensor_init+0x1cc>)
 8000f5e:	f44f 7314 	mov.w	r3, #592	; 0x250
 8000f62:	fb03 2304 	mla	r3, r3, r4, r2
 8000f66:	2280      	movs	r2, #128	; 0x80
 8000f68:	f8a3 221e 	strh.w	r2, [r3, #542]	; 0x21e
        if (i == 0) {
 8000f6c:	b344      	cbz	r4, 8000fc0 <piezosensor_init+0xb4>
        } else if (i == 1) {
 8000f6e:	2c01      	cmp	r4, #1
 8000f70:	f000 808b 	beq.w	800108a <piezosensor_init+0x17e>
        } else if (i == 2) {
 8000f74:	2c02      	cmp	r4, #2
 8000f76:	f000 8095 	beq.w	80010a4 <piezosensor_init+0x198>
        } else if (i == 3) {
 8000f7a:	2c03      	cmp	r4, #3
 8000f7c:	d12c      	bne.n	8000fd8 <piezosensor_init+0xcc>
            g_sensors[i].led_pin = LED_SENSOR_3;
 8000f7e:	4a56      	ldr	r2, [pc, #344]	; (80010d8 <piezosensor_init+0x1cc>)
 8000f80:	f44f 7314 	mov.w	r3, #592	; 0x250
 8000f84:	fb03 2304 	mla	r3, r3, r4, r2
 8000f88:	f44f 4200 	mov.w	r2, #32768	; 0x8000
 8000f8c:	f8a3 2220 	strh.w	r2, [r3, #544]	; 0x220
            g_sensors[i].led_port = LED_SENSOR_3_PORT;
 8000f90:	4a52      	ldr	r2, [pc, #328]	; (80010dc <piezosensor_init+0x1d0>)
 8000f92:	f8c3 2224 	str.w	r2, [r3, #548]	; 0x224
 8000f96:	e01f      	b.n	8000fd8 <piezosensor_init+0xcc>
        else if (i == 1) g_sensors[i].drumcontroller_keycode = SENSOR_1_DRUMCONTROLLER_KEYCODE;
 8000f98:	4a4f      	ldr	r2, [pc, #316]	; (80010d8 <piezosensor_init+0x1cc>)
 8000f9a:	f44f 7314 	mov.w	r3, #592	; 0x250
 8000f9e:	fb03 2304 	mla	r3, r3, r4, r2
 8000fa2:	f44f 6200 	mov.w	r2, #2048	; 0x800
 8000fa6:	f8a3 221e 	strh.w	r2, [r3, #542]	; 0x21e
 8000faa:	e7df      	b.n	8000f6c <piezosensor_init+0x60>
        else if (i == 2) g_sensors[i].drumcontroller_keycode = SENSOR_2_DRUMCONTROLLER_KEYCODE;
 8000fac:	4a4a      	ldr	r2, [pc, #296]	; (80010d8 <piezosensor_init+0x1cc>)
 8000fae:	f44f 7314 	mov.w	r3, #592	; 0x250
 8000fb2:	fb03 2304 	mla	r3, r3, r4, r2
 8000fb6:	f44f 6280 	mov.w	r2, #1024	; 0x400
 8000fba:	f8a3 221e 	strh.w	r2, [r3, #542]	; 0x21e
 8000fbe:	e7d5      	b.n	8000f6c <piezosensor_init+0x60>
            g_sensors[i].led_pin = LED_SENSOR_0;
 8000fc0:	4a45      	ldr	r2, [pc, #276]	; (80010d8 <piezosensor_init+0x1cc>)
 8000fc2:	f44f 7314 	mov.w	r3, #592	; 0x250
 8000fc6:	fb03 2304 	mla	r3, r3, r4, r2
 8000fca:	f44f 5280 	mov.w	r2, #4096	; 0x1000
 8000fce:	f8a3 2220 	strh.w	r2, [r3, #544]	; 0x220
            g_sensors[i].led_port = LED_SENSOR_0_PORT;
 8000fd2:	4a42      	ldr	r2, [pc, #264]	; (80010dc <piezosensor_init+0x1d0>)
 8000fd4:	f8c3 2224 	str.w	r2, [r3, #548]	; 0x224
        HAL_GPIO_WritePin(g_sensors[i].led_port, g_sensors[i].led_pin, GPIO_PIN_SET);
 8000fd8:	4b3f      	ldr	r3, [pc, #252]	; (80010d8 <piezosensor_init+0x1cc>)
 8000fda:	f44f 7514 	mov.w	r5, #592	; 0x250
 8000fde:	fb05 3504 	mla	r5, r5, r4, r3
 8000fe2:	2201      	movs	r2, #1
 8000fe4:	f8b5 1220 	ldrh.w	r1, [r5, #544]	; 0x220
 8000fe8:	f8d5 0224 	ldr.w	r0, [r5, #548]	; 0x224
 8000fec:	f003 f847 	bl	800407e <HAL_GPIO_WritePin>
        g_sensors[i].led_on_time_ms = 0;
 8000ff0:	2300      	movs	r3, #0
 8000ff2:	f8c5 3228 	str.w	r3, [r5, #552]	; 0x228
        g_sensors[i].key_pressed = false;
 8000ff6:	f885 3238 	strb.w	r3, [r5, #568]	; 0x238
        g_sensors[i].key_press_scheduled_time_ms = 0;
 8000ffa:	f8c5 323c 	str.w	r3, [r5, #572]	; 0x23c
        g_sensors[i].key_release_scheduled_time_ms = 0;
 8000ffe:	f8c5 3240 	str.w	r3, [r5, #576]	; 0x240
        g_sensors[i].last_dma_sample = 0;
 8001002:	f8a5 3244 	strh.w	r3, [r5, #580]	; 0x244
    for (int i = 0; i < SENSORS_ACTIVE; i++) {
 8001006:	3401      	adds	r4, #1
 8001008:	2c03      	cmp	r4, #3
 800100a:	dc58      	bgt.n	80010be <piezosensor_init+0x1b2>
        g_sensors[i].cooldown_state = COOLDOWN_STATE_ACTIVE;
 800100c:	4a32      	ldr	r2, [pc, #200]	; (80010d8 <piezosensor_init+0x1cc>)
 800100e:	f44f 7314 	mov.w	r3, #592	; 0x250
 8001012:	fb03 f304 	mul.w	r3, r3, r4
 8001016:	18d5      	adds	r5, r2, r3
 8001018:	2600      	movs	r6, #0
 800101a:	54d6      	strb	r6, [r2, r3]
        g_sensors[i].moving_average_10x = 0;  // 0 in fixed-point (*10)
 800101c:	f8c5 6208 	str.w	r6, [r5, #520]	; 0x208
        memset(g_sensors[i].envelope_ring_buffer, 0,
 8001020:	f44f 7200 	mov.w	r2, #512	; 0x200
 8001024:	4631      	mov	r1, r6
 8001026:	1ca8      	adds	r0, r5, #2
 8001028:	f007 f95c 	bl	80082e4 <memset>
        g_sensors[i].ring_buffer_head = 0;
 800102c:	f8a5 6202 	strh.w	r6, [r5, #514]	; 0x202
        g_sensors[i].ring_buffer_tail = 0;
 8001030:	f8a5 6204 	strh.w	r6, [r5, #516]	; 0x204
        g_sensors[i].ring_buffer_count = 0;
 8001034:	f8a5 6206 	strh.w	r6, [r5, #518]	; 0x206
        g_sensors[i].rms_accumulator = 0;       // Sum of envelope values (not squared now)
 8001038:	f8c5 6210 	str.w	r6, [r5, #528]	; 0x210
        g_sensors[i].rms_sample_count = 0;
 800103c:	f8a5 6214 	strh.w	r6, [r5, #532]	; 0x214
        g_sensors[i].rms_value = 0;             // 0 in fixed-point (*10)
 8001040:	f8c5 6218 	str.w	r6, [r5, #536]	; 0x218
        g_sensors[i].threshold_multiplier = 1.0f; // 1.0 in float
 8001044:	f04f 537e 	mov.w	r3, #1065353216	; 0x3f800000
 8001048:	f8c5 3248 	str.w	r3, [r5, #584]	; 0x248
        g_sensors[i].adjusted_threshold = g_sensor_config.trigger_threshold_base;
 800104c:	4b24      	ldr	r3, [pc, #144]	; (80010e0 <piezosensor_init+0x1d4>)
 800104e:	8b58      	ldrh	r0, [r3, #26]
 8001050:	f7ff f944 	bl	80002dc <__aeabi_ui2f>
 8001054:	f8c5 024c 	str.w	r0, [r5, #588]	; 0x24c
        g_sensors[i].last_trigger_ms = 0;
 8001058:	f8c5 622c 	str.w	r6, [r5, #556]	; 0x22c
        g_sensors[i].ma_hit_time_ms = 0;
 800105c:	f8c5 6230 	str.w	r6, [r5, #560]	; 0x230
        if (i == 0) g_sensors[i].hid_keycode = SENSOR_0_KEYCODE;
 8001060:	2c00      	cmp	r4, #0
 8001062:	f43f af56 	beq.w	8000f12 <piezosensor_init+0x6>
        else if (i == 1) g_sensors[i].hid_keycode = SENSOR_1_KEYCODE;
 8001066:	2c01      	cmp	r4, #1
 8001068:	f43f af66 	beq.w	8000f38 <piezosensor_init+0x2c>
        else if (i == 2) g_sensors[i].hid_keycode = SENSOR_2_KEYCODE;
 800106c:	2c02      	cmp	r4, #2
 800106e:	f43f af6c 	beq.w	8000f4a <piezosensor_init+0x3e>
        else if (i == 3) g_sensors[i].hid_keycode = SENSOR_3_KEYCODE;
 8001072:	2c03      	cmp	r4, #3
 8001074:	f47f af50 	bne.w	8000f18 <piezosensor_init+0xc>
 8001078:	4a17      	ldr	r2, [pc, #92]	; (80010d8 <piezosensor_init+0x1cc>)
 800107a:	f44f 7314 	mov.w	r3, #592	; 0x250
 800107e:	fb03 2304 	mla	r3, r3, r4, r2
 8001082:	2207      	movs	r2, #7
 8001084:	f883 221c 	strb.w	r2, [r3, #540]	; 0x21c
 8001088:	e746      	b.n	8000f18 <piezosensor_init+0xc>
            g_sensors[i].led_pin = LED_SENSOR_1;
 800108a:	4a13      	ldr	r2, [pc, #76]	; (80010d8 <piezosensor_init+0x1cc>)
 800108c:	f44f 7314 	mov.w	r3, #592	; 0x250
 8001090:	fb03 2304 	mla	r3, r3, r4, r2
 8001094:	f44f 5200 	mov.w	r2, #8192	; 0x2000
 8001098:	f8a3 2220 	strh.w	r2, [r3, #544]	; 0x220
            g_sensors[i].led_port = LED_SENSOR_1_PORT;
 800109c:	4a0f      	ldr	r2, [pc, #60]	; (80010dc <piezosensor_init+0x1d0>)
 800109e:	f8c3 2224 	str.w	r2, [r3, #548]	; 0x224
 80010a2:	e799      	b.n	8000fd8 <piezosensor_init+0xcc>
            g_sensors[i].led_pin = LED_SENSOR_2;
 80010a4:	4a0c      	ldr	r2, [pc, #48]	; (80010d8 <piezosensor_init+0x1cc>)
 80010a6:	f44f 7314 	mov.w	r3, #592	; 0x250
 80010aa:	fb03 2304 	mla	r3, r3, r4, r2
 80010ae:	f44f 4280 	mov.w	r2, #16384	; 0x4000
 80010b2:	f8a3 2220 	strh.w	r2, [r3, #544]	; 0x220
            g_sensors[i].led_port = LED_SENSOR_2_PORT;
 80010b6:	4a09      	ldr	r2, [pc, #36]	; (80010dc <piezosensor_init+0x1d0>)
 80010b8:	f8c3 2224 	str.w	r2, [r3, #548]	; 0x224
 80010bc:	e78c      	b.n	8000fd8 <piezosensor_init+0xcc>
    g_trigger_fsm.state = TRIGGER_STATE_WAIT_FOR_TRIGGER;
 80010be:	4a09      	ldr	r2, [pc, #36]	; (80010e4 <piezosensor_init+0x1d8>)
 80010c0:	2300      	movs	r3, #0
 80010c2:	7013      	strb	r3, [r2, #0]
    g_trigger_fsm.current_threshold = g_sensor_config.sensor_threshold[0];  // Use sensor 0 as default
 80010c4:	4906      	ldr	r1, [pc, #24]	; (80010e0 <piezosensor_init+0x1d4>)
 80010c6:	8a09      	ldrh	r1, [r1, #16]
 80010c8:	8151      	strh	r1, [r2, #10]
    g_trigger_fsm.winner_sensor_id = 0;
 80010ca:	7213      	strb	r3, [r2, #8]
    g_trigger_fsm.bundle_trigger = false;
 80010cc:	7253      	strb	r3, [r2, #9]
    memset(&g_tournament, 0, sizeof(g_tournament));
 80010ce:	4a06      	ldr	r2, [pc, #24]	; (80010e8 <piezosensor_init+0x1dc>)
 80010d0:	6013      	str	r3, [r2, #0]
 80010d2:	6053      	str	r3, [r2, #4]
 80010d4:	6093      	str	r3, [r2, #8]
}
 80010d6:	bd70      	pop	{r4, r5, r6, pc}
 80010d8:	200008a4 	.word	0x200008a4
 80010dc:	40010c00 	.word	0x40010c00
 80010e0:	2000121c 	.word	0x2000121c
 80010e4:	200011f4 	.word	0x200011f4
 80010e8:	200011e8 	.word	0x200011e8

080010ec <cooldown_fsm_process>:
{
 80010ec:	b570      	push	{r4, r5, r6, lr}
    for (int i = 0; i < SENSORS_ACTIVE; i++) {
 80010ee:	2400      	movs	r4, #0
 80010f0:	e008      	b.n	8001104 <cooldown_fsm_process+0x18>
                    sensor->ma_hit_time_ms = 0;
 80010f2:	4a2a      	ldr	r2, [pc, #168]	; (800119c <cooldown_fsm_process+0xb0>)
 80010f4:	f44f 7314 	mov.w	r3, #592	; 0x250
 80010f8:	fb03 2304 	mla	r3, r3, r4, r2
 80010fc:	2200      	movs	r2, #0
 80010fe:	f8c3 2230 	str.w	r2, [r3, #560]	; 0x230
    for (int i = 0; i < SENSORS_ACTIVE; i++) {
 8001102:	3401      	adds	r4, #1
 8001104:	2c03      	cmp	r4, #3
 8001106:	dc48      	bgt.n	800119a <cooldown_fsm_process+0xae>
        PiezoSensor_t *sensor = &g_sensors[i];
 8001108:	4a24      	ldr	r2, [pc, #144]	; (800119c <cooldown_fsm_process+0xb0>)
 800110a:	f44f 7314 	mov.w	r3, #592	; 0x250
 800110e:	fb03 f304 	mul.w	r3, r3, r4
 8001112:	18d0      	adds	r0, r2, r3
        switch (sensor->cooldown_state) {
 8001114:	5cd3      	ldrb	r3, [r2, r3]
 8001116:	2b01      	cmp	r3, #1
 8001118:	d1f3      	bne.n	8001102 <cooldown_fsm_process+0x16>
                uint16_t latest_envelope = ring_buffer_get_latest(sensor);
 800111a:	f7ff fe03 	bl	8000d24 <ring_buffer_get_latest>
                if ((uint32_t)latest_envelope * 10 < sensor->moving_average_10x) {
 800111e:	eb00 0080 	add.w	r0, r0, r0, lsl #2
 8001122:	4a1e      	ldr	r2, [pc, #120]	; (800119c <cooldown_fsm_process+0xb0>)
 8001124:	f44f 7314 	mov.w	r3, #592	; 0x250
 8001128:	fb03 2304 	mla	r3, r3, r4, r2
 800112c:	f8d3 3208 	ldr.w	r3, [r3, #520]	; 0x208
 8001130:	ebb3 0f40 	cmp.w	r3, r0, lsl #1
 8001134:	d9dd      	bls.n	80010f2 <cooldown_fsm_process+0x6>
                    if (sensor->ma_hit_time_ms == 0) {
 8001136:	f44f 7314 	mov.w	r3, #592	; 0x250
 800113a:	fb03 2304 	mla	r3, r3, r4, r2
 800113e:	f8d3 3230 	ldr.w	r3, [r3, #560]	; 0x230
 8001142:	b943      	cbnz	r3, 8001156 <cooldown_fsm_process+0x6a>
                        sensor->ma_hit_time_ms = g_system_ms;
 8001144:	4b16      	ldr	r3, [pc, #88]	; (80011a0 <cooldown_fsm_process+0xb4>)
 8001146:	681a      	ldr	r2, [r3, #0]
 8001148:	4914      	ldr	r1, [pc, #80]	; (800119c <cooldown_fsm_process+0xb0>)
 800114a:	f44f 7314 	mov.w	r3, #592	; 0x250
 800114e:	fb03 1304 	mla	r3, r3, r4, r1
 8001152:	f8c3 2230 	str.w	r2, [r3, #560]	; 0x230
                    uint32_t time_since_ma_hit = g_system_ms - sensor->ma_hit_time_ms;
 8001156:	4b12      	ldr	r3, [pc, #72]	; (80011a0 <cooldown_fsm_process+0xb4>)
 8001158:	681b      	ldr	r3, [r3, #0]
 800115a:	4910      	ldr	r1, [pc, #64]	; (800119c <cooldown_fsm_process+0xb0>)
 800115c:	f44f 7214 	mov.w	r2, #592	; 0x250
 8001160:	fb02 1204 	mla	r2, r2, r4, r1
 8001164:	f8d2 2230 	ldr.w	r2, [r2, #560]	; 0x230
 8001168:	1a9b      	subs	r3, r3, r2
                    if (time_since_ma_hit >= g_trigger_fsm.cooling_down_ms) {
 800116a:	4a0e      	ldr	r2, [pc, #56]	; (80011a4 <cooldown_fsm_process+0xb8>)
 800116c:	89d2      	ldrh	r2, [r2, #14]
 800116e:	429a      	cmp	r2, r3
 8001170:	d8c7      	bhi.n	8001102 <cooldown_fsm_process+0x16>
                            sensor->cooldown_state = COOLDOWN_STATE_ACTIVE;
 8001172:	f44f 7314 	mov.w	r3, #592	; 0x250
 8001176:	fb03 f304 	mul.w	r3, r3, r4
 800117a:	18cd      	adds	r5, r1, r3
 800117c:	2600      	movs	r6, #0
 800117e:	54ce      	strb	r6, [r1, r3]
                            sensor->threshold_multiplier = 1.0f;
 8001180:	f04f 537e 	mov.w	r3, #1065353216	; 0x3f800000
 8001184:	f8c5 3248 	str.w	r3, [r5, #584]	; 0x248
                            sensor->adjusted_threshold = g_sensor_config.trigger_threshold_base;
 8001188:	4b07      	ldr	r3, [pc, #28]	; (80011a8 <cooldown_fsm_process+0xbc>)
 800118a:	8b58      	ldrh	r0, [r3, #26]
 800118c:	f7ff f8a6 	bl	80002dc <__aeabi_ui2f>
 8001190:	f8c5 024c 	str.w	r0, [r5, #588]	; 0x24c
                            sensor->ma_hit_time_ms = 0;
 8001194:	f8c5 6230 	str.w	r6, [r5, #560]	; 0x230
 8001198:	e7b3      	b.n	8001102 <cooldown_fsm_process+0x16>
}
 800119a:	bd70      	pop	{r4, r5, r6, pc}
 800119c:	200008a4 	.word	0x200008a4
 80011a0:	200011e4 	.word	0x200011e4
 80011a4:	200011f4 	.word	0x200011f4
 80011a8:	2000121c 	.word	0x2000121c

080011ac <hid_clear_report>:
/*================= HID TRANSMISSION =================*/

void hid_clear_report(void)
{
    /* Clear all key slots in HID report (keep modifiers at 0) */
    for (int i = 0; i < 8; i++) {
 80011ac:	2300      	movs	r3, #0
 80011ae:	e003      	b.n	80011b8 <hid_clear_report+0xc>
        g_hid_report[i] = 0;
 80011b0:	4a03      	ldr	r2, [pc, #12]	; (80011c0 <hid_clear_report+0x14>)
 80011b2:	2100      	movs	r1, #0
 80011b4:	54d1      	strb	r1, [r2, r3]
    for (int i = 0; i < 8; i++) {
 80011b6:	3301      	adds	r3, #1
 80011b8:	2b07      	cmp	r3, #7
 80011ba:	ddf9      	ble.n	80011b0 <hid_clear_report+0x4>
    }
}
 80011bc:	4770      	bx	lr
 80011be:	bf00      	nop
 80011c0:	2000089c 	.word	0x2000089c

080011c4 <schedule_key_press>:
 * Sets up a fresh key press period based on configured duration.
 * Always resets timestamps from current time (no extension logic).
 */
void schedule_key_press(uint8_t sensor_id)
{
    if (sensor_id >= SENSORS_ACTIVE) return;
 80011c4:	2803      	cmp	r0, #3
 80011c6:	d814      	bhi.n	80011f2 <schedule_key_press+0x2e>
{
 80011c8:	b410      	push	{r4}

    /* Schedule key press from current time */
    g_sensors[sensor_id].key_press_scheduled_time_ms = g_system_ms;
 80011ca:	4a0a      	ldr	r2, [pc, #40]	; (80011f4 <schedule_key_press+0x30>)
 80011cc:	6813      	ldr	r3, [r2, #0]
 80011ce:	490a      	ldr	r1, [pc, #40]	; (80011f8 <schedule_key_press+0x34>)
 80011d0:	f44f 7414 	mov.w	r4, #592	; 0x250
 80011d4:	fb04 1000 	mla	r0, r4, r0, r1
 80011d8:	f8c0 323c 	str.w	r3, [r0, #572]	; 0x23c
    g_sensors[sensor_id].key_release_scheduled_time_ms = g_system_ms + g_trigger_fsm.key_press_duration_ms;
 80011dc:	4b07      	ldr	r3, [pc, #28]	; (80011fc <schedule_key_press+0x38>)
 80011de:	8a1b      	ldrh	r3, [r3, #16]
 80011e0:	6812      	ldr	r2, [r2, #0]
 80011e2:	4413      	add	r3, r2
 80011e4:	f8c0 3240 	str.w	r3, [r0, #576]	; 0x240
    g_sensors[sensor_id].key_pressed = true;
 80011e8:	2301      	movs	r3, #1
 80011ea:	f880 3238 	strb.w	r3, [r0, #568]	; 0x238
}
 80011ee:	bc10      	pop	{r4}
 80011f0:	4770      	bx	lr
 80011f2:	4770      	bx	lr
 80011f4:	200011e4 	.word	0x200011e4
 80011f8:	200008a4 	.word	0x200008a4
 80011fc:	200011f4 	.word	0x200011f4

08001200 <hid_send_buffered_reports>:
 *
 * Builds HID report from all sensors with key_pressed = true,
 * then sends single unified report via USB.
 */
uint8_t hid_send_buffered_reports(void)
{
 8001200:	b570      	push	{r4, r5, r6, lr}
    /* Check USB device mode and handle accordingly */
	static USB_JoystickReport_Input_t joystick_report;
    if (g_USB_device_type == DEVICE_TYPE_DRUMCONTROLLER)
 8001202:	4b3e      	ldr	r3, [pc, #248]	; (80012fc <hid_send_buffered_reports+0xfc>)
 8001204:	781b      	ldrb	r3, [r3, #0]
 8001206:	2b01      	cmp	r3, #1
 8001208:	d132      	bne.n	8001270 <hid_send_buffered_reports+0x70>
    {
        /* Drum Controller Mode - Build Joystick Report */
        if(g_HID_report_modified == 0)
 800120a:	4b3d      	ldr	r3, [pc, #244]	; (8001300 <hid_send_buffered_reports+0x100>)
 800120c:	781b      	ldrb	r3, [r3, #0]
 800120e:	b963      	cbnz	r3, 800122a <hid_send_buffered_reports+0x2a>
        {
			joystick_report.Button = 0; // Will be filled with bitwise OR of active buttons
 8001210:	4b3c      	ldr	r3, [pc, #240]	; (8001304 <hid_send_buffered_reports+0x104>)
 8001212:	2100      	movs	r1, #0
 8001214:	8019      	strh	r1, [r3, #0]
			joystick_report.Hat = JOYSTICK_HAT_NEUTRAL;
 8001216:	2208      	movs	r2, #8
 8001218:	709a      	strb	r2, [r3, #2]
			joystick_report.LX = JOYSTICK_ANALOG_NEUTRAL;
 800121a:	2280      	movs	r2, #128	; 0x80
 800121c:	70da      	strb	r2, [r3, #3]
			joystick_report.LY = JOYSTICK_ANALOG_NEUTRAL;
 800121e:	711a      	strb	r2, [r3, #4]
			joystick_report.RX = JOYSTICK_ANALOG_NEUTRAL;
 8001220:	715a      	strb	r2, [r3, #5]
			joystick_report.RY = JOYSTICK_ANALOG_NEUTRAL;
 8001222:	719a      	strb	r2, [r3, #6]
			joystick_report.VendorSpec = 0;
 8001224:	71d9      	strb	r1, [r3, #7]
{
 8001226:	2300      	movs	r3, #0
 8001228:	e004      	b.n	8001234 <hid_send_buffered_reports+0x34>
        }
        else
        	g_HID_report_modified = 1;
 800122a:	4b35      	ldr	r3, [pc, #212]	; (8001300 <hid_send_buffered_reports+0x100>)
 800122c:	2201      	movs	r2, #1
 800122e:	701a      	strb	r2, [r3, #0]
 8001230:	e7f9      	b.n	8001226 <hid_send_buffered_reports+0x26>

        /* Initialize with neutral values */

        /* Add all active buttons to the joystick report */
        for (int i = 0; i < SENSORS_ACTIVE; i++)
 8001232:	3301      	adds	r3, #1
 8001234:	2b03      	cmp	r3, #3
 8001236:	dc13      	bgt.n	8001260 <hid_send_buffered_reports+0x60>
        {
            if (g_sensors[i].key_pressed)
 8001238:	4933      	ldr	r1, [pc, #204]	; (8001308 <hid_send_buffered_reports+0x108>)
 800123a:	f44f 7214 	mov.w	r2, #592	; 0x250
 800123e:	fb02 1203 	mla	r2, r2, r3, r1
 8001242:	f892 2238 	ldrb.w	r2, [r2, #568]	; 0x238
 8001246:	2a00      	cmp	r2, #0
 8001248:	d0f3      	beq.n	8001232 <hid_send_buffered_reports+0x32>
            {
                /* Use bitwise OR to combine all active drum controller button codes */
                joystick_report.Button |= g_sensors[i].drumcontroller_keycode;
 800124a:	f44f 7214 	mov.w	r2, #592	; 0x250
 800124e:	fb02 1203 	mla	r2, r2, r3, r1
 8001252:	f8b2 221e 	ldrh.w	r2, [r2, #542]	; 0x21e
 8001256:	492b      	ldr	r1, [pc, #172]	; (8001304 <hid_send_buffered_reports+0x104>)
 8001258:	8808      	ldrh	r0, [r1, #0]
 800125a:	4302      	orrs	r2, r0
 800125c:	800a      	strh	r2, [r1, #0]
 800125e:	e7e8      	b.n	8001232 <hid_send_buffered_reports+0x32>
            }
        }

        /* Send joystick report */
        USBD_DrumController_SendReport(&hUsbDeviceFS, (uint8_t*)&joystick_report, sizeof(USB_JoystickReport_Input_t));
 8001260:	2208      	movs	r2, #8
 8001262:	4928      	ldr	r1, [pc, #160]	; (8001304 <hid_send_buffered_reports+0x104>)
 8001264:	4829      	ldr	r0, [pc, #164]	; (800130c <hid_send_buffered_reports+0x10c>)
 8001266:	f001 ff93 	bl	8003190 <USBD_DrumController_SendReport>
        /* For keyboard mode, return number of keys added to report */
        return num_keys;
    }

    /* Default return for the drum controller case */
    return 0;
 800126a:	2400      	movs	r4, #0
}
 800126c:	4620      	mov	r0, r4
 800126e:	bd70      	pop	{r4, r5, r6, pc}
        if(g_HID_report_modified == 0)
 8001270:	4b23      	ldr	r3, [pc, #140]	; (8001300 <hid_send_buffered_reports+0x100>)
 8001272:	781b      	ldrb	r3, [r3, #0]
 8001274:	b12b      	cbz	r3, 8001282 <hid_send_buffered_reports+0x82>
        	g_HID_report_modified = 1;
 8001276:	4b22      	ldr	r3, [pc, #136]	; (8001300 <hid_send_buffered_reports+0x100>)
 8001278:	2201      	movs	r2, #1
 800127a:	701a      	strb	r2, [r3, #0]
                    for (int slot = 2; slot < 8; slot++) {
 800127c:	2300      	movs	r3, #0
 800127e:	461c      	mov	r4, r3
 8001280:	e005      	b.n	800128e <hid_send_buffered_reports+0x8e>
        	hid_clear_report();
 8001282:	f7ff ff93 	bl	80011ac <hid_clear_report>
 8001286:	e7f9      	b.n	800127c <hid_send_buffered_reports+0x7c>
                bool keycode_exists = false;
 8001288:	2500      	movs	r5, #0
                if (!keycode_exists) {
 800128a:	b1e5      	cbz	r5, 80012c6 <hid_send_buffered_reports+0xc6>
        for (int i = 0; i < SENSORS_ACTIVE; i++) {
 800128c:	3301      	adds	r3, #1
 800128e:	2b03      	cmp	r3, #3
 8001290:	dc2e      	bgt.n	80012f0 <hid_send_buffered_reports+0xf0>
            if (g_sensors[i].key_pressed) {
 8001292:	491d      	ldr	r1, [pc, #116]	; (8001308 <hid_send_buffered_reports+0x108>)
 8001294:	f44f 7214 	mov.w	r2, #592	; 0x250
 8001298:	fb02 1203 	mla	r2, r2, r3, r1
 800129c:	f892 5238 	ldrb.w	r5, [r2, #568]	; 0x238
 80012a0:	2d00      	cmp	r5, #0
 80012a2:	d0f3      	beq.n	800128c <hid_send_buffered_reports+0x8c>
                for (int slot = 2; slot < 8; slot++) {
 80012a4:	2202      	movs	r2, #2
 80012a6:	2a07      	cmp	r2, #7
 80012a8:	dcee      	bgt.n	8001288 <hid_send_buffered_reports+0x88>
                    if (g_hid_report[slot] == g_sensors[i].hid_keycode) {
 80012aa:	4919      	ldr	r1, [pc, #100]	; (8001310 <hid_send_buffered_reports+0x110>)
 80012ac:	5c89      	ldrb	r1, [r1, r2]
 80012ae:	b2c9      	uxtb	r1, r1
 80012b0:	4e15      	ldr	r6, [pc, #84]	; (8001308 <hid_send_buffered_reports+0x108>)
 80012b2:	f44f 7014 	mov.w	r0, #592	; 0x250
 80012b6:	fb00 6003 	mla	r0, r0, r3, r6
 80012ba:	f890 021c 	ldrb.w	r0, [r0, #540]	; 0x21c
 80012be:	4281      	cmp	r1, r0
 80012c0:	d0e3      	beq.n	800128a <hid_send_buffered_reports+0x8a>
                for (int slot = 2; slot < 8; slot++) {
 80012c2:	3201      	adds	r2, #1
 80012c4:	e7ef      	b.n	80012a6 <hid_send_buffered_reports+0xa6>
                    for (int slot = 2; slot < 8; slot++) {
 80012c6:	2202      	movs	r2, #2
 80012c8:	2a07      	cmp	r2, #7
 80012ca:	dc0f      	bgt.n	80012ec <hid_send_buffered_reports+0xec>
                        if (g_hid_report[slot] == 0) {
 80012cc:	4910      	ldr	r1, [pc, #64]	; (8001310 <hid_send_buffered_reports+0x110>)
 80012ce:	5c89      	ldrb	r1, [r1, r2]
 80012d0:	b109      	cbz	r1, 80012d6 <hid_send_buffered_reports+0xd6>
                    for (int slot = 2; slot < 8; slot++) {
 80012d2:	3201      	adds	r2, #1
 80012d4:	e7f8      	b.n	80012c8 <hid_send_buffered_reports+0xc8>
                            g_hid_report[slot] = g_sensors[i].hid_keycode;
 80012d6:	480c      	ldr	r0, [pc, #48]	; (8001308 <hid_send_buffered_reports+0x108>)
 80012d8:	f44f 7114 	mov.w	r1, #592	; 0x250
 80012dc:	fb01 0103 	mla	r1, r1, r3, r0
 80012e0:	f891 021c 	ldrb.w	r0, [r1, #540]	; 0x21c
 80012e4:	490a      	ldr	r1, [pc, #40]	; (8001310 <hid_send_buffered_reports+0x110>)
 80012e6:	5488      	strb	r0, [r1, r2]
                            num_keys++;
 80012e8:	3401      	adds	r4, #1
 80012ea:	b2e4      	uxtb	r4, r4
                    if (num_keys >= 6) break;
 80012ec:	2c05      	cmp	r4, #5
 80012ee:	d9cd      	bls.n	800128c <hid_send_buffered_reports+0x8c>
        USBD_HID_SendReport(&hUsbDeviceFS, g_hid_report, 8);
 80012f0:	2208      	movs	r2, #8
 80012f2:	4907      	ldr	r1, [pc, #28]	; (8001310 <hid_send_buffered_reports+0x110>)
 80012f4:	4805      	ldr	r0, [pc, #20]	; (800130c <hid_send_buffered_reports+0x10c>)
 80012f6:	f005 ffda 	bl	80072ae <USBD_HID_SendReport>
        return num_keys;
 80012fa:	e7b7      	b.n	800126c <hid_send_buffered_reports+0x6c>
 80012fc:	20001ba9 	.word	0x20001ba9
 8001300:	20001baa 	.word	0x20001baa
 8001304:	20001210 	.word	0x20001210
 8001308:	200008a4 	.word	0x200008a4
 800130c:	200027a8 	.word	0x200027a8
 8001310:	2000089c 	.word	0x2000089c

08001314 <hid_process_afterglow>:
 * system time. If release time reached, marks key as not pressed and
 * clears timestamp.
 */
void hid_process_afterglow(void)
{
    for (int i = 0; i < SENSORS_ACTIVE; i++) {
 8001314:	2300      	movs	r3, #0
 8001316:	2b03      	cmp	r3, #3
 8001318:	dc3b      	bgt.n	8001392 <hid_process_afterglow+0x7e>
{
 800131a:	b410      	push	{r4}
 800131c:	e005      	b.n	800132a <hid_process_afterglow+0x16>
                g_sensors[i].key_release_scheduled_time_ms = 0;

                /* Remove from HID report (will be rebuilt next cycle) */
                for (int slot = 2; slot < 8; slot++) {
                    if (g_hid_report[slot] == g_sensors[i].hid_keycode) {
                        g_hid_report[slot] = 0;
 800131e:	491d      	ldr	r1, [pc, #116]	; (8001394 <hid_process_afterglow+0x80>)
 8001320:	2000      	movs	r0, #0
 8001322:	5488      	strb	r0, [r1, r2]
    for (int i = 0; i < SENSORS_ACTIVE; i++) {
 8001324:	3301      	adds	r3, #1
 8001326:	2b03      	cmp	r3, #3
 8001328:	dc31      	bgt.n	800138e <hid_process_afterglow+0x7a>
        if (g_sensors[i].key_pressed && g_sensors[i].key_release_scheduled_time_ms > 0) {
 800132a:	491b      	ldr	r1, [pc, #108]	; (8001398 <hid_process_afterglow+0x84>)
 800132c:	f44f 7214 	mov.w	r2, #592	; 0x250
 8001330:	fb02 1203 	mla	r2, r2, r3, r1
 8001334:	f892 2238 	ldrb.w	r2, [r2, #568]	; 0x238
 8001338:	2a00      	cmp	r2, #0
 800133a:	d0f3      	beq.n	8001324 <hid_process_afterglow+0x10>
 800133c:	f44f 7214 	mov.w	r2, #592	; 0x250
 8001340:	fb02 1203 	mla	r2, r2, r3, r1
 8001344:	f8d2 2240 	ldr.w	r2, [r2, #576]	; 0x240
 8001348:	2a00      	cmp	r2, #0
 800134a:	d0eb      	beq.n	8001324 <hid_process_afterglow+0x10>
            if (g_system_ms >= g_sensors[i].key_release_scheduled_time_ms) {
 800134c:	4913      	ldr	r1, [pc, #76]	; (800139c <hid_process_afterglow+0x88>)
 800134e:	6809      	ldr	r1, [r1, #0]
 8001350:	428a      	cmp	r2, r1
 8001352:	d8e7      	bhi.n	8001324 <hid_process_afterglow+0x10>
                g_sensors[i].key_pressed = false;
 8001354:	4910      	ldr	r1, [pc, #64]	; (8001398 <hid_process_afterglow+0x84>)
 8001356:	f44f 7214 	mov.w	r2, #592	; 0x250
 800135a:	fb02 1203 	mla	r2, r2, r3, r1
 800135e:	2100      	movs	r1, #0
 8001360:	f882 1238 	strb.w	r1, [r2, #568]	; 0x238
                g_sensors[i].key_press_scheduled_time_ms = 0;
 8001364:	f8c2 123c 	str.w	r1, [r2, #572]	; 0x23c
                g_sensors[i].key_release_scheduled_time_ms = 0;
 8001368:	f8c2 1240 	str.w	r1, [r2, #576]	; 0x240
                for (int slot = 2; slot < 8; slot++) {
 800136c:	2202      	movs	r2, #2
 800136e:	2a07      	cmp	r2, #7
 8001370:	dcd8      	bgt.n	8001324 <hid_process_afterglow+0x10>
                    if (g_hid_report[slot] == g_sensors[i].hid_keycode) {
 8001372:	4908      	ldr	r1, [pc, #32]	; (8001394 <hid_process_afterglow+0x80>)
 8001374:	5c89      	ldrb	r1, [r1, r2]
 8001376:	b2c9      	uxtb	r1, r1
 8001378:	4c07      	ldr	r4, [pc, #28]	; (8001398 <hid_process_afterglow+0x84>)
 800137a:	f44f 7014 	mov.w	r0, #592	; 0x250
 800137e:	fb00 4003 	mla	r0, r0, r3, r4
 8001382:	f890 021c 	ldrb.w	r0, [r0, #540]	; 0x21c
 8001386:	4281      	cmp	r1, r0
 8001388:	d0c9      	beq.n	800131e <hid_process_afterglow+0xa>
                for (int slot = 2; slot < 8; slot++) {
 800138a:	3201      	adds	r2, #1
 800138c:	e7ef      	b.n	800136e <hid_process_afterglow+0x5a>
                    }
                }
            }
        }
    }
}
 800138e:	bc10      	pop	{r4}
 8001390:	4770      	bx	lr
 8001392:	4770      	bx	lr
 8001394:	2000089c 	.word	0x2000089c
 8001398:	200008a4 	.word	0x200008a4
 800139c:	200011e4 	.word	0x200011e4

080013a0 <led_set_sensor_triggered>:
}

void led_set_sensor_triggered(uint8_t sensor_id)
{
    /* Turn on LED (active low) and record timestamp */
    if (sensor_id >= SENSORS_ACTIVE) return;
 80013a0:	2803      	cmp	r0, #3
 80013a2:	d900      	bls.n	80013a6 <led_set_sensor_triggered+0x6>
 80013a4:	4770      	bx	lr
{
 80013a6:	b510      	push	{r4, lr}
    HAL_GPIO_WritePin(g_sensors[sensor_id].led_port, g_sensors[sensor_id].led_pin, GPIO_PIN_RESET);
 80013a8:	4c08      	ldr	r4, [pc, #32]	; (80013cc <led_set_sensor_triggered+0x2c>)
 80013aa:	f44f 7314 	mov.w	r3, #592	; 0x250
 80013ae:	fb03 4400 	mla	r4, r3, r0, r4
 80013b2:	2200      	movs	r2, #0
 80013b4:	f8b4 1220 	ldrh.w	r1, [r4, #544]	; 0x220
 80013b8:	f8d4 0224 	ldr.w	r0, [r4, #548]	; 0x224
 80013bc:	f002 fe5f 	bl	800407e <HAL_GPIO_WritePin>
    g_sensors[sensor_id].led_on_time_ms = g_system_ms;
 80013c0:	4b03      	ldr	r3, [pc, #12]	; (80013d0 <led_set_sensor_triggered+0x30>)
 80013c2:	681b      	ldr	r3, [r3, #0]
 80013c4:	f8c4 3228 	str.w	r3, [r4, #552]	; 0x228
}
 80013c8:	bd10      	pop	{r4, pc}
 80013ca:	bf00      	nop
 80013cc:	200008a4 	.word	0x200008a4
 80013d0:	200011e4 	.word	0x200011e4

080013d4 <final_state>:
{
 80013d4:	b538      	push	{r3, r4, r5, lr}
    uint8_t winner_id = g_tournament.contender_sensors[g_tournament.winner_idx];
 80013d6:	4b64      	ldr	r3, [pc, #400]	; (8001568 <final_state+0x194>)
 80013d8:	795a      	ldrb	r2, [r3, #5]
 80013da:	5c9d      	ldrb	r5, [r3, r2]
    g_trigger_fsm.bundle_trigger = false;
 80013dc:	4b63      	ldr	r3, [pc, #396]	; (800156c <final_state+0x198>)
 80013de:	2200      	movs	r2, #0
 80013e0:	725a      	strb	r2, [r3, #9]
    if (winner_id == BUNDLE1_SENSOR_A && g_tournament.num_contenders > 1) {
 80013e2:	b9e5      	cbnz	r5, 800141e <final_state+0x4a>
 80013e4:	4b60      	ldr	r3, [pc, #384]	; (8001568 <final_state+0x194>)
 80013e6:	7919      	ldrb	r1, [r3, #4]
 80013e8:	2901      	cmp	r1, #1
 80013ea:	d918      	bls.n	800141e <final_state+0x4a>
        for (int i = 0; i < g_tournament.num_contenders; i++) {
 80013ec:	2300      	movs	r3, #0
 80013ee:	4299      	cmp	r1, r3
 80013f0:	dd13      	ble.n	800141a <final_state+0x46>
            if (g_tournament.contender_sensors[i] == BUNDLE1_SENSOR_B) {
 80013f2:	4a5d      	ldr	r2, [pc, #372]	; (8001568 <final_state+0x194>)
 80013f4:	5cd4      	ldrb	r4, [r2, r3]
 80013f6:	2c03      	cmp	r4, #3
 80013f8:	d001      	beq.n	80013fe <final_state+0x2a>
        for (int i = 0; i < g_tournament.num_contenders; i++) {
 80013fa:	3301      	adds	r3, #1
 80013fc:	e7f7      	b.n	80013ee <final_state+0x1a>
                uint32_t secondary_rms = g_sensors[BUNDLE1_SENSOR_B].rms_value;
 80013fe:	4b5c      	ldr	r3, [pc, #368]	; (8001570 <final_state+0x19c>)
 8001400:	f8d3 2908 	ldr.w	r2, [r3, #2312]	; 0x908
                uint32_t bundle_threshold = (g_tournament.best_rms * 3) >> 2;
 8001404:	4b58      	ldr	r3, [pc, #352]	; (8001568 <final_state+0x194>)
 8001406:	689b      	ldr	r3, [r3, #8]
 8001408:	eb03 0343 	add.w	r3, r3, r3, lsl #1
                if (secondary_rms >= bundle_threshold) {
 800140c:	ebb2 0f93 	cmp.w	r2, r3, lsr #2
 8001410:	d371      	bcc.n	80014f6 <final_state+0x122>
                    g_trigger_fsm.bundle_trigger = true;
 8001412:	4b56      	ldr	r3, [pc, #344]	; (800156c <final_state+0x198>)
 8001414:	2201      	movs	r2, #1
 8001416:	725a      	strb	r2, [r3, #9]
                    secondary_sensor = BUNDLE1_SENSOR_B;
 8001418:	e008      	b.n	800142c <final_state+0x58>
    uint8_t secondary_sensor = 255;
 800141a:	24ff      	movs	r4, #255	; 0xff
 800141c:	e006      	b.n	800142c <final_state+0x58>
    } else if (winner_id == BUNDLE1_SENSOR_B && g_tournament.num_contenders > 1) {
 800141e:	2d03      	cmp	r5, #3
 8001420:	d011      	beq.n	8001446 <final_state+0x72>
    } else if (winner_id == BUNDLE2_SENSOR_A && g_tournament.num_contenders > 1) {
 8001422:	2d01      	cmp	r5, #1
 8001424:	d02b      	beq.n	800147e <final_state+0xaa>
    } else if (winner_id == BUNDLE2_SENSOR_B && g_tournament.num_contenders > 1) {
 8001426:	2d02      	cmp	r5, #2
 8001428:	d046      	beq.n	80014b8 <final_state+0xe4>
    uint8_t secondary_sensor = 255;
 800142a:	24ff      	movs	r4, #255	; 0xff
    if (g_trigger_fsm.bundle_trigger && secondary_sensor != 255) {
 800142c:	4b4f      	ldr	r3, [pc, #316]	; (800156c <final_state+0x198>)
 800142e:	7a5b      	ldrb	r3, [r3, #9]
 8001430:	b10b      	cbz	r3, 8001436 <final_state+0x62>
 8001432:	2cff      	cmp	r4, #255	; 0xff
 8001434:	d167      	bne.n	8001506 <final_state+0x132>
        schedule_key_press(winner_id);
 8001436:	4628      	mov	r0, r5
 8001438:	f7ff fec4 	bl	80011c4 <schedule_key_press>
        led_set_sensor_triggered(winner_id);
 800143c:	4628      	mov	r0, r5
 800143e:	f7ff ffaf 	bl	80013a0 <led_set_sensor_triggered>
    uint8_t secondary_sensor = 255;
 8001442:	2200      	movs	r2, #0
 8001444:	e07c      	b.n	8001540 <final_state+0x16c>
    } else if (winner_id == BUNDLE1_SENSOR_B && g_tournament.num_contenders > 1) {
 8001446:	4b48      	ldr	r3, [pc, #288]	; (8001568 <final_state+0x194>)
 8001448:	7919      	ldrb	r1, [r3, #4]
 800144a:	2901      	cmp	r1, #1
 800144c:	d9e9      	bls.n	8001422 <final_state+0x4e>
        for (int i = 0; i < g_tournament.num_contenders; i++) {
 800144e:	2300      	movs	r3, #0
 8001450:	4299      	cmp	r1, r3
 8001452:	dd12      	ble.n	800147a <final_state+0xa6>
            if (g_tournament.contender_sensors[i] == BUNDLE1_SENSOR_A) {
 8001454:	4a44      	ldr	r2, [pc, #272]	; (8001568 <final_state+0x194>)
 8001456:	5cd4      	ldrb	r4, [r2, r3]
 8001458:	b10c      	cbz	r4, 800145e <final_state+0x8a>
        for (int i = 0; i < g_tournament.num_contenders; i++) {
 800145a:	3301      	adds	r3, #1
 800145c:	e7f8      	b.n	8001450 <final_state+0x7c>
                uint32_t secondary_rms = g_sensors[BUNDLE1_SENSOR_A].rms_value;
 800145e:	4b44      	ldr	r3, [pc, #272]	; (8001570 <final_state+0x19c>)
 8001460:	f8d3 2218 	ldr.w	r2, [r3, #536]	; 0x218
                uint32_t bundle_threshold = (g_tournament.best_rms * 3) >> 2;
 8001464:	4b40      	ldr	r3, [pc, #256]	; (8001568 <final_state+0x194>)
 8001466:	689b      	ldr	r3, [r3, #8]
 8001468:	eb03 0343 	add.w	r3, r3, r3, lsl #1
                if (secondary_rms >= bundle_threshold) {
 800146c:	ebb2 0f93 	cmp.w	r2, r3, lsr #2
 8001470:	d343      	bcc.n	80014fa <final_state+0x126>
                    g_trigger_fsm.bundle_trigger = true;
 8001472:	4b3e      	ldr	r3, [pc, #248]	; (800156c <final_state+0x198>)
 8001474:	2201      	movs	r2, #1
 8001476:	725a      	strb	r2, [r3, #9]
                    secondary_sensor = BUNDLE1_SENSOR_A;
 8001478:	e7d8      	b.n	800142c <final_state+0x58>
    uint8_t secondary_sensor = 255;
 800147a:	24ff      	movs	r4, #255	; 0xff
 800147c:	e7d6      	b.n	800142c <final_state+0x58>
    } else if (winner_id == BUNDLE2_SENSOR_A && g_tournament.num_contenders > 1) {
 800147e:	4b3a      	ldr	r3, [pc, #232]	; (8001568 <final_state+0x194>)
 8001480:	7919      	ldrb	r1, [r3, #4]
 8001482:	2901      	cmp	r1, #1
 8001484:	d9cf      	bls.n	8001426 <final_state+0x52>
        for (int i = 0; i < g_tournament.num_contenders; i++) {
 8001486:	2300      	movs	r3, #0
 8001488:	4299      	cmp	r1, r3
 800148a:	dd13      	ble.n	80014b4 <final_state+0xe0>
            if (g_tournament.contender_sensors[i] == BUNDLE2_SENSOR_B) {
 800148c:	4a36      	ldr	r2, [pc, #216]	; (8001568 <final_state+0x194>)
 800148e:	5cd4      	ldrb	r4, [r2, r3]
 8001490:	2c02      	cmp	r4, #2
 8001492:	d001      	beq.n	8001498 <final_state+0xc4>
        for (int i = 0; i < g_tournament.num_contenders; i++) {
 8001494:	3301      	adds	r3, #1
 8001496:	e7f7      	b.n	8001488 <final_state+0xb4>
                uint32_t secondary_rms = g_sensors[BUNDLE2_SENSOR_B].rms_value;
 8001498:	4b35      	ldr	r3, [pc, #212]	; (8001570 <final_state+0x19c>)
 800149a:	f8d3 26b8 	ldr.w	r2, [r3, #1720]	; 0x6b8
                uint32_t bundle_threshold = (g_tournament.best_rms * 3) >> 2;
 800149e:	4b32      	ldr	r3, [pc, #200]	; (8001568 <final_state+0x194>)
 80014a0:	689b      	ldr	r3, [r3, #8]
 80014a2:	eb03 0343 	add.w	r3, r3, r3, lsl #1
                if (secondary_rms >= bundle_threshold) {
 80014a6:	ebb2 0f93 	cmp.w	r2, r3, lsr #2
 80014aa:	d328      	bcc.n	80014fe <final_state+0x12a>
                    g_trigger_fsm.bundle_trigger = true;
 80014ac:	4b2f      	ldr	r3, [pc, #188]	; (800156c <final_state+0x198>)
 80014ae:	2201      	movs	r2, #1
 80014b0:	725a      	strb	r2, [r3, #9]
                    secondary_sensor = BUNDLE2_SENSOR_B;
 80014b2:	e7bb      	b.n	800142c <final_state+0x58>
    uint8_t secondary_sensor = 255;
 80014b4:	24ff      	movs	r4, #255	; 0xff
 80014b6:	e7b9      	b.n	800142c <final_state+0x58>
    } else if (winner_id == BUNDLE2_SENSOR_B && g_tournament.num_contenders > 1) {
 80014b8:	4b2b      	ldr	r3, [pc, #172]	; (8001568 <final_state+0x194>)
 80014ba:	7919      	ldrb	r1, [r3, #4]
 80014bc:	2901      	cmp	r1, #1
 80014be:	d908      	bls.n	80014d2 <final_state+0xfe>
        for (int i = 0; i < g_tournament.num_contenders; i++) {
 80014c0:	2300      	movs	r3, #0
 80014c2:	4299      	cmp	r1, r3
 80014c4:	dd15      	ble.n	80014f2 <final_state+0x11e>
            if (g_tournament.contender_sensors[i] == BUNDLE2_SENSOR_A) {
 80014c6:	4a28      	ldr	r2, [pc, #160]	; (8001568 <final_state+0x194>)
 80014c8:	5cd4      	ldrb	r4, [r2, r3]
 80014ca:	2c01      	cmp	r4, #1
 80014cc:	d003      	beq.n	80014d6 <final_state+0x102>
        for (int i = 0; i < g_tournament.num_contenders; i++) {
 80014ce:	3301      	adds	r3, #1
 80014d0:	e7f7      	b.n	80014c2 <final_state+0xee>
    uint8_t secondary_sensor = 255;
 80014d2:	24ff      	movs	r4, #255	; 0xff
 80014d4:	e7aa      	b.n	800142c <final_state+0x58>
                uint32_t secondary_rms = g_sensors[BUNDLE2_SENSOR_A].rms_value;
 80014d6:	4b26      	ldr	r3, [pc, #152]	; (8001570 <final_state+0x19c>)
 80014d8:	f8d3 2468 	ldr.w	r2, [r3, #1128]	; 0x468
                uint32_t bundle_threshold = (g_tournament.best_rms * 3) >> 2;
 80014dc:	4b22      	ldr	r3, [pc, #136]	; (8001568 <final_state+0x194>)
 80014de:	689b      	ldr	r3, [r3, #8]
 80014e0:	eb03 0343 	add.w	r3, r3, r3, lsl #1
                if (secondary_rms >= bundle_threshold) {
 80014e4:	ebb2 0f93 	cmp.w	r2, r3, lsr #2
 80014e8:	d30b      	bcc.n	8001502 <final_state+0x12e>
                    g_trigger_fsm.bundle_trigger = true;
 80014ea:	4b20      	ldr	r3, [pc, #128]	; (800156c <final_state+0x198>)
 80014ec:	2201      	movs	r2, #1
 80014ee:	725a      	strb	r2, [r3, #9]
                    secondary_sensor = BUNDLE2_SENSOR_A;
 80014f0:	e79c      	b.n	800142c <final_state+0x58>
    uint8_t secondary_sensor = 255;
 80014f2:	24ff      	movs	r4, #255	; 0xff
 80014f4:	e79a      	b.n	800142c <final_state+0x58>
 80014f6:	24ff      	movs	r4, #255	; 0xff
 80014f8:	e798      	b.n	800142c <final_state+0x58>
 80014fa:	24ff      	movs	r4, #255	; 0xff
 80014fc:	e796      	b.n	800142c <final_state+0x58>
 80014fe:	24ff      	movs	r4, #255	; 0xff
 8001500:	e794      	b.n	800142c <final_state+0x58>
 8001502:	24ff      	movs	r4, #255	; 0xff
 8001504:	e792      	b.n	800142c <final_state+0x58>
        schedule_key_press(winner_id);
 8001506:	4628      	mov	r0, r5
 8001508:	f7ff fe5c 	bl	80011c4 <schedule_key_press>
        schedule_key_press(secondary_sensor);
 800150c:	4620      	mov	r0, r4
 800150e:	f7ff fe59 	bl	80011c4 <schedule_key_press>
        led_set_sensor_triggered(winner_id);
 8001512:	4628      	mov	r0, r5
 8001514:	f7ff ff44 	bl	80013a0 <led_set_sensor_triggered>
        led_set_sensor_triggered(secondary_sensor);
 8001518:	4620      	mov	r0, r4
 800151a:	f7ff ff41 	bl	80013a0 <led_set_sensor_triggered>
        debug_print_trigger(secondary_sensor, g_sensors[secondary_sensor].rms_value);
 800151e:	e790      	b.n	8001442 <final_state+0x6e>
        g_sensors[i].cooldown_state = COOLDOWN_STATE_COOLING;
 8001520:	4813      	ldr	r0, [pc, #76]	; (8001570 <final_state+0x19c>)
 8001522:	f44f 7314 	mov.w	r3, #592	; 0x250
 8001526:	fb03 f302 	mul.w	r3, r3, r2
 800152a:	18c1      	adds	r1, r0, r3
 800152c:	2401      	movs	r4, #1
 800152e:	54c4      	strb	r4, [r0, r3]
        g_sensors[i].last_trigger_ms = g_system_ms;
 8001530:	4b10      	ldr	r3, [pc, #64]	; (8001574 <final_state+0x1a0>)
 8001532:	681b      	ldr	r3, [r3, #0]
 8001534:	f8c1 322c 	str.w	r3, [r1, #556]	; 0x22c
        g_sensors[i].ma_hit_time_ms = 0;
 8001538:	2300      	movs	r3, #0
 800153a:	f8c1 3230 	str.w	r3, [r1, #560]	; 0x230
    for (int i = 0; i < SENSORS_ACTIVE; i++) {
 800153e:	4422      	add	r2, r4
 8001540:	2a03      	cmp	r2, #3
 8001542:	dded      	ble.n	8001520 <final_state+0x14c>
    for(int i = 0; i < 4; ++i)
 8001544:	2300      	movs	r3, #0
 8001546:	e008      	b.n	800155a <final_state+0x186>
    	g_sensors[i].tournament_bonus_multiplier = 10;
 8001548:	4909      	ldr	r1, [pc, #36]	; (8001570 <final_state+0x19c>)
 800154a:	f44f 7214 	mov.w	r2, #592	; 0x250
 800154e:	fb02 1203 	mla	r2, r2, r3, r1
 8001552:	210a      	movs	r1, #10
 8001554:	f8c2 1234 	str.w	r1, [r2, #564]	; 0x234
    for(int i = 0; i < 4; ++i)
 8001558:	3301      	adds	r3, #1
 800155a:	2b03      	cmp	r3, #3
 800155c:	ddf4      	ble.n	8001548 <final_state+0x174>
    g_trigger_fsm.state = TRIGGER_STATE_WAIT_FOR_TRIGGER;
 800155e:	4b03      	ldr	r3, [pc, #12]	; (800156c <final_state+0x198>)
 8001560:	2200      	movs	r2, #0
 8001562:	701a      	strb	r2, [r3, #0]
}
 8001564:	bd38      	pop	{r3, r4, r5, pc}
 8001566:	bf00      	nop
 8001568:	200011e8 	.word	0x200011e8
 800156c:	200011f4 	.word	0x200011f4
 8001570:	200008a4 	.word	0x200008a4
 8001574:	200011e4 	.word	0x200011e4

08001578 <trigger_fsm_process>:
{
 8001578:	b508      	push	{r3, lr}
    switch (g_trigger_fsm.state) {
 800157a:	4b08      	ldr	r3, [pc, #32]	; (800159c <trigger_fsm_process+0x24>)
 800157c:	781b      	ldrb	r3, [r3, #0]
 800157e:	2b01      	cmp	r3, #1
 8001580:	d006      	beq.n	8001590 <trigger_fsm_process+0x18>
 8001582:	2b02      	cmp	r3, #2
 8001584:	d007      	beq.n	8001596 <trigger_fsm_process+0x1e>
 8001586:	b103      	cbz	r3, 800158a <trigger_fsm_process+0x12>
}
 8001588:	bd08      	pop	{r3, pc}
            wait_for_trigger_state();
 800158a:	f7ff fbdb 	bl	8000d44 <wait_for_trigger_state>
            break;
 800158e:	e7fb      	b.n	8001588 <trigger_fsm_process+0x10>
            tournament_state();
 8001590:	f7ff fc4c 	bl	8000e2c <tournament_state>
            break;
 8001594:	e7f8      	b.n	8001588 <trigger_fsm_process+0x10>
            final_state();
 8001596:	f7ff ff1d 	bl	80013d4 <final_state>
}
 800159a:	e7f5      	b.n	8001588 <trigger_fsm_process+0x10>
 800159c:	200011f4 	.word	0x200011f4

080015a0 <decay_adjusted_threshold>:
}

/*================= THRESHOLD RECOVERY =================*/

void decay_adjusted_threshold(void)
{
 80015a0:	e92d 41f0 	stmdb	sp!, {r4, r5, r6, r7, r8, lr}
    for (int i = 0; i < SENSORS_ACTIVE; i++) {
 80015a4:	2400      	movs	r4, #0
 80015a6:	e000      	b.n	80015aa <decay_adjusted_threshold+0xa>
 80015a8:	3401      	adds	r4, #1
 80015aa:	2c03      	cmp	r4, #3
 80015ac:	dc3c      	bgt.n	8001628 <decay_adjusted_threshold+0x88>
        float exceed = g_sensors[i].adjusted_threshold - g_sensor_config.trigger_threshold_base;
 80015ae:	4a1f      	ldr	r2, [pc, #124]	; (800162c <decay_adjusted_threshold+0x8c>)
 80015b0:	f44f 7314 	mov.w	r3, #592	; 0x250
 80015b4:	fb03 2304 	mla	r3, r3, r4, r2
 80015b8:	f8d3 724c 	ldr.w	r7, [r3, #588]	; 0x24c
 80015bc:	4b1c      	ldr	r3, [pc, #112]	; (8001630 <decay_adjusted_threshold+0x90>)
 80015be:	f8b3 801a 	ldrh.w	r8, [r3, #26]
 80015c2:	4640      	mov	r0, r8
 80015c4:	f7fe fe8e 	bl	80002e4 <__aeabi_i2f>
 80015c8:	4605      	mov	r5, r0
 80015ca:	4601      	mov	r1, r0
 80015cc:	4638      	mov	r0, r7
 80015ce:	f7fe fdd3 	bl	8000178 <__aeabi_fsub>
 80015d2:	4606      	mov	r6, r0
        if (exceed > 0) {
 80015d4:	2100      	movs	r1, #0
 80015d6:	f7ff f895 	bl	8000704 <__aeabi_fcmpgt>
 80015da:	2800      	cmp	r0, #0
 80015dc:	d0e4      	beq.n	80015a8 <decay_adjusted_threshold+0x8>
                /* Apply decay: multiplier decays using decay factor */
                g_sensors[i].adjusted_threshold -= (1.f - g_trigger_fsm.threshold_decay_factor_float) * exceed;
 80015de:	4b15      	ldr	r3, [pc, #84]	; (8001634 <decay_adjusted_threshold+0x94>)
 80015e0:	6999      	ldr	r1, [r3, #24]
 80015e2:	f04f 507e 	mov.w	r0, #1065353216	; 0x3f800000
 80015e6:	f7fe fdc7 	bl	8000178 <__aeabi_fsub>
 80015ea:	4631      	mov	r1, r6
 80015ec:	f7fe fece 	bl	800038c <__aeabi_fmul>
 80015f0:	4601      	mov	r1, r0
 80015f2:	4638      	mov	r0, r7
 80015f4:	f7fe fdc0 	bl	8000178 <__aeabi_fsub>
 80015f8:	4601      	mov	r1, r0
 80015fa:	4a0c      	ldr	r2, [pc, #48]	; (800162c <decay_adjusted_threshold+0x8c>)
 80015fc:	f44f 7314 	mov.w	r3, #592	; 0x250
 8001600:	fb03 2304 	mla	r3, r3, r4, r2
 8001604:	f8c3 024c 	str.w	r0, [r3, #588]	; 0x24c
                /* Clamp to minimum BASE threshold */
                if (g_sensors[i].adjusted_threshold < g_sensor_config.trigger_threshold_base) {
 8001608:	4628      	mov	r0, r5
 800160a:	f7ff f87b 	bl	8000704 <__aeabi_fcmpgt>
 800160e:	2800      	cmp	r0, #0
 8001610:	d0ca      	beq.n	80015a8 <decay_adjusted_threshold+0x8>
                    g_sensors[i].adjusted_threshold = g_sensor_config.trigger_threshold_base;
 8001612:	4b06      	ldr	r3, [pc, #24]	; (800162c <decay_adjusted_threshold+0x8c>)
 8001614:	f44f 7514 	mov.w	r5, #592	; 0x250
 8001618:	fb05 3504 	mla	r5, r5, r4, r3
 800161c:	4640      	mov	r0, r8
 800161e:	f7fe fe5d 	bl	80002dc <__aeabi_ui2f>
 8001622:	f8c5 024c 	str.w	r0, [r5, #588]	; 0x24c
 8001626:	e7bf      	b.n	80015a8 <decay_adjusted_threshold+0x8>
            }
        }
    }
}
 8001628:	e8bd 81f0 	ldmia.w	sp!, {r4, r5, r6, r7, r8, pc}
 800162c:	200008a4 	.word	0x200008a4
 8001630:	2000121c 	.word	0x2000121c
 8001634:	200011f4 	.word	0x200011f4

08001638 <increment_system_ms>:

/*================= UTILITY FUNCTIONS =================*/

void increment_system_ms(void)
{
    g_system_ms++;
 8001638:	4a02      	ldr	r2, [pc, #8]	; (8001644 <increment_system_ms+0xc>)
 800163a:	6813      	ldr	r3, [r2, #0]
 800163c:	3301      	adds	r3, #1
 800163e:	6013      	str	r3, [r2, #0]
}
 8001640:	4770      	bx	lr
 8001642:	bf00      	nop
 8001644:	200011e4 	.word	0x200011e4

08001648 <led_check_turn_off>:

/*================= LED TURN-OFF CHECK =================*/

void led_check_turn_off(uint32_t current_ms)
{
 8001648:	b570      	push	{r4, r5, r6, lr}
 800164a:	4605      	mov	r5, r0
    for (int i = 0; i < SENSORS_ACTIVE; i++) {
 800164c:	2400      	movs	r4, #0
 800164e:	e00e      	b.n	800166e <led_check_turn_off+0x26>
        /* Check if LED is on (led_on_time_ms > 0) and 20ms has passed */
        if (g_sensors[i].led_on_time_ms > 0) {
            if ((current_ms - g_sensors[i].led_on_time_ms) >= 20) {
                /* Turn off LED (active low) */
                HAL_GPIO_WritePin(g_sensors[i].led_port, g_sensors[i].led_pin, GPIO_PIN_SET);
 8001650:	f44f 7614 	mov.w	r6, #592	; 0x250
 8001654:	fb06 2604 	mla	r6, r6, r4, r2
 8001658:	2201      	movs	r2, #1
 800165a:	f8b6 1220 	ldrh.w	r1, [r6, #544]	; 0x220
 800165e:	f8d6 0224 	ldr.w	r0, [r6, #548]	; 0x224
 8001662:	f002 fd0c 	bl	800407e <HAL_GPIO_WritePin>
                g_sensors[i].led_on_time_ms = 0;  /* Mark as off */
 8001666:	2300      	movs	r3, #0
 8001668:	f8c6 3228 	str.w	r3, [r6, #552]	; 0x228
    for (int i = 0; i < SENSORS_ACTIVE; i++) {
 800166c:	3401      	adds	r4, #1
 800166e:	2c03      	cmp	r4, #3
 8001670:	dc0c      	bgt.n	800168c <led_check_turn_off+0x44>
        if (g_sensors[i].led_on_time_ms > 0) {
 8001672:	4a07      	ldr	r2, [pc, #28]	; (8001690 <led_check_turn_off+0x48>)
 8001674:	f44f 7314 	mov.w	r3, #592	; 0x250
 8001678:	fb03 2304 	mla	r3, r3, r4, r2
 800167c:	f8d3 3228 	ldr.w	r3, [r3, #552]	; 0x228
 8001680:	2b00      	cmp	r3, #0
 8001682:	d0f3      	beq.n	800166c <led_check_turn_off+0x24>
            if ((current_ms - g_sensors[i].led_on_time_ms) >= 20) {
 8001684:	1aeb      	subs	r3, r5, r3
 8001686:	2b13      	cmp	r3, #19
 8001688:	d9f0      	bls.n	800166c <led_check_turn_off+0x24>
 800168a:	e7e1      	b.n	8001650 <led_check_turn_off+0x8>
            }
        }
    }
}
 800168c:	bd70      	pop	{r4, r5, r6, pc}
 800168e:	bf00      	nop
 8001690:	200008a4 	.word	0x200008a4

08001694 <debug_init>:
 * @brief Initialize debug state
 */
void debug_init(void)
{
    // Manually clear the volatile debug state
    for (int i = 0; i < 5; i++) {
 8001694:	2300      	movs	r3, #0
 8001696:	2b04      	cmp	r3, #4
 8001698:	dc05      	bgt.n	80016a6 <debug_init+0x12>
        g_debug_state.max_values[i] = 0;
 800169a:	4a05      	ldr	r2, [pc, #20]	; (80016b0 <debug_init+0x1c>)
 800169c:	2100      	movs	r1, #0
 800169e:	f822 1013 	strh.w	r1, [r2, r3, lsl #1]
    for (int i = 0; i < 5; i++) {
 80016a2:	3301      	adds	r3, #1
 80016a4:	e7f7      	b.n	8001696 <debug_init+0x2>
    }
    g_debug_state.last_output_ms = 0;
 80016a6:	4b02      	ldr	r3, [pc, #8]	; (80016b0 <debug_init+0x1c>)
 80016a8:	2200      	movs	r2, #0
 80016aa:	60da      	str	r2, [r3, #12]
}
 80016ac:	4770      	bx	lr
 80016ae:	bf00      	nop
 80016b0:	2000088c 	.word	0x2000088c

080016b4 <debug_update_max>:
 * @param sensor_id Sensor ID (0-4)
 * @param value Current envelope value
 */
void debug_update_max(uint8_t sensor_id, uint16_t value)
{
    if (sensor_id < 5) {
 80016b4:	2804      	cmp	r0, #4
 80016b6:	d808      	bhi.n	80016ca <debug_update_max+0x16>
        if (value > g_debug_state.max_values[sensor_id]) {
 80016b8:	4b04      	ldr	r3, [pc, #16]	; (80016cc <debug_update_max+0x18>)
 80016ba:	f833 3010 	ldrh.w	r3, [r3, r0, lsl #1]
 80016be:	b29b      	uxth	r3, r3
 80016c0:	428b      	cmp	r3, r1
 80016c2:	d202      	bcs.n	80016ca <debug_update_max+0x16>
            g_debug_state.max_values[sensor_id] = value;
 80016c4:	4b01      	ldr	r3, [pc, #4]	; (80016cc <debug_update_max+0x18>)
 80016c6:	f823 1010 	strh.w	r1, [r3, r0, lsl #1]
        }
    }
}
 80016ca:	4770      	bx	lr
 80016cc:	2000088c 	.word	0x2000088c

080016d0 <extract_envelope_from_samples>:
{
 80016d0:	e92d 41f0 	stmdb	sp!, {r4, r5, r6, r7, r8, lr}
 80016d4:	b082      	sub	sp, #8
 80016d6:	4605      	mov	r5, r0
 80016d8:	460e      	mov	r6, r1
    for (int sensor = 0; sensor < SENSOR_TOTAL_CHANNELS; sensor++) {
 80016da:	2400      	movs	r4, #0
 80016dc:	e06c      	b.n	80017b8 <extract_envelope_from_samples+0xe8>
                g_sensors[sensor].last_dma_sample = samples[idx];
 80016de:	f835 0013 	ldrh.w	r0, [r5, r3, lsl #1]
 80016e2:	4f3a      	ldr	r7, [pc, #232]	; (80017cc <extract_envelope_from_samples+0xfc>)
 80016e4:	f44f 7314 	mov.w	r3, #592	; 0x250
 80016e8:	fb03 7304 	mla	r3, r3, r4, r7
 80016ec:	f8a3 0244 	strh.w	r0, [r3, #580]	; 0x244
 80016f0:	e023      	b.n	800173a <extract_envelope_from_samples+0x6a>
                        top_values[k] = top_values[k - 1];
 80016f2:	1e50      	subs	r0, r2, #1
 80016f4:	f10d 0c08 	add.w	ip, sp, #8
 80016f8:	eb0c 0c80 	add.w	ip, ip, r0, lsl #2
 80016fc:	f85c cc08 	ldr.w	ip, [ip, #-8]
 8001700:	f10d 0e08 	add.w	lr, sp, #8
 8001704:	eb0e 0282 	add.w	r2, lr, r2, lsl #2
 8001708:	f842 cc08 	str.w	ip, [r2, #-8]
                    for (int k = 2 - 1; k > j; k--) {
 800170c:	4602      	mov	r2, r0
 800170e:	4293      	cmp	r3, r2
 8001710:	dbef      	blt.n	80016f2 <extract_envelope_from_samples+0x22>
                    top_values[j] = sample;
 8001712:	aa02      	add	r2, sp, #8
 8001714:	eb02 0383 	add.w	r3, r2, r3, lsl #2
 8001718:	f843 7c08 	str.w	r7, [r3, #-8]
        for (int i = 0; i < SAMPLES_PER_MS; i++) {
 800171c:	3101      	adds	r1, #1
 800171e:	292f      	cmp	r1, #47	; 0x2f
 8001720:	dc1a      	bgt.n	8001758 <extract_envelope_from_samples+0x88>
            uint16_t idx = sample_offset + sensor + (i * SENSOR_TOTAL_CHANNELS);
 8001722:	1933      	adds	r3, r6, r4
 8001724:	b29b      	uxth	r3, r3
 8001726:	eb01 0281 	add.w	r2, r1, r1, lsl #2
 800172a:	b292      	uxth	r2, r2
 800172c:	4413      	add	r3, r2
 800172e:	b29b      	uxth	r3, r3
            uint16_t sample = samples[idx];  // RAW ADC value from DMA
 8001730:	f835 2013 	ldrh.w	r2, [r5, r3, lsl #1]
 8001734:	b292      	uxth	r2, r2
            if (i == SAMPLES_PER_MS - 1) {
 8001736:	292f      	cmp	r1, #47	; 0x2f
 8001738:	d0d1      	beq.n	80016de <extract_envelope_from_samples+0xe>
            for (int j = 0; j < 2; j++) {
 800173a:	2300      	movs	r3, #0
 800173c:	2b01      	cmp	r3, #1
 800173e:	dced      	bgt.n	800171c <extract_envelope_from_samples+0x4c>
                if (sample > top_values[j]) {
 8001740:	4617      	mov	r7, r2
 8001742:	a802      	add	r0, sp, #8
 8001744:	eb00 0083 	add.w	r0, r0, r3, lsl #2
 8001748:	f850 0c08 	ldr.w	r0, [r0, #-8]
 800174c:	4282      	cmp	r2, r0
 800174e:	d801      	bhi.n	8001754 <extract_envelope_from_samples+0x84>
            for (int j = 0; j < 2; j++) {
 8001750:	3301      	adds	r3, #1
 8001752:	e7f3      	b.n	800173c <extract_envelope_from_samples+0x6c>
                    for (int k = 2 - 1; k > j; k--) {
 8001754:	2201      	movs	r2, #1
 8001756:	e7da      	b.n	800170e <extract_envelope_from_samples+0x3e>
        for (int i = 0; i < 2; i++) {
 8001758:	2300      	movs	r3, #0
        uint32_t sum = 0;
 800175a:	461a      	mov	r2, r3
 800175c:	e006      	b.n	800176c <extract_envelope_from_samples+0x9c>
            sum += top_values[i];
 800175e:	a902      	add	r1, sp, #8
 8001760:	eb01 0183 	add.w	r1, r1, r3, lsl #2
 8001764:	f851 1c08 	ldr.w	r1, [r1, #-8]
 8001768:	440a      	add	r2, r1
        for (int i = 0; i < 2; i++) {
 800176a:	3301      	adds	r3, #1
 800176c:	2b01      	cmp	r3, #1
 800176e:	ddf6      	ble.n	800175e <extract_envelope_from_samples+0x8e>
            uint32_t scaled_envelope = (uint32_t)envelope * g_sensor_config.sensor_multiplier[sensor];
 8001770:	4b17      	ldr	r3, [pc, #92]	; (80017d0 <extract_envelope_from_samples+0x100>)
 8001772:	eb03 0344 	add.w	r3, r3, r4, lsl #1
 8001776:	88db      	ldrh	r3, [r3, #6]
 8001778:	f3c2 024f 	ubfx	r2, r2, #1, #16
 800177c:	fb03 f202 	mul.w	r2, r3, r2
            scaled_envelope = scaled_envelope >> 6; // use /64 to replace /100, for efficiency
 8001780:	0997      	lsrs	r7, r2, #6
            if (scaled_envelope > 65535) {
 8001782:	f5b2 0f80 	cmp.w	r2, #4194304	; 0x400000
 8001786:	d301      	bcc.n	800178c <extract_envelope_from_samples+0xbc>
                scaled_envelope = 65535;
 8001788:	f64f 77ff 	movw	r7, #65535	; 0xffff
            envelope = (uint16_t)scaled_envelope;
 800178c:	b2bf      	uxth	r7, r7
        if (sensor < SENSORS_ACTIVE) {
 800178e:	2c03      	cmp	r4, #3
 8001790:	dc11      	bgt.n	80017b6 <extract_envelope_from_samples+0xe6>
            ring_buffer_add(&g_sensors[sensor], envelope);
 8001792:	4b0e      	ldr	r3, [pc, #56]	; (80017cc <extract_envelope_from_samples+0xfc>)
 8001794:	f44f 7814 	mov.w	r8, #592	; 0x250
 8001798:	fb08 3804 	mla	r8, r8, r4, r3
 800179c:	4639      	mov	r1, r7
 800179e:	4640      	mov	r0, r8
 80017a0:	f7ff fa82 	bl	8000ca8 <ring_buffer_add>
            g_sensors[sensor].moving_average_10x = ring_buffer_get_average(&g_sensors[sensor]);
 80017a4:	4640      	mov	r0, r8
 80017a6:	f7ff faa1 	bl	8000cec <ring_buffer_get_average>
 80017aa:	f8c8 0208 	str.w	r0, [r8, #520]	; 0x208
            debug_update_max(sensor, envelope);
 80017ae:	4639      	mov	r1, r7
 80017b0:	b2e0      	uxtb	r0, r4
 80017b2:	f7ff ff7f 	bl	80016b4 <debug_update_max>
    for (int sensor = 0; sensor < SENSOR_TOTAL_CHANNELS; sensor++) {
 80017b6:	3401      	adds	r4, #1
 80017b8:	2c04      	cmp	r4, #4
 80017ba:	dc03      	bgt.n	80017c4 <extract_envelope_from_samples+0xf4>
        uint32_t top_values[2] = {0};
 80017bc:	2100      	movs	r1, #0
 80017be:	9100      	str	r1, [sp, #0]
 80017c0:	9101      	str	r1, [sp, #4]
        for (int i = 0; i < SAMPLES_PER_MS; i++) {
 80017c2:	e7ac      	b.n	800171e <extract_envelope_from_samples+0x4e>
}
 80017c4:	b002      	add	sp, #8
 80017c6:	e8bd 81f0 	ldmia.w	sp!, {r4, r5, r6, r7, r8, pc}
 80017ca:	bf00      	nop
 80017cc:	200008a4 	.word	0x200008a4
 80017d0:	2000121c 	.word	0x2000121c

080017d4 <debug_output_if_needed>:

        /* Update last output time */
        g_debug_state.last_output_ms = current_ms;
    }
#endif
}
 80017d4:	4770      	bx	lr
	...

080017d8 <parse_simple_float>:

/*================= PARSING UTILITIES =================*/

/* Simple string to float converter for embedded systems */
static bool parse_simple_float(const char *str, float *result)
{
 80017d8:	b5f8      	push	{r3, r4, r5, r6, r7, lr}
 80017da:	4603      	mov	r3, r0
 80017dc:	460e      	mov	r6, r1
    bool after_decimal = false;
    int decimal_digits = 0;
    int digit_count = 0;

    /* Skip leading spaces */
    while (*str == ' ' || *str == '\t') {
 80017de:	e000      	b.n	80017e2 <parse_simple_float+0xa>
        str++;
 80017e0:	3301      	adds	r3, #1
    while (*str == ' ' || *str == '\t') {
 80017e2:	781a      	ldrb	r2, [r3, #0]
 80017e4:	2a20      	cmp	r2, #32
 80017e6:	d0fb      	beq.n	80017e0 <parse_simple_float+0x8>
 80017e8:	2a09      	cmp	r2, #9
 80017ea:	d0f9      	beq.n	80017e0 <parse_simple_float+0x8>
    int digit_count = 0;
 80017ec:	2100      	movs	r1, #0
    int decimal_digits = 0;
 80017ee:	460f      	mov	r7, r1
    bool after_decimal = false;
 80017f0:	4608      	mov	r0, r1
    int32_t decimal_part = 0;
 80017f2:	460c      	mov	r4, r1
    int32_t integer_part = 0;
 80017f4:	468c      	mov	ip, r1
 80017f6:	e006      	b.n	8001806 <parse_simple_float+0x2e>
                    decimal_part = decimal_part * 10 + (*str - '0');
                    decimal_digits++;
                }
                /* Ignore additional decimal digits beyond 2 */
            } else {
                integer_part = integer_part * 10 + (*str - '0');
 80017f8:	eb0c 0c8c 	add.w	ip, ip, ip, lsl #2
 80017fc:	3a30      	subs	r2, #48	; 0x30
 80017fe:	eb02 0c4c 	add.w	ip, r2, ip, lsl #1
            }
            digit_count++;
 8001802:	3101      	adds	r1, #1
            after_decimal = true;
        } else {
            /* Invalid character */
            return false;
        }
        str++;
 8001804:	3301      	adds	r3, #1
    while (*str != '\0' && digit_count < 10) {
 8001806:	781a      	ldrb	r2, [r3, #0]
 8001808:	b1ba      	cbz	r2, 800183a <parse_simple_float+0x62>
 800180a:	2909      	cmp	r1, #9
 800180c:	dc15      	bgt.n	800183a <parse_simple_float+0x62>
        if (*str >= '0' && *str <= '9') {
 800180e:	f1a2 0530 	sub.w	r5, r2, #48	; 0x30
 8001812:	b2ed      	uxtb	r5, r5
 8001814:	2d09      	cmp	r5, #9
 8001816:	d80b      	bhi.n	8001830 <parse_simple_float+0x58>
            if (after_decimal) {
 8001818:	2800      	cmp	r0, #0
 800181a:	d0ed      	beq.n	80017f8 <parse_simple_float+0x20>
                if (decimal_digits < 2) {
 800181c:	2f01      	cmp	r7, #1
 800181e:	dcf0      	bgt.n	8001802 <parse_simple_float+0x2a>
                    decimal_part = decimal_part * 10 + (*str - '0');
 8001820:	eb04 0584 	add.w	r5, r4, r4, lsl #2
 8001824:	f1a2 0430 	sub.w	r4, r2, #48	; 0x30
 8001828:	eb04 0445 	add.w	r4, r4, r5, lsl #1
                    decimal_digits++;
 800182c:	3701      	adds	r7, #1
 800182e:	e7e8      	b.n	8001802 <parse_simple_float+0x2a>
        } else if (*str == '.') {
 8001830:	2a2e      	cmp	r2, #46	; 0x2e
 8001832:	d11e      	bne.n	8001872 <parse_simple_float+0x9a>
            if (after_decimal) {
 8001834:	b9f8      	cbnz	r0, 8001876 <parse_simple_float+0x9e>
            after_decimal = true;
 8001836:	2001      	movs	r0, #1
 8001838:	e7e4      	b.n	8001804 <parse_simple_float+0x2c>
    }

    /* Check range (0.0 to 99.99) */
    if (integer_part > 99) {
 800183a:	f1bc 0f63 	cmp.w	ip, #99	; 0x63
 800183e:	dc1c      	bgt.n	800187a <parse_simple_float+0xa2>
        return false;
    }

    /* Scale decimal part to 2 digits (hundredths) */
    if (decimal_digits == 0) {
 8001840:	b117      	cbz	r7, 8001848 <parse_simple_float+0x70>
        decimal_part = 0;
    } else if (decimal_digits == 1) {
 8001842:	2f01      	cmp	r7, #1
 8001844:	d011      	beq.n	800186a <parse_simple_float+0x92>
 8001846:	4627      	mov	r7, r4
        decimal_part = decimal_part * 10;  /* 0.1 becomes 0.10 */
    }

    /* Combine into float (divide by 100 for 2 decimal places) */
    *result = (float)integer_part + ((float)decimal_part / 100.0f);
 8001848:	4660      	mov	r0, ip
 800184a:	f7fe fd4b 	bl	80002e4 <__aeabi_i2f>
 800184e:	4604      	mov	r4, r0
 8001850:	4638      	mov	r0, r7
 8001852:	f7fe fd47 	bl	80002e4 <__aeabi_i2f>
 8001856:	490a      	ldr	r1, [pc, #40]	; (8001880 <parse_simple_float+0xa8>)
 8001858:	f7fe fe4c 	bl	80004f4 <__aeabi_fdiv>
 800185c:	4601      	mov	r1, r0
 800185e:	4620      	mov	r0, r4
 8001860:	f7fe fc8c 	bl	800017c <__addsf3>
 8001864:	6030      	str	r0, [r6, #0]

    return true;
 8001866:	2001      	movs	r0, #1
}
 8001868:	bdf8      	pop	{r3, r4, r5, r6, r7, pc}
        decimal_part = decimal_part * 10;  /* 0.1 becomes 0.10 */
 800186a:	eb04 0484 	add.w	r4, r4, r4, lsl #2
 800186e:	0067      	lsls	r7, r4, #1
 8001870:	e7ea      	b.n	8001848 <parse_simple_float+0x70>
            return false;
 8001872:	2000      	movs	r0, #0
 8001874:	e7f8      	b.n	8001868 <parse_simple_float+0x90>
                return false; /* Multiple decimal points */
 8001876:	2000      	movs	r0, #0
 8001878:	e7f6      	b.n	8001868 <parse_simple_float+0x90>
        return false;
 800187a:	2000      	movs	r0, #0
 800187c:	e7f4      	b.n	8001868 <parse_simple_float+0x90>
 800187e:	bf00      	nop
 8001880:	42c80000 	.word	0x42c80000

08001884 <parse_fixed_point>:

static bool parse_fixed_point(const char *str, uint16_t *value)
{
 8001884:	b4f0      	push	{r4, r5, r6, r7}
    bool negative = false;
    bool after_decimal = false;
    int decimal_digits = 0;

    /* Skip leading spaces */
    while (*str == ' ' || *str == '\t') {
 8001886:	e000      	b.n	800188a <parse_fixed_point+0x6>
        str++;
 8001888:	3001      	adds	r0, #1
    while (*str == ' ' || *str == '\t') {
 800188a:	7803      	ldrb	r3, [r0, #0]
 800188c:	2b20      	cmp	r3, #32
 800188e:	d0fb      	beq.n	8001888 <parse_fixed_point+0x4>
 8001890:	2b09      	cmp	r3, #9
 8001892:	d0f9      	beq.n	8001888 <parse_fixed_point+0x4>
    }

    /* Check for sign */
    if (*str == '-') {
 8001894:	2b2d      	cmp	r3, #45	; 0x2d
 8001896:	d008      	beq.n	80018aa <parse_fixed_point+0x26>
        negative = true;
        str++;
    } else if (*str == '+') {
 8001898:	2b2b      	cmp	r3, #43	; 0x2b
 800189a:	d00a      	beq.n	80018b2 <parse_fixed_point+0x2e>
    bool negative = false;
 800189c:	f04f 0c00 	mov.w	ip, #0
 80018a0:	2700      	movs	r7, #0
 80018a2:	463d      	mov	r5, r7
 80018a4:	463a      	mov	r2, r7
 80018a6:	463e      	mov	r6, r7
 80018a8:	e012      	b.n	80018d0 <parse_fixed_point+0x4c>
        str++;
 80018aa:	3001      	adds	r0, #1
        negative = true;
 80018ac:	f04f 0c01 	mov.w	ip, #1
 80018b0:	e7f6      	b.n	80018a0 <parse_fixed_point+0x1c>
        str++;
 80018b2:	3001      	adds	r0, #1
    bool negative = false;
 80018b4:	f04f 0c00 	mov.w	ip, #0
 80018b8:	e7f2      	b.n	80018a0 <parse_fixed_point+0x1c>
                    decimal_part = decimal_part * 10 + (*str - '0');
                    decimal_digits++;
                }
                /* Ignore additional decimal digits beyond 2 */
            } else {
                integer_part = integer_part * 10 + (*str - '0');
 80018ba:	eb06 0686 	add.w	r6, r6, r6, lsl #2
 80018be:	3b30      	subs	r3, #48	; 0x30
 80018c0:	eb03 0646 	add.w	r6, r3, r6, lsl #1
 80018c4:	e003      	b.n	80018ce <parse_fixed_point+0x4a>
            }
        } else if (*str == '.' && !after_decimal) {
 80018c6:	2b2e      	cmp	r3, #46	; 0x2e
 80018c8:	d12f      	bne.n	800192a <parse_fixed_point+0xa6>
 80018ca:	bb85      	cbnz	r5, 800192e <parse_fixed_point+0xaa>
            after_decimal = true;
 80018cc:	2501      	movs	r5, #1
        } else {
            /* Invalid character */
            return false;
        }
        str++;
 80018ce:	3001      	adds	r0, #1
    while (*str != '\0') {
 80018d0:	7803      	ldrb	r3, [r0, #0]
 80018d2:	b183      	cbz	r3, 80018f6 <parse_fixed_point+0x72>
        if (*str >= '0' && *str <= '9') {
 80018d4:	f1a3 0430 	sub.w	r4, r3, #48	; 0x30
 80018d8:	b2e4      	uxtb	r4, r4
 80018da:	2c09      	cmp	r4, #9
 80018dc:	d8f3      	bhi.n	80018c6 <parse_fixed_point+0x42>
            if (after_decimal) {
 80018de:	2d00      	cmp	r5, #0
 80018e0:	d0eb      	beq.n	80018ba <parse_fixed_point+0x36>
                if (decimal_digits < 2) {
 80018e2:	2f01      	cmp	r7, #1
 80018e4:	dcf3      	bgt.n	80018ce <parse_fixed_point+0x4a>
                    decimal_part = decimal_part * 10 + (*str - '0');
 80018e6:	eb02 0482 	add.w	r4, r2, r2, lsl #2
 80018ea:	f1a3 0230 	sub.w	r2, r3, #48	; 0x30
 80018ee:	eb02 0244 	add.w	r2, r2, r4, lsl #1
                    decimal_digits++;
 80018f2:	3701      	adds	r7, #1
 80018f4:	e7eb      	b.n	80018ce <parse_fixed_point+0x4a>
    }

    /* Scale decimal part to 2 digits (hundredths) */
    if (decimal_digits == 0) {
 80018f6:	b147      	cbz	r7, 800190a <parse_fixed_point+0x86>
        decimal_part = 0;
    } else if (decimal_digits == 1) {
 80018f8:	2f01      	cmp	r7, #1
 80018fa:	d003      	beq.n	8001904 <parse_fixed_point+0x80>
        decimal_part = decimal_part * 10;  /* 0.1 becomes 0.10 */
    } else if (decimal_digits > 2) {
 80018fc:	2f02      	cmp	r7, #2
 80018fe:	dc12      	bgt.n	8001926 <parse_fixed_point+0xa2>
 8001900:	4617      	mov	r7, r2
 8001902:	e002      	b.n	800190a <parse_fixed_point+0x86>
        decimal_part = decimal_part * 10;  /* 0.1 becomes 0.10 */
 8001904:	eb02 0282 	add.w	r2, r2, r2, lsl #2
 8001908:	0057      	lsls	r7, r2, #1
        /* Clamp to 2 digits maximum */
        decimal_part = 99;
    }

    /* Calculate fixed-point value (multiply by 100) */
    int32_t result = integer_part * 100 + decimal_part;
 800190a:	2364      	movs	r3, #100	; 0x64
 800190c:	fb03 7306 	mla	r3, r3, r6, r7

    if (negative) {
 8001910:	f1bc 0f00 	cmp.w	ip, #0
 8001914:	d000      	beq.n	8001918 <parse_fixed_point+0x94>
        result = -result;
 8001916:	425b      	negs	r3, r3
    }

    /* Check range (allow up to 4096.00 = 409600 in fixed-point) */
    if (result < 0 || result > 409600) {
 8001918:	f5b3 2fc8 	cmp.w	r3, #409600	; 0x64000
 800191c:	d809      	bhi.n	8001932 <parse_fixed_point+0xae>
        return false;
    }

    *value = (uint16_t)result;
 800191e:	800b      	strh	r3, [r1, #0]
    return true;
 8001920:	2001      	movs	r0, #1
}
 8001922:	bcf0      	pop	{r4, r5, r6, r7}
 8001924:	4770      	bx	lr
        decimal_part = 99;
 8001926:	2763      	movs	r7, #99	; 0x63
 8001928:	e7ef      	b.n	800190a <parse_fixed_point+0x86>
            return false;
 800192a:	2000      	movs	r0, #0
 800192c:	e7f9      	b.n	8001922 <parse_fixed_point+0x9e>
 800192e:	2000      	movs	r0, #0
 8001930:	e7f7      	b.n	8001922 <parse_fixed_point+0x9e>
        return false;
 8001932:	2000      	movs	r0, #0
 8001934:	e7f5      	b.n	8001922 <parse_fixed_point+0x9e>

08001936 <parse_uint16>:
{
    /* Parse unsigned integer */
    uint32_t result = 0;

    /* Skip leading spaces */
    while (*str == ' ' || *str == '\t') {
 8001936:	e000      	b.n	800193a <parse_uint16+0x4>
        str++;
 8001938:	3001      	adds	r0, #1
    while (*str == ' ' || *str == '\t') {
 800193a:	7803      	ldrb	r3, [r0, #0]
 800193c:	2b20      	cmp	r3, #32
 800193e:	d0fb      	beq.n	8001938 <parse_uint16+0x2>
 8001940:	2b09      	cmp	r3, #9
 8001942:	d0f9      	beq.n	8001938 <parse_uint16+0x2>
    uint32_t result = 0;
 8001944:	2200      	movs	r2, #0
    }

    /* Parse digits */
    while (*str != '\0') {
 8001946:	7803      	ldrb	r3, [r0, #0]
 8001948:	b1d3      	cbz	r3, 8001980 <parse_uint16+0x4a>
{
 800194a:	b410      	push	{r4}
        if (*str >= '0' && *str <= '9') {
 800194c:	f1a3 0430 	sub.w	r4, r3, #48	; 0x30
 8001950:	b2e4      	uxtb	r4, r4
 8001952:	2c09      	cmp	r4, #9
 8001954:	d80f      	bhi.n	8001976 <parse_uint16+0x40>
            result = result * 10 + (*str - '0');
 8001956:	eb02 0282 	add.w	r2, r2, r2, lsl #2
 800195a:	eb03 0342 	add.w	r3, r3, r2, lsl #1
 800195e:	f1a3 0230 	sub.w	r2, r3, #48	; 0x30
            if (result > 65535) {
 8001962:	f5b2 3f80 	cmp.w	r2, #65536	; 0x10000
 8001966:	d209      	bcs.n	800197c <parse_uint16+0x46>
            }
        } else {
            /* Invalid character */
            return false;
        }
        str++;
 8001968:	3001      	adds	r0, #1
    while (*str != '\0') {
 800196a:	7803      	ldrb	r3, [r0, #0]
 800196c:	2b00      	cmp	r3, #0
 800196e:	d1ed      	bne.n	800194c <parse_uint16+0x16>
    }

    *value = (uint16_t)result;
 8001970:	800a      	strh	r2, [r1, #0]
    return true;
 8001972:	2001      	movs	r0, #1
 8001974:	e000      	b.n	8001978 <parse_uint16+0x42>
            return false;
 8001976:	2000      	movs	r0, #0
}
 8001978:	bc10      	pop	{r4}
 800197a:	4770      	bx	lr
                return false;  /* Overflow */
 800197c:	2000      	movs	r0, #0
 800197e:	e7fb      	b.n	8001978 <parse_uint16+0x42>
    *value = (uint16_t)result;
 8001980:	800a      	strh	r2, [r1, #0]
    return true;
 8001982:	2001      	movs	r0, #1
}
 8001984:	4770      	bx	lr
	...

08001988 <uart_start_receive>:
{
 8001988:	b508      	push	{r3, lr}
    HAL_UART_Receive_IT(&huart3, g_uart_rx_buffer, 1);
 800198a:	2201      	movs	r2, #1
 800198c:	4902      	ldr	r1, [pc, #8]	; (8001998 <uart_start_receive+0x10>)
 800198e:	4803      	ldr	r0, [pc, #12]	; (800199c <uart_start_receive+0x14>)
 8001990:	f004 fc39 	bl	8006206 <HAL_UART_Receive_IT>
}
 8001994:	bd08      	pop	{r3, pc}
 8001996:	bf00      	nop
 8001998:	2000124c 	.word	0x2000124c
 800199c:	20002038 	.word	0x20002038

080019a0 <fixed_point_to_string>:
{
 80019a0:	b510      	push	{r4, lr}
 80019a2:	b082      	sub	sp, #8
    uint16_t integer_part = fixed_value / 100;
 80019a4:	4b0e      	ldr	r3, [pc, #56]	; (80019e0 <fixed_point_to_string+0x40>)
 80019a6:	fba3 2301 	umull	r2, r3, r3, r1
 80019aa:	095a      	lsrs	r2, r3, #5
 80019ac:	4613      	mov	r3, r2
    uint16_t decimal_part = fixed_value % 100;
 80019ae:	2464      	movs	r4, #100	; 0x64
 80019b0:	fb04 1112 	mls	r1, r4, r2, r1
 80019b4:	b289      	uxth	r1, r1
    if (decimal_part == 0) {
 80019b6:	b141      	cbz	r1, 80019ca <fixed_point_to_string+0x2a>
    } else if (decimal_part < 10) {
 80019b8:	2909      	cmp	r1, #9
 80019ba:	d80b      	bhi.n	80019d4 <fixed_point_to_string+0x34>
        snprintf(buffer, 16, "%u.0%u", integer_part, decimal_part);
 80019bc:	9100      	str	r1, [sp, #0]
 80019be:	4a09      	ldr	r2, [pc, #36]	; (80019e4 <fixed_point_to_string+0x44>)
 80019c0:	2110      	movs	r1, #16
 80019c2:	f006 fc97 	bl	80082f4 <sniprintf>
}
 80019c6:	b002      	add	sp, #8
 80019c8:	bd10      	pop	{r4, pc}
        snprintf(buffer, 16, "%u", integer_part);
 80019ca:	4a07      	ldr	r2, [pc, #28]	; (80019e8 <fixed_point_to_string+0x48>)
 80019cc:	2110      	movs	r1, #16
 80019ce:	f006 fc91 	bl	80082f4 <sniprintf>
 80019d2:	e7f8      	b.n	80019c6 <fixed_point_to_string+0x26>
        snprintf(buffer, 16, "%u.%u", integer_part, decimal_part);
 80019d4:	9100      	str	r1, [sp, #0]
 80019d6:	4a05      	ldr	r2, [pc, #20]	; (80019ec <fixed_point_to_string+0x4c>)
 80019d8:	2110      	movs	r1, #16
 80019da:	f006 fc8b 	bl	80082f4 <sniprintf>
}
 80019de:	e7f2      	b.n	80019c6 <fixed_point_to_string+0x26>
 80019e0:	51eb851f 	.word	0x51eb851f
 80019e4:	08008bc8 	.word	0x08008bc8
 80019e8:	08008bcc 	.word	0x08008bcc
 80019ec:	08008bd0 	.word	0x08008bd0

080019f0 <sensor_config_calculate_checksum>:
{
 80019f0:	4601      	mov	r1, r0
    for (uint32_t i = 0; i < sizeof(SensorConfig_t) - 2; i++) {
 80019f2:	2300      	movs	r3, #0
    uint16_t checksum = 0;
 80019f4:	4618      	mov	r0, r3
    for (uint32_t i = 0; i < sizeof(SensorConfig_t) - 2; i++) {
 80019f6:	e003      	b.n	8001a00 <sensor_config_calculate_checksum+0x10>
        checksum += data[i];
 80019f8:	5cca      	ldrb	r2, [r1, r3]
 80019fa:	4410      	add	r0, r2
 80019fc:	b280      	uxth	r0, r0
    for (uint32_t i = 0; i < sizeof(SensorConfig_t) - 2; i++) {
 80019fe:	3301      	adds	r3, #1
 8001a00:	2b29      	cmp	r3, #41	; 0x29
 8001a02:	d9f9      	bls.n	80019f8 <sensor_config_calculate_checksum+0x8>
}
 8001a04:	4770      	bx	lr
	...

08001a08 <sensor_config_set_defaults>:
{
 8001a08:	b510      	push	{r4, lr}
    g_sensor_config.magic = FLASH_CONFIG_MAGIC;
 8001a0a:	4b18      	ldr	r3, [pc, #96]	; (8001a6c <sensor_config_set_defaults+0x64>)
 8001a0c:	4a18      	ldr	r2, [pc, #96]	; (8001a70 <sensor_config_set_defaults+0x68>)
 8001a0e:	601a      	str	r2, [r3, #0]
    g_sensor_config.version = 2;  // Increment version for new structure
 8001a10:	2202      	movs	r2, #2
 8001a12:	809a      	strh	r2, [r3, #4]
    for (int i = 0; i < 5; i++) {
 8001a14:	2300      	movs	r3, #0
 8001a16:	2b04      	cmp	r3, #4
 8001a18:	dc08      	bgt.n	8001a2c <sensor_config_set_defaults+0x24>
        g_sensor_config.sensor_multiplier[i] = SENSOR_MULTIPLIERS_DEFAULT[i];
 8001a1a:	4a16      	ldr	r2, [pc, #88]	; (8001a74 <sensor_config_set_defaults+0x6c>)
 8001a1c:	f832 1013 	ldrh.w	r1, [r2, r3, lsl #1]
 8001a20:	4a12      	ldr	r2, [pc, #72]	; (8001a6c <sensor_config_set_defaults+0x64>)
 8001a22:	eb02 0243 	add.w	r2, r2, r3, lsl #1
 8001a26:	80d1      	strh	r1, [r2, #6]
    for (int i = 0; i < 5; i++) {
 8001a28:	3301      	adds	r3, #1
 8001a2a:	e7f4      	b.n	8001a16 <sensor_config_set_defaults+0xe>
    for (int i = 0; i < 5; i++) {
 8001a2c:	2300      	movs	r3, #0
 8001a2e:	2b04      	cmp	r3, #4
 8001a30:	dc07      	bgt.n	8001a42 <sensor_config_set_defaults+0x3a>
        g_sensor_config.sensor_threshold[i] = TRIGGER_THRESHOLD_BASE;
 8001a32:	f103 0108 	add.w	r1, r3, #8
 8001a36:	4a0d      	ldr	r2, [pc, #52]	; (8001a6c <sensor_config_set_defaults+0x64>)
 8001a38:	2096      	movs	r0, #150	; 0x96
 8001a3a:	f822 0011 	strh.w	r0, [r2, r1, lsl #1]
    for (int i = 0; i < 5; i++) {
 8001a3e:	3301      	adds	r3, #1
 8001a40:	e7f5      	b.n	8001a2e <sensor_config_set_defaults+0x26>
    g_sensor_config.trigger_threshold_base = TRIGGER_THRESHOLD_BASE;
 8001a42:	4c0a      	ldr	r4, [pc, #40]	; (8001a6c <sensor_config_set_defaults+0x64>)
 8001a44:	2396      	movs	r3, #150	; 0x96
 8001a46:	8363      	strh	r3, [r4, #26]
    g_sensor_config.tournament_duration_ms = TOURNAMENT_DURATION_MS;
 8001a48:	2304      	movs	r3, #4
 8001a4a:	83a3      	strh	r3, [r4, #28]
    g_sensor_config.cooling_down_ms = COOLING_DOWN_MS;
 8001a4c:	230f      	movs	r3, #15
 8001a4e:	83e3      	strh	r3, [r4, #30]
    g_sensor_config.key_press_duration_ms = KEY_PRESS_DURATION_MS;
 8001a50:	2314      	movs	r3, #20
 8001a52:	8423      	strh	r3, [r4, #32]
    g_sensor_config.threshold_multiplier_boost = THRESHOLD_MULTIPLIER_BOOST;
 8001a54:	f04f 537f 	mov.w	r3, #1069547520	; 0x3fc00000
 8001a58:	f8c4 3022 	str.w	r3, [r4, #34]	; 0x22
    g_sensor_config.threshold_decay_factor_float = THRESHOLD_DECAY_FACTOR_FLOAT;
 8001a5c:	4b06      	ldr	r3, [pc, #24]	; (8001a78 <sensor_config_set_defaults+0x70>)
 8001a5e:	f8c4 3026 	str.w	r3, [r4, #38]	; 0x26
    g_sensor_config.checksum = sensor_config_calculate_checksum(&g_sensor_config);
 8001a62:	4620      	mov	r0, r4
 8001a64:	f7ff ffc4 	bl	80019f0 <sensor_config_calculate_checksum>
 8001a68:	8560      	strh	r0, [r4, #42]	; 0x2a
}
 8001a6a:	bd10      	pop	{r4, pc}
 8001a6c:	2000121c 	.word	0x2000121c
 8001a70:	434f4e46 	.word	0x434f4e46
 8001a74:	080098cc 	.word	0x080098cc
 8001a78:	3f7851ec 	.word	0x3f7851ec

08001a7c <sensor_config_load_from_flash>:
    if (flash_config->magic != FLASH_CONFIG_MAGIC) {
 8001a7c:	4b24      	ldr	r3, [pc, #144]	; (8001b10 <sensor_config_load_from_flash+0x94>)
 8001a7e:	681a      	ldr	r2, [r3, #0]
 8001a80:	f103 536d 	add.w	r3, r3, #994050048	; 0x3b400000
 8001a84:	f503 2355 	add.w	r3, r3, #872448	; 0xd5000
 8001a88:	f203 2346 	addw	r3, r3, #582	; 0x246
 8001a8c:	429a      	cmp	r2, r3
 8001a8e:	d139      	bne.n	8001b04 <sensor_config_load_from_flash+0x88>
{
 8001a90:	b570      	push	{r4, r5, r6, lr}
    if (flash_config->version != 1 && flash_config->version != 2) {
 8001a92:	4b1f      	ldr	r3, [pc, #124]	; (8001b10 <sensor_config_load_from_flash+0x94>)
 8001a94:	889c      	ldrh	r4, [r3, #4]
 8001a96:	1e63      	subs	r3, r4, #1
 8001a98:	b29b      	uxth	r3, r3
 8001a9a:	2b01      	cmp	r3, #1
 8001a9c:	d834      	bhi.n	8001b08 <sensor_config_load_from_flash+0x8c>
    uint16_t stored_checksum = flash_config->checksum;
 8001a9e:	481c      	ldr	r0, [pc, #112]	; (8001b10 <sensor_config_load_from_flash+0x94>)
 8001aa0:	8d45      	ldrh	r5, [r0, #42]	; 0x2a
    uint16_t calculated_checksum = sensor_config_calculate_checksum(flash_config);
 8001aa2:	f7ff ffa5 	bl	80019f0 <sensor_config_calculate_checksum>
    if (stored_checksum != calculated_checksum) {
 8001aa6:	4285      	cmp	r5, r0
 8001aa8:	d130      	bne.n	8001b0c <sensor_config_load_from_flash+0x90>
    if (flash_config->version == 1) {
 8001aaa:	2c01      	cmp	r4, #1
 8001aac:	d00f      	beq.n	8001ace <sensor_config_load_from_flash+0x52>
        memcpy(&g_sensor_config, flash_config, sizeof(SensorConfig_t));
 8001aae:	4c19      	ldr	r4, [pc, #100]	; (8001b14 <sensor_config_load_from_flash+0x98>)
 8001ab0:	4d17      	ldr	r5, [pc, #92]	; (8001b10 <sensor_config_load_from_flash+0x94>)
 8001ab2:	cd0f      	ldmia	r5!, {r0, r1, r2, r3}
 8001ab4:	c40f      	stmia	r4!, {r0, r1, r2, r3}
 8001ab6:	cd0f      	ldmia	r5!, {r0, r1, r2, r3}
 8001ab8:	c40f      	stmia	r4!, {r0, r1, r2, r3}
 8001aba:	e895 0007 	ldmia.w	r5, {r0, r1, r2}
 8001abe:	e884 0007 	stmia.w	r4, {r0, r1, r2}
    g_trigger_fsm.current_threshold = g_sensor_config.sensor_threshold[0];
 8001ac2:	4b14      	ldr	r3, [pc, #80]	; (8001b14 <sensor_config_load_from_flash+0x98>)
 8001ac4:	8a1a      	ldrh	r2, [r3, #16]
 8001ac6:	4b14      	ldr	r3, [pc, #80]	; (8001b18 <sensor_config_load_from_flash+0x9c>)
 8001ac8:	815a      	strh	r2, [r3, #10]
    return true;
 8001aca:	2001      	movs	r0, #1
 8001acc:	e01d      	b.n	8001b0a <sensor_config_load_from_flash+0x8e>
        memcpy(&g_sensor_config, flash_config, offsetof(SensorConfig_t, trigger_threshold_base));
 8001ace:	4e11      	ldr	r6, [pc, #68]	; (8001b14 <sensor_config_load_from_flash+0x98>)
 8001ad0:	4634      	mov	r4, r6
 8001ad2:	4d0f      	ldr	r5, [pc, #60]	; (8001b10 <sensor_config_load_from_flash+0x94>)
 8001ad4:	cd0f      	ldmia	r5!, {r0, r1, r2, r3}
 8001ad6:	c40f      	stmia	r4!, {r0, r1, r2, r3}
 8001ad8:	e895 0007 	ldmia.w	r5, {r0, r1, r2}
 8001adc:	c403      	stmia	r4!, {r0, r1}
 8001ade:	8022      	strh	r2, [r4, #0]
        g_sensor_config.version = 1;
 8001ae0:	2301      	movs	r3, #1
 8001ae2:	80b3      	strh	r3, [r6, #4]
        g_sensor_config.trigger_threshold_base = TRIGGER_THRESHOLD_BASE;
 8001ae4:	2396      	movs	r3, #150	; 0x96
 8001ae6:	8373      	strh	r3, [r6, #26]
        g_sensor_config.tournament_duration_ms = TOURNAMENT_DURATION_MS;
 8001ae8:	2304      	movs	r3, #4
 8001aea:	83b3      	strh	r3, [r6, #28]
        g_sensor_config.cooling_down_ms = COOLING_DOWN_MS;
 8001aec:	230f      	movs	r3, #15
 8001aee:	83f3      	strh	r3, [r6, #30]
        g_sensor_config.key_press_duration_ms = KEY_PRESS_DURATION_MS;
 8001af0:	2314      	movs	r3, #20
 8001af2:	8433      	strh	r3, [r6, #32]
        g_sensor_config.threshold_multiplier_boost = THRESHOLD_MULTIPLIER_BOOST;
 8001af4:	f04f 537f 	mov.w	r3, #1069547520	; 0x3fc00000
 8001af8:	f8c6 3022 	str.w	r3, [r6, #34]	; 0x22
        g_sensor_config.threshold_decay_factor_float = THRESHOLD_DECAY_FACTOR_FLOAT;
 8001afc:	4b07      	ldr	r3, [pc, #28]	; (8001b1c <sensor_config_load_from_flash+0xa0>)
 8001afe:	f8c6 3026 	str.w	r3, [r6, #38]	; 0x26
 8001b02:	e7de      	b.n	8001ac2 <sensor_config_load_from_flash+0x46>
        return false;
 8001b04:	2000      	movs	r0, #0
}
 8001b06:	4770      	bx	lr
        return false;  // Version mismatch
 8001b08:	2000      	movs	r0, #0
}
 8001b0a:	bd70      	pop	{r4, r5, r6, pc}
        return false;
 8001b0c:	2000      	movs	r0, #0
 8001b0e:	e7fc      	b.n	8001b0a <sensor_config_load_from_flash+0x8e>
 8001b10:	0801fc00 	.word	0x0801fc00
 8001b14:	2000121c 	.word	0x2000121c
 8001b18:	200011f4 	.word	0x200011f4
 8001b1c:	3f7851ec 	.word	0x3f7851ec

08001b20 <sensor_config_init>:
{
 8001b20:	b508      	push	{r3, lr}
    if (!sensor_config_load_from_flash()) {
 8001b22:	f7ff ffab 	bl	8001a7c <sensor_config_load_from_flash>
 8001b26:	b1a8      	cbz	r0, 8001b54 <sensor_config_init+0x34>
        g_config_load_failed = false;
 8001b28:	4b0d      	ldr	r3, [pc, #52]	; (8001b60 <sensor_config_init+0x40>)
 8001b2a:	2200      	movs	r2, #0
 8001b2c:	701a      	strb	r2, [r3, #0]
    g_trigger_fsm.current_threshold = g_sensor_config.sensor_threshold[0];
 8001b2e:	4a0d      	ldr	r2, [pc, #52]	; (8001b64 <sensor_config_init+0x44>)
 8001b30:	8a11      	ldrh	r1, [r2, #16]
 8001b32:	4b0d      	ldr	r3, [pc, #52]	; (8001b68 <sensor_config_init+0x48>)
 8001b34:	8159      	strh	r1, [r3, #10]
    g_trigger_fsm.tournament_duration_ms = g_sensor_config.tournament_duration_ms;
 8001b36:	8b91      	ldrh	r1, [r2, #28]
 8001b38:	8199      	strh	r1, [r3, #12]
    g_trigger_fsm.cooling_down_ms = g_sensor_config.cooling_down_ms;
 8001b3a:	8bd1      	ldrh	r1, [r2, #30]
 8001b3c:	81d9      	strh	r1, [r3, #14]
    g_trigger_fsm.key_press_duration_ms = g_sensor_config.key_press_duration_ms;
 8001b3e:	8c11      	ldrh	r1, [r2, #32]
 8001b40:	8219      	strh	r1, [r3, #16]
    g_trigger_fsm.threshold_multiplier_boost = g_sensor_config.threshold_multiplier_boost;
 8001b42:	f8d2 1022 	ldr.w	r1, [r2, #34]	; 0x22
 8001b46:	6159      	str	r1, [r3, #20]
    g_trigger_fsm.threshold_decay_factor_float = g_sensor_config.threshold_decay_factor_float;
 8001b48:	f8d2 2026 	ldr.w	r2, [r2, #38]	; 0x26
 8001b4c:	619a      	str	r2, [r3, #24]
    uart_start_receive();
 8001b4e:	f7ff ff1b 	bl	8001988 <uart_start_receive>
}
 8001b52:	bd08      	pop	{r3, pc}
        g_config_load_failed = true;
 8001b54:	4b02      	ldr	r3, [pc, #8]	; (8001b60 <sensor_config_init+0x40>)
 8001b56:	2201      	movs	r2, #1
 8001b58:	701a      	strb	r2, [r3, #0]
        sensor_config_set_defaults();
 8001b5a:	f7ff ff55 	bl	8001a08 <sensor_config_set_defaults>
 8001b5e:	e7e6      	b.n	8001b2e <sensor_config_init+0xe>
 8001b60:	20001218 	.word	0x20001218
 8001b64:	2000121c 	.word	0x2000121c
 8001b68:	200011f4 	.word	0x200011f4

08001b6c <sensor_config_save_to_flash>:
{
 8001b6c:	b530      	push	{r4, r5, lr}
 8001b6e:	b087      	sub	sp, #28
    g_sensor_config.checksum = sensor_config_calculate_checksum(&g_sensor_config);
 8001b70:	4c23      	ldr	r4, [pc, #140]	; (8001c00 <sensor_config_save_to_flash+0x94>)
 8001b72:	4620      	mov	r0, r4
 8001b74:	f7ff ff3c 	bl	80019f0 <sensor_config_calculate_checksum>
 8001b78:	8560      	strh	r0, [r4, #42]	; 0x2a
 */
__STATIC_FORCEINLINE uint32_t __get_PRIMASK(void)
{
  uint32_t result;

  __ASM volatile ("MRS %0, primask" : "=r" (result) :: "memory");
 8001b7a:	f3ef 8510 	mrs	r5, PRIMASK
  __ASM volatile ("cpsid i" : : : "memory");
 8001b7e:	b672      	cpsid	i
    status = HAL_FLASH_Unlock();
 8001b80:	f002 f84a 	bl	8003c18 <HAL_FLASH_Unlock>
    if (status != HAL_OK) {
 8001b84:	b120      	cbz	r0, 8001b90 <sensor_config_save_to_flash+0x24>
  \details Assigns the given value to the Priority Mask Register.
  \param [in]    priMask  Priority Mask
 */
__STATIC_FORCEINLINE void __set_PRIMASK(uint32_t priMask)
{
  __ASM volatile ("MSR primask, %0" : : "r" (priMask) : "memory");
 8001b86:	f385 8810 	msr	PRIMASK, r5
        return false;
 8001b8a:	2000      	movs	r0, #0
}
 8001b8c:	b007      	add	sp, #28
 8001b8e:	bd30      	pop	{r4, r5, pc}
    __HAL_FLASH_CLEAR_FLAG(FLASH_FLAG_EOP | FLASH_FLAG_PGERR | FLASH_FLAG_WRPERR);
 8001b90:	4b1c      	ldr	r3, [pc, #112]	; (8001c04 <sensor_config_save_to_flash+0x98>)
 8001b92:	2234      	movs	r2, #52	; 0x34
 8001b94:	60da      	str	r2, [r3, #12]
    uint32_t page_error = 0;
 8001b96:	2300      	movs	r3, #0
 8001b98:	9301      	str	r3, [sp, #4]
    erase_init.TypeErase = FLASH_TYPEERASE_PAGES;
 8001b9a:	9302      	str	r3, [sp, #8]
    erase_init.PageAddress = FLASH_CONFIG_ADDRESS;
 8001b9c:	4b1a      	ldr	r3, [pc, #104]	; (8001c08 <sensor_config_save_to_flash+0x9c>)
 8001b9e:	9304      	str	r3, [sp, #16]
    erase_init.NbPages = 1;
 8001ba0:	2301      	movs	r3, #1
 8001ba2:	9305      	str	r3, [sp, #20]
    status = HAL_FLASHEx_Erase(&erase_init, &page_error);
 8001ba4:	a901      	add	r1, sp, #4
 8001ba6:	a802      	add	r0, sp, #8
 8001ba8:	f002 f900 	bl	8003dac <HAL_FLASHEx_Erase>
    if (status != HAL_OK) {
 8001bac:	b988      	cbnz	r0, 8001bd2 <sensor_config_save_to_flash+0x66>
    for (uint32_t i = 0; i < num_words; i++) {
 8001bae:	2400      	movs	r4, #0
 8001bb0:	2c0a      	cmp	r4, #10
 8001bb2:	d81a      	bhi.n	8001bea <sensor_config_save_to_flash+0x7e>
                                   FLASH_CONFIG_ADDRESS + (i * 4),
 8001bb4:	f104 7100 	add.w	r1, r4, #33554432	; 0x2000000
 8001bb8:	f501 41fe 	add.w	r1, r1, #32512	; 0x7f00
        status = HAL_FLASH_Program(FLASH_TYPEPROGRAM_WORD,
 8001bbc:	4b10      	ldr	r3, [pc, #64]	; (8001c00 <sensor_config_save_to_flash+0x94>)
 8001bbe:	f853 2024 	ldr.w	r2, [r3, r4, lsl #2]
 8001bc2:	2300      	movs	r3, #0
 8001bc4:	0089      	lsls	r1, r1, #2
 8001bc6:	2002      	movs	r0, #2
 8001bc8:	f002 f87e 	bl	8003cc8 <HAL_FLASH_Program>
        if (status != HAL_OK) {
 8001bcc:	b938      	cbnz	r0, 8001bde <sensor_config_save_to_flash+0x72>
    for (uint32_t i = 0; i < num_words; i++) {
 8001bce:	3401      	adds	r4, #1
 8001bd0:	e7ee      	b.n	8001bb0 <sensor_config_save_to_flash+0x44>
        HAL_FLASH_Lock();
 8001bd2:	f002 f83b 	bl	8003c4c <HAL_FLASH_Lock>
 8001bd6:	f385 8810 	msr	PRIMASK, r5
        return false;
 8001bda:	2000      	movs	r0, #0
 8001bdc:	e7d6      	b.n	8001b8c <sensor_config_save_to_flash+0x20>
            HAL_FLASH_Lock();
 8001bde:	f002 f835 	bl	8003c4c <HAL_FLASH_Lock>
 8001be2:	f385 8810 	msr	PRIMASK, r5
            return false;
 8001be6:	2000      	movs	r0, #0
 8001be8:	e7d0      	b.n	8001b8c <sensor_config_save_to_flash+0x20>
    status = HAL_FLASH_Lock();
 8001bea:	f002 f82f 	bl	8003c4c <HAL_FLASH_Lock>
  __ASM volatile ("cpsie i" : : : "memory");
 8001bee:	b662      	cpsie	i
  __ASM volatile ("MSR primask, %0" : : "r" (priMask) : "memory");
 8001bf0:	f385 8810 	msr	PRIMASK, r5
    if (status != HAL_OK) {
 8001bf4:	b908      	cbnz	r0, 8001bfa <sensor_config_save_to_flash+0x8e>
    return true;
 8001bf6:	2001      	movs	r0, #1
 8001bf8:	e7c8      	b.n	8001b8c <sensor_config_save_to_flash+0x20>
        return false;
 8001bfa:	2000      	movs	r0, #0
 8001bfc:	e7c6      	b.n	8001b8c <sensor_config_save_to_flash+0x20>
 8001bfe:	bf00      	nop
 8001c00:	2000121c 	.word	0x2000121c
 8001c04:	40022000 	.word	0x40022000
 8001c08:	0801fc00 	.word	0x0801fc00

08001c0c <HAL_UART_RxCpltCallback>:
{
 8001c0c:	b508      	push	{r3, lr}
    if (huart->Instance == USART3) {
 8001c0e:	6802      	ldr	r2, [r0, #0]
 8001c10:	4b05      	ldr	r3, [pc, #20]	; (8001c28 <HAL_UART_RxCpltCallback+0x1c>)
 8001c12:	429a      	cmp	r2, r3
 8001c14:	d000      	beq.n	8001c18 <HAL_UART_RxCpltCallback+0xc>
}
 8001c16:	bd08      	pop	{r3, pc}
        uart_terminal_receive_byte(g_uart_rx_buffer[0]);
 8001c18:	4b04      	ldr	r3, [pc, #16]	; (8001c2c <HAL_UART_RxCpltCallback+0x20>)
 8001c1a:	7818      	ldrb	r0, [r3, #0]
 8001c1c:	f000 fd9e 	bl	800275c <uart_terminal_receive_byte>
        uart_start_receive();
 8001c20:	f7ff feb2 	bl	8001988 <uart_start_receive>
}
 8001c24:	e7f7      	b.n	8001c16 <HAL_UART_RxCpltCallback+0xa>
 8001c26:	bf00      	nop
 8001c28:	40004800 	.word	0x40004800
 8001c2c:	2000124c 	.word	0x2000124c

08001c30 <HAL_UART_ErrorCallback>:
}
 8001c30:	4770      	bx	lr

08001c32 <sensor_config_send_string>:
{
    sensor_config_send_string("OK\r\n");
}

void sensor_config_send_string(const char *str)
{
 8001c32:	b510      	push	{r4, lr}
 8001c34:	4604      	mov	r4, r0
    uart_terminal_send((const uint8_t *)str, strlen(str));
 8001c36:	f7fe fa93 	bl	8000160 <strlen>
 8001c3a:	b281      	uxth	r1, r0
 8001c3c:	4620      	mov	r0, r4
 8001c3e:	f000 fd79 	bl	8002734 <uart_terminal_send>
}
 8001c42:	bd10      	pop	{r4, pc}

08001c44 <sensor_config_send_ok>:
{
 8001c44:	b508      	push	{r3, lr}
    sensor_config_send_string("OK\r\n");
 8001c46:	4802      	ldr	r0, [pc, #8]	; (8001c50 <sensor_config_send_ok+0xc>)
 8001c48:	f7ff fff3 	bl	8001c32 <sensor_config_send_string>
}
 8001c4c:	bd08      	pop	{r3, pc}
 8001c4e:	bf00      	nop
 8001c50:	08008bd8 	.word	0x08008bd8

08001c54 <handle_set_command>:
{
 8001c54:	b570      	push	{r4, r5, r6, lr}
 8001c56:	b084      	sub	sp, #16
 8001c58:	4604      	mov	r4, r0
 8001c5a:	460d      	mov	r5, r1
    if (strlen(var_name) == 5 && strncmp(var_name, "mult", 4) == 0) {
 8001c5c:	f7fe fa80 	bl	8000160 <strlen>
 8001c60:	2805      	cmp	r0, #5
 8001c62:	d044      	beq.n	8001cee <handle_set_command+0x9a>
    if (strlen(var_name) == 3 && strncmp(var_name, "th", 2) == 0) {
 8001c64:	4620      	mov	r0, r4
 8001c66:	f7fe fa7b 	bl	8000160 <strlen>
 8001c6a:	2803      	cmp	r0, #3
 8001c6c:	d05a      	beq.n	8001d24 <handle_set_command+0xd0>
    if (strcmp(var_name, "base_th") == 0) {
 8001c6e:	4976      	ldr	r1, [pc, #472]	; (8001e48 <handle_set_command+0x1f4>)
 8001c70:	4620      	mov	r0, r4
 8001c72:	f7fe fa6b 	bl	800014c <strcmp>
 8001c76:	4606      	mov	r6, r0
 8001c78:	2800      	cmp	r0, #0
 8001c7a:	d072      	beq.n	8001d62 <handle_set_command+0x10e>
    if (strcmp(var_name, "tour_dur") == 0) {
 8001c7c:	4973      	ldr	r1, [pc, #460]	; (8001e4c <handle_set_command+0x1f8>)
 8001c7e:	4620      	mov	r0, r4
 8001c80:	f7fe fa64 	bl	800014c <strcmp>
 8001c84:	2800      	cmp	r0, #0
 8001c86:	f000 8085 	beq.w	8001d94 <handle_set_command+0x140>
    if (strcmp(var_name, "cool_down") == 0) {
 8001c8a:	4971      	ldr	r1, [pc, #452]	; (8001e50 <handle_set_command+0x1fc>)
 8001c8c:	4620      	mov	r0, r4
 8001c8e:	f7fe fa5d 	bl	800014c <strcmp>
 8001c92:	2800      	cmp	r0, #0
 8001c94:	f000 808f 	beq.w	8001db6 <handle_set_command+0x162>
    if (strcmp(var_name, "key_dur") == 0) {
 8001c98:	496e      	ldr	r1, [pc, #440]	; (8001e54 <handle_set_command+0x200>)
 8001c9a:	4620      	mov	r0, r4
 8001c9c:	f7fe fa56 	bl	800014c <strcmp>
 8001ca0:	2800      	cmp	r0, #0
 8001ca2:	f000 8099 	beq.w	8001dd8 <handle_set_command+0x184>
    if (strcmp(var_name, "th_boost") == 0) {
 8001ca6:	496c      	ldr	r1, [pc, #432]	; (8001e58 <handle_set_command+0x204>)
 8001ca8:	4620      	mov	r0, r4
 8001caa:	f7fe fa4f 	bl	800014c <strcmp>
 8001cae:	2800      	cmp	r0, #0
 8001cb0:	f000 80a3 	beq.w	8001dfa <handle_set_command+0x1a6>
    if (strcmp(var_name, "th_decay") == 0) {
 8001cb4:	4969      	ldr	r1, [pc, #420]	; (8001e5c <handle_set_command+0x208>)
 8001cb6:	4620      	mov	r0, r4
 8001cb8:	f7fe fa48 	bl	800014c <strcmp>
 8001cbc:	b990      	cbnz	r0, 8001ce4 <handle_set_command+0x90>
        if (parse_simple_float(value_str, &float_val)) {
 8001cbe:	a902      	add	r1, sp, #8
 8001cc0:	4628      	mov	r0, r5
 8001cc2:	f7ff fd89 	bl	80017d8 <parse_simple_float>
 8001cc6:	b168      	cbz	r0, 8001ce4 <handle_set_command+0x90>
            if (float_val > 0.0f && float_val < 1.0f) {
 8001cc8:	9c02      	ldr	r4, [sp, #8]
 8001cca:	2100      	movs	r1, #0
 8001ccc:	4620      	mov	r0, r4
 8001cce:	f7fe fd19 	bl	8000704 <__aeabi_fcmpgt>
 8001cd2:	b138      	cbz	r0, 8001ce4 <handle_set_command+0x90>
 8001cd4:	f04f 517e 	mov.w	r1, #1065353216	; 0x3f800000
 8001cd8:	4620      	mov	r0, r4
 8001cda:	f7fe fcf5 	bl	80006c8 <__aeabi_fcmplt>
 8001cde:	2800      	cmp	r0, #0
 8001ce0:	f040 80a9 	bne.w	8001e36 <handle_set_command+0x1e2>
    sensor_config_send_string("ERROR: Invalid variable\r\n");
 8001ce4:	485e      	ldr	r0, [pc, #376]	; (8001e60 <handle_set_command+0x20c>)
 8001ce6:	f7ff ffa4 	bl	8001c32 <sensor_config_send_string>
}
 8001cea:	b004      	add	sp, #16
 8001cec:	bd70      	pop	{r4, r5, r6, pc}
    if (strlen(var_name) == 5 && strncmp(var_name, "mult", 4) == 0) {
 8001cee:	2204      	movs	r2, #4
 8001cf0:	495c      	ldr	r1, [pc, #368]	; (8001e64 <handle_set_command+0x210>)
 8001cf2:	4620      	mov	r0, r4
 8001cf4:	f006 fb3f 	bl	8008376 <strncmp>
 8001cf8:	2800      	cmp	r0, #0
 8001cfa:	d1b3      	bne.n	8001c64 <handle_set_command+0x10>
        int sensor_idx = var_name[4] - '0';
 8001cfc:	7926      	ldrb	r6, [r4, #4]
 8001cfe:	3e30      	subs	r6, #48	; 0x30
        if (sensor_idx >= 0 && sensor_idx < 5) {
 8001d00:	2e04      	cmp	r6, #4
 8001d02:	d8af      	bhi.n	8001c64 <handle_set_command+0x10>
            if (parse_fixed_point(value_str, &fixed_value)) {
 8001d04:	f10d 0106 	add.w	r1, sp, #6
 8001d08:	4628      	mov	r0, r5
 8001d0a:	f7ff fdbb 	bl	8001884 <parse_fixed_point>
 8001d0e:	2800      	cmp	r0, #0
 8001d10:	d0a8      	beq.n	8001c64 <handle_set_command+0x10>
                g_sensor_config.sensor_multiplier[sensor_idx] = fixed_value;
 8001d12:	4b55      	ldr	r3, [pc, #340]	; (8001e68 <handle_set_command+0x214>)
 8001d14:	eb03 0646 	add.w	r6, r3, r6, lsl #1
 8001d18:	f8bd 3006 	ldrh.w	r3, [sp, #6]
 8001d1c:	80f3      	strh	r3, [r6, #6]
                sensor_config_send_ok();
 8001d1e:	f7ff ff91 	bl	8001c44 <sensor_config_send_ok>
                return;
 8001d22:	e7e2      	b.n	8001cea <handle_set_command+0x96>
    if (strlen(var_name) == 3 && strncmp(var_name, "th", 2) == 0) {
 8001d24:	2202      	movs	r2, #2
 8001d26:	4951      	ldr	r1, [pc, #324]	; (8001e6c <handle_set_command+0x218>)
 8001d28:	4620      	mov	r0, r4
 8001d2a:	f006 fb24 	bl	8008376 <strncmp>
 8001d2e:	2800      	cmp	r0, #0
 8001d30:	d19d      	bne.n	8001c6e <handle_set_command+0x1a>
        int sensor_idx = var_name[2] - '0';
 8001d32:	78a6      	ldrb	r6, [r4, #2]
 8001d34:	3e30      	subs	r6, #48	; 0x30
        if (sensor_idx >= 0 && sensor_idx < 5) {
 8001d36:	2e04      	cmp	r6, #4
 8001d38:	d899      	bhi.n	8001c6e <handle_set_command+0x1a>
            if (parse_uint16(value_str, &uint_val)) {
 8001d3a:	f10d 010e 	add.w	r1, sp, #14
 8001d3e:	4628      	mov	r0, r5
 8001d40:	f7ff fdf9 	bl	8001936 <parse_uint16>
 8001d44:	2800      	cmp	r0, #0
 8001d46:	d092      	beq.n	8001c6e <handle_set_command+0x1a>
                g_sensor_config.sensor_threshold[sensor_idx] = uint_val;
 8001d48:	f8bd 300e 	ldrh.w	r3, [sp, #14]
 8001d4c:	f106 0108 	add.w	r1, r6, #8
 8001d50:	4a45      	ldr	r2, [pc, #276]	; (8001e68 <handle_set_command+0x214>)
 8001d52:	f822 3011 	strh.w	r3, [r2, r1, lsl #1]
                if (sensor_idx == 0) {
 8001d56:	b90e      	cbnz	r6, 8001d5c <handle_set_command+0x108>
                    g_trigger_fsm.current_threshold = uint_val;
 8001d58:	4a45      	ldr	r2, [pc, #276]	; (8001e70 <handle_set_command+0x21c>)
 8001d5a:	8153      	strh	r3, [r2, #10]
                sensor_config_send_ok();
 8001d5c:	f7ff ff72 	bl	8001c44 <sensor_config_send_ok>
                return;
 8001d60:	e7c3      	b.n	8001cea <handle_set_command+0x96>
        if (parse_uint16(value_str, &uint_val)) {
 8001d62:	f10d 010e 	add.w	r1, sp, #14
 8001d66:	4628      	mov	r0, r5
 8001d68:	f7ff fde5 	bl	8001936 <parse_uint16>
 8001d6c:	2800      	cmp	r0, #0
 8001d6e:	d085      	beq.n	8001c7c <handle_set_command+0x28>
            g_sensor_config.trigger_threshold_base = uint_val;
 8001d70:	f8bd 100e 	ldrh.w	r1, [sp, #14]
 8001d74:	4b3c      	ldr	r3, [pc, #240]	; (8001e68 <handle_set_command+0x214>)
 8001d76:	8359      	strh	r1, [r3, #26]
            for (int i = 0; i < 5; i++) {
 8001d78:	2e04      	cmp	r6, #4
 8001d7a:	dc06      	bgt.n	8001d8a <handle_set_command+0x136>
                g_sensor_config.sensor_threshold[i] = uint_val;
 8001d7c:	f106 0208 	add.w	r2, r6, #8
 8001d80:	4b39      	ldr	r3, [pc, #228]	; (8001e68 <handle_set_command+0x214>)
 8001d82:	f823 1012 	strh.w	r1, [r3, r2, lsl #1]
            for (int i = 0; i < 5; i++) {
 8001d86:	3601      	adds	r6, #1
 8001d88:	e7f6      	b.n	8001d78 <handle_set_command+0x124>
            g_trigger_fsm.current_threshold = uint_val;
 8001d8a:	4b39      	ldr	r3, [pc, #228]	; (8001e70 <handle_set_command+0x21c>)
 8001d8c:	8159      	strh	r1, [r3, #10]
            sensor_config_send_ok();
 8001d8e:	f7ff ff59 	bl	8001c44 <sensor_config_send_ok>
            return;
 8001d92:	e7aa      	b.n	8001cea <handle_set_command+0x96>
        if (parse_uint16(value_str, &uint_val)) {
 8001d94:	f10d 010e 	add.w	r1, sp, #14
 8001d98:	4628      	mov	r0, r5
 8001d9a:	f7ff fdcc 	bl	8001936 <parse_uint16>
 8001d9e:	2800      	cmp	r0, #0
 8001da0:	f43f af73 	beq.w	8001c8a <handle_set_command+0x36>
            g_sensor_config.tournament_duration_ms = uint_val;
 8001da4:	f8bd 300e 	ldrh.w	r3, [sp, #14]
 8001da8:	4a2f      	ldr	r2, [pc, #188]	; (8001e68 <handle_set_command+0x214>)
 8001daa:	8393      	strh	r3, [r2, #28]
            g_trigger_fsm.tournament_duration_ms = uint_val;
 8001dac:	4a30      	ldr	r2, [pc, #192]	; (8001e70 <handle_set_command+0x21c>)
 8001dae:	8193      	strh	r3, [r2, #12]
            sensor_config_send_ok();
 8001db0:	f7ff ff48 	bl	8001c44 <sensor_config_send_ok>
            return;
 8001db4:	e799      	b.n	8001cea <handle_set_command+0x96>
        if (parse_uint16(value_str, &uint_val)) {
 8001db6:	f10d 010e 	add.w	r1, sp, #14
 8001dba:	4628      	mov	r0, r5
 8001dbc:	f7ff fdbb 	bl	8001936 <parse_uint16>
 8001dc0:	2800      	cmp	r0, #0
 8001dc2:	f43f af69 	beq.w	8001c98 <handle_set_command+0x44>
            g_sensor_config.cooling_down_ms = uint_val;
 8001dc6:	f8bd 300e 	ldrh.w	r3, [sp, #14]
 8001dca:	4a27      	ldr	r2, [pc, #156]	; (8001e68 <handle_set_command+0x214>)
 8001dcc:	83d3      	strh	r3, [r2, #30]
            g_trigger_fsm.cooling_down_ms = uint_val;
 8001dce:	4a28      	ldr	r2, [pc, #160]	; (8001e70 <handle_set_command+0x21c>)
 8001dd0:	81d3      	strh	r3, [r2, #14]
            sensor_config_send_ok();
 8001dd2:	f7ff ff37 	bl	8001c44 <sensor_config_send_ok>
            return;
 8001dd6:	e788      	b.n	8001cea <handle_set_command+0x96>
        if (parse_uint16(value_str, &uint_val)) {
 8001dd8:	f10d 010e 	add.w	r1, sp, #14
 8001ddc:	4628      	mov	r0, r5
 8001dde:	f7ff fdaa 	bl	8001936 <parse_uint16>
 8001de2:	2800      	cmp	r0, #0
 8001de4:	f43f af5f 	beq.w	8001ca6 <handle_set_command+0x52>
            g_sensor_config.key_press_duration_ms = uint_val;
 8001de8:	f8bd 300e 	ldrh.w	r3, [sp, #14]
 8001dec:	4a1e      	ldr	r2, [pc, #120]	; (8001e68 <handle_set_command+0x214>)
 8001dee:	8413      	strh	r3, [r2, #32]
            g_trigger_fsm.key_press_duration_ms = uint_val;
 8001df0:	4a1f      	ldr	r2, [pc, #124]	; (8001e70 <handle_set_command+0x21c>)
 8001df2:	8213      	strh	r3, [r2, #16]
            sensor_config_send_ok();
 8001df4:	f7ff ff26 	bl	8001c44 <sensor_config_send_ok>
            return;
 8001df8:	e777      	b.n	8001cea <handle_set_command+0x96>
        if (parse_simple_float(value_str, &float_val)) {
 8001dfa:	a902      	add	r1, sp, #8
 8001dfc:	4628      	mov	r0, r5
 8001dfe:	f7ff fceb 	bl	80017d8 <parse_simple_float>
 8001e02:	2800      	cmp	r0, #0
 8001e04:	f43f af56 	beq.w	8001cb4 <handle_set_command+0x60>
            if (float_val > 0.0f && float_val <= 10.0f) {
 8001e08:	9e02      	ldr	r6, [sp, #8]
 8001e0a:	2100      	movs	r1, #0
 8001e0c:	4630      	mov	r0, r6
 8001e0e:	f7fe fc79 	bl	8000704 <__aeabi_fcmpgt>
 8001e12:	2800      	cmp	r0, #0
 8001e14:	f43f af4e 	beq.w	8001cb4 <handle_set_command+0x60>
 8001e18:	4916      	ldr	r1, [pc, #88]	; (8001e74 <handle_set_command+0x220>)
 8001e1a:	4630      	mov	r0, r6
 8001e1c:	f7fe fc5e 	bl	80006dc <__aeabi_fcmple>
 8001e20:	2800      	cmp	r0, #0
 8001e22:	f43f af47 	beq.w	8001cb4 <handle_set_command+0x60>
                g_sensor_config.threshold_multiplier_boost = float_val;
 8001e26:	4b10      	ldr	r3, [pc, #64]	; (8001e68 <handle_set_command+0x214>)
 8001e28:	f8c3 6022 	str.w	r6, [r3, #34]	; 0x22
                g_trigger_fsm.threshold_multiplier_boost = float_val;
 8001e2c:	4b10      	ldr	r3, [pc, #64]	; (8001e70 <handle_set_command+0x21c>)
 8001e2e:	615e      	str	r6, [r3, #20]
                sensor_config_send_ok();
 8001e30:	f7ff ff08 	bl	8001c44 <sensor_config_send_ok>
                return;
 8001e34:	e759      	b.n	8001cea <handle_set_command+0x96>
                g_sensor_config.threshold_decay_factor_float = float_val;
 8001e36:	4b0c      	ldr	r3, [pc, #48]	; (8001e68 <handle_set_command+0x214>)
 8001e38:	f8c3 4026 	str.w	r4, [r3, #38]	; 0x26
                g_trigger_fsm.threshold_decay_factor_float = float_val;
 8001e3c:	4b0c      	ldr	r3, [pc, #48]	; (8001e70 <handle_set_command+0x21c>)
 8001e3e:	619c      	str	r4, [r3, #24]
                sensor_config_send_ok();
 8001e40:	f7ff ff00 	bl	8001c44 <sensor_config_send_ok>
                return;
 8001e44:	e751      	b.n	8001cea <handle_set_command+0x96>
 8001e46:	bf00      	nop
 8001e48:	08008bec 	.word	0x08008bec
 8001e4c:	08008bf4 	.word	0x08008bf4
 8001e50:	08008c00 	.word	0x08008c00
 8001e54:	08008c0c 	.word	0x08008c0c
 8001e58:	08008c14 	.word	0x08008c14
 8001e5c:	08008c20 	.word	0x08008c20
 8001e60:	08008c2c 	.word	0x08008c2c
 8001e64:	08008be0 	.word	0x08008be0
 8001e68:	2000121c 	.word	0x2000121c
 8001e6c:	08008be8 	.word	0x08008be8
 8001e70:	200011f4 	.word	0x200011f4
 8001e74:	41200000 	.word	0x41200000

08001e78 <sensor_config_send_float>:

void sensor_config_send_float(const char *prefix, float value)
{
 8001e78:	b570      	push	{r4, r5, r6, lr}
 8001e7a:	b08a      	sub	sp, #40	; 0x28
 8001e7c:	4605      	mov	r5, r0
 8001e7e:	460c      	mov	r4, r1
    char buffer[32];
    int len;

    /* Format float with 2 decimal places */
    int32_t int_part = (int32_t)value;
 8001e80:	4608      	mov	r0, r1
 8001e82:	f7fe fc49 	bl	8000718 <__aeabi_f2iz>
 8001e86:	4606      	mov	r6, r0
    float frac = value - (float)int_part;
 8001e88:	f7fe fa2c 	bl	80002e4 <__aeabi_i2f>
 8001e8c:	4601      	mov	r1, r0
 8001e8e:	4620      	mov	r0, r4
 8001e90:	f7fe f972 	bl	8000178 <__aeabi_fsub>
 8001e94:	4604      	mov	r4, r0

    if (frac < 0.005f) {
 8001e96:	4919      	ldr	r1, [pc, #100]	; (8001efc <sensor_config_send_float+0x84>)
 8001e98:	f7fe fc16 	bl	80006c8 <__aeabi_fcmplt>
 8001e9c:	b9d8      	cbnz	r0, 8001ed6 <sensor_config_send_float+0x5e>
        /* No decimal part (or very small) */
        len = snprintf(buffer, sizeof(buffer), "%s=%ld\r\n", prefix, (long)int_part);
    } else {
        /* Two decimal places */
        int32_t frac_part = (int32_t)(frac * 100.0f + 0.5f);  // Round to 2 digits
 8001e9e:	4918      	ldr	r1, [pc, #96]	; (8001f00 <sensor_config_send_float+0x88>)
 8001ea0:	4620      	mov	r0, r4
 8001ea2:	f7fe fa73 	bl	800038c <__aeabi_fmul>
 8001ea6:	f04f 517c 	mov.w	r1, #1056964608	; 0x3f000000
 8001eaa:	f7fe f967 	bl	800017c <__addsf3>
 8001eae:	f7fe fc33 	bl	8000718 <__aeabi_f2iz>
        if (frac_part >= 100) {
 8001eb2:	2863      	cmp	r0, #99	; 0x63
 8001eb4:	dc20      	bgt.n	8001ef8 <sensor_config_send_float+0x80>
            frac_part = 99;  // Clamp to 2 digits max
        }

        if (frac_part < 10) {
 8001eb6:	2809      	cmp	r0, #9
 8001eb8:	dd15      	ble.n	8001ee6 <sensor_config_send_float+0x6e>
            /* Add leading zero (e.g., 1.05) */
            len = snprintf(buffer, sizeof(buffer), "%s=%ld.0%ld\r\n", prefix,
                           (long)int_part, (long)frac_part);
        } else {
            len = snprintf(buffer, sizeof(buffer), "%s=%ld.%ld\r\n", prefix,
 8001eba:	9001      	str	r0, [sp, #4]
 8001ebc:	9600      	str	r6, [sp, #0]
 8001ebe:	462b      	mov	r3, r5
 8001ec0:	4a10      	ldr	r2, [pc, #64]	; (8001f04 <sensor_config_send_float+0x8c>)
 8001ec2:	2120      	movs	r1, #32
 8001ec4:	a802      	add	r0, sp, #8
 8001ec6:	f006 fa15 	bl	80082f4 <sniprintf>
                           (long)int_part, (long)frac_part);
        }
    }

    uart_terminal_send((const uint8_t *)buffer, len);
 8001eca:	b281      	uxth	r1, r0
 8001ecc:	a802      	add	r0, sp, #8
 8001ece:	f000 fc31 	bl	8002734 <uart_terminal_send>
}
 8001ed2:	b00a      	add	sp, #40	; 0x28
 8001ed4:	bd70      	pop	{r4, r5, r6, pc}
        len = snprintf(buffer, sizeof(buffer), "%s=%ld\r\n", prefix, (long)int_part);
 8001ed6:	9600      	str	r6, [sp, #0]
 8001ed8:	462b      	mov	r3, r5
 8001eda:	4a0b      	ldr	r2, [pc, #44]	; (8001f08 <sensor_config_send_float+0x90>)
 8001edc:	2120      	movs	r1, #32
 8001ede:	a802      	add	r0, sp, #8
 8001ee0:	f006 fa08 	bl	80082f4 <sniprintf>
 8001ee4:	e7f1      	b.n	8001eca <sensor_config_send_float+0x52>
            len = snprintf(buffer, sizeof(buffer), "%s=%ld.0%ld\r\n", prefix,
 8001ee6:	9001      	str	r0, [sp, #4]
 8001ee8:	9600      	str	r6, [sp, #0]
 8001eea:	462b      	mov	r3, r5
 8001eec:	4a07      	ldr	r2, [pc, #28]	; (8001f0c <sensor_config_send_float+0x94>)
 8001eee:	2120      	movs	r1, #32
 8001ef0:	a802      	add	r0, sp, #8
 8001ef2:	f006 f9ff 	bl	80082f4 <sniprintf>
 8001ef6:	e7e8      	b.n	8001eca <sensor_config_send_float+0x52>
            frac_part = 99;  // Clamp to 2 digits max
 8001ef8:	2063      	movs	r0, #99	; 0x63
 8001efa:	e7de      	b.n	8001eba <sensor_config_send_float+0x42>
 8001efc:	3ba3d70a 	.word	0x3ba3d70a
 8001f00:	42c80000 	.word	0x42c80000
 8001f04:	08008c64 	.word	0x08008c64
 8001f08:	08008c48 	.word	0x08008c48
 8001f0c:	08008c54 	.word	0x08008c54

08001f10 <sensor_config_send_uint16>:

void sensor_config_send_uint16(const char *prefix, uint16_t value)
{
 8001f10:	b500      	push	{lr}
 8001f12:	b08b      	sub	sp, #44	; 0x2c
 8001f14:	4603      	mov	r3, r0
    char buffer[32];
    int len = snprintf(buffer, sizeof(buffer), "%s=%u\r\n", prefix, value);
 8001f16:	9100      	str	r1, [sp, #0]
 8001f18:	4a05      	ldr	r2, [pc, #20]	; (8001f30 <sensor_config_send_uint16+0x20>)
 8001f1a:	2120      	movs	r1, #32
 8001f1c:	a802      	add	r0, sp, #8
 8001f1e:	f006 f9e9 	bl	80082f4 <sniprintf>
    uart_terminal_send((const uint8_t *)buffer, len);
 8001f22:	b281      	uxth	r1, r0
 8001f24:	a802      	add	r0, sp, #8
 8001f26:	f000 fc05 	bl	8002734 <uart_terminal_send>
}
 8001f2a:	b00b      	add	sp, #44	; 0x2c
 8001f2c:	f85d fb04 	ldr.w	pc, [sp], #4
 8001f30:	08008c74 	.word	0x08008c74

08001f34 <handle_query_command>:
{
 8001f34:	b570      	push	{r4, r5, r6, lr}
 8001f36:	b09a      	sub	sp, #104	; 0x68
 8001f38:	4604      	mov	r4, r0
    if (strcmp(var_name, "help") == 0 || strcmp(var_name, "h") == 0) {
 8001f3a:	496e      	ldr	r1, [pc, #440]	; (80020f4 <handle_query_command+0x1c0>)
 8001f3c:	f7fe f906 	bl	800014c <strcmp>
 8001f40:	2800      	cmp	r0, #0
 8001f42:	d03c      	beq.n	8001fbe <handle_query_command+0x8a>
 8001f44:	496c      	ldr	r1, [pc, #432]	; (80020f8 <handle_query_command+0x1c4>)
 8001f46:	4620      	mov	r0, r4
 8001f48:	f7fe f900 	bl	800014c <strcmp>
 8001f4c:	2800      	cmp	r0, #0
 8001f4e:	d036      	beq.n	8001fbe <handle_query_command+0x8a>
    if (strlen(var_name) == 5 && strncmp(var_name, "mult", 4) == 0) {
 8001f50:	4620      	mov	r0, r4
 8001f52:	f7fe f905 	bl	8000160 <strlen>
 8001f56:	4605      	mov	r5, r0
 8001f58:	2805      	cmp	r0, #5
 8001f5a:	d068      	beq.n	800202e <handle_query_command+0xfa>
    if (strlen(var_name) == 3 && strncmp(var_name, "th", 2) == 0) {
 8001f5c:	2d03      	cmp	r5, #3
 8001f5e:	f000 8085 	beq.w	800206c <handle_query_command+0x138>
    if (strcmp(var_name, "base_th") == 0) {
 8001f62:	4966      	ldr	r1, [pc, #408]	; (80020fc <handle_query_command+0x1c8>)
 8001f64:	4620      	mov	r0, r4
 8001f66:	f7fe f8f1 	bl	800014c <strcmp>
 8001f6a:	2800      	cmp	r0, #0
 8001f6c:	f000 809b 	beq.w	80020a6 <handle_query_command+0x172>
    if (strcmp(var_name, "tour_dur") == 0) {
 8001f70:	4963      	ldr	r1, [pc, #396]	; (8002100 <handle_query_command+0x1cc>)
 8001f72:	4620      	mov	r0, r4
 8001f74:	f7fe f8ea 	bl	800014c <strcmp>
 8001f78:	2800      	cmp	r0, #0
 8001f7a:	f000 809a 	beq.w	80020b2 <handle_query_command+0x17e>
    if (strcmp(var_name, "cool_down") == 0) {
 8001f7e:	4961      	ldr	r1, [pc, #388]	; (8002104 <handle_query_command+0x1d0>)
 8001f80:	4620      	mov	r0, r4
 8001f82:	f7fe f8e3 	bl	800014c <strcmp>
 8001f86:	2800      	cmp	r0, #0
 8001f88:	f000 8099 	beq.w	80020be <handle_query_command+0x18a>
    if (strcmp(var_name, "key_dur") == 0) {
 8001f8c:	495e      	ldr	r1, [pc, #376]	; (8002108 <handle_query_command+0x1d4>)
 8001f8e:	4620      	mov	r0, r4
 8001f90:	f7fe f8dc 	bl	800014c <strcmp>
 8001f94:	2800      	cmp	r0, #0
 8001f96:	f000 8098 	beq.w	80020ca <handle_query_command+0x196>
    if (strcmp(var_name, "th_boost") == 0) {
 8001f9a:	495c      	ldr	r1, [pc, #368]	; (800210c <handle_query_command+0x1d8>)
 8001f9c:	4620      	mov	r0, r4
 8001f9e:	f7fe f8d5 	bl	800014c <strcmp>
 8001fa2:	2800      	cmp	r0, #0
 8001fa4:	f000 8097 	beq.w	80020d6 <handle_query_command+0x1a2>
    if (strcmp(var_name, "th_decay") == 0) {
 8001fa8:	4959      	ldr	r1, [pc, #356]	; (8002110 <handle_query_command+0x1dc>)
 8001faa:	4620      	mov	r0, r4
 8001fac:	f7fe f8ce 	bl	800014c <strcmp>
 8001fb0:	2800      	cmp	r0, #0
 8001fb2:	f000 8097 	beq.w	80020e4 <handle_query_command+0x1b0>
    sensor_config_send_string("ERROR: Invalid variable\r\n");
 8001fb6:	4857      	ldr	r0, [pc, #348]	; (8002114 <handle_query_command+0x1e0>)
 8001fb8:	f7ff fe3b 	bl	8001c32 <sensor_config_send_string>
 8001fbc:	e035      	b.n	800202a <handle_query_command+0xf6>
        sensor_config_send_string("\r\n========== CONFIGURATION COMMANDS ==========\r\n");
 8001fbe:	4856      	ldr	r0, [pc, #344]	; (8002118 <handle_query_command+0x1e4>)
 8001fc0:	f7ff fe37 	bl	8001c32 <sensor_config_send_string>
        sensor_config_send_string("Command        | Description                     | Example\r\n");
 8001fc4:	4855      	ldr	r0, [pc, #340]	; (800211c <handle_query_command+0x1e8>)
 8001fc6:	f7ff fe34 	bl	8001c32 <sensor_config_send_string>
        sensor_config_send_string("---------------|---------------------------------|------------------\r\n");
 8001fca:	4855      	ldr	r0, [pc, #340]	; (8002120 <handle_query_command+0x1ec>)
 8001fcc:	f7ff fe31 	bl	8001c32 <sensor_config_send_string>
        sensor_config_send_string("mult0..4       | Sensor multipliers (0.1-4096)   | set mult0 10.5\r\n");
 8001fd0:	4854      	ldr	r0, [pc, #336]	; (8002124 <handle_query_command+0x1f0>)
 8001fd2:	f7ff fe2e 	bl	8001c32 <sensor_config_send_string>
        sensor_config_send_string("th0..4         | Sensor thresholds (0-65535)     | set th0 150\r\n");
 8001fd6:	4854      	ldr	r0, [pc, #336]	; (8002128 <handle_query_command+0x1f4>)
 8001fd8:	f7ff fe2b 	bl	8001c32 <sensor_config_send_string>
        sensor_config_send_string("base_th        | Base trigger threshold          | set base_th 200\r\n");
 8001fdc:	4853      	ldr	r0, [pc, #332]	; (800212c <handle_query_command+0x1f8>)
 8001fde:	f7ff fe28 	bl	8001c32 <sensor_config_send_string>
        sensor_config_send_string("tour_dur       | Tournament duration (ms)        | set tour_dur 5\r\n");
 8001fe2:	4853      	ldr	r0, [pc, #332]	; (8002130 <handle_query_command+0x1fc>)
 8001fe4:	f7ff fe25 	bl	8001c32 <sensor_config_send_string>
        sensor_config_send_string("cool_down      | Cooling down period (ms)        | set cool_down 15\r\n");
 8001fe8:	4852      	ldr	r0, [pc, #328]	; (8002134 <handle_query_command+0x200>)
 8001fea:	f7ff fe22 	bl	8001c32 <sensor_config_send_string>
        sensor_config_send_string("key_dur        | Key press duration (ms)         | set key_dur 20\r\n");
 8001fee:	4852      	ldr	r0, [pc, #328]	; (8002138 <handle_query_command+0x204>)
 8001ff0:	f7ff fe1f 	bl	8001c32 <sensor_config_send_string>
        sensor_config_send_string("th_boost       | Threshold boost (0.1-10.0)      | set th_boost 1.5\r\n");
 8001ff4:	4851      	ldr	r0, [pc, #324]	; (800213c <handle_query_command+0x208>)
 8001ff6:	f7ff fe1c 	bl	8001c32 <sensor_config_send_string>
        sensor_config_send_string("th_decay       | Decay factor (0.0-1.0)          | set th_decay 0.97\r\n");
 8001ffa:	4851      	ldr	r0, [pc, #324]	; (8002140 <handle_query_command+0x20c>)
 8001ffc:	f7ff fe19 	bl	8001c32 <sensor_config_send_string>
        sensor_config_send_string("\r\n");
 8002000:	4850      	ldr	r0, [pc, #320]	; (8002144 <handle_query_command+0x210>)
 8002002:	f7ff fe16 	bl	8001c32 <sensor_config_send_string>
        sensor_config_send_string("Query: Add '?' to any variable | Example: set base_th?\r\n");
 8002006:	4850      	ldr	r0, [pc, #320]	; (8002148 <handle_query_command+0x214>)
 8002008:	f7ff fe13 	bl	8001c32 <sensor_config_send_string>
        sensor_config_send_string("Save: save                       | Save to flash\r\n");
 800200c:	484f      	ldr	r0, [pc, #316]	; (800214c <handle_query_command+0x218>)
 800200e:	f7ff fe10 	bl	8001c32 <sensor_config_send_string>
        sensor_config_send_string("Defaults: defaults               | Restore defaults\r\n");
 8002012:	484f      	ldr	r0, [pc, #316]	; (8002150 <handle_query_command+0x21c>)
 8002014:	f7ff fe0d 	bl	8001c32 <sensor_config_send_string>
        sensor_config_send_string("Reboot: reboot                   | Restart device\r\n");
 8002018:	484e      	ldr	r0, [pc, #312]	; (8002154 <handle_query_command+0x220>)
 800201a:	f7ff fe0a 	bl	8001c32 <sensor_config_send_string>
        sensor_config_send_string("Help: help or h                  | Show this help\r\n");
 800201e:	484e      	ldr	r0, [pc, #312]	; (8002158 <handle_query_command+0x224>)
 8002020:	f7ff fe07 	bl	8001c32 <sensor_config_send_string>
        sensor_config_send_string("=============================================\r\n\r\n");
 8002024:	484d      	ldr	r0, [pc, #308]	; (800215c <handle_query_command+0x228>)
 8002026:	f7ff fe04 	bl	8001c32 <sensor_config_send_string>
}
 800202a:	b01a      	add	sp, #104	; 0x68
 800202c:	bd70      	pop	{r4, r5, r6, pc}
    if (strlen(var_name) == 5 && strncmp(var_name, "mult", 4) == 0) {
 800202e:	2204      	movs	r2, #4
 8002030:	494b      	ldr	r1, [pc, #300]	; (8002160 <handle_query_command+0x22c>)
 8002032:	4620      	mov	r0, r4
 8002034:	f006 f99f 	bl	8008376 <strncmp>
 8002038:	2800      	cmp	r0, #0
 800203a:	d18f      	bne.n	8001f5c <handle_query_command+0x28>
        int sensor_idx = var_name[4] - '0';
 800203c:	7926      	ldrb	r6, [r4, #4]
 800203e:	3e30      	subs	r6, #48	; 0x30
        if (sensor_idx >= 0 && sensor_idx < 5) {
 8002040:	2e04      	cmp	r6, #4
 8002042:	d88b      	bhi.n	8001f5c <handle_query_command+0x28>
            fixed_point_to_string(value_str, g_sensor_config.sensor_multiplier[sensor_idx]);
 8002044:	4b47      	ldr	r3, [pc, #284]	; (8002164 <handle_query_command+0x230>)
 8002046:	eb03 0346 	add.w	r3, r3, r6, lsl #1
 800204a:	ac02      	add	r4, sp, #8
 800204c:	88d9      	ldrh	r1, [r3, #6]
 800204e:	4620      	mov	r0, r4
 8002050:	f7ff fca6 	bl	80019a0 <fixed_point_to_string>
            int len = snprintf(buffer, sizeof(buffer), "mult%u=%s\r\n", sensor_idx, value_str);
 8002054:	9400      	str	r4, [sp, #0]
 8002056:	4633      	mov	r3, r6
 8002058:	4a43      	ldr	r2, [pc, #268]	; (8002168 <handle_query_command+0x234>)
 800205a:	2140      	movs	r1, #64	; 0x40
 800205c:	a80a      	add	r0, sp, #40	; 0x28
 800205e:	f006 f949 	bl	80082f4 <sniprintf>
            uart_terminal_send((const uint8_t *)buffer, len);
 8002062:	b281      	uxth	r1, r0
 8002064:	a80a      	add	r0, sp, #40	; 0x28
 8002066:	f000 fb65 	bl	8002734 <uart_terminal_send>
            return;
 800206a:	e7de      	b.n	800202a <handle_query_command+0xf6>
    if (strlen(var_name) == 3 && strncmp(var_name, "th", 2) == 0) {
 800206c:	2202      	movs	r2, #2
 800206e:	493f      	ldr	r1, [pc, #252]	; (800216c <handle_query_command+0x238>)
 8002070:	4620      	mov	r0, r4
 8002072:	f006 f980 	bl	8008376 <strncmp>
 8002076:	2800      	cmp	r0, #0
 8002078:	f47f af73 	bne.w	8001f62 <handle_query_command+0x2e>
        int sensor_idx = var_name[2] - '0';
 800207c:	78a3      	ldrb	r3, [r4, #2]
 800207e:	3b30      	subs	r3, #48	; 0x30
        if (sensor_idx >= 0 && sensor_idx < 5) {
 8002080:	2b04      	cmp	r3, #4
 8002082:	f63f af6e 	bhi.w	8001f62 <handle_query_command+0x2e>
            int len = snprintf(buffer, sizeof(buffer), "th%d=%u\r\n", sensor_idx, g_sensor_config.sensor_threshold[sensor_idx]);
 8002086:	f103 0108 	add.w	r1, r3, #8
 800208a:	4a36      	ldr	r2, [pc, #216]	; (8002164 <handle_query_command+0x230>)
 800208c:	f832 2011 	ldrh.w	r2, [r2, r1, lsl #1]
 8002090:	9200      	str	r2, [sp, #0]
 8002092:	4a37      	ldr	r2, [pc, #220]	; (8002170 <handle_query_command+0x23c>)
 8002094:	2120      	movs	r1, #32
 8002096:	a802      	add	r0, sp, #8
 8002098:	f006 f92c 	bl	80082f4 <sniprintf>
            uart_terminal_send((const uint8_t *)buffer, len);
 800209c:	b281      	uxth	r1, r0
 800209e:	a802      	add	r0, sp, #8
 80020a0:	f000 fb48 	bl	8002734 <uart_terminal_send>
            return;
 80020a4:	e7c1      	b.n	800202a <handle_query_command+0xf6>
        sensor_config_send_uint16("base_th", g_sensor_config.trigger_threshold_base);
 80020a6:	4b2f      	ldr	r3, [pc, #188]	; (8002164 <handle_query_command+0x230>)
 80020a8:	8b59      	ldrh	r1, [r3, #26]
 80020aa:	4814      	ldr	r0, [pc, #80]	; (80020fc <handle_query_command+0x1c8>)
 80020ac:	f7ff ff30 	bl	8001f10 <sensor_config_send_uint16>
        return;
 80020b0:	e7bb      	b.n	800202a <handle_query_command+0xf6>
        sensor_config_send_uint16("tour_dur", g_sensor_config.tournament_duration_ms);
 80020b2:	4b2c      	ldr	r3, [pc, #176]	; (8002164 <handle_query_command+0x230>)
 80020b4:	8b99      	ldrh	r1, [r3, #28]
 80020b6:	4812      	ldr	r0, [pc, #72]	; (8002100 <handle_query_command+0x1cc>)
 80020b8:	f7ff ff2a 	bl	8001f10 <sensor_config_send_uint16>
        return;
 80020bc:	e7b5      	b.n	800202a <handle_query_command+0xf6>
        sensor_config_send_uint16("cool_down", g_sensor_config.cooling_down_ms);
 80020be:	4b29      	ldr	r3, [pc, #164]	; (8002164 <handle_query_command+0x230>)
 80020c0:	8bd9      	ldrh	r1, [r3, #30]
 80020c2:	4810      	ldr	r0, [pc, #64]	; (8002104 <handle_query_command+0x1d0>)
 80020c4:	f7ff ff24 	bl	8001f10 <sensor_config_send_uint16>
        return;
 80020c8:	e7af      	b.n	800202a <handle_query_command+0xf6>
        sensor_config_send_uint16("key_dur", g_sensor_config.key_press_duration_ms);
 80020ca:	4b26      	ldr	r3, [pc, #152]	; (8002164 <handle_query_command+0x230>)
 80020cc:	8c19      	ldrh	r1, [r3, #32]
 80020ce:	480e      	ldr	r0, [pc, #56]	; (8002108 <handle_query_command+0x1d4>)
 80020d0:	f7ff ff1e 	bl	8001f10 <sensor_config_send_uint16>
        return;
 80020d4:	e7a9      	b.n	800202a <handle_query_command+0xf6>
        sensor_config_send_float("th_boost", g_sensor_config.threshold_multiplier_boost);
 80020d6:	4b23      	ldr	r3, [pc, #140]	; (8002164 <handle_query_command+0x230>)
 80020d8:	f8d3 1022 	ldr.w	r1, [r3, #34]	; 0x22
 80020dc:	480b      	ldr	r0, [pc, #44]	; (800210c <handle_query_command+0x1d8>)
 80020de:	f7ff fecb 	bl	8001e78 <sensor_config_send_float>
        return;
 80020e2:	e7a2      	b.n	800202a <handle_query_command+0xf6>
        sensor_config_send_float("th_decay", g_sensor_config.threshold_decay_factor_float);
 80020e4:	4b1f      	ldr	r3, [pc, #124]	; (8002164 <handle_query_command+0x230>)
 80020e6:	f8d3 1026 	ldr.w	r1, [r3, #38]	; 0x26
 80020ea:	4809      	ldr	r0, [pc, #36]	; (8002110 <handle_query_command+0x1dc>)
 80020ec:	f7ff fec4 	bl	8001e78 <sensor_config_send_float>
        return;
 80020f0:	e79b      	b.n	800202a <handle_query_command+0xf6>
 80020f2:	bf00      	nop
 80020f4:	08008c7c 	.word	0x08008c7c
 80020f8:	08008c84 	.word	0x08008c84
 80020fc:	08008bec 	.word	0x08008bec
 8002100:	08008bf4 	.word	0x08008bf4
 8002104:	08008c00 	.word	0x08008c00
 8002108:	08008c0c 	.word	0x08008c0c
 800210c:	08008c14 	.word	0x08008c14
 8002110:	08008c20 	.word	0x08008c20
 8002114:	08008c2c 	.word	0x08008c2c
 8002118:	08008c88 	.word	0x08008c88
 800211c:	08008cbc 	.word	0x08008cbc
 8002120:	08008cfc 	.word	0x08008cfc
 8002124:	08008d44 	.word	0x08008d44
 8002128:	08008d88 	.word	0x08008d88
 800212c:	08008dcc 	.word	0x08008dcc
 8002130:	08008e14 	.word	0x08008e14
 8002134:	08008e58 	.word	0x08008e58
 8002138:	08008ea0 	.word	0x08008ea0
 800213c:	08008ee4 	.word	0x08008ee4
 8002140:	08008f2c 	.word	0x08008f2c
 8002144:	08009524 	.word	0x08009524
 8002148:	08008f74 	.word	0x08008f74
 800214c:	08008fb0 	.word	0x08008fb0
 8002150:	08008fe4 	.word	0x08008fe4
 8002154:	0800901c 	.word	0x0800901c
 8002158:	08009050 	.word	0x08009050
 800215c:	08009084 	.word	0x08009084
 8002160:	08008be0 	.word	0x08008be0
 8002164:	2000121c 	.word	0x2000121c
 8002168:	080090b8 	.word	0x080090b8
 800216c:	08008be8 	.word	0x08008be8
 8002170:	080090c4 	.word	0x080090c4

08002174 <sensor_config_process_command>:
{
 8002174:	b530      	push	{r4, r5, lr}
 8002176:	b091      	sub	sp, #68	; 0x44
 8002178:	460c      	mov	r4, r1
    if (!g_terminal_mode_active) {
 800217a:	4b84      	ldr	r3, [pc, #528]	; (800238c <sensor_config_process_command+0x218>)
 800217c:	781b      	ldrb	r3, [r3, #0]
 800217e:	b913      	cbnz	r3, 8002186 <sensor_config_process_command+0x12>
        g_terminal_mode_active = true;
 8002180:	4b82      	ldr	r3, [pc, #520]	; (800238c <sensor_config_process_command+0x218>)
 8002182:	2201      	movs	r2, #1
 8002184:	701a      	strb	r2, [r3, #0]
    uint16_t cmd_len = (length < 63) ? length : 63;
 8002186:	2c3f      	cmp	r4, #63	; 0x3f
 8002188:	bf28      	it	cs
 800218a:	243f      	movcs	r4, #63	; 0x3f
    memcpy(cmd, cmd_buffer, cmd_len);
 800218c:	4622      	mov	r2, r4
 800218e:	4601      	mov	r1, r0
 8002190:	4668      	mov	r0, sp
 8002192:	f006 f899 	bl	80082c8 <memcpy>
    cmd[cmd_len] = '\0';
 8002196:	ab10      	add	r3, sp, #64	; 0x40
 8002198:	4423      	add	r3, r4
 800219a:	2200      	movs	r2, #0
 800219c:	f803 2c40 	strb.w	r2, [r3, #-64]
    while (cmd_len > 0 && (cmd[cmd_len - 1] == '\r' || cmd[cmd_len - 1] == '\n')) {
 80021a0:	e007      	b.n	80021b2 <sensor_config_process_command+0x3e>
        cmd[--cmd_len] = '\0';
 80021a2:	3c01      	subs	r4, #1
 80021a4:	b2a4      	uxth	r4, r4
 80021a6:	b29b      	uxth	r3, r3
 80021a8:	aa10      	add	r2, sp, #64	; 0x40
 80021aa:	4413      	add	r3, r2
 80021ac:	2200      	movs	r2, #0
 80021ae:	f803 2c40 	strb.w	r2, [r3, #-64]
    while (cmd_len > 0 && (cmd[cmd_len - 1] == '\r' || cmd[cmd_len - 1] == '\n')) {
 80021b2:	b144      	cbz	r4, 80021c6 <sensor_config_process_command+0x52>
 80021b4:	1e63      	subs	r3, r4, #1
 80021b6:	aa10      	add	r2, sp, #64	; 0x40
 80021b8:	441a      	add	r2, r3
 80021ba:	f812 2c40 	ldrb.w	r2, [r2, #-64]
 80021be:	2a0d      	cmp	r2, #13
 80021c0:	d0ef      	beq.n	80021a2 <sensor_config_process_command+0x2e>
 80021c2:	2a0a      	cmp	r2, #10
 80021c4:	d0ed      	beq.n	80021a2 <sensor_config_process_command+0x2e>
    if (cmd_len == 0) {
 80021c6:	2c00      	cmp	r4, #0
 80021c8:	f000 80d3 	beq.w	8002372 <sensor_config_process_command+0x1fe>
    if (strcmp(cmd, "save") == 0) {
 80021cc:	4970      	ldr	r1, [pc, #448]	; (8002390 <sensor_config_process_command+0x21c>)
 80021ce:	4668      	mov	r0, sp
 80021d0:	f7fd ffbc 	bl	800014c <strcmp>
 80021d4:	b310      	cbz	r0, 800221c <sensor_config_process_command+0xa8>
    if (strcmp(cmd, "?") == 0 || strcmp(cmd, "help") == 0 || strcmp(cmd, "h") == 0) {
 80021d6:	496f      	ldr	r1, [pc, #444]	; (8002394 <sensor_config_process_command+0x220>)
 80021d8:	4668      	mov	r0, sp
 80021da:	f7fd ffb7 	bl	800014c <strcmp>
 80021de:	b338      	cbz	r0, 8002230 <sensor_config_process_command+0xbc>
 80021e0:	496d      	ldr	r1, [pc, #436]	; (8002398 <sensor_config_process_command+0x224>)
 80021e2:	4668      	mov	r0, sp
 80021e4:	f7fd ffb2 	bl	800014c <strcmp>
 80021e8:	b310      	cbz	r0, 8002230 <sensor_config_process_command+0xbc>
 80021ea:	496c      	ldr	r1, [pc, #432]	; (800239c <sensor_config_process_command+0x228>)
 80021ec:	4668      	mov	r0, sp
 80021ee:	f7fd ffad 	bl	800014c <strcmp>
 80021f2:	b1e8      	cbz	r0, 8002230 <sensor_config_process_command+0xbc>
    char *equals_pos = strchr(cmd, '=');
 80021f4:	213d      	movs	r1, #61	; 0x3d
 80021f6:	4668      	mov	r0, sp
 80021f8:	f006 f8b0 	bl	800835c <strchr>
 80021fc:	4604      	mov	r4, r0
    char *question_pos = strchr(cmd, '?');
 80021fe:	213f      	movs	r1, #63	; 0x3f
 8002200:	4668      	mov	r0, sp
 8002202:	f006 f8ab 	bl	800835c <strchr>
    if (equals_pos != NULL) {
 8002206:	2c00      	cmp	r4, #0
 8002208:	f000 80b5 	beq.w	8002376 <sensor_config_process_command+0x202>
        *equals_pos = '\0';
 800220c:	4621      	mov	r1, r4
 800220e:	2300      	movs	r3, #0
 8002210:	f801 3b01 	strb.w	r3, [r1], #1
        handle_set_command(var_name, value_str);
 8002214:	4668      	mov	r0, sp
 8002216:	f7ff fd1d 	bl	8001c54 <handle_set_command>
 800221a:	e0aa      	b.n	8002372 <sensor_config_process_command+0x1fe>
        if (sensor_config_save_to_flash()) {
 800221c:	f7ff fca6 	bl	8001b6c <sensor_config_save_to_flash>
 8002220:	b110      	cbz	r0, 8002228 <sensor_config_process_command+0xb4>
            sensor_config_send_ok();
 8002222:	f7ff fd0f 	bl	8001c44 <sensor_config_send_ok>
 8002226:	e0a4      	b.n	8002372 <sensor_config_process_command+0x1fe>
            sensor_config_send_string("ERROR: Save failed\r\n");
 8002228:	485d      	ldr	r0, [pc, #372]	; (80023a0 <sensor_config_process_command+0x22c>)
 800222a:	f7ff fd02 	bl	8001c32 <sensor_config_send_string>
        return;
 800222e:	e0a0      	b.n	8002372 <sensor_config_process_command+0x1fe>
        sensor_config_send_string("\r\n========================================\r\n");
 8002230:	485c      	ldr	r0, [pc, #368]	; (80023a4 <sensor_config_process_command+0x230>)
 8002232:	f7ff fcfe 	bl	8001c32 <sensor_config_send_string>
        sensor_config_send_string("  TAIKO SENSOR CONFIGURATION TERMINAL\r\n");
 8002236:	485c      	ldr	r0, [pc, #368]	; (80023a8 <sensor_config_process_command+0x234>)
 8002238:	f7ff fcfb 	bl	8001c32 <sensor_config_send_string>
        sensor_config_send_string("========================================\r\n\r\n");
 800223c:	4d5b      	ldr	r5, [pc, #364]	; (80023ac <sensor_config_process_command+0x238>)
 800223e:	4628      	mov	r0, r5
 8002240:	f7ff fcf7 	bl	8001c32 <sensor_config_send_string>
        sensor_config_send_string("COMMAND FORMAT:\r\n");
 8002244:	485a      	ldr	r0, [pc, #360]	; (80023b0 <sensor_config_process_command+0x23c>)
 8002246:	f7ff fcf4 	bl	8001c32 <sensor_config_send_string>
        sensor_config_send_string("  <variable>=<value>  Set a value (no spaces)\r\n");
 800224a:	485a      	ldr	r0, [pc, #360]	; (80023b4 <sensor_config_process_command+0x240>)
 800224c:	f7ff fcf1 	bl	8001c32 <sensor_config_send_string>
        sensor_config_send_string("  <variable>?         Query current value\r\n");
 8002250:	4859      	ldr	r0, [pc, #356]	; (80023b8 <sensor_config_process_command+0x244>)
 8002252:	f7ff fcee 	bl	8001c32 <sensor_config_send_string>
        sensor_config_send_string("  <command>           Execute action\r\n\r\n");
 8002256:	4859      	ldr	r0, [pc, #356]	; (80023bc <sensor_config_process_command+0x248>)
 8002258:	f7ff fceb 	bl	8001c32 <sensor_config_send_string>
        sensor_config_send_string("=============== SET COMMANDS ===============\r\n");
 800225c:	4858      	ldr	r0, [pc, #352]	; (80023c0 <sensor_config_process_command+0x24c>)
 800225e:	f7ff fce8 	bl	8001c32 <sensor_config_send_string>
        sensor_config_send_string("Per-Sensor Settings (X = 0-4):\r\n");
 8002262:	4858      	ldr	r0, [pc, #352]	; (80023c4 <sensor_config_process_command+0x250>)
 8002264:	f7ff fce5 	bl	8001c32 <sensor_config_send_string>
        sensor_config_send_string("  multX=VAL    Sensor X multiplier (0.00-4096.00)  [eg: mult0=0.80]\r\n");
 8002268:	4857      	ldr	r0, [pc, #348]	; (80023c8 <sensor_config_process_command+0x254>)
 800226a:	f7ff fce2 	bl	8001c32 <sensor_config_send_string>
        sensor_config_send_string("  thX=VAL      Sensor X threshold (0-65535)        [eg: th0=150]\r\n");
 800226e:	4857      	ldr	r0, [pc, #348]	; (80023cc <sensor_config_process_command+0x258>)
 8002270:	f7ff fcdf 	bl	8001c32 <sensor_config_send_string>
        sensor_config_send_string("\r\n");
 8002274:	4c56      	ldr	r4, [pc, #344]	; (80023d0 <sensor_config_process_command+0x25c>)
 8002276:	4620      	mov	r0, r4
 8002278:	f7ff fcdb 	bl	8001c32 <sensor_config_send_string>
        sensor_config_send_string("Global Trigger Settings:\r\n");
 800227c:	4855      	ldr	r0, [pc, #340]	; (80023d4 <sensor_config_process_command+0x260>)
 800227e:	f7ff fcd8 	bl	8001c32 <sensor_config_send_string>
        sensor_config_send_string("  base_th=VAL  Base trigger threshold (0-65535)    [eg: base_th=150]\r\n");
 8002282:	4855      	ldr	r0, [pc, #340]	; (80023d8 <sensor_config_process_command+0x264>)
 8002284:	f7ff fcd5 	bl	8001c32 <sensor_config_send_string>
        sensor_config_send_string("\r\n");
 8002288:	4620      	mov	r0, r4
 800228a:	f7ff fcd2 	bl	8001c32 <sensor_config_send_string>
        sensor_config_send_string("Timing Parameters (1-100 ms):\r\n");
 800228e:	4853      	ldr	r0, [pc, #332]	; (80023dc <sensor_config_process_command+0x268>)
 8002290:	f7ff fccf 	bl	8001c32 <sensor_config_send_string>
        sensor_config_send_string("  tour_dur=VAL Tournament duration  [eg: tour_dur=4]\r\n");
 8002294:	4852      	ldr	r0, [pc, #328]	; (80023e0 <sensor_config_process_command+0x26c>)
 8002296:	f7ff fccc 	bl	8001c32 <sensor_config_send_string>
        sensor_config_send_string("  cool_down=VAL Cooldown period     [eg: cool_down=15]\r\n");
 800229a:	4852      	ldr	r0, [pc, #328]	; (80023e4 <sensor_config_process_command+0x270>)
 800229c:	f7ff fcc9 	bl	8001c32 <sensor_config_send_string>
        sensor_config_send_string("  key_dur=VAL  Key press duration   [eg: key_dur=20]\r\n");
 80022a0:	4851      	ldr	r0, [pc, #324]	; (80023e8 <sensor_config_process_command+0x274>)
 80022a2:	f7ff fcc6 	bl	8001c32 <sensor_config_send_string>
        sensor_config_send_string("\r\n");
 80022a6:	4620      	mov	r0, r4
 80022a8:	f7ff fcc3 	bl	8001c32 <sensor_config_send_string>
        sensor_config_send_string("Threshold Dynamics:\r\n");
 80022ac:	484f      	ldr	r0, [pc, #316]	; (80023ec <sensor_config_process_command+0x278>)
 80022ae:	f7ff fcc0 	bl	8001c32 <sensor_config_send_string>
        sensor_config_send_string("  th_boost=VAL Threshold boost (0.00-10.00)  [eg: th_boost=1.50]\r\n");
 80022b2:	484f      	ldr	r0, [pc, #316]	; (80023f0 <sensor_config_process_command+0x27c>)
 80022b4:	f7ff fcbd 	bl	8001c32 <sensor_config_send_string>
        sensor_config_send_string("  th_decay=VAL Threshold decay (0.00-1.00)  [eg: th_decay=0.97]\r\n");
 80022b8:	484e      	ldr	r0, [pc, #312]	; (80023f4 <sensor_config_process_command+0x280>)
 80022ba:	f7ff fcba 	bl	8001c32 <sensor_config_send_string>
        sensor_config_send_string("\r\n");
 80022be:	4620      	mov	r0, r4
 80022c0:	f7ff fcb7 	bl	8001c32 <sensor_config_send_string>
        sensor_config_send_string("============ QUERY COMMANDS =============\r\n");
 80022c4:	484c      	ldr	r0, [pc, #304]	; (80023f8 <sensor_config_process_command+0x284>)
 80022c6:	f7ff fcb4 	bl	8001c32 <sensor_config_send_string>
        sensor_config_send_string("Use ? to view any value (e.g., th0?, base_th?)\r\n\r\n");
 80022ca:	484c      	ldr	r0, [pc, #304]	; (80023fc <sensor_config_process_command+0x288>)
 80022cc:	f7ff fcb1 	bl	8001c32 <sensor_config_send_string>
        sensor_config_send_string("============ ACTION COMMANDS =============\r\n");
 80022d0:	484b      	ldr	r0, [pc, #300]	; (8002400 <sensor_config_process_command+0x28c>)
 80022d2:	f7ff fcae 	bl	8001c32 <sensor_config_send_string>
        sensor_config_send_string("  save         Save all settings to flash\r\n");
 80022d6:	484b      	ldr	r0, [pc, #300]	; (8002404 <sensor_config_process_command+0x290>)
 80022d8:	f7ff fcab 	bl	8001c32 <sensor_config_send_string>
        sensor_config_send_string("  defaults     Restore default settings\r\n");
 80022dc:	484a      	ldr	r0, [pc, #296]	; (8002408 <sensor_config_process_command+0x294>)
 80022de:	f7ff fca8 	bl	8001c32 <sensor_config_send_string>
        sensor_config_send_string("  reboot       Restart the device\r\n");
 80022e2:	484a      	ldr	r0, [pc, #296]	; (800240c <sensor_config_process_command+0x298>)
 80022e4:	f7ff fca5 	bl	8001c32 <sensor_config_send_string>
        sensor_config_send_string("  help or ?    Show this help message\r\n");
 80022e8:	4849      	ldr	r0, [pc, #292]	; (8002410 <sensor_config_process_command+0x29c>)
 80022ea:	f7ff fca2 	bl	8001c32 <sensor_config_send_string>
        sensor_config_send_string("\r\n");
 80022ee:	4620      	mov	r0, r4
 80022f0:	f7ff fc9f 	bl	8001c32 <sensor_config_send_string>
        sensor_config_send_string("============ USAGE EXAMPLES ============\r\n");
 80022f4:	4847      	ldr	r0, [pc, #284]	; (8002414 <sensor_config_process_command+0x2a0>)
 80022f6:	f7ff fc9c 	bl	8001c32 <sensor_config_send_string>
        sensor_config_send_string("  SETTINGS:\r\n");
 80022fa:	4847      	ldr	r0, [pc, #284]	; (8002418 <sensor_config_process_command+0x2a4>)
 80022fc:	f7ff fc99 	bl	8001c32 <sensor_config_send_string>
        sensor_config_send_string("    mult0=1.50     Set sensor 0 to 1.50x multiplier\r\n");
 8002300:	4846      	ldr	r0, [pc, #280]	; (800241c <sensor_config_process_command+0x2a8>)
 8002302:	f7ff fc96 	bl	8001c32 <sensor_config_send_string>
        sensor_config_send_string("    th0=500        Set sensor 0 threshold to 500\r\n");
 8002306:	4846      	ldr	r0, [pc, #280]	; (8002420 <sensor_config_process_command+0x2ac>)
 8002308:	f7ff fc93 	bl	8001c32 <sensor_config_send_string>
        sensor_config_send_string("    base_th=200    Set base threshold to 200\r\n");
 800230c:	4845      	ldr	r0, [pc, #276]	; (8002424 <sensor_config_process_command+0x2b0>)
 800230e:	f7ff fc90 	bl	8001c32 <sensor_config_send_string>
        sensor_config_send_string("    th_boost=2.00  Set threshold boost to 2.00\r\n");
 8002312:	4845      	ldr	r0, [pc, #276]	; (8002428 <sensor_config_process_command+0x2b4>)
 8002314:	f7ff fc8d 	bl	8001c32 <sensor_config_send_string>
        sensor_config_send_string("    tour_dur=10    Set tournament duration to 10ms\r\n");
 8002318:	4844      	ldr	r0, [pc, #272]	; (800242c <sensor_config_process_command+0x2b8>)
 800231a:	f7ff fc8a 	bl	8001c32 <sensor_config_send_string>
        sensor_config_send_string("\r\n");
 800231e:	4620      	mov	r0, r4
 8002320:	f7ff fc87 	bl	8001c32 <sensor_config_send_string>
        sensor_config_send_string("  QUERIES:\r\n");
 8002324:	4842      	ldr	r0, [pc, #264]	; (8002430 <sensor_config_process_command+0x2bc>)
 8002326:	f7ff fc84 	bl	8001c32 <sensor_config_send_string>
        sensor_config_send_string("    th0?           Show sensor 0 threshold\r\n");
 800232a:	4842      	ldr	r0, [pc, #264]	; (8002434 <sensor_config_process_command+0x2c0>)
 800232c:	f7ff fc81 	bl	8001c32 <sensor_config_send_string>
        sensor_config_send_string("    base_th?       Show base threshold\r\n");
 8002330:	4841      	ldr	r0, [pc, #260]	; (8002438 <sensor_config_process_command+0x2c4>)
 8002332:	f7ff fc7e 	bl	8001c32 <sensor_config_send_string>
        sensor_config_send_string("    th_boost?      Show threshold boost value\r\n");
 8002336:	4841      	ldr	r0, [pc, #260]	; (800243c <sensor_config_process_command+0x2c8>)
 8002338:	f7ff fc7b 	bl	8001c32 <sensor_config_send_string>
        sensor_config_send_string("\r\n");
 800233c:	4620      	mov	r0, r4
 800233e:	f7ff fc78 	bl	8001c32 <sensor_config_send_string>
        sensor_config_send_string("  ACTIONS:\r\n");
 8002342:	483f      	ldr	r0, [pc, #252]	; (8002440 <sensor_config_process_command+0x2cc>)
 8002344:	f7ff fc75 	bl	8001c32 <sensor_config_send_string>
        sensor_config_send_string("    save           Store all settings\r\n");
 8002348:	483e      	ldr	r0, [pc, #248]	; (8002444 <sensor_config_process_command+0x2d0>)
 800234a:	f7ff fc72 	bl	8001c32 <sensor_config_send_string>
        sensor_config_send_string("    defaults       Restore factory defaults\r\n");
 800234e:	483e      	ldr	r0, [pc, #248]	; (8002448 <sensor_config_process_command+0x2d4>)
 8002350:	f7ff fc6f 	bl	8001c32 <sensor_config_send_string>
        sensor_config_send_string("    reboot         Restart device\r\n");
 8002354:	483d      	ldr	r0, [pc, #244]	; (800244c <sensor_config_process_command+0x2d8>)
 8002356:	f7ff fc6c 	bl	8001c32 <sensor_config_send_string>
        sensor_config_send_string("    help           Show this help\r\n");
 800235a:	483d      	ldr	r0, [pc, #244]	; (8002450 <sensor_config_process_command+0x2dc>)
 800235c:	f7ff fc69 	bl	8001c32 <sensor_config_send_string>
        sensor_config_send_string("\r\n");
 8002360:	4620      	mov	r0, r4
 8002362:	f7ff fc66 	bl	8001c32 <sensor_config_send_string>
        sensor_config_send_string("Press ? or type help at any time\r\n");
 8002366:	483b      	ldr	r0, [pc, #236]	; (8002454 <sensor_config_process_command+0x2e0>)
 8002368:	f7ff fc63 	bl	8001c32 <sensor_config_send_string>
        sensor_config_send_string("========================================\r\n\r\n");
 800236c:	4628      	mov	r0, r5
 800236e:	f7ff fc60 	bl	8001c32 <sensor_config_send_string>
}
 8002372:	b011      	add	sp, #68	; 0x44
 8002374:	bd30      	pop	{r4, r5, pc}
    } else if (question_pos != NULL) {
 8002376:	b128      	cbz	r0, 8002384 <sensor_config_process_command+0x210>
        *question_pos = '\0';
 8002378:	2300      	movs	r3, #0
 800237a:	7003      	strb	r3, [r0, #0]
        handle_query_command(var_name);
 800237c:	4668      	mov	r0, sp
 800237e:	f7ff fdd9 	bl	8001f34 <handle_query_command>
 8002382:	e7f6      	b.n	8002372 <sensor_config_process_command+0x1fe>
        sensor_config_send_string("ERROR: Unknown command\r\n");
 8002384:	4834      	ldr	r0, [pc, #208]	; (8002458 <sensor_config_process_command+0x2e4>)
 8002386:	f7ff fc54 	bl	8001c32 <sensor_config_send_string>
 800238a:	e7f2      	b.n	8002372 <sensor_config_process_command+0x1fe>
 800238c:	20001248 	.word	0x20001248
 8002390:	080090d0 	.word	0x080090d0
 8002394:	080090f0 	.word	0x080090f0
 8002398:	08008c7c 	.word	0x08008c7c
 800239c:	08008c84 	.word	0x08008c84
 80023a0:	080090d8 	.word	0x080090d8
 80023a4:	080090f4 	.word	0x080090f4
 80023a8:	08009124 	.word	0x08009124
 80023ac:	0800914c 	.word	0x0800914c
 80023b0:	0800917c 	.word	0x0800917c
 80023b4:	08009190 	.word	0x08009190
 80023b8:	080091c0 	.word	0x080091c0
 80023bc:	080091ec 	.word	0x080091ec
 80023c0:	08009218 	.word	0x08009218
 80023c4:	08009248 	.word	0x08009248
 80023c8:	0800926c 	.word	0x0800926c
 80023cc:	080092b4 	.word	0x080092b4
 80023d0:	08009524 	.word	0x08009524
 80023d4:	080092f8 	.word	0x080092f8
 80023d8:	08009314 	.word	0x08009314
 80023dc:	0800935c 	.word	0x0800935c
 80023e0:	0800937c 	.word	0x0800937c
 80023e4:	080093b4 	.word	0x080093b4
 80023e8:	080093f0 	.word	0x080093f0
 80023ec:	08009428 	.word	0x08009428
 80023f0:	08009440 	.word	0x08009440
 80023f4:	08009484 	.word	0x08009484
 80023f8:	080094c8 	.word	0x080094c8
 80023fc:	080094f4 	.word	0x080094f4
 8002400:	08009528 	.word	0x08009528
 8002404:	08009558 	.word	0x08009558
 8002408:	08009584 	.word	0x08009584
 800240c:	080095b0 	.word	0x080095b0
 8002410:	080095d4 	.word	0x080095d4
 8002414:	080095fc 	.word	0x080095fc
 8002418:	08009628 	.word	0x08009628
 800241c:	08009638 	.word	0x08009638
 8002420:	08009670 	.word	0x08009670
 8002424:	080096a4 	.word	0x080096a4
 8002428:	080096d4 	.word	0x080096d4
 800242c:	08009708 	.word	0x08009708
 8002430:	08009740 	.word	0x08009740
 8002434:	08009750 	.word	0x08009750
 8002438:	08009780 	.word	0x08009780
 800243c:	080097ac 	.word	0x080097ac
 8002440:	080097dc 	.word	0x080097dc
 8002444:	080097ec 	.word	0x080097ec
 8002448:	08009814 	.word	0x08009814
 800244c:	08009844 	.word	0x08009844
 8002450:	08009868 	.word	0x08009868
 8002454:	0800988c 	.word	0x0800988c
 8002458:	080098b0 	.word	0x080098b0

0800245c <sensor_config_load_failed>:
}

bool sensor_config_load_failed(void)
{
    return g_config_load_failed;
}
 800245c:	4b01      	ldr	r3, [pc, #4]	; (8002464 <sensor_config_load_failed+0x8>)
 800245e:	7818      	ldrb	r0, [r3, #0]
 8002460:	4770      	bx	lr
 8002462:	bf00      	nop
 8002464:	20001218 	.word	0x20001218

08002468 <HAL_MspInit>:
/* USER CODE END 0 */
/**
  * Initializes the Global MSP.
  */
void HAL_MspInit(void)
{
 8002468:	b082      	sub	sp, #8

  /* USER CODE BEGIN MspInit 0 */

  /* USER CODE END MspInit 0 */

  __HAL_RCC_AFIO_CLK_ENABLE();
 800246a:	4b0e      	ldr	r3, [pc, #56]	; (80024a4 <HAL_MspInit+0x3c>)
 800246c:	699a      	ldr	r2, [r3, #24]
 800246e:	f042 0201 	orr.w	r2, r2, #1
 8002472:	619a      	str	r2, [r3, #24]
 8002474:	699a      	ldr	r2, [r3, #24]
 8002476:	f002 0201 	and.w	r2, r2, #1
 800247a:	9200      	str	r2, [sp, #0]
 800247c:	9a00      	ldr	r2, [sp, #0]
  __HAL_RCC_PWR_CLK_ENABLE();
 800247e:	69da      	ldr	r2, [r3, #28]
 8002480:	f042 5280 	orr.w	r2, r2, #268435456	; 0x10000000
 8002484:	61da      	str	r2, [r3, #28]
 8002486:	69db      	ldr	r3, [r3, #28]
 8002488:	f003 5380 	and.w	r3, r3, #268435456	; 0x10000000
 800248c:	9301      	str	r3, [sp, #4]
 800248e:	9b01      	ldr	r3, [sp, #4]

  /* System interrupt init*/

  /** NOJTAG: JTAG-DP Disabled and SW-DP Enabled
  */
  __HAL_AFIO_REMAP_SWJ_NOJTAG();
 8002490:	4a05      	ldr	r2, [pc, #20]	; (80024a8 <HAL_MspInit+0x40>)
 8002492:	6853      	ldr	r3, [r2, #4]
 8002494:	f023 63e0 	bic.w	r3, r3, #117440512	; 0x7000000
 8002498:	f043 7300 	orr.w	r3, r3, #33554432	; 0x2000000
 800249c:	6053      	str	r3, [r2, #4]

  /* USER CODE BEGIN MspInit 1 */

  /* USER CODE END MspInit 1 */
}
 800249e:	b002      	add	sp, #8
 80024a0:	4770      	bx	lr
 80024a2:	bf00      	nop
 80024a4:	40021000 	.word	0x40021000
 80024a8:	40010000 	.word	0x40010000

080024ac <HAL_ADC_MspInit>:
  * This function configures the hardware resources used in this example
  * @param hadc: ADC handle pointer
  * @retval None
  */
void HAL_ADC_MspInit(ADC_HandleTypeDef* hadc)
{
 80024ac:	b510      	push	{r4, lr}
 80024ae:	b086      	sub	sp, #24
  GPIO_InitTypeDef GPIO_InitStruct = {0};
 80024b0:	2300      	movs	r3, #0
 80024b2:	9302      	str	r3, [sp, #8]
 80024b4:	9303      	str	r3, [sp, #12]
 80024b6:	9304      	str	r3, [sp, #16]
 80024b8:	9305      	str	r3, [sp, #20]
  if(hadc->Instance==ADC1)
 80024ba:	6802      	ldr	r2, [r0, #0]
 80024bc:	4b1f      	ldr	r3, [pc, #124]	; (800253c <HAL_ADC_MspInit+0x90>)
 80024be:	429a      	cmp	r2, r3
 80024c0:	d001      	beq.n	80024c6 <HAL_ADC_MspInit+0x1a>

    /* USER CODE END ADC1_MspInit 1 */

  }

}
 80024c2:	b006      	add	sp, #24
 80024c4:	bd10      	pop	{r4, pc}
 80024c6:	4604      	mov	r4, r0
    __HAL_RCC_ADC1_CLK_ENABLE();
 80024c8:	f503 436c 	add.w	r3, r3, #60416	; 0xec00
 80024cc:	699a      	ldr	r2, [r3, #24]
 80024ce:	f442 7200 	orr.w	r2, r2, #512	; 0x200
 80024d2:	619a      	str	r2, [r3, #24]
 80024d4:	699a      	ldr	r2, [r3, #24]
 80024d6:	f402 7200 	and.w	r2, r2, #512	; 0x200
 80024da:	9200      	str	r2, [sp, #0]
 80024dc:	9a00      	ldr	r2, [sp, #0]
    __HAL_RCC_GPIOA_CLK_ENABLE();
 80024de:	699a      	ldr	r2, [r3, #24]
 80024e0:	f042 0204 	orr.w	r2, r2, #4
 80024e4:	619a      	str	r2, [r3, #24]
 80024e6:	699b      	ldr	r3, [r3, #24]
 80024e8:	f003 0304 	and.w	r3, r3, #4
 80024ec:	9301      	str	r3, [sp, #4]
 80024ee:	9b01      	ldr	r3, [sp, #4]
    GPIO_InitStruct.Pin = GPIO_PIN_0|GPIO_PIN_1|GPIO_PIN_2|GPIO_PIN_3
 80024f0:	231f      	movs	r3, #31
 80024f2:	9302      	str	r3, [sp, #8]
    GPIO_InitStruct.Mode = GPIO_MODE_ANALOG;
 80024f4:	2303      	movs	r3, #3
 80024f6:	9303      	str	r3, [sp, #12]
    HAL_GPIO_Init(GPIOA, &GPIO_InitStruct);
 80024f8:	a902      	add	r1, sp, #8
 80024fa:	4811      	ldr	r0, [pc, #68]	; (8002540 <HAL_ADC_MspInit+0x94>)
 80024fc:	f001 fca8 	bl	8003e50 <HAL_GPIO_Init>
    hdma_adc1.Instance = DMA1_Channel1;
 8002500:	4810      	ldr	r0, [pc, #64]	; (8002544 <HAL_ADC_MspInit+0x98>)
 8002502:	4b11      	ldr	r3, [pc, #68]	; (8002548 <HAL_ADC_MspInit+0x9c>)
 8002504:	6003      	str	r3, [r0, #0]
    hdma_adc1.Init.Direction = DMA_PERIPH_TO_MEMORY;
 8002506:	2300      	movs	r3, #0
 8002508:	6043      	str	r3, [r0, #4]
    hdma_adc1.Init.PeriphInc = DMA_PINC_DISABLE;
 800250a:	6083      	str	r3, [r0, #8]
    hdma_adc1.Init.MemInc = DMA_MINC_ENABLE;
 800250c:	2380      	movs	r3, #128	; 0x80
 800250e:	60c3      	str	r3, [r0, #12]
    hdma_adc1.Init.PeriphDataAlignment = DMA_PDATAALIGN_HALFWORD;
 8002510:	f44f 7380 	mov.w	r3, #256	; 0x100
 8002514:	6103      	str	r3, [r0, #16]
    hdma_adc1.Init.MemDataAlignment = DMA_MDATAALIGN_HALFWORD;
 8002516:	f44f 6380 	mov.w	r3, #1024	; 0x400
 800251a:	6143      	str	r3, [r0, #20]
    hdma_adc1.Init.Mode = DMA_CIRCULAR;
 800251c:	2320      	movs	r3, #32
 800251e:	6183      	str	r3, [r0, #24]
    hdma_adc1.Init.Priority = DMA_PRIORITY_HIGH;
 8002520:	f44f 5300 	mov.w	r3, #8192	; 0x2000
 8002524:	61c3      	str	r3, [r0, #28]
    if (HAL_DMA_Init(&hdma_adc1) != HAL_OK)
 8002526:	f001 f9af 	bl	8003888 <HAL_DMA_Init>
 800252a:	b918      	cbnz	r0, 8002534 <HAL_ADC_MspInit+0x88>
    __HAL_LINKDMA(hadc,DMA_Handle,hdma_adc1);
 800252c:	4b05      	ldr	r3, [pc, #20]	; (8002544 <HAL_ADC_MspInit+0x98>)
 800252e:	6223      	str	r3, [r4, #32]
 8002530:	625c      	str	r4, [r3, #36]	; 0x24
}
 8002532:	e7c6      	b.n	80024c2 <HAL_ADC_MspInit+0x16>
      Error_Handler();
 8002534:	f7fe fa34 	bl	80009a0 <Error_Handler>
 8002538:	e7f8      	b.n	800252c <HAL_ADC_MspInit+0x80>
 800253a:	bf00      	nop
 800253c:	40012400 	.word	0x40012400
 8002540:	40010800 	.word	0x40010800
 8002544:	200020f8 	.word	0x200020f8
 8002548:	40020008 	.word	0x40020008

0800254c <HAL_TIM_Base_MspInit>:
  * This function configures the hardware resources used in this example
  * @param htim_base: TIM_Base handle pointer
  * @retval None
  */
void HAL_TIM_Base_MspInit(TIM_HandleTypeDef* htim_base)
{
 800254c:	b082      	sub	sp, #8
  if(htim_base->Instance==TIM1)
 800254e:	6803      	ldr	r3, [r0, #0]
 8002550:	4a0e      	ldr	r2, [pc, #56]	; (800258c <HAL_TIM_Base_MspInit+0x40>)
 8002552:	4293      	cmp	r3, r2
 8002554:	d004      	beq.n	8002560 <HAL_TIM_Base_MspInit+0x14>
    __HAL_RCC_TIM1_CLK_ENABLE();
    /* USER CODE BEGIN TIM1_MspInit 1 */

    /* USER CODE END TIM1_MspInit 1 */
  }
  else if(htim_base->Instance==TIM3)
 8002556:	4a0e      	ldr	r2, [pc, #56]	; (8002590 <HAL_TIM_Base_MspInit+0x44>)
 8002558:	4293      	cmp	r3, r2
 800255a:	d00c      	beq.n	8002576 <HAL_TIM_Base_MspInit+0x2a>
    /* USER CODE BEGIN TIM3_MspInit 1 */

    /* USER CODE END TIM3_MspInit 1 */
  }

}
 800255c:	b002      	add	sp, #8
 800255e:	4770      	bx	lr
    __HAL_RCC_TIM1_CLK_ENABLE();
 8002560:	4b0c      	ldr	r3, [pc, #48]	; (8002594 <HAL_TIM_Base_MspInit+0x48>)
 8002562:	699a      	ldr	r2, [r3, #24]
 8002564:	f442 6200 	orr.w	r2, r2, #2048	; 0x800
 8002568:	619a      	str	r2, [r3, #24]
 800256a:	699b      	ldr	r3, [r3, #24]
 800256c:	f403 6300 	and.w	r3, r3, #2048	; 0x800
 8002570:	9300      	str	r3, [sp, #0]
 8002572:	9b00      	ldr	r3, [sp, #0]
 8002574:	e7f2      	b.n	800255c <HAL_TIM_Base_MspInit+0x10>
    __HAL_RCC_TIM3_CLK_ENABLE();
 8002576:	4b07      	ldr	r3, [pc, #28]	; (8002594 <HAL_TIM_Base_MspInit+0x48>)
 8002578:	69da      	ldr	r2, [r3, #28]
 800257a:	f042 0202 	orr.w	r2, r2, #2
 800257e:	61da      	str	r2, [r3, #28]
 8002580:	69db      	ldr	r3, [r3, #28]
 8002582:	f003 0302 	and.w	r3, r3, #2
 8002586:	9301      	str	r3, [sp, #4]
 8002588:	9b01      	ldr	r3, [sp, #4]
}
 800258a:	e7e7      	b.n	800255c <HAL_TIM_Base_MspInit+0x10>
 800258c:	40012c00 	.word	0x40012c00
 8002590:	40000400 	.word	0x40000400
 8002594:	40021000 	.word	0x40021000

08002598 <HAL_UART_MspInit>:
  * This function configures the hardware resources used in this example
  * @param huart: UART handle pointer
  * @retval None
  */
void HAL_UART_MspInit(UART_HandleTypeDef* huart)
{
 8002598:	b570      	push	{r4, r5, r6, lr}
 800259a:	b086      	sub	sp, #24
  GPIO_InitTypeDef GPIO_InitStruct = {0};
 800259c:	2300      	movs	r3, #0
 800259e:	9302      	str	r3, [sp, #8]
 80025a0:	9303      	str	r3, [sp, #12]
 80025a2:	9304      	str	r3, [sp, #16]
 80025a4:	9305      	str	r3, [sp, #20]
  if(huart->Instance==USART3)
 80025a6:	6802      	ldr	r2, [r0, #0]
 80025a8:	4b27      	ldr	r3, [pc, #156]	; (8002648 <HAL_UART_MspInit+0xb0>)
 80025aa:	429a      	cmp	r2, r3
 80025ac:	d001      	beq.n	80025b2 <HAL_UART_MspInit+0x1a>

    /* USER CODE END USART3_MspInit 1 */

  }

}
 80025ae:	b006      	add	sp, #24
 80025b0:	bd70      	pop	{r4, r5, r6, pc}
 80025b2:	4604      	mov	r4, r0
    __HAL_RCC_USART3_CLK_ENABLE();
 80025b4:	f503 33e4 	add.w	r3, r3, #116736	; 0x1c800
 80025b8:	69da      	ldr	r2, [r3, #28]
 80025ba:	f442 2280 	orr.w	r2, r2, #262144	; 0x40000
 80025be:	61da      	str	r2, [r3, #28]
 80025c0:	69da      	ldr	r2, [r3, #28]
 80025c2:	f402 2280 	and.w	r2, r2, #262144	; 0x40000
 80025c6:	9200      	str	r2, [sp, #0]
 80025c8:	9a00      	ldr	r2, [sp, #0]
    __HAL_RCC_GPIOB_CLK_ENABLE();
 80025ca:	699a      	ldr	r2, [r3, #24]
 80025cc:	f042 0208 	orr.w	r2, r2, #8
 80025d0:	619a      	str	r2, [r3, #24]
 80025d2:	699b      	ldr	r3, [r3, #24]
 80025d4:	f003 0308 	and.w	r3, r3, #8
 80025d8:	9301      	str	r3, [sp, #4]
 80025da:	9b01      	ldr	r3, [sp, #4]
    GPIO_InitStruct.Pin = GPIO_PIN_10;
 80025dc:	f44f 6380 	mov.w	r3, #1024	; 0x400
 80025e0:	9302      	str	r3, [sp, #8]
    GPIO_InitStruct.Mode = GPIO_MODE_AF_PP;
 80025e2:	2302      	movs	r3, #2
 80025e4:	9303      	str	r3, [sp, #12]
    GPIO_InitStruct.Speed = GPIO_SPEED_FREQ_HIGH;
 80025e6:	2303      	movs	r3, #3
 80025e8:	9305      	str	r3, [sp, #20]
    HAL_GPIO_Init(GPIOB, &GPIO_InitStruct);
 80025ea:	4e18      	ldr	r6, [pc, #96]	; (800264c <HAL_UART_MspInit+0xb4>)
 80025ec:	a902      	add	r1, sp, #8
 80025ee:	4630      	mov	r0, r6
 80025f0:	f001 fc2e 	bl	8003e50 <HAL_GPIO_Init>
    GPIO_InitStruct.Pin = GPIO_PIN_11;
 80025f4:	f44f 6300 	mov.w	r3, #2048	; 0x800
 80025f8:	9302      	str	r3, [sp, #8]
    GPIO_InitStruct.Mode = GPIO_MODE_INPUT;
 80025fa:	2500      	movs	r5, #0
 80025fc:	9503      	str	r5, [sp, #12]
    GPIO_InitStruct.Pull = GPIO_NOPULL;
 80025fe:	9504      	str	r5, [sp, #16]
    HAL_GPIO_Init(GPIOB, &GPIO_InitStruct);
 8002600:	a902      	add	r1, sp, #8
 8002602:	4630      	mov	r0, r6
 8002604:	f001 fc24 	bl	8003e50 <HAL_GPIO_Init>
    hdma_usart3_rx.Instance = DMA1_Channel3;
 8002608:	4811      	ldr	r0, [pc, #68]	; (8002650 <HAL_UART_MspInit+0xb8>)
 800260a:	4b12      	ldr	r3, [pc, #72]	; (8002654 <HAL_UART_MspInit+0xbc>)
 800260c:	6003      	str	r3, [r0, #0]
    hdma_usart3_rx.Init.Direction = DMA_PERIPH_TO_MEMORY;
 800260e:	6045      	str	r5, [r0, #4]
    hdma_usart3_rx.Init.PeriphInc = DMA_PINC_DISABLE;
 8002610:	6085      	str	r5, [r0, #8]
    hdma_usart3_rx.Init.MemInc = DMA_MINC_ENABLE;
 8002612:	2380      	movs	r3, #128	; 0x80
 8002614:	60c3      	str	r3, [r0, #12]
    hdma_usart3_rx.Init.PeriphDataAlignment = DMA_PDATAALIGN_BYTE;
 8002616:	6105      	str	r5, [r0, #16]
    hdma_usart3_rx.Init.MemDataAlignment = DMA_MDATAALIGN_BYTE;
 8002618:	6145      	str	r5, [r0, #20]
    hdma_usart3_rx.Init.Mode = DMA_NORMAL;
 800261a:	6185      	str	r5, [r0, #24]
    hdma_usart3_rx.Init.Priority = DMA_PRIORITY_MEDIUM;
 800261c:	f44f 5380 	mov.w	r3, #4096	; 0x1000
 8002620:	61c3      	str	r3, [r0, #28]
    if (HAL_DMA_Init(&hdma_usart3_rx) != HAL_OK)
 8002622:	f001 f931 	bl	8003888 <HAL_DMA_Init>
 8002626:	b958      	cbnz	r0, 8002640 <HAL_UART_MspInit+0xa8>
    __HAL_LINKDMA(huart,hdmarx,hdma_usart3_rx);
 8002628:	4b09      	ldr	r3, [pc, #36]	; (8002650 <HAL_UART_MspInit+0xb8>)
 800262a:	63e3      	str	r3, [r4, #60]	; 0x3c
 800262c:	625c      	str	r4, [r3, #36]	; 0x24
    HAL_NVIC_SetPriority(USART3_IRQn, 4, 0);
 800262e:	2200      	movs	r2, #0
 8002630:	2104      	movs	r1, #4
 8002632:	2027      	movs	r0, #39	; 0x27
 8002634:	f001 f8ba 	bl	80037ac <HAL_NVIC_SetPriority>
    HAL_NVIC_EnableIRQ(USART3_IRQn);
 8002638:	2027      	movs	r0, #39	; 0x27
 800263a:	f001 f8eb 	bl	8003814 <HAL_NVIC_EnableIRQ>
}
 800263e:	e7b6      	b.n	80025ae <HAL_UART_MspInit+0x16>
      Error_Handler();
 8002640:	f7fe f9ae 	bl	80009a0 <Error_Handler>
 8002644:	e7f0      	b.n	8002628 <HAL_UART_MspInit+0x90>
 8002646:	bf00      	nop
 8002648:	40004800 	.word	0x40004800
 800264c:	40010c00 	.word	0x40010c00
 8002650:	20001ff4 	.word	0x20001ff4
 8002654:	40020030 	.word	0x40020030

08002658 <NMI_Handler>:
{
  /* USER CODE BEGIN NonMaskableInt_IRQn 0 */

  /* USER CODE END NonMaskableInt_IRQn 0 */
  /* USER CODE BEGIN NonMaskableInt_IRQn 1 */
   while (1)
 8002658:	e7fe      	b.n	8002658 <NMI_Handler>

0800265a <HardFault_Handler>:
void HardFault_Handler(void)
{
  /* USER CODE BEGIN HardFault_IRQn 0 */

  /* USER CODE END HardFault_IRQn 0 */
  while (1)
 800265a:	e7fe      	b.n	800265a <HardFault_Handler>

0800265c <MemManage_Handler>:
void MemManage_Handler(void)
{
  /* USER CODE BEGIN MemoryManagement_IRQn 0 */

  /* USER CODE END MemoryManagement_IRQn 0 */
  while (1)
 800265c:	e7fe      	b.n	800265c <MemManage_Handler>

0800265e <BusFault_Handler>:
void BusFault_Handler(void)
{
  /* USER CODE BEGIN BusFault_IRQn 0 */

  /* USER CODE END BusFault_IRQn 0 */
  while (1)
 800265e:	e7fe      	b.n	800265e <BusFault_Handler>

08002660 <UsageFault_Handler>:
void UsageFault_Handler(void)
{
  /* USER CODE BEGIN UsageFault_IRQn 0 */

  /* USER CODE END UsageFault_IRQn 0 */
  while (1)
 8002660:	e7fe      	b.n	8002660 <UsageFault_Handler>

08002662 <SVC_Handler>:

  /* USER CODE END SVCall_IRQn 0 */
  /* USER CODE BEGIN SVCall_IRQn 1 */

  /* USER CODE END SVCall_IRQn 1 */
}
 8002662:	4770      	bx	lr

08002664 <DebugMon_Handler>:

  /* USER CODE END DebugMonitor_IRQn 0 */
  /* USER CODE BEGIN DebugMonitor_IRQn 1 */

  /* USER CODE END DebugMonitor_IRQn 1 */
}
 8002664:	4770      	bx	lr

08002666 <PendSV_Handler>:

  /* USER CODE END PendSV_IRQn 0 */
  /* USER CODE BEGIN PendSV_IRQn 1 */

  /* USER CODE END PendSV_IRQn 1 */
}
 8002666:	4770      	bx	lr

08002668 <SysTick_Handler>:

/**
  * @brief This function handles System tick timer.
  */
void SysTick_Handler(void)
{
 8002668:	b508      	push	{r3, lr}
  /* USER CODE BEGIN SysTick_IRQn 0 */

  /* USER CODE END SysTick_IRQn 0 */
  HAL_IncTick();
 800266a:	f000 fe03 	bl	8003274 <HAL_IncTick>
  /* USER CODE BEGIN SysTick_IRQn 1 */

  /* USER CODE END SysTick_IRQn 1 */
}
 800266e:	bd08      	pop	{r3, pc}

08002670 <DMA1_Channel1_IRQHandler>:

/**
  * @brief This function handles DMA1 channel1 global interrupt.
  */
void DMA1_Channel1_IRQHandler(void)
{
 8002670:	b508      	push	{r3, lr}
  /* USER CODE BEGIN DMA1_Channel1_IRQn 0 */

  /* USER CODE END DMA1_Channel1_IRQn 0 */
  HAL_DMA_IRQHandler(&hdma_adc1);
 8002672:	4802      	ldr	r0, [pc, #8]	; (800267c <DMA1_Channel1_IRQHandler+0xc>)
 8002674:	f001 f9e8 	bl	8003a48 <HAL_DMA_IRQHandler>
  /* USER CODE BEGIN DMA1_Channel1_IRQn 1 */

  /* USER CODE END DMA1_Channel1_IRQn 1 */
}
 8002678:	bd08      	pop	{r3, pc}
 800267a:	bf00      	nop
 800267c:	200020f8 	.word	0x200020f8

08002680 <DMA1_Channel3_IRQHandler>:

/**
  * @brief This function handles DMA1 channel3 global interrupt.
  */
void DMA1_Channel3_IRQHandler(void)
{
 8002680:	b508      	push	{r3, lr}
  /* USER CODE BEGIN DMA1_Channel3_IRQn 0 */

  /* USER CODE END DMA1_Channel3_IRQn 0 */
  HAL_DMA_IRQHandler(&hdma_usart3_rx);
 8002682:	4802      	ldr	r0, [pc, #8]	; (800268c <DMA1_Channel3_IRQHandler+0xc>)
 8002684:	f001 f9e0 	bl	8003a48 <HAL_DMA_IRQHandler>
  /* USER CODE BEGIN DMA1_Channel3_IRQn 1 */

  /* USER CODE END DMA1_Channel3_IRQn 1 */
}
 8002688:	bd08      	pop	{r3, pc}
 800268a:	bf00      	nop
 800268c:	20001ff4 	.word	0x20001ff4

08002690 <USB_LP_CAN1_RX0_IRQHandler>:

/**
  * @brief This function handles USB low priority or CAN RX0 interrupts.
  */
void USB_LP_CAN1_RX0_IRQHandler(void)
{
 8002690:	b508      	push	{r3, lr}
  /* USER CODE BEGIN USB_LP_CAN1_RX0_IRQn 0 */

  /* USER CODE END USB_LP_CAN1_RX0_IRQn 0 */
  HAL_PCD_IRQHandler(&hpcd_USB_FS);
 8002692:	4802      	ldr	r0, [pc, #8]	; (800269c <USB_LP_CAN1_RX0_IRQHandler+0xc>)
 8002694:	f002 fadf 	bl	8004c56 <HAL_PCD_IRQHandler>
  /* USER CODE BEGIN USB_LP_CAN1_RX0_IRQn 1 */

  /* USER CODE END USB_LP_CAN1_RX0_IRQn 1 */
}
 8002698:	bd08      	pop	{r3, pc}
 800269a:	bf00      	nop
 800269c:	20002a74 	.word	0x20002a74

080026a0 <USART3_IRQHandler>:

/**
  * @brief This function handles USART3 global interrupt.
  */
void USART3_IRQHandler(void)
{
 80026a0:	b508      	push	{r3, lr}
  /* USER CODE BEGIN USART3_IRQn 0 */

  /* USER CODE END USART3_IRQn 0 */
  HAL_UART_IRQHandler(&huart3);
 80026a2:	4802      	ldr	r0, [pc, #8]	; (80026ac <USART3_IRQHandler+0xc>)
 80026a4:	f003 fc50 	bl	8005f48 <HAL_UART_IRQHandler>
  /* USER CODE BEGIN USART3_IRQn 1 */

  /* USER CODE END USART3_IRQn 1 */
}
 80026a8:	bd08      	pop	{r3, pc}
 80026aa:	bf00      	nop
 80026ac:	20002038 	.word	0x20002038

080026b0 <_sbrk>:
 *
 * @param incr Memory size
 * @return Pointer to allocated memory
 */
void *_sbrk(ptrdiff_t incr)
{
 80026b0:	b510      	push	{r4, lr}
 80026b2:	4603      	mov	r3, r0
  extern uint8_t _end; /* Symbol defined in the linker script */
  extern uint8_t _estack; /* Symbol defined in the linker script */
  extern uint32_t _Min_Stack_Size; /* Symbol defined in the linker script */
  const uint32_t stack_limit = (uint32_t)&_estack - (uint32_t)&_Min_Stack_Size;
 80026b4:	4a0c      	ldr	r2, [pc, #48]	; (80026e8 <_sbrk+0x38>)
 80026b6:	490d      	ldr	r1, [pc, #52]	; (80026ec <_sbrk+0x3c>)
  const uint8_t *max_heap = (uint8_t *)stack_limit;
  uint8_t *prev_heap_end;

  /* Initialize heap end at first call */
  if (NULL == __sbrk_heap_end)
 80026b8:	480d      	ldr	r0, [pc, #52]	; (80026f0 <_sbrk+0x40>)
 80026ba:	6800      	ldr	r0, [r0, #0]
 80026bc:	b140      	cbz	r0, 80026d0 <_sbrk+0x20>
  {
    __sbrk_heap_end = &_end;
  }

  /* Protect heap from growing into the reserved MSP stack */
  if (__sbrk_heap_end + incr > max_heap)
 80026be:	480c      	ldr	r0, [pc, #48]	; (80026f0 <_sbrk+0x40>)
 80026c0:	6800      	ldr	r0, [r0, #0]
 80026c2:	4403      	add	r3, r0
 80026c4:	1a52      	subs	r2, r2, r1
 80026c6:	4293      	cmp	r3, r2
 80026c8:	d806      	bhi.n	80026d8 <_sbrk+0x28>
    errno = ENOMEM;
    return (void *)-1;
  }

  prev_heap_end = __sbrk_heap_end;
  __sbrk_heap_end += incr;
 80026ca:	4a09      	ldr	r2, [pc, #36]	; (80026f0 <_sbrk+0x40>)
 80026cc:	6013      	str	r3, [r2, #0]

  return (void *)prev_heap_end;
}
 80026ce:	bd10      	pop	{r4, pc}
    __sbrk_heap_end = &_end;
 80026d0:	4807      	ldr	r0, [pc, #28]	; (80026f0 <_sbrk+0x40>)
 80026d2:	4c08      	ldr	r4, [pc, #32]	; (80026f4 <_sbrk+0x44>)
 80026d4:	6004      	str	r4, [r0, #0]
 80026d6:	e7f2      	b.n	80026be <_sbrk+0xe>
    errno = ENOMEM;
 80026d8:	f005 fdcc 	bl	8008274 <__errno>
 80026dc:	230c      	movs	r3, #12
 80026de:	6003      	str	r3, [r0, #0]
    return (void *)-1;
 80026e0:	f04f 30ff 	mov.w	r0, #4294967295
 80026e4:	e7f3      	b.n	80026ce <_sbrk+0x1e>
 80026e6:	bf00      	nop
 80026e8:	20005000 	.word	0x20005000
 80026ec:	00000400 	.word	0x00000400
 80026f0:	20001250 	.word	0x20001250
 80026f4:	20002d60 	.word	0x20002d60

080026f8 <SystemInit>:

  /* Configure the Vector Table location -------------------------------------*/
#if defined(USER_VECT_TAB_ADDRESS)
  SCB->VTOR = VECT_TAB_BASE_ADDRESS | VECT_TAB_OFFSET; /* Vector Table Relocation in Internal SRAM. */
#endif /* USER_VECT_TAB_ADDRESS */
}
 80026f8:	4770      	bx	lr
	...

080026fc <is_cdc_connected>:

/* Function to check if CDC is connected */
static bool is_cdc_connected(void)
{
    extern USBD_HandleTypeDef hUsbDeviceFS;
    return (hUsbDeviceFS.dev_state == USBD_STATE_CONFIGURED);
 80026fc:	4b03      	ldr	r3, [pc, #12]	; (800270c <is_cdc_connected+0x10>)
 80026fe:	f893 029c 	ldrb.w	r0, [r3, #668]	; 0x29c
}
 8002702:	2803      	cmp	r0, #3
 8002704:	bf14      	ite	ne
 8002706:	2000      	movne	r0, #0
 8002708:	2001      	moveq	r0, #1
 800270a:	4770      	bx	lr
 800270c:	200027a8 	.word	0x200027a8

08002710 <uart_terminal_process_command>:
}

/*================= COMMAND PROCESSING =================*/

static void uart_terminal_process_command(void)
{
 8002710:	b508      	push	{r3, lr}
    /* Skip empty commands */
    if (g_terminal.buffer_index == 0) {
 8002712:	4b04      	ldr	r3, [pc, #16]	; (8002724 <uart_terminal_process_command+0x14>)
 8002714:	f8b3 1040 	ldrh.w	r1, [r3, #64]	; 0x40
 8002718:	b901      	cbnz	r1, 800271c <uart_terminal_process_command+0xc>
        return;
    }

    /* Process command through sensor config module */
    sensor_config_process_command(g_terminal.buffer, g_terminal.buffer_index);
}
 800271a:	bd08      	pop	{r3, pc}
    sensor_config_process_command(g_terminal.buffer, g_terminal.buffer_index);
 800271c:	4618      	mov	r0, r3
 800271e:	f7ff fd29 	bl	8002174 <sensor_config_process_command>
 8002722:	e7fa      	b.n	800271a <uart_terminal_process_command+0xa>
 8002724:	20001254 	.word	0x20001254

08002728 <uart_terminal_get_input_mode>:
}
 8002728:	4b01      	ldr	r3, [pc, #4]	; (8002730 <uart_terminal_get_input_mode+0x8>)
 800272a:	f893 004a 	ldrb.w	r0, [r3, #74]	; 0x4a
 800272e:	4770      	bx	lr
 8002730:	20001254 	.word	0x20001254

08002734 <uart_terminal_send>:
{
 8002734:	b538      	push	{r3, r4, r5, lr}
 8002736:	4604      	mov	r4, r0
 8002738:	460d      	mov	r5, r1
    if (is_cdc_connected())
 800273a:	f7ff ffdf 	bl	80026fc <is_cdc_connected>
 800273e:	b120      	cbz	r0, 800274a <uart_terminal_send+0x16>
        usb_cdc_enqueue_tx(data, len);
 8002740:	4629      	mov	r1, r5
 8002742:	4620      	mov	r0, r4
 8002744:	f000 f988 	bl	8002a58 <usb_cdc_enqueue_tx>
}
 8002748:	bd38      	pop	{r3, r4, r5, pc}
        HAL_UART_Transmit(&huart3, (uint8_t*)data, len, 100);
 800274a:	2364      	movs	r3, #100	; 0x64
 800274c:	462a      	mov	r2, r5
 800274e:	4621      	mov	r1, r4
 8002750:	4801      	ldr	r0, [pc, #4]	; (8002758 <uart_terminal_send+0x24>)
 8002752:	f003 fb08 	bl	8005d66 <HAL_UART_Transmit>
}
 8002756:	e7f7      	b.n	8002748 <uart_terminal_send+0x14>
 8002758:	20002038 	.word	0x20002038

0800275c <uart_terminal_receive_byte>:
{
 800275c:	b530      	push	{r4, r5, lr}
 800275e:	b083      	sub	sp, #12
 8002760:	4604      	mov	r4, r0
    if (!g_terminal.terminal_active) {
 8002762:	4b1a      	ldr	r3, [pc, #104]	; (80027cc <uart_terminal_receive_byte+0x70>)
 8002764:	f893 3048 	ldrb.w	r3, [r3, #72]	; 0x48
 8002768:	b91b      	cbnz	r3, 8002772 <uart_terminal_receive_byte+0x16>
        g_terminal.terminal_active = true;
 800276a:	4b18      	ldr	r3, [pc, #96]	; (80027cc <uart_terminal_receive_byte+0x70>)
 800276c:	2201      	movs	r2, #1
 800276e:	f883 2048 	strb.w	r2, [r3, #72]	; 0x48
    g_terminal.last_char_time_ms = HAL_GetTick();
 8002772:	f000 fd8b 	bl	800328c <HAL_GetTick>
 8002776:	4b15      	ldr	r3, [pc, #84]	; (80027cc <uart_terminal_receive_byte+0x70>)
 8002778:	6458      	str	r0, [r3, #68]	; 0x44
    g_terminal.idle_detected = false;
 800277a:	2200      	movs	r2, #0
 800277c:	f883 2049 	strb.w	r2, [r3, #73]	; 0x49
    if (byte == '\n' || byte == '\r') {
 8002780:	2c0a      	cmp	r4, #10
 8002782:	d00d      	beq.n	80027a0 <uart_terminal_receive_byte+0x44>
 8002784:	2c0d      	cmp	r4, #13
 8002786:	d00b      	beq.n	80027a0 <uart_terminal_receive_byte+0x44>
    if (g_terminal.buffer_index < UART_TERMINAL_BUFFER_SIZE - 1) {
 8002788:	4b10      	ldr	r3, [pc, #64]	; (80027cc <uart_terminal_receive_byte+0x70>)
 800278a:	f8b3 3040 	ldrh.w	r3, [r3, #64]	; 0x40
 800278e:	2b3e      	cmp	r3, #62	; 0x3e
 8002790:	d804      	bhi.n	800279c <uart_terminal_receive_byte+0x40>
        g_terminal.buffer[g_terminal.buffer_index++] = byte;
 8002792:	4a0e      	ldr	r2, [pc, #56]	; (80027cc <uart_terminal_receive_byte+0x70>)
 8002794:	1c59      	adds	r1, r3, #1
 8002796:	f8a2 1040 	strh.w	r1, [r2, #64]	; 0x40
 800279a:	54d4      	strb	r4, [r2, r3]
}
 800279c:	b003      	add	sp, #12
 800279e:	bd30      	pop	{r4, r5, pc}
        g_terminal.buffer[g_terminal.buffer_index] = '\0';
 80027a0:	4c0a      	ldr	r4, [pc, #40]	; (80027cc <uart_terminal_receive_byte+0x70>)
 80027a2:	f8b4 3040 	ldrh.w	r3, [r4, #64]	; 0x40
 80027a6:	2500      	movs	r5, #0
 80027a8:	54e5      	strb	r5, [r4, r3]
        uart_terminal_process_command();
 80027aa:	f7ff ffb1 	bl	8002710 <uart_terminal_process_command>
        g_terminal.buffer_index = 0;
 80027ae:	f8a4 5040 	strh.w	r5, [r4, #64]	; 0x40
        uint8_t newline[] = "\r\n";
 80027b2:	4b07      	ldr	r3, [pc, #28]	; (80027d0 <uart_terminal_receive_byte+0x74>)
 80027b4:	681b      	ldr	r3, [r3, #0]
 80027b6:	f8ad 3004 	strh.w	r3, [sp, #4]
 80027ba:	0c1b      	lsrs	r3, r3, #16
 80027bc:	f88d 3006 	strb.w	r3, [sp, #6]
        uart_terminal_send(newline, 2);
 80027c0:	2102      	movs	r1, #2
 80027c2:	a801      	add	r0, sp, #4
 80027c4:	f7ff ffb6 	bl	8002734 <uart_terminal_send>
        return;
 80027c8:	e7e8      	b.n	800279c <uart_terminal_receive_byte+0x40>
 80027ca:	bf00      	nop
 80027cc:	20001254 	.word	0x20001254
 80027d0:	08009524 	.word	0x08009524

080027d4 <uart_terminal_tick>:
{
 80027d4:	b538      	push	{r3, r4, r5, lr}
    if (g_terminal.buffer_index > 0 && !g_terminal.idle_detected) {
 80027d6:	4b0c      	ldr	r3, [pc, #48]	; (8002808 <uart_terminal_tick+0x34>)
 80027d8:	f8b3 3040 	ldrh.w	r3, [r3, #64]	; 0x40
 80027dc:	b143      	cbz	r3, 80027f0 <uart_terminal_tick+0x1c>
 80027de:	4a0a      	ldr	r2, [pc, #40]	; (8002808 <uart_terminal_tick+0x34>)
 80027e0:	f892 2049 	ldrb.w	r2, [r2, #73]	; 0x49
 80027e4:	b922      	cbnz	r2, 80027f0 <uart_terminal_tick+0x1c>
        uint32_t time_since_last_char = current_ms - g_terminal.last_char_time_ms;
 80027e6:	4a08      	ldr	r2, [pc, #32]	; (8002808 <uart_terminal_tick+0x34>)
 80027e8:	6c52      	ldr	r2, [r2, #68]	; 0x44
 80027ea:	1a80      	subs	r0, r0, r2
        if (time_since_last_char >= UART_IDLE_TIMEOUT_MS) {
 80027ec:	2831      	cmp	r0, #49	; 0x31
 80027ee:	d800      	bhi.n	80027f2 <uart_terminal_tick+0x1e>
}
 80027f0:	bd38      	pop	{r3, r4, r5, pc}
            g_terminal.idle_detected = true;
 80027f2:	4c05      	ldr	r4, [pc, #20]	; (8002808 <uart_terminal_tick+0x34>)
 80027f4:	2201      	movs	r2, #1
 80027f6:	f884 2049 	strb.w	r2, [r4, #73]	; 0x49
            g_terminal.buffer[g_terminal.buffer_index] = '\0';
 80027fa:	2500      	movs	r5, #0
 80027fc:	54e5      	strb	r5, [r4, r3]
            uart_terminal_process_command();
 80027fe:	f7ff ff87 	bl	8002710 <uart_terminal_process_command>
            g_terminal.buffer_index = 0;
 8002802:	f8a4 5040 	strh.w	r5, [r4, #64]	; 0x40
}
 8002806:	e7f3      	b.n	80027f0 <uart_terminal_tick+0x1c>
 8002808:	20001254 	.word	0x20001254

0800280c <uart_terminal_process_idle>:
{
 800280c:	b508      	push	{r3, lr}
    uart_terminal_tick(HAL_GetTick());
 800280e:	f000 fd3d 	bl	800328c <HAL_GetTick>
 8002812:	f7ff ffdf 	bl	80027d4 <uart_terminal_tick>
}
 8002816:	bd08      	pop	{r3, pc}

08002818 <ring_buffer_init>:
 * @brief Initialize both TX and RX ring buffers
 * @retval None
 */
static void ring_buffer_init(void)
{
  g_tx_ring_buffer.head = 0;
 8002818:	4a06      	ldr	r2, [pc, #24]	; (8002834 <ring_buffer_init+0x1c>)
 800281a:	2300      	movs	r3, #0
 800281c:	f8a2 3800 	strh.w	r3, [r2, #2048]	; 0x800
  g_tx_ring_buffer.tail = 0;
 8002820:	f8a2 3802 	strh.w	r3, [r2, #2050]	; 0x802
  g_rx_ring_buffer.head = 0;
 8002824:	4a04      	ldr	r2, [pc, #16]	; (8002838 <ring_buffer_init+0x20>)
 8002826:	f8a2 3100 	strh.w	r3, [r2, #256]	; 0x100
  g_rx_ring_buffer.tail = 0;
 800282a:	f8a2 3102 	strh.w	r3, [r2, #258]	; 0x102
  g_usb_tx_busy = false;
 800282e:	4a03      	ldr	r2, [pc, #12]	; (800283c <ring_buffer_init+0x24>)
 8002830:	7013      	strb	r3, [r2, #0]
}
 8002832:	4770      	bx	lr
 8002834:	200013a4 	.word	0x200013a4
 8002838:	200012a0 	.word	0x200012a0
 800283c:	20001ba8 	.word	0x20001ba8

08002840 <tx_ring_buffer_enqueue>:
 * @param data Data to enqueue
 * @param len Length of data
 * @retval true if enqueued successfully, false if buffer full
 */
static bool tx_ring_buffer_enqueue(const uint8_t* data, uint16_t len)
{
 8002840:	b470      	push	{r4, r5, r6}
  __ASM volatile ("MRS %0, primask" : "=r" (result) :: "memory");
 8002842:	f3ef 8510 	mrs	r5, PRIMASK
  __ASM volatile ("cpsid i" : : : "memory");
 8002846:	b672      	cpsid	i
  /* Enter critical section (disable interrupts) */
  uint32_t primask = __get_PRIMASK();
  __disable_irq();

  /* Check if there's enough space */
  space_available = ring_buffer_available(g_tx_ring_buffer.head, g_tx_ring_buffer.tail, TX_RING_BUFFER_SIZE);
 8002848:	4c18      	ldr	r4, [pc, #96]	; (80028ac <tx_ring_buffer_enqueue+0x6c>)
 800284a:	f8b4 3800 	ldrh.w	r3, [r4, #2048]	; 0x800
 800284e:	b29a      	uxth	r2, r3
 8002850:	f8b4 3802 	ldrh.w	r3, [r4, #2050]	; 0x802
 8002854:	b29b      	uxth	r3, r3
  if (head >= tail) {
 8002856:	429a      	cmp	r2, r3
 8002858:	d31a      	bcc.n	8002890 <tx_ring_buffer_enqueue+0x50>
    return size - (head - tail) - 1;
 800285a:	1a9b      	subs	r3, r3, r2
 800285c:	b29b      	uxth	r3, r3
 800285e:	f203 73ff 	addw	r3, r3, #2047	; 0x7ff
 8002862:	b29b      	uxth	r3, r3

  if (space_available < len) {
 8002864:	4299      	cmp	r1, r3
 8002866:	d818      	bhi.n	800289a <tx_ring_buffer_enqueue+0x5a>
    __set_PRIMASK(primask);
    return false;
  }

  /* Copy data to buffer */
  for (i = 0; i < len; i++) {
 8002868:	2200      	movs	r2, #0
 800286a:	428a      	cmp	r2, r1
 800286c:	d219      	bcs.n	80028a2 <tx_ring_buffer_enqueue+0x62>
    g_tx_ring_buffer.buffer[g_tx_ring_buffer.head] = data[i];
 800286e:	4c0f      	ldr	r4, [pc, #60]	; (80028ac <tx_ring_buffer_enqueue+0x6c>)
 8002870:	f8b4 3800 	ldrh.w	r3, [r4, #2048]	; 0x800
 8002874:	b29b      	uxth	r3, r3
 8002876:	5c86      	ldrb	r6, [r0, r2]
 8002878:	54e6      	strb	r6, [r4, r3]
    g_tx_ring_buffer.head = (g_tx_ring_buffer.head + 1) & TX_RING_BUFFER_MASK;
 800287a:	f8b4 3800 	ldrh.w	r3, [r4, #2048]	; 0x800
 800287e:	b29b      	uxth	r3, r3
 8002880:	3301      	adds	r3, #1
 8002882:	f3c3 030a 	ubfx	r3, r3, #0, #11
 8002886:	f8a4 3800 	strh.w	r3, [r4, #2048]	; 0x800
  for (i = 0; i < len; i++) {
 800288a:	3201      	adds	r2, #1
 800288c:	b292      	uxth	r2, r2
 800288e:	e7ec      	b.n	800286a <tx_ring_buffer_enqueue+0x2a>
    return tail - head - 1;
 8002890:	1a9b      	subs	r3, r3, r2
 8002892:	b29b      	uxth	r3, r3
 8002894:	3b01      	subs	r3, #1
 8002896:	b29b      	uxth	r3, r3
 8002898:	e7e4      	b.n	8002864 <tx_ring_buffer_enqueue+0x24>
  __ASM volatile ("MSR primask, %0" : : "r" (priMask) : "memory");
 800289a:	f385 8810 	msr	PRIMASK, r5
    return false;
 800289e:	2000      	movs	r0, #0
 80028a0:	e002      	b.n	80028a8 <tx_ring_buffer_enqueue+0x68>
 80028a2:	f385 8810 	msr	PRIMASK, r5
  }

  /* Exit critical section (restore interrupt state) */
  __set_PRIMASK(primask);

  return true;
 80028a6:	2001      	movs	r0, #1
}
 80028a8:	bc70      	pop	{r4, r5, r6}
 80028aa:	4770      	bx	lr
 80028ac:	200013a4 	.word	0x200013a4

080028b0 <tx_ring_buffer_dequeue>:
 * @param buf Buffer to store dequeued data
 * @param max_len Maximum bytes to dequeue
 * @retval Number of bytes actually dequeued
 */
static uint16_t tx_ring_buffer_dequeue(uint8_t* buf, uint16_t max_len)
{
 80028b0:	b410      	push	{r4}
 80028b2:	4604      	mov	r4, r0
  uint16_t bytes_read = 0;
  uint16_t bytes_available;

  /* No critical section needed - single reader (main loop) */
  bytes_available = ring_buffer_used(g_tx_ring_buffer.head, g_tx_ring_buffer.tail, TX_RING_BUFFER_SIZE);
 80028b4:	4a15      	ldr	r2, [pc, #84]	; (800290c <tx_ring_buffer_dequeue+0x5c>)
 80028b6:	f8b2 3800 	ldrh.w	r3, [r2, #2048]	; 0x800
 80028ba:	b29b      	uxth	r3, r3
 80028bc:	f8b2 0802 	ldrh.w	r0, [r2, #2050]	; 0x802
 80028c0:	b280      	uxth	r0, r0
  if (head >= tail) {
 80028c2:	4283      	cmp	r3, r0
 80028c4:	d319      	bcc.n	80028fa <tx_ring_buffer_dequeue+0x4a>
    return head - tail;
 80028c6:	1a18      	subs	r0, r3, r0
 80028c8:	b280      	uxth	r0, r0

  if (bytes_available == 0) {
 80028ca:	b1e0      	cbz	r0, 8002906 <tx_ring_buffer_dequeue+0x56>
    return 0;
  }

  /* Read up to max_len bytes */
  bytes_read = (bytes_available < max_len) ? bytes_available : max_len;
 80028cc:	4288      	cmp	r0, r1
 80028ce:	bf28      	it	cs
 80028d0:	4608      	movcs	r0, r1

  for (uint16_t i = 0; i < bytes_read; i++) {
 80028d2:	2200      	movs	r2, #0
 80028d4:	4282      	cmp	r2, r0
 80028d6:	d216      	bcs.n	8002906 <tx_ring_buffer_dequeue+0x56>
    buf[i] = g_tx_ring_buffer.buffer[g_tx_ring_buffer.tail];
 80028d8:	490c      	ldr	r1, [pc, #48]	; (800290c <tx_ring_buffer_dequeue+0x5c>)
 80028da:	f8b1 3802 	ldrh.w	r3, [r1, #2050]	; 0x802
 80028de:	b29b      	uxth	r3, r3
 80028e0:	5ccb      	ldrb	r3, [r1, r3]
 80028e2:	54a3      	strb	r3, [r4, r2]
    g_tx_ring_buffer.tail = (g_tx_ring_buffer.tail + 1) & TX_RING_BUFFER_MASK;
 80028e4:	f8b1 3802 	ldrh.w	r3, [r1, #2050]	; 0x802
 80028e8:	b29b      	uxth	r3, r3
 80028ea:	3301      	adds	r3, #1
 80028ec:	f3c3 030a 	ubfx	r3, r3, #0, #11
 80028f0:	f8a1 3802 	strh.w	r3, [r1, #2050]	; 0x802
  for (uint16_t i = 0; i < bytes_read; i++) {
 80028f4:	3201      	adds	r2, #1
 80028f6:	b292      	uxth	r2, r2
 80028f8:	e7ec      	b.n	80028d4 <tx_ring_buffer_dequeue+0x24>
    return size - (tail - head);
 80028fa:	1a18      	subs	r0, r3, r0
 80028fc:	b280      	uxth	r0, r0
 80028fe:	f500 6000 	add.w	r0, r0, #2048	; 0x800
 8002902:	b280      	uxth	r0, r0
 8002904:	e7e1      	b.n	80028ca <tx_ring_buffer_dequeue+0x1a>
  }

  return bytes_read;
}
 8002906:	bc10      	pop	{r4}
 8002908:	4770      	bx	lr
 800290a:	bf00      	nop
 800290c:	200013a4 	.word	0x200013a4

08002910 <rx_ring_buffer_enqueue>:
 * @retval true if enqueued, false if buffer full
 */
static bool rx_ring_buffer_enqueue(uint8_t byte)
{
  /* No critical section needed - single writer (USB ISR) */
  if (ring_buffer_is_full(g_rx_ring_buffer.head, g_rx_ring_buffer.tail, RX_RING_BUFFER_SIZE)) {
 8002910:	4a0f      	ldr	r2, [pc, #60]	; (8002950 <rx_ring_buffer_enqueue+0x40>)
 8002912:	f8b2 3100 	ldrh.w	r3, [r2, #256]	; 0x100
 8002916:	b29b      	uxth	r3, r3
 8002918:	f8b2 2102 	ldrh.w	r2, [r2, #258]	; 0x102
 800291c:	b292      	uxth	r2, r2
  return ((head + 1) % size) == tail;
 800291e:	3301      	adds	r3, #1
 8002920:	4259      	negs	r1, r3
 8002922:	b2db      	uxtb	r3, r3
 8002924:	b2c9      	uxtb	r1, r1
 8002926:	bf58      	it	pl
 8002928:	424b      	negpl	r3, r1
  if (ring_buffer_is_full(g_rx_ring_buffer.head, g_rx_ring_buffer.tail, RX_RING_BUFFER_SIZE)) {
 800292a:	4293      	cmp	r3, r2
 800292c:	d00d      	beq.n	800294a <rx_ring_buffer_enqueue+0x3a>
    return false;
  }

  g_rx_ring_buffer.buffer[g_rx_ring_buffer.head] = byte;
 800292e:	4a08      	ldr	r2, [pc, #32]	; (8002950 <rx_ring_buffer_enqueue+0x40>)
 8002930:	f8b2 3100 	ldrh.w	r3, [r2, #256]	; 0x100
 8002934:	b29b      	uxth	r3, r3
 8002936:	54d0      	strb	r0, [r2, r3]
  g_rx_ring_buffer.head = (g_rx_ring_buffer.head + 1) & RX_RING_BUFFER_MASK;
 8002938:	f8b2 3100 	ldrh.w	r3, [r2, #256]	; 0x100
 800293c:	b29b      	uxth	r3, r3
 800293e:	3301      	adds	r3, #1
 8002940:	b2db      	uxtb	r3, r3
 8002942:	f8a2 3100 	strh.w	r3, [r2, #256]	; 0x100

  return true;
 8002946:	2001      	movs	r0, #1
 8002948:	4770      	bx	lr
    return false;
 800294a:	2000      	movs	r0, #0
}
 800294c:	4770      	bx	lr
 800294e:	bf00      	nop
 8002950:	200012a0 	.word	0x200012a0

08002954 <rx_ring_buffer_dequeue>:
 * @retval true if byte dequeued, false if buffer empty
 */
static bool rx_ring_buffer_dequeue(uint8_t* byte)
{
  /* No critical section needed - single reader (main loop) */
  if (ring_buffer_is_empty(g_rx_ring_buffer.head, g_rx_ring_buffer.tail)) {
 8002954:	4b0c      	ldr	r3, [pc, #48]	; (8002988 <rx_ring_buffer_dequeue+0x34>)
 8002956:	f8b3 2100 	ldrh.w	r2, [r3, #256]	; 0x100
 800295a:	b292      	uxth	r2, r2
 800295c:	f8b3 3102 	ldrh.w	r3, [r3, #258]	; 0x102
 8002960:	b29b      	uxth	r3, r3
 8002962:	429a      	cmp	r2, r3
 8002964:	d00e      	beq.n	8002984 <rx_ring_buffer_dequeue+0x30>
    return false;
  }

  *byte = g_rx_ring_buffer.buffer[g_rx_ring_buffer.tail];
 8002966:	4a08      	ldr	r2, [pc, #32]	; (8002988 <rx_ring_buffer_dequeue+0x34>)
 8002968:	f8b2 3102 	ldrh.w	r3, [r2, #258]	; 0x102
 800296c:	b29b      	uxth	r3, r3
 800296e:	5cd3      	ldrb	r3, [r2, r3]
 8002970:	7003      	strb	r3, [r0, #0]
  g_rx_ring_buffer.tail = (g_rx_ring_buffer.tail + 1) & RX_RING_BUFFER_MASK;
 8002972:	f8b2 3102 	ldrh.w	r3, [r2, #258]	; 0x102
 8002976:	b29b      	uxth	r3, r3
 8002978:	3301      	adds	r3, #1
 800297a:	b2db      	uxtb	r3, r3
 800297c:	f8a2 3102 	strh.w	r3, [r2, #258]	; 0x102

  return true;
 8002980:	2001      	movs	r0, #1
 8002982:	4770      	bx	lr
    return false;
 8002984:	2000      	movs	r0, #0
}
 8002986:	4770      	bx	lr
 8002988:	200012a0 	.word	0x200012a0

0800298c <CDC_Itf_DeInit>:
static int8_t CDC_Itf_DeInit(void)
{
  /* USER CODE BEGIN 4 */
  return (USBD_OK);
  /* USER CODE END 4 */
}
 800298c:	2000      	movs	r0, #0
 800298e:	4770      	bx	lr

08002990 <CDC_Itf_Control>:
static int8_t CDC_Itf_Control(uint8_t cmd, uint8_t* pbuf, uint16_t length)
{
  /* USER CODE BEGIN 5 */
  USBD_SetupReqTypedef *req = (USBD_SetupReqTypedef *)pbuf;

  switch(cmd)
 8002990:	2820      	cmp	r0, #32
 8002992:	d003      	beq.n	800299c <CDC_Itf_Control+0xc>
 8002994:	2821      	cmp	r0, #33	; 0x21
 8002996:	d014      	beq.n	80029c2 <CDC_Itf_Control+0x32>
  break;
  }

  return (USBD_OK);
  /* USER CODE END 5 */
}
 8002998:	2000      	movs	r0, #0
 800299a:	4770      	bx	lr
   LineCoding.bitrate = (uint32_t)(pbuf[0] | (pbuf[1] << 8) |
 800299c:	780b      	ldrb	r3, [r1, #0]
 800299e:	784a      	ldrb	r2, [r1, #1]
 80029a0:	ea43 2302 	orr.w	r3, r3, r2, lsl #8
                            (pbuf[2] << 16) | (pbuf[3] << 24));
 80029a4:	788a      	ldrb	r2, [r1, #2]
   LineCoding.bitrate = (uint32_t)(pbuf[0] | (pbuf[1] << 8) |
 80029a6:	ea43 4302 	orr.w	r3, r3, r2, lsl #16
                            (pbuf[2] << 16) | (pbuf[3] << 24));
 80029aa:	78ca      	ldrb	r2, [r1, #3]
 80029ac:	ea43 6302 	orr.w	r3, r3, r2, lsl #24
   LineCoding.bitrate = (uint32_t)(pbuf[0] | (pbuf[1] << 8) |
 80029b0:	4a0d      	ldr	r2, [pc, #52]	; (80029e8 <CDC_Itf_Control+0x58>)
 80029b2:	6013      	str	r3, [r2, #0]
    LineCoding.format = pbuf[4];
 80029b4:	790b      	ldrb	r3, [r1, #4]
 80029b6:	7113      	strb	r3, [r2, #4]
    LineCoding.paritytype = pbuf[5];
 80029b8:	794b      	ldrb	r3, [r1, #5]
 80029ba:	7153      	strb	r3, [r2, #5]
    LineCoding.datatype = pbuf[6];
 80029bc:	798b      	ldrb	r3, [r1, #6]
 80029be:	7193      	strb	r3, [r2, #6]
    break;
 80029c0:	e7ea      	b.n	8002998 <CDC_Itf_Control+0x8>
    pbuf[0] = (uint8_t)(LineCoding.bitrate);
 80029c2:	4a09      	ldr	r2, [pc, #36]	; (80029e8 <CDC_Itf_Control+0x58>)
 80029c4:	6813      	ldr	r3, [r2, #0]
 80029c6:	700b      	strb	r3, [r1, #0]
    pbuf[1] = (uint8_t)(LineCoding.bitrate >> 8);
 80029c8:	f3c3 2007 	ubfx	r0, r3, #8, #8
 80029cc:	7048      	strb	r0, [r1, #1]
    pbuf[2] = (uint8_t)(LineCoding.bitrate >> 16);
 80029ce:	f3c3 4007 	ubfx	r0, r3, #16, #8
 80029d2:	7088      	strb	r0, [r1, #2]
    pbuf[3] = (uint8_t)(LineCoding.bitrate >> 24);
 80029d4:	0e1b      	lsrs	r3, r3, #24
 80029d6:	70cb      	strb	r3, [r1, #3]
    pbuf[4] = LineCoding.format;
 80029d8:	7913      	ldrb	r3, [r2, #4]
 80029da:	710b      	strb	r3, [r1, #4]
    pbuf[5] = LineCoding.paritytype;
 80029dc:	7953      	ldrb	r3, [r2, #5]
 80029de:	714b      	strb	r3, [r1, #5]
    pbuf[6] = LineCoding.datatype;
 80029e0:	7993      	ldrb	r3, [r2, #6]
 80029e2:	718b      	strb	r3, [r1, #6]
    break;
 80029e4:	e7d8      	b.n	8002998 <CDC_Itf_Control+0x8>
 80029e6:	bf00      	nop
 80029e8:	20000004 	.word	0x20000004

080029ec <CDC_Itf_Receive>:
  * @param  Buf: Buffer of data to be transmitted
  * @param  Len: Number of data received (in bytes)
  * @retval Result of the operation: USBD_OK if all operations are OK else USBD_FAIL
  */
static int8_t CDC_Itf_Receive(uint8_t* Buf, uint32_t *Len)
{
 80029ec:	b570      	push	{r4, r5, r6, lr}
 80029ee:	4605      	mov	r5, r0
 80029f0:	460e      	mov	r6, r1
  /* USER CODE BEGIN 6 */
  uint32_t i;

  /* Enqueue received bytes to RX ring buffer (if USB input enabled) */
  if (uart_terminal_get_input_mode() == TERMINAL_INPUT_USB_ONLY ||
 80029f2:	f7ff fe99 	bl	8002728 <uart_terminal_get_input_mode>
 80029f6:	2801      	cmp	r0, #1
 80029f8:	d101      	bne.n	80029fe <CDC_Itf_Receive+0x12>
{
 80029fa:	2400      	movs	r4, #0
 80029fc:	e007      	b.n	8002a0e <CDC_Itf_Receive+0x22>
       uart_terminal_get_input_mode() == TERMINAL_INPUT_BOTH)
 80029fe:	f7ff fe93 	bl	8002728 <uart_terminal_get_input_mode>
  if (uart_terminal_get_input_mode() == TERMINAL_INPUT_USB_ONLY ||
 8002a02:	b938      	cbnz	r0, 8002a14 <CDC_Itf_Receive+0x28>
 8002a04:	e7f9      	b.n	80029fa <CDC_Itf_Receive+0xe>
  {
    for (i = 0; i < *Len; i++)
    {
      rx_ring_buffer_enqueue(Buf[i]);
 8002a06:	5d28      	ldrb	r0, [r5, r4]
 8002a08:	f7ff ff82 	bl	8002910 <rx_ring_buffer_enqueue>
    for (i = 0; i < *Len; i++)
 8002a0c:	3401      	adds	r4, #1
 8002a0e:	6833      	ldr	r3, [r6, #0]
 8002a10:	42a3      	cmp	r3, r4
 8002a12:	d8f8      	bhi.n	8002a06 <CDC_Itf_Receive+0x1a>
    }
  }

  USBD_CDC_SetRxBuffer(&hUsbDeviceFS, &Buf[0]);
 8002a14:	4c04      	ldr	r4, [pc, #16]	; (8002a28 <CDC_Itf_Receive+0x3c>)
 8002a16:	4629      	mov	r1, r5
 8002a18:	4620      	mov	r0, r4
 8002a1a:	f005 fac6 	bl	8007faa <USBD_CDC_SetRxBuffer>
  USBD_CDC_ReceivePacket(&hUsbDeviceFS);
 8002a1e:	4620      	mov	r0, r4
 8002a20:	f005 fae5 	bl	8007fee <USBD_CDC_ReceivePacket>
  return (USBD_OK);
  /* USER CODE END 6 */
}
 8002a24:	2000      	movs	r0, #0
 8002a26:	bd70      	pop	{r4, r5, r6, pc}
 8002a28:	200027a8 	.word	0x200027a8

08002a2c <CDC_Itf_Init>:
{
 8002a2c:	b510      	push	{r4, lr}
  USBD_CDC_SetTxBuffer(&hUsbDeviceFS, UserTxBufferFS, 0);
 8002a2e:	4c07      	ldr	r4, [pc, #28]	; (8002a4c <CDC_Itf_Init+0x20>)
 8002a30:	2200      	movs	r2, #0
 8002a32:	4907      	ldr	r1, [pc, #28]	; (8002a50 <CDC_Itf_Init+0x24>)
 8002a34:	4620      	mov	r0, r4
 8002a36:	f005 fab0 	bl	8007f9a <USBD_CDC_SetTxBuffer>
  USBD_CDC_SetRxBuffer(&hUsbDeviceFS, UserRxBufferFS);
 8002a3a:	4906      	ldr	r1, [pc, #24]	; (8002a54 <CDC_Itf_Init+0x28>)
 8002a3c:	4620      	mov	r0, r4
 8002a3e:	f005 fab4 	bl	8007faa <USBD_CDC_SetRxBuffer>
  ring_buffer_init();
 8002a42:	f7ff fee9 	bl	8002818 <ring_buffer_init>
}
 8002a46:	2000      	movs	r0, #0
 8002a48:	bd10      	pop	{r4, pc}
 8002a4a:	bf00      	nop
 8002a4c:	200027a8 	.word	0x200027a8
 8002a50:	20002384 	.word	0x20002384
 8002a54:	20002184 	.word	0x20002184

08002a58 <usb_cdc_enqueue_tx>:
{
 8002a58:	b508      	push	{r3, lr}
  return tx_ring_buffer_enqueue(data, len);
 8002a5a:	f7ff fef1 	bl	8002840 <tx_ring_buffer_enqueue>
}
 8002a5e:	bd08      	pop	{r3, pc}

08002a60 <CDC_Transmit_FS>:
  */
uint8_t CDC_Transmit_FS(uint8_t* Buf, uint16_t Len)
{
  uint8_t result = USBD_OK;
  /* USER CODE BEGIN 7 */
  USBD_CDC_HandleTypeDef *hcdc = (USBD_CDC_HandleTypeDef*)hUsbDeviceFS.pCDC;
 8002a60:	4b0a      	ldr	r3, [pc, #40]	; (8002a8c <CDC_Transmit_FS+0x2c>)
 8002a62:	f8d3 32c4 	ldr.w	r3, [r3, #708]	; 0x2c4
  if (hcdc == NULL) {
 8002a66:	b17b      	cbz	r3, 8002a88 <CDC_Transmit_FS+0x28>
    return USBD_FAIL;
  }
  if (hcdc->TxState != 0){
 8002a68:	f8d3 3214 	ldr.w	r3, [r3, #532]	; 0x214
 8002a6c:	b10b      	cbz	r3, 8002a72 <CDC_Transmit_FS+0x12>
    return USBD_BUSY;
 8002a6e:	2001      	movs	r0, #1
  }
  USBD_CDC_SetTxBuffer(&hUsbDeviceFS, Buf, Len);
  result = USBD_CDC_TransmitPacket(&hUsbDeviceFS);
  /* USER CODE END 7 */
  return result;
}
 8002a70:	4770      	bx	lr
{
 8002a72:	b510      	push	{r4, lr}
  USBD_CDC_SetTxBuffer(&hUsbDeviceFS, Buf, Len);
 8002a74:	4c05      	ldr	r4, [pc, #20]	; (8002a8c <CDC_Transmit_FS+0x2c>)
 8002a76:	460a      	mov	r2, r1
 8002a78:	4601      	mov	r1, r0
 8002a7a:	4620      	mov	r0, r4
 8002a7c:	f005 fa8d 	bl	8007f9a <USBD_CDC_SetTxBuffer>
  result = USBD_CDC_TransmitPacket(&hUsbDeviceFS);
 8002a80:	4620      	mov	r0, r4
 8002a82:	f005 fa98 	bl	8007fb6 <USBD_CDC_TransmitPacket>
}
 8002a86:	bd10      	pop	{r4, pc}
    return USBD_FAIL;
 8002a88:	2002      	movs	r0, #2
 8002a8a:	4770      	bx	lr
 8002a8c:	200027a8 	.word	0x200027a8

08002a90 <usb_cdc_process>:
  *         - Dequeue RX bytes and feed to terminal
  *         - Dequeue TX bytes and transmit via CDC
  * @retval None
  */
void usb_cdc_process(void)
{
 8002a90:	b570      	push	{r4, r5, r6, lr}
 8002a92:	b092      	sub	sp, #72	; 0x48
  uint8_t byte;
  uint8_t tx_chunk[64];  /* USB FS max packet size */
  uint16_t tx_len;
  USBD_CDC_HandleTypeDef *hcdc = (USBD_CDC_HandleTypeDef*)hUsbDeviceFS.pCDC;
 8002a94:	4b16      	ldr	r3, [pc, #88]	; (8002af0 <usb_cdc_process+0x60>)
 8002a96:	f8d3 62c4 	ldr.w	r6, [r3, #708]	; 0x2c4

  /* USER CODE BEGIN usb_cdc_process */

  /* 1. Process RX: Dequeue bytes from RX ring buffer and feed to terminal */
  bool rx_processed = false;
 8002a9a:	2500      	movs	r5, #0
  while (rx_ring_buffer_dequeue(&byte)) {
 8002a9c:	f10d 0047 	add.w	r0, sp, #71	; 0x47
 8002aa0:	f7ff ff58 	bl	8002954 <rx_ring_buffer_dequeue>
 8002aa4:	4604      	mov	r4, r0
 8002aa6:	b128      	cbz	r0, 8002ab4 <usb_cdc_process+0x24>
    uart_terminal_receive_byte(byte);
 8002aa8:	f89d 0047 	ldrb.w	r0, [sp, #71]	; 0x47
 8002aac:	f7ff fe56 	bl	800275c <uart_terminal_receive_byte>
    rx_processed = true;
 8002ab0:	4625      	mov	r5, r4
 8002ab2:	e7f3      	b.n	8002a9c <usb_cdc_process+0xc>
  }

  /* If no RX bytes processed, check for idle line */
  if (!rx_processed) {
 8002ab4:	b145      	cbz	r5, 8002ac8 <usb_cdc_process+0x38>
    uart_terminal_process_idle();
  }

  /* 2. Process TX: Check if we can transmit and have data to send */
  if (hcdc != NULL && hcdc->TxState == 0 && !g_usb_tx_busy) {
 8002ab6:	b12e      	cbz	r6, 8002ac4 <usb_cdc_process+0x34>
 8002ab8:	f8d6 3214 	ldr.w	r3, [r6, #532]	; 0x214
 8002abc:	b913      	cbnz	r3, 8002ac4 <usb_cdc_process+0x34>
 8002abe:	4b0d      	ldr	r3, [pc, #52]	; (8002af4 <usb_cdc_process+0x64>)
 8002ac0:	781b      	ldrb	r3, [r3, #0]
 8002ac2:	b123      	cbz	r3, 8002ace <usb_cdc_process+0x3e>
      g_usb_tx_busy = false;
    }
  }

  /* USER CODE END usb_cdc_process */
}
 8002ac4:	b012      	add	sp, #72	; 0x48
 8002ac6:	bd70      	pop	{r4, r5, r6, pc}
    uart_terminal_process_idle();
 8002ac8:	f7ff fea0 	bl	800280c <uart_terminal_process_idle>
 8002acc:	e7f3      	b.n	8002ab6 <usb_cdc_process+0x26>
    tx_len = tx_ring_buffer_dequeue(tx_chunk, 64);
 8002ace:	2140      	movs	r1, #64	; 0x40
 8002ad0:	a801      	add	r0, sp, #4
 8002ad2:	f7ff feed 	bl	80028b0 <tx_ring_buffer_dequeue>
    if (tx_len > 0) {
 8002ad6:	4601      	mov	r1, r0
 8002ad8:	2800      	cmp	r0, #0
 8002ada:	d0f3      	beq.n	8002ac4 <usb_cdc_process+0x34>
      g_usb_tx_busy = true;
 8002adc:	4c05      	ldr	r4, [pc, #20]	; (8002af4 <usb_cdc_process+0x64>)
 8002ade:	2301      	movs	r3, #1
 8002ae0:	7023      	strb	r3, [r4, #0]
      CDC_Transmit_FS(tx_chunk, tx_len);
 8002ae2:	a801      	add	r0, sp, #4
 8002ae4:	f7ff ffbc 	bl	8002a60 <CDC_Transmit_FS>
      g_usb_tx_busy = false;
 8002ae8:	2300      	movs	r3, #0
 8002aea:	7023      	strb	r3, [r4, #0]
}
 8002aec:	e7ea      	b.n	8002ac4 <usb_cdc_process+0x34>
 8002aee:	bf00      	nop
 8002af0:	200027a8 	.word	0x200027a8
 8002af4:	20001ba8 	.word	0x20001ba8

08002af8 <USBD_FS_DeviceDescriptor>:
  * @retval Pointer to descriptor buffer
  */
uint8_t * USBD_FS_DeviceDescriptor(USBD_SpeedTypeDef speed, uint16_t *length)
{
  UNUSED(speed);
  *length = sizeof(USBD_Composite_FS_DeviceDesc);
 8002af8:	2312      	movs	r3, #18
 8002afa:	800b      	strh	r3, [r1, #0]
  return USBD_Composite_FS_DeviceDesc;
}
 8002afc:	4800      	ldr	r0, [pc, #0]	; (8002b00 <USBD_FS_DeviceDescriptor+0x8>)
 8002afe:	4770      	bx	lr
 8002b00:	200000a4 	.word	0x200000a4

08002b04 <USBD_FS_LangIDStrDescriptor>:
  * @retval Pointer to descriptor buffer
  */
uint8_t * USBD_FS_LangIDStrDescriptor(USBD_SpeedTypeDef speed, uint16_t *length)
{
  UNUSED(speed);
  *length = sizeof(USBD_LangIDDesc);
 8002b04:	2304      	movs	r3, #4
 8002b06:	800b      	strh	r3, [r1, #0]
  return USBD_LangIDDesc;
}
 8002b08:	4800      	ldr	r0, [pc, #0]	; (8002b0c <USBD_FS_LangIDStrDescriptor+0x8>)
 8002b0a:	4770      	bx	lr
 8002b0c:	200000b8 	.word	0x200000b8

08002b10 <IntTo_Unicode>:
  */
static void IntTo_Unicode(uint32_t value, uint8_t *pbuf, uint8_t len)
{
  uint8_t idx = 0u;

  for (idx = 0u; idx < len; idx++)
 8002b10:	2300      	movs	r3, #0
 8002b12:	4293      	cmp	r3, r2
 8002b14:	d217      	bcs.n	8002b46 <IntTo_Unicode+0x36>
{
 8002b16:	b430      	push	{r4, r5}
 8002b18:	e00b      	b.n	8002b32 <IntTo_Unicode+0x22>
    {
      pbuf[2u * idx] = (value >> 28) + '0';
    }
    else
    {
      pbuf[2u * idx] = (value >> 28) + 'A' - 10u;
 8002b1a:	3437      	adds	r4, #55	; 0x37
 8002b1c:	f801 4013 	strb.w	r4, [r1, r3, lsl #1]
    }

    value = value << 4u;
 8002b20:	0100      	lsls	r0, r0, #4

    pbuf[2u * idx + 1u] = 0u;
 8002b22:	005c      	lsls	r4, r3, #1
 8002b24:	3401      	adds	r4, #1
 8002b26:	2500      	movs	r5, #0
 8002b28:	550d      	strb	r5, [r1, r4]
  for (idx = 0u; idx < len; idx++)
 8002b2a:	3301      	adds	r3, #1
 8002b2c:	b2db      	uxtb	r3, r3
 8002b2e:	4293      	cmp	r3, r2
 8002b30:	d207      	bcs.n	8002b42 <IntTo_Unicode+0x32>
    if (((value >> 28)) < 0xA)
 8002b32:	0f04      	lsrs	r4, r0, #28
 8002b34:	f1b0 4f20 	cmp.w	r0, #2684354560	; 0xa0000000
 8002b38:	d2ef      	bcs.n	8002b1a <IntTo_Unicode+0xa>
      pbuf[2u * idx] = (value >> 28) + '0';
 8002b3a:	3430      	adds	r4, #48	; 0x30
 8002b3c:	f801 4013 	strb.w	r4, [r1, r3, lsl #1]
 8002b40:	e7ee      	b.n	8002b20 <IntTo_Unicode+0x10>
  }
}
 8002b42:	bc30      	pop	{r4, r5}
 8002b44:	4770      	bx	lr
 8002b46:	4770      	bx	lr

08002b48 <Get_SerialNum>:
{
 8002b48:	b538      	push	{r3, r4, r5, lr}
  uint32_t deviceserial0 = *(uint32_t *)DEVICE_ID1;
 8002b4a:	4b0a      	ldr	r3, [pc, #40]	; (8002b74 <Get_SerialNum+0x2c>)
 8002b4c:	6818      	ldr	r0, [r3, #0]
  uint32_t deviceserial1 = *(uint32_t *)DEVICE_ID2;
 8002b4e:	3304      	adds	r3, #4
 8002b50:	681c      	ldr	r4, [r3, #0]
  uint32_t deviceserial2 = *(uint32_t *)DEVICE_ID3;
 8002b52:	3304      	adds	r3, #4
 8002b54:	681b      	ldr	r3, [r3, #0]
  if (deviceserial0 != 0)
 8002b56:	18c0      	adds	r0, r0, r3
 8002b58:	d100      	bne.n	8002b5c <Get_SerialNum+0x14>
}
 8002b5a:	bd38      	pop	{r3, r4, r5, pc}
    IntTo_Unicode(deviceserial0, &USBD_StringSerial[2], 8);
 8002b5c:	4d06      	ldr	r5, [pc, #24]	; (8002b78 <Get_SerialNum+0x30>)
 8002b5e:	2208      	movs	r2, #8
 8002b60:	1ca9      	adds	r1, r5, #2
 8002b62:	f7ff ffd5 	bl	8002b10 <IntTo_Unicode>
    IntTo_Unicode(deviceserial1, &USBD_StringSerial[18], 4);
 8002b66:	2204      	movs	r2, #4
 8002b68:	f105 0112 	add.w	r1, r5, #18
 8002b6c:	4620      	mov	r0, r4
 8002b6e:	f7ff ffcf 	bl	8002b10 <IntTo_Unicode>
}
 8002b72:	e7f2      	b.n	8002b5a <Get_SerialNum+0x12>
 8002b74:	1ffff7e8 	.word	0x1ffff7e8
 8002b78:	200000bc 	.word	0x200000bc

08002b7c <USBD_FS_SerialStrDescriptor>:
{
 8002b7c:	b508      	push	{r3, lr}
  *length = USB_SIZ_STRING_SERIAL;
 8002b7e:	231a      	movs	r3, #26
 8002b80:	800b      	strh	r3, [r1, #0]
  Get_SerialNum();
 8002b82:	f7ff ffe1 	bl	8002b48 <Get_SerialNum>
}
 8002b86:	4801      	ldr	r0, [pc, #4]	; (8002b8c <USBD_FS_SerialStrDescriptor+0x10>)
 8002b88:	bd08      	pop	{r3, pc}
 8002b8a:	bf00      	nop
 8002b8c:	200000bc 	.word	0x200000bc

08002b90 <USBD_FS_ProductStrDescriptor>:
{
 8002b90:	b508      	push	{r3, lr}
 8002b92:	460a      	mov	r2, r1
  if(speed == 0)
 8002b94:	b928      	cbnz	r0, 8002ba2 <USBD_FS_ProductStrDescriptor+0x12>
    USBD_GetString((uint8_t *)USBD_PRODUCT_STRING_FS, USBD_StrDesc, length);
 8002b96:	4905      	ldr	r1, [pc, #20]	; (8002bac <USBD_FS_ProductStrDescriptor+0x1c>)
 8002b98:	4805      	ldr	r0, [pc, #20]	; (8002bb0 <USBD_FS_ProductStrDescriptor+0x20>)
 8002b9a:	f005 f810 	bl	8007bbe <USBD_GetString>
}
 8002b9e:	4803      	ldr	r0, [pc, #12]	; (8002bac <USBD_FS_ProductStrDescriptor+0x1c>)
 8002ba0:	bd08      	pop	{r3, pc}
    USBD_GetString((uint8_t *)USBD_PRODUCT_STRING_FS, USBD_StrDesc, length);
 8002ba2:	4902      	ldr	r1, [pc, #8]	; (8002bac <USBD_FS_ProductStrDescriptor+0x1c>)
 8002ba4:	4802      	ldr	r0, [pc, #8]	; (8002bb0 <USBD_FS_ProductStrDescriptor+0x20>)
 8002ba6:	f005 f80a 	bl	8007bbe <USBD_GetString>
 8002baa:	e7f8      	b.n	8002b9e <USBD_FS_ProductStrDescriptor+0xe>
 8002bac:	20002584 	.word	0x20002584
 8002bb0:	080098f0 	.word	0x080098f0

08002bb4 <USBD_FS_ManufacturerStrDescriptor>:
{
 8002bb4:	b510      	push	{r4, lr}
 8002bb6:	460a      	mov	r2, r1
  USBD_GetString((uint8_t *)USBD_MANUFACTURER_STRING, USBD_StrDesc, length);
 8002bb8:	4c03      	ldr	r4, [pc, #12]	; (8002bc8 <USBD_FS_ManufacturerStrDescriptor+0x14>)
 8002bba:	4621      	mov	r1, r4
 8002bbc:	4803      	ldr	r0, [pc, #12]	; (8002bcc <USBD_FS_ManufacturerStrDescriptor+0x18>)
 8002bbe:	f004 fffe 	bl	8007bbe <USBD_GetString>
}
 8002bc2:	4620      	mov	r0, r4
 8002bc4:	bd10      	pop	{r4, pc}
 8002bc6:	bf00      	nop
 8002bc8:	20002584 	.word	0x20002584
 8002bcc:	08009900 	.word	0x08009900

08002bd0 <USBD_FS_ConfigStrDescriptor>:
{
 8002bd0:	b508      	push	{r3, lr}
 8002bd2:	460a      	mov	r2, r1
  if(speed == USBD_SPEED_HIGH)
 8002bd4:	b928      	cbnz	r0, 8002be2 <USBD_FS_ConfigStrDescriptor+0x12>
    USBD_GetString((uint8_t *)USBD_CONFIGURATION_STRING_FS, USBD_StrDesc, length);
 8002bd6:	4905      	ldr	r1, [pc, #20]	; (8002bec <USBD_FS_ConfigStrDescriptor+0x1c>)
 8002bd8:	4805      	ldr	r0, [pc, #20]	; (8002bf0 <USBD_FS_ConfigStrDescriptor+0x20>)
 8002bda:	f004 fff0 	bl	8007bbe <USBD_GetString>
}
 8002bde:	4803      	ldr	r0, [pc, #12]	; (8002bec <USBD_FS_ConfigStrDescriptor+0x1c>)
 8002be0:	bd08      	pop	{r3, pc}
    USBD_GetString((uint8_t *)USBD_CONFIGURATION_STRING_FS, USBD_StrDesc, length);
 8002be2:	4902      	ldr	r1, [pc, #8]	; (8002bec <USBD_FS_ConfigStrDescriptor+0x1c>)
 8002be4:	4802      	ldr	r0, [pc, #8]	; (8002bf0 <USBD_FS_ConfigStrDescriptor+0x20>)
 8002be6:	f004 ffea 	bl	8007bbe <USBD_GetString>
 8002bea:	e7f8      	b.n	8002bde <USBD_FS_ConfigStrDescriptor+0xe>
 8002bec:	20002584 	.word	0x20002584
 8002bf0:	0800990c 	.word	0x0800990c

08002bf4 <USBD_FS_InterfaceStrDescriptor>:
{
 8002bf4:	b508      	push	{r3, lr}
 8002bf6:	460a      	mov	r2, r1
  if(speed == 0)
 8002bf8:	b9a0      	cbnz	r0, 8002c24 <USBD_FS_InterfaceStrDescriptor+0x30>
    uint8_t idx = hUsbDeviceFS.request.wIndex & 0xFF;
 8002bfa:	4b0d      	ldr	r3, [pc, #52]	; (8002c30 <USBD_FS_InterfaceStrDescriptor+0x3c>)
 8002bfc:	f893 32ac 	ldrb.w	r3, [r3, #684]	; 0x2ac
    if(idx == 0)
 8002c00:	b133      	cbz	r3, 8002c10 <USBD_FS_InterfaceStrDescriptor+0x1c>
    else if(idx == 1)
 8002c02:	2b01      	cmp	r3, #1
 8002c04:	d009      	beq.n	8002c1a <USBD_FS_InterfaceStrDescriptor+0x26>
      USBD_GetString((uint8_t *)USBD_INTERFACE_STRING_HID_FS, USBD_StrDesc, length);
 8002c06:	490b      	ldr	r1, [pc, #44]	; (8002c34 <USBD_FS_InterfaceStrDescriptor+0x40>)
 8002c08:	480b      	ldr	r0, [pc, #44]	; (8002c38 <USBD_FS_InterfaceStrDescriptor+0x44>)
 8002c0a:	f004 ffd8 	bl	8007bbe <USBD_GetString>
 8002c0e:	e00d      	b.n	8002c2c <USBD_FS_InterfaceStrDescriptor+0x38>
      USBD_GetString((uint8_t *)USBD_INTERFACE_STRING_CDC_CONTROL_FS, USBD_StrDesc, length);
 8002c10:	4908      	ldr	r1, [pc, #32]	; (8002c34 <USBD_FS_InterfaceStrDescriptor+0x40>)
 8002c12:	480a      	ldr	r0, [pc, #40]	; (8002c3c <USBD_FS_InterfaceStrDescriptor+0x48>)
 8002c14:	f004 ffd3 	bl	8007bbe <USBD_GetString>
 8002c18:	e008      	b.n	8002c2c <USBD_FS_InterfaceStrDescriptor+0x38>
      USBD_GetString((uint8_t *)USBD_INTERFACE_STRING_CDC_DATA_FS, USBD_StrDesc, length);
 8002c1a:	4906      	ldr	r1, [pc, #24]	; (8002c34 <USBD_FS_InterfaceStrDescriptor+0x40>)
 8002c1c:	4808      	ldr	r0, [pc, #32]	; (8002c40 <USBD_FS_InterfaceStrDescriptor+0x4c>)
 8002c1e:	f004 ffce 	bl	8007bbe <USBD_GetString>
 8002c22:	e003      	b.n	8002c2c <USBD_FS_InterfaceStrDescriptor+0x38>
    USBD_GetString((uint8_t *)USBD_INTERFACE_STRING_HID_FS, USBD_StrDesc, length);
 8002c24:	4903      	ldr	r1, [pc, #12]	; (8002c34 <USBD_FS_InterfaceStrDescriptor+0x40>)
 8002c26:	4804      	ldr	r0, [pc, #16]	; (8002c38 <USBD_FS_InterfaceStrDescriptor+0x44>)
 8002c28:	f004 ffc9 	bl	8007bbe <USBD_GetString>
}
 8002c2c:	4801      	ldr	r0, [pc, #4]	; (8002c34 <USBD_FS_InterfaceStrDescriptor+0x40>)
 8002c2e:	bd08      	pop	{r3, pc}
 8002c30:	200027a8 	.word	0x200027a8
 8002c34:	20002584 	.word	0x20002584
 8002c38:	08009930 	.word	0x08009930
 8002c3c:	08009918 	.word	0x08009918
 8002c40:	08009924 	.word	0x08009924

08002c44 <USBD_Composite_EP0_TxSent>:
  *         Handle EP0 TxSent event
  * @param  pdev: device instance
  * @retval status
  */
static uint8_t USBD_Composite_EP0_TxSent(USBD_HandleTypeDef *pdev)
{
 8002c44:	b538      	push	{r3, r4, r5, lr}
 8002c46:	4604      	mov	r4, r0
  USBD_Composite_HandleTypeDef *hcomp = (USBD_Composite_HandleTypeDef *)pdev->pClassData;
 8002c48:	f8d0 52b8 	ldr.w	r5, [r0, #696]	; 0x2b8

  /* Both CDC and HID may need EP0 TxSent */
  /* For safety, call both (they check their own states) */
  if(g_USB_device_type == DEVICE_TYPE_KEYBOARD_CDC_COMPOSITE)
 8002c4c:	4b09      	ldr	r3, [pc, #36]	; (8002c74 <USBD_Composite_EP0_TxSent+0x30>)
 8002c4e:	781b      	ldrb	r3, [r3, #0]
 8002c50:	b963      	cbnz	r3, 8002c6c <USBD_Composite_EP0_TxSent+0x28>
  {
	  pdev->pClassData = (void *)&hcomp->hcdc;
	  if(USBD_CDC.EP0_TxSent)
 8002c52:	4b09      	ldr	r3, [pc, #36]	; (8002c78 <USBD_Composite_EP0_TxSent+0x34>)
 8002c54:	68db      	ldr	r3, [r3, #12]
 8002c56:	b103      	cbz	r3, 8002c5a <USBD_Composite_EP0_TxSent+0x16>
		  USBD_CDC.EP0_TxSent(pdev);
 8002c58:	4798      	blx	r3
	  pdev->pClassData = (void *)&hcomp->hhid;
 8002c5a:	f505 7309 	add.w	r3, r5, #548	; 0x224
 8002c5e:	f8c4 32b8 	str.w	r3, [r4, #696]	; 0x2b8
	  if(USBD_HID.EP0_TxSent)
 8002c62:	4b06      	ldr	r3, [pc, #24]	; (8002c7c <USBD_Composite_EP0_TxSent+0x38>)
 8002c64:	68db      	ldr	r3, [r3, #12]
 8002c66:	b10b      	cbz	r3, 8002c6c <USBD_Composite_EP0_TxSent+0x28>
		  USBD_HID.EP0_TxSent(pdev);
 8002c68:	4620      	mov	r0, r4
 8002c6a:	4798      	blx	r3
  }


  pdev->pClassData = (void *)hcomp;
 8002c6c:	f8c4 52b8 	str.w	r5, [r4, #696]	; 0x2b8

  return USBD_OK;
}
 8002c70:	2000      	movs	r0, #0
 8002c72:	bd38      	pop	{r3, r4, r5, pc}
 8002c74:	20001ba9 	.word	0x20001ba9
 8002c78:	20000334 	.word	0x20000334
 8002c7c:	20000278 	.word	0x20000278

08002c80 <USBD_Composite_EP0_RxReady>:
  *         Handle EP0 RxReady event
  * @param  pdev: device instance
  * @retval status
  */
static uint8_t USBD_Composite_EP0_RxReady(USBD_HandleTypeDef *pdev)
{
 8002c80:	b538      	push	{r3, r4, r5, lr}
 8002c82:	4604      	mov	r4, r0
  USBD_Composite_HandleTypeDef *hcomp = (USBD_Composite_HandleTypeDef *)pdev->pClassData;
 8002c84:	f8d0 52b8 	ldr.w	r5, [r0, #696]	; 0x2b8

  if(g_USB_device_type == DEVICE_TYPE_KEYBOARD_CDC_COMPOSITE)
 8002c88:	4b0d      	ldr	r3, [pc, #52]	; (8002cc0 <USBD_Composite_EP0_RxReady+0x40>)
 8002c8a:	781b      	ldrb	r3, [r3, #0]
 8002c8c:	b99b      	cbnz	r3, 8002cb6 <USBD_Composite_EP0_RxReady+0x36>
  {
	  /* Route to CDC for line coding requests */
	  pdev->pClassData = (void *)&hcomp->hcdc;
	  pdev->pUserData = &USBD_CDC_Interface_fops_FS;
 8002c8e:	4b0d      	ldr	r3, [pc, #52]	; (8002cc4 <USBD_Composite_EP0_RxReady+0x44>)
 8002c90:	f8c0 32bc 	str.w	r3, [r0, #700]	; 0x2bc
	  USBD_CDC.EP0_RxReady(pdev);
 8002c94:	4b0c      	ldr	r3, [pc, #48]	; (8002cc8 <USBD_Composite_EP0_RxReady+0x48>)
 8002c96:	691b      	ldr	r3, [r3, #16]
 8002c98:	4798      	blx	r3

	  pdev->pClassData = (void *)&hcomp->hhid;
 8002c9a:	f505 7309 	add.w	r3, r5, #548	; 0x224
 8002c9e:	f8c4 32b8 	str.w	r3, [r4, #696]	; 0x2b8
	  pdev->pUserData = NULL;
 8002ca2:	2300      	movs	r3, #0
 8002ca4:	f8c4 32bc 	str.w	r3, [r4, #700]	; 0x2bc
	  if(USBD_HID.EP0_RxReady)
 8002ca8:	4b08      	ldr	r3, [pc, #32]	; (8002ccc <USBD_Composite_EP0_RxReady+0x4c>)
 8002caa:	691b      	ldr	r3, [r3, #16]
 8002cac:	b11b      	cbz	r3, 8002cb6 <USBD_Composite_EP0_RxReady+0x36>
		  USBD_CDC.EP0_RxReady(pdev);
 8002cae:	4b06      	ldr	r3, [pc, #24]	; (8002cc8 <USBD_Composite_EP0_RxReady+0x48>)
 8002cb0:	691b      	ldr	r3, [r3, #16]
 8002cb2:	4620      	mov	r0, r4
 8002cb4:	4798      	blx	r3
  }


  pdev->pClassData = (void *)hcomp;
 8002cb6:	f8c4 52b8 	str.w	r5, [r4, #696]	; 0x2b8

  return USBD_OK;
}
 8002cba:	2000      	movs	r0, #0
 8002cbc:	bd38      	pop	{r3, r4, r5, pc}
 8002cbe:	bf00      	nop
 8002cc0:	20001ba9 	.word	0x20001ba9
 8002cc4:	2000000c 	.word	0x2000000c
 8002cc8:	20000334 	.word	0x20000334
 8002ccc:	20000278 	.word	0x20000278

08002cd0 <USBD_Composite_DataIn>:
  * @param  pdev: device instance
  * @param  epnum: endpoint number
  * @retval status
  */
static uint8_t USBD_Composite_DataIn(USBD_HandleTypeDef *pdev, uint8_t epnum)
{
 8002cd0:	b538      	push	{r3, r4, r5, lr}
 8002cd2:	4604      	mov	r4, r0
  USBD_Composite_HandleTypeDef *hcomp = (USBD_Composite_HandleTypeDef *)pdev->pClassData;
 8002cd4:	f8d0 52b8 	ldr.w	r5, [r0, #696]	; 0x2b8
  uint8_t result = USBD_OK;

  /* Route based on endpoint number */
  if((epnum == (CDC_IN_EP & 0x7F)) || (epnum == (CDC_CMD_EP & 0x7F)))
 8002cd8:	1e8b      	subs	r3, r1, #2
 8002cda:	b2db      	uxtb	r3, r3
 8002cdc:	2b01      	cmp	r3, #1
 8002cde:	d903      	bls.n	8002ce8 <USBD_Composite_DataIn+0x18>
  {
    /* CDC endpoints */
    pdev->pClassData = (void *)&hcomp->hcdc;
    result = USBD_CDC.DataIn(pdev, epnum);
  }
  else if(epnum == (HID_IN_EP & 0x7F))
 8002ce0:	2901      	cmp	r1, #1
 8002ce2:	d007      	beq.n	8002cf4 <USBD_Composite_DataIn+0x24>
  uint8_t result = USBD_OK;
 8002ce4:	2000      	movs	r0, #0
 8002ce6:	e002      	b.n	8002cee <USBD_Composite_DataIn+0x1e>
    result = USBD_CDC.DataIn(pdev, epnum);
 8002ce8:	4b09      	ldr	r3, [pc, #36]	; (8002d10 <USBD_Composite_DataIn+0x40>)
 8002cea:	695b      	ldr	r3, [r3, #20]
 8002cec:	4798      	blx	r3
		result = USBD_HID.DataIn(pdev, epnum);
    }

  }

  pdev->pClassData = (void *)hcomp;
 8002cee:	f8c4 52b8 	str.w	r5, [r4, #696]	; 0x2b8

  return result;
}
 8002cf2:	bd38      	pop	{r3, r4, r5, pc}
    if(g_USB_device_type == DEVICE_TYPE_KEYBOARD_CDC_COMPOSITE)
 8002cf4:	4b07      	ldr	r3, [pc, #28]	; (8002d14 <USBD_Composite_DataIn+0x44>)
 8002cf6:	781b      	ldrb	r3, [r3, #0]
 8002cf8:	b93b      	cbnz	r3, 8002d0a <USBD_Composite_DataIn+0x3a>
		pdev->pClassData = (void *)&hcomp->hhid;
 8002cfa:	f505 7309 	add.w	r3, r5, #548	; 0x224
 8002cfe:	f8c0 32b8 	str.w	r3, [r0, #696]	; 0x2b8
		result = USBD_HID.DataIn(pdev, epnum);
 8002d02:	4b05      	ldr	r3, [pc, #20]	; (8002d18 <USBD_Composite_DataIn+0x48>)
 8002d04:	695b      	ldr	r3, [r3, #20]
 8002d06:	4798      	blx	r3
 8002d08:	e7f1      	b.n	8002cee <USBD_Composite_DataIn+0x1e>
  uint8_t result = USBD_OK;
 8002d0a:	2000      	movs	r0, #0
 8002d0c:	e7ef      	b.n	8002cee <USBD_Composite_DataIn+0x1e>
 8002d0e:	bf00      	nop
 8002d10:	20000334 	.word	0x20000334
 8002d14:	20001ba9 	.word	0x20001ba9
 8002d18:	20000278 	.word	0x20000278

08002d1c <USBD_Composite_DataOut>:
  * @param  pdev: device instance
  * @param  epnum: endpoint number
  * @retval status
  */
static uint8_t USBD_Composite_DataOut(USBD_HandleTypeDef *pdev, uint8_t epnum)
{
 8002d1c:	b538      	push	{r3, r4, r5, lr}
 8002d1e:	4604      	mov	r4, r0
  USBD_Composite_HandleTypeDef *hcomp = (USBD_Composite_HandleTypeDef *)pdev->pClassData;
 8002d20:	f8d0 52b8 	ldr.w	r5, [r0, #696]	; 0x2b8
  uint8_t result = USBD_OK;

  /* Route based on endpoint number */
  if(epnum == (CDC_OUT_EP & 0x7F))
 8002d24:	2901      	cmp	r1, #1
 8002d26:	d003      	beq.n	8002d30 <USBD_Composite_DataOut+0x14>
  uint8_t result = USBD_OK;
 8002d28:	2000      	movs	r0, #0
			result = USBD_HID.DataOut(pdev, epnum);
    }

  }

  pdev->pClassData = (void *)hcomp;
 8002d2a:	f8c4 52b8 	str.w	r5, [r4, #696]	; 0x2b8

  return result;
}
 8002d2e:	bd38      	pop	{r3, r4, r5, pc}
    result = USBD_CDC.DataOut(pdev, epnum);
 8002d30:	4b01      	ldr	r3, [pc, #4]	; (8002d38 <USBD_Composite_DataOut+0x1c>)
 8002d32:	699b      	ldr	r3, [r3, #24]
 8002d34:	4798      	blx	r3
 8002d36:	e7f8      	b.n	8002d2a <USBD_Composite_DataOut+0xe>
 8002d38:	20000334 	.word	0x20000334

08002d3c <USBD_Composite_SOF>:
  *         Handle SOF event
  * @param  pdev: device instance
  * @retval status
  */
static uint8_t USBD_Composite_SOF(USBD_HandleTypeDef *pdev)
{
 8002d3c:	b538      	push	{r3, r4, r5, lr}
 8002d3e:	4604      	mov	r4, r0
  USBD_Composite_HandleTypeDef *hcomp = (USBD_Composite_HandleTypeDef *)pdev->pClassData;
 8002d40:	f8d0 52b8 	ldr.w	r5, [r0, #696]	; 0x2b8
  uint8_t result = USBD_OK;

  if(g_USB_device_type == DEVICE_TYPE_KEYBOARD_CDC_COMPOSITE)
 8002d44:	4b08      	ldr	r3, [pc, #32]	; (8002d68 <USBD_Composite_SOF+0x2c>)
 8002d46:	7818      	ldrb	r0, [r3, #0]
 8002d48:	b948      	cbnz	r0, 8002d5e <USBD_Composite_SOF+0x22>
  {
	  /* Call HID SOF (CDC doesn't use SOF) */
	  pdev->pClassData = (void *)&hcomp->hhid;
 8002d4a:	f505 7309 	add.w	r3, r5, #548	; 0x224
 8002d4e:	f8c4 32b8 	str.w	r3, [r4, #696]	; 0x2b8
	  if(USBD_HID.SOF)
 8002d52:	4b06      	ldr	r3, [pc, #24]	; (8002d6c <USBD_Composite_SOF+0x30>)
 8002d54:	69db      	ldr	r3, [r3, #28]
 8002d56:	b11b      	cbz	r3, 8002d60 <USBD_Composite_SOF+0x24>
		  result = USBD_HID.SOF(pdev);
 8002d58:	4620      	mov	r0, r4
 8002d5a:	4798      	blx	r3
 8002d5c:	e000      	b.n	8002d60 <USBD_Composite_SOF+0x24>
  uint8_t result = USBD_OK;
 8002d5e:	2000      	movs	r0, #0
  }


  pdev->pClassData = (void *)hcomp;
 8002d60:	f8c4 52b8 	str.w	r5, [r4, #696]	; 0x2b8

  return result;
}
 8002d64:	bd38      	pop	{r3, r4, r5, pc}
 8002d66:	bf00      	nop
 8002d68:	20001ba9 	.word	0x20001ba9
 8002d6c:	20000278 	.word	0x20000278

08002d70 <USBD_Composite_GetFSConfigDescriptor>:
  * @param  length: pointer to data length variable
  * @retval pointer to descriptor buffer
  */
static uint8_t *USBD_Composite_GetFSConfigDescriptor(uint16_t *length)
{
  *length = USB_COMPOSITE_CONFIG_DESC_SIZ;
 8002d70:	236c      	movs	r3, #108	; 0x6c
 8002d72:	8003      	strh	r3, [r0, #0]
  return USBD_Composite_FS_CfgDesc;
}
 8002d74:	4800      	ldr	r0, [pc, #0]	; (8002d78 <USBD_Composite_GetFSConfigDescriptor+0x8>)
 8002d76:	4770      	bx	lr
 8002d78:	20000038 	.word	0x20000038

08002d7c <USBD_Composite_GetHSConfigDescriptor>:
  * @param  length: pointer to data length variable
  * @retval pointer to descriptor buffer
  */
static uint8_t *USBD_Composite_GetHSConfigDescriptor(uint16_t *length)
{
	  *length = USB_COMPOSITE_CONFIG_DESC_SIZ;
 8002d7c:	236c      	movs	r3, #108	; 0x6c
 8002d7e:	8003      	strh	r3, [r0, #0]
	  return USBD_Composite_FS_CfgDesc;
}
 8002d80:	4800      	ldr	r0, [pc, #0]	; (8002d84 <USBD_Composite_GetHSConfigDescriptor+0x8>)
 8002d82:	4770      	bx	lr
 8002d84:	20000038 	.word	0x20000038

08002d88 <USBD_Composite_GetDeviceQualifierDescriptor>:
  * @param  length: pointer to data length variable
  * @retval pointer to descriptor buffer
  */
static uint8_t *USBD_Composite_GetDeviceQualifierDescriptor(uint16_t *length)
{
  *length = USB_LEN_DEV_QUALIFIER_DESC;
 8002d88:	230a      	movs	r3, #10
 8002d8a:	8003      	strh	r3, [r0, #0]
  /* Return NULL as device qualifier is optional for composite device */
  return NULL;
}
 8002d8c:	2000      	movs	r0, #0
 8002d8e:	4770      	bx	lr

08002d90 <USBD_Composite_Setup>:
{
 8002d90:	b538      	push	{r3, r4, r5, lr}
 8002d92:	4604      	mov	r4, r0
  USBD_Composite_HandleTypeDef *hcomp = (USBD_Composite_HandleTypeDef *)pdev->pClassData;
 8002d94:	f8d0 52b8 	ldr.w	r5, [r0, #696]	; 0x2b8
  uint8_t interface = LOBYTE(req->wIndex);
 8002d98:	7908      	ldrb	r0, [r1, #4]
  if(interface == COMPOSITE_CDC_CONTROL_INTERFACE || interface == COMPOSITE_CDC_DATA_INTERFACE)
 8002d9a:	1e43      	subs	r3, r0, #1
 8002d9c:	b2db      	uxtb	r3, r3
 8002d9e:	2b01      	cmp	r3, #1
 8002da0:	d90c      	bls.n	8002dbc <USBD_Composite_Setup+0x2c>
  else if(interface == COMPOSITE_HID_INTERFACE)
 8002da2:	b9a8      	cbnz	r0, 8002dd0 <USBD_Composite_Setup+0x40>
	  if(g_USB_device_type == DEVICE_TYPE_KEYBOARD_CDC_COMPOSITE)
 8002da4:	4b0d      	ldr	r3, [pc, #52]	; (8002ddc <USBD_Composite_Setup+0x4c>)
 8002da6:	781b      	ldrb	r3, [r3, #0]
 8002da8:	b97b      	cbnz	r3, 8002dca <USBD_Composite_Setup+0x3a>
		pdev->pClassData = (void *)&hcomp->hhid;
 8002daa:	f505 7309 	add.w	r3, r5, #548	; 0x224
 8002dae:	f8c4 32b8 	str.w	r3, [r4, #696]	; 0x2b8
		result = USBD_HID.Setup(pdev, req);
 8002db2:	4b0b      	ldr	r3, [pc, #44]	; (8002de0 <USBD_Composite_Setup+0x50>)
 8002db4:	689b      	ldr	r3, [r3, #8]
 8002db6:	4620      	mov	r0, r4
 8002db8:	4798      	blx	r3
 8002dba:	e006      	b.n	8002dca <USBD_Composite_Setup+0x3a>
    pdev->pUserData = &USBD_CDC_Interface_fops_FS;
 8002dbc:	4b09      	ldr	r3, [pc, #36]	; (8002de4 <USBD_Composite_Setup+0x54>)
 8002dbe:	f8c4 32bc 	str.w	r3, [r4, #700]	; 0x2bc
    result = USBD_CDC.Setup(pdev, req);
 8002dc2:	4b09      	ldr	r3, [pc, #36]	; (8002de8 <USBD_Composite_Setup+0x58>)
 8002dc4:	689b      	ldr	r3, [r3, #8]
 8002dc6:	4620      	mov	r0, r4
 8002dc8:	4798      	blx	r3
  pdev->pClassData = (void *)hcomp;
 8002dca:	f8c4 52b8 	str.w	r5, [r4, #696]	; 0x2b8
}
 8002dce:	bd38      	pop	{r3, r4, r5, pc}
    USBD_CtlError(pdev, req);
 8002dd0:	4620      	mov	r0, r4
 8002dd2:	f004 fc05 	bl	80075e0 <USBD_CtlError>
    result = USBD_FAIL;
 8002dd6:	2002      	movs	r0, #2
 8002dd8:	e7f7      	b.n	8002dca <USBD_Composite_Setup+0x3a>
 8002dda:	bf00      	nop
 8002ddc:	20001ba9 	.word	0x20001ba9
 8002de0:	20000278 	.word	0x20000278
 8002de4:	2000000c 	.word	0x2000000c
 8002de8:	20000334 	.word	0x20000334

08002dec <USBD_Composite_DeInit>:
{
 8002dec:	b570      	push	{r4, r5, r6, lr}
  USBD_Composite_HandleTypeDef *hcomp = (USBD_Composite_HandleTypeDef *)pdev->pClassData;
 8002dee:	f8d0 52b8 	ldr.w	r5, [r0, #696]	; 0x2b8
  if(hcomp != NULL)
 8002df2:	b1b5      	cbz	r5, 8002e22 <USBD_Composite_DeInit+0x36>
 8002df4:	4604      	mov	r4, r0
 8002df6:	460e      	mov	r6, r1
	  if(g_USB_device_type == DEVICE_TYPE_KEYBOARD_CDC_COMPOSITE)
 8002df8:	4b0b      	ldr	r3, [pc, #44]	; (8002e28 <USBD_Composite_DeInit+0x3c>)
 8002dfa:	781b      	ldrb	r3, [r3, #0]
 8002dfc:	b98b      	cbnz	r3, 8002e22 <USBD_Composite_DeInit+0x36>
		USBD_CDC.DeInit(pdev, cfgidx);
 8002dfe:	4b0b      	ldr	r3, [pc, #44]	; (8002e2c <USBD_Composite_DeInit+0x40>)
 8002e00:	685b      	ldr	r3, [r3, #4]
 8002e02:	4798      	blx	r3
		pdev->pClassData = (void *)&hcomp->hhid;
 8002e04:	f505 7309 	add.w	r3, r5, #548	; 0x224
 8002e08:	f8c4 32b8 	str.w	r3, [r4, #696]	; 0x2b8
		USBD_HID.DeInit(pdev, cfgidx);
 8002e0c:	4b08      	ldr	r3, [pc, #32]	; (8002e30 <USBD_Composite_DeInit+0x44>)
 8002e0e:	685b      	ldr	r3, [r3, #4]
 8002e10:	4631      	mov	r1, r6
 8002e12:	4620      	mov	r0, r4
 8002e14:	4798      	blx	r3
		USBD_free((void *)hcomp);
 8002e16:	4628      	mov	r0, r5
 8002e18:	f005 fa2a 	bl	8008270 <USBD_static_free>
		pdev->pClassData = NULL;
 8002e1c:	2300      	movs	r3, #0
 8002e1e:	f8c4 32b8 	str.w	r3, [r4, #696]	; 0x2b8
}
 8002e22:	2000      	movs	r0, #0
 8002e24:	bd70      	pop	{r4, r5, r6, pc}
 8002e26:	bf00      	nop
 8002e28:	20001ba9 	.word	0x20001ba9
 8002e2c:	20000334 	.word	0x20000334
 8002e30:	20000278 	.word	0x20000278

08002e34 <USBD_Composite_Init>:
{
 8002e34:	b570      	push	{r4, r5, r6, lr}
 8002e36:	4604      	mov	r4, r0
 8002e38:	460e      	mov	r6, r1
  hcomp = (USBD_Composite_HandleTypeDef *)USBD_malloc(sizeof(USBD_Composite_HandleTypeDef));
 8002e3a:	f44f 700e 	mov.w	r0, #568	; 0x238
 8002e3e:	f005 fa13 	bl	8008268 <USBD_static_malloc>
  if(hcomp == NULL)
 8002e42:	b318      	cbz	r0, 8002e8c <USBD_Composite_Init+0x58>
 8002e44:	4605      	mov	r5, r0
  if(g_USB_device_type == DEVICE_TYPE_KEYBOARD_CDC_COMPOSITE)
 8002e46:	4b16      	ldr	r3, [pc, #88]	; (8002ea0 <USBD_Composite_Init+0x6c>)
 8002e48:	781b      	ldrb	r3, [r3, #0]
 8002e4a:	bb23      	cbnz	r3, 8002e96 <USBD_Composite_Init+0x62>
	  hcomp->HID_ClassId = 0;
 8002e4c:	f880 3235 	strb.w	r3, [r0, #565]	; 0x235
	  pdev->pClassData = (void *)&hcomp->hhid;
 8002e50:	f500 7209 	add.w	r2, r0, #548	; 0x224
 8002e54:	f8c4 22b8 	str.w	r2, [r4, #696]	; 0x2b8
	  pdev->pHID = (void *)&hcomp->hhid;
 8002e58:	f8c4 22c8 	str.w	r2, [r4, #712]	; 0x2c8
	  pdev->pUserData = NULL;
 8002e5c:	f8c4 32bc 	str.w	r3, [r4, #700]	; 0x2bc
	  res = USBD_HID.Init(pdev, cfgidx);
 8002e60:	4b10      	ldr	r3, [pc, #64]	; (8002ea4 <USBD_Composite_Init+0x70>)
 8002e62:	681b      	ldr	r3, [r3, #0]
 8002e64:	4631      	mov	r1, r6
 8002e66:	4620      	mov	r0, r4
 8002e68:	4798      	blx	r3
	  pdev->pClassData = (void *)&hcomp->hcdc;
 8002e6a:	f8c4 52b8 	str.w	r5, [r4, #696]	; 0x2b8
	  pdev->pCDC = (void *)&hcomp->hcdc;
 8002e6e:	f8c4 52c4 	str.w	r5, [r4, #708]	; 0x2c4
	  pdev->pUserData = &USBD_CDC_Interface_fops_FS;
 8002e72:	4b0d      	ldr	r3, [pc, #52]	; (8002ea8 <USBD_Composite_Init+0x74>)
 8002e74:	f8c4 32bc 	str.w	r3, [r4, #700]	; 0x2bc
	  hcomp->CDC_ClassId = 1;
 8002e78:	2301      	movs	r3, #1
 8002e7a:	f885 3234 	strb.w	r3, [r5, #564]	; 0x234
	  res = USBD_CDC.Init(pdev, cfgidx);
 8002e7e:	4b0b      	ldr	r3, [pc, #44]	; (8002eac <USBD_Composite_Init+0x78>)
 8002e80:	681b      	ldr	r3, [r3, #0]
 8002e82:	4631      	mov	r1, r6
 8002e84:	4620      	mov	r0, r4
 8002e86:	4798      	blx	r3
	  if(res != USBD_OK)
 8002e88:	b130      	cbz	r0, 8002e98 <USBD_Composite_Init+0x64>
 8002e8a:	e007      	b.n	8002e9c <USBD_Composite_Init+0x68>
    pdev->pClassData = NULL;
 8002e8c:	2300      	movs	r3, #0
 8002e8e:	f8c4 32b8 	str.w	r3, [r4, #696]	; 0x2b8
    return USBD_FAIL;
 8002e92:	2002      	movs	r0, #2
 8002e94:	e002      	b.n	8002e9c <USBD_Composite_Init+0x68>
  uint8_t res = USBD_OK;
 8002e96:	2000      	movs	r0, #0
  pdev->pClassData = (void *)hcomp;
 8002e98:	f8c4 52b8 	str.w	r5, [r4, #696]	; 0x2b8
}
 8002e9c:	bd70      	pop	{r4, r5, r6, pc}
 8002e9e:	bf00      	nop
 8002ea0:	20001ba9 	.word	0x20001ba9
 8002ea4:	20000278 	.word	0x20000278
 8002ea8:	2000000c 	.word	0x2000000c
 8002eac:	20000334 	.word	0x20000334

08002eb0 <USBD_FS_DeviceDescriptor>:
};

static uint8_t * USBD_FS_DeviceDescriptor(USBD_SpeedTypeDef speed, uint16_t *length)
{
	  UNUSED(speed);
	  *length = sizeof(USBD_DrumController_FS_DeviceDesc);
 8002eb0:	2312      	movs	r3, #18
 8002eb2:	800b      	strh	r3, [r1, #0]
	  return USBD_DrumController_FS_DeviceDesc;
}
 8002eb4:	4800      	ldr	r0, [pc, #0]	; (8002eb8 <USBD_FS_DeviceDescriptor+0x8>)
 8002eb6:	4770      	bx	lr
 8002eb8:	20000200 	.word	0x20000200

08002ebc <USBD_FS_LangIDStrDescriptor>:

static uint8_t * USBD_FS_LangIDStrDescriptor(USBD_SpeedTypeDef speed, uint16_t *length)
{
	  UNUSED(speed);
	  *length = sizeof(USBD_LangIDDesc);
 8002ebc:	2304      	movs	r3, #4
 8002ebe:	800b      	strh	r3, [r1, #0]
	  return USBD_LangIDDesc;
}
 8002ec0:	4800      	ldr	r0, [pc, #0]	; (8002ec4 <USBD_FS_LangIDStrDescriptor+0x8>)
 8002ec2:	4770      	bx	lr
 8002ec4:	20000214 	.word	0x20000214

08002ec8 <IntTo_Unicode>:

static void IntTo_Unicode(uint32_t value, uint8_t *pbuf, uint8_t len)
{
  uint8_t idx = 0u;

  for (idx = 0u; idx < len; idx++)
 8002ec8:	2300      	movs	r3, #0
 8002eca:	4293      	cmp	r3, r2
 8002ecc:	d217      	bcs.n	8002efe <IntTo_Unicode+0x36>
{
 8002ece:	b430      	push	{r4, r5}
 8002ed0:	e00b      	b.n	8002eea <IntTo_Unicode+0x22>
    {
      pbuf[2u * idx] = (value >> 28) + '0';
    }
    else
    {
      pbuf[2u * idx] = (value >> 28) + 'A' - 10u;
 8002ed2:	3437      	adds	r4, #55	; 0x37
 8002ed4:	f801 4013 	strb.w	r4, [r1, r3, lsl #1]
    }

    value = value << 4u;
 8002ed8:	0100      	lsls	r0, r0, #4

    pbuf[2u * idx + 1u] = 0u;
 8002eda:	005c      	lsls	r4, r3, #1
 8002edc:	3401      	adds	r4, #1
 8002ede:	2500      	movs	r5, #0
 8002ee0:	550d      	strb	r5, [r1, r4]
  for (idx = 0u; idx < len; idx++)
 8002ee2:	3301      	adds	r3, #1
 8002ee4:	b2db      	uxtb	r3, r3
 8002ee6:	4293      	cmp	r3, r2
 8002ee8:	d207      	bcs.n	8002efa <IntTo_Unicode+0x32>
    if (((value >> 28)) < 0xA)
 8002eea:	0f04      	lsrs	r4, r0, #28
 8002eec:	f1b0 4f20 	cmp.w	r0, #2684354560	; 0xa0000000
 8002ef0:	d2ef      	bcs.n	8002ed2 <IntTo_Unicode+0xa>
      pbuf[2u * idx] = (value >> 28) + '0';
 8002ef2:	3430      	adds	r4, #48	; 0x30
 8002ef4:	f801 4013 	strb.w	r4, [r1, r3, lsl #1]
 8002ef8:	e7ee      	b.n	8002ed8 <IntTo_Unicode+0x10>
  }
}
 8002efa:	bc30      	pop	{r4, r5}
 8002efc:	4770      	bx	lr
 8002efe:	4770      	bx	lr

08002f00 <Get_SerialNum>:

static void Get_SerialNum(void)
{
 8002f00:	b538      	push	{r3, r4, r5, lr}
  uint32_t deviceserial0 = *(uint32_t *)DEVICE_ID1;
 8002f02:	4b0a      	ldr	r3, [pc, #40]	; (8002f2c <Get_SerialNum+0x2c>)
 8002f04:	6818      	ldr	r0, [r3, #0]
  uint32_t deviceserial1 = *(uint32_t *)DEVICE_ID2;
 8002f06:	3304      	adds	r3, #4
 8002f08:	681c      	ldr	r4, [r3, #0]
  uint32_t deviceserial2 = *(uint32_t *)DEVICE_ID3;
 8002f0a:	3304      	adds	r3, #4
 8002f0c:	681b      	ldr	r3, [r3, #0]

  deviceserial0 += deviceserial2;

  if (deviceserial0 != 0)
 8002f0e:	18c0      	adds	r0, r0, r3
 8002f10:	d100      	bne.n	8002f14 <Get_SerialNum+0x14>
  {
    IntTo_Unicode(deviceserial0, &USBD_StringSerial[2], 8);
    IntTo_Unicode(deviceserial1, &USBD_StringSerial[18], 4);
  }
}
 8002f12:	bd38      	pop	{r3, r4, r5, pc}
    IntTo_Unicode(deviceserial0, &USBD_StringSerial[2], 8);
 8002f14:	4d06      	ldr	r5, [pc, #24]	; (8002f30 <Get_SerialNum+0x30>)
 8002f16:	2208      	movs	r2, #8
 8002f18:	1ca9      	adds	r1, r5, #2
 8002f1a:	f7ff ffd5 	bl	8002ec8 <IntTo_Unicode>
    IntTo_Unicode(deviceserial1, &USBD_StringSerial[18], 4);
 8002f1e:	2204      	movs	r2, #4
 8002f20:	f105 0112 	add.w	r1, r5, #18
 8002f24:	4620      	mov	r0, r4
 8002f26:	f7ff ffcf 	bl	8002ec8 <IntTo_Unicode>
}
 8002f2a:	e7f2      	b.n	8002f12 <Get_SerialNum+0x12>
 8002f2c:	1ffff7e8 	.word	0x1ffff7e8
 8002f30:	20000218 	.word	0x20000218

08002f34 <USBD_FS_SerialStrDescriptor>:


static uint8_t * USBD_FS_SerialStrDescriptor(USBD_SpeedTypeDef speed, uint16_t *length)
{
 8002f34:	b508      	push	{r3, lr}
	  UNUSED(speed);
	  *length = USB_SIZ_STRING_SERIAL;
 8002f36:	231a      	movs	r3, #26
 8002f38:	800b      	strh	r3, [r1, #0]

	  /* Update the serial number string descriptor with the data from the unique
	   * ID */
	  Get_SerialNum();
 8002f3a:	f7ff ffe1 	bl	8002f00 <Get_SerialNum>
	  /* USER CODE BEGIN USBD_FS_SerialStrDescriptor */

	  /* USER CODE END USBD_FS_SerialStrDescriptor */
	  return (uint8_t *) USBD_StringSerial;
}
 8002f3e:	4801      	ldr	r0, [pc, #4]	; (8002f44 <USBD_FS_SerialStrDescriptor+0x10>)
 8002f40:	bd08      	pop	{r3, pc}
 8002f42:	bf00      	nop
 8002f44:	20000218 	.word	0x20000218

08002f48 <USBD_DrumController_GetFSCfgDesc>:
  * @param  length : pointer data length
  * @retval pointer to descriptor buffer
  */
static uint8_t  *USBD_DrumController_GetFSCfgDesc(uint16_t *length)
{
  *length = sizeof(USBD_DrumController_FS_CfgDesc);
 8002f48:	2329      	movs	r3, #41	; 0x29
 8002f4a:	8003      	strh	r3, [r0, #0]
  return USBD_DrumController_FS_CfgDesc;
}
 8002f4c:	4800      	ldr	r0, [pc, #0]	; (8002f50 <USBD_DrumController_GetFSCfgDesc+0x8>)
 8002f4e:	4770      	bx	lr
 8002f50:	200001d4 	.word	0x200001d4

08002f54 <USBD_DrumController_GetHSCfgDesc>:
  * @param  length : pointer data length
  * @retval pointer to descriptor buffer
  */
static uint8_t  *USBD_DrumController_GetHSCfgDesc(uint16_t *length)
{
  *length = sizeof(USBD_DrumController_FS_CfgDesc);
 8002f54:	2329      	movs	r3, #41	; 0x29
 8002f56:	8003      	strh	r3, [r0, #0]
  return USBD_DrumController_FS_CfgDesc;
}
 8002f58:	4800      	ldr	r0, [pc, #0]	; (8002f5c <USBD_DrumController_GetHSCfgDesc+0x8>)
 8002f5a:	4770      	bx	lr
 8002f5c:	200001d4 	.word	0x200001d4

08002f60 <USBD_DrumController_GetOtherSpeedCfgDesc>:
  * @param  length : pointer data length
  * @retval pointer to descriptor buffer
  */
static uint8_t  *USBD_DrumController_GetOtherSpeedCfgDesc(uint16_t *length)
{
  *length = sizeof(USBD_DrumController_FS_CfgDesc);
 8002f60:	2329      	movs	r3, #41	; 0x29
 8002f62:	8003      	strh	r3, [r0, #0]
  return USBD_DrumController_FS_CfgDesc;
}
 8002f64:	4800      	ldr	r0, [pc, #0]	; (8002f68 <USBD_DrumController_GetOtherSpeedCfgDesc+0x8>)
 8002f66:	4770      	bx	lr
 8002f68:	200001d4 	.word	0x200001d4

08002f6c <USBD_DrumController_DataIn>:
                                uint8_t epnum)
{

  /* Ensure that the FIFO is empty before a new transfer, this condition could
  be caused by  a new transfer before the end of the previous transfer */
  ((USBD_HID_HandleTypeDef *)pdev->pHID)->state = HID_IDLE;
 8002f6c:	f8d0 32c8 	ldr.w	r3, [r0, #712]	; 0x2c8
 8002f70:	2000      	movs	r0, #0
 8002f72:	7318      	strb	r0, [r3, #12]
  g_HID_report_modified = 0;
 8002f74:	4b01      	ldr	r3, [pc, #4]	; (8002f7c <USBD_DrumController_DataIn+0x10>)
 8002f76:	7018      	strb	r0, [r3, #0]
  return USBD_OK;
}
 8002f78:	4770      	bx	lr
 8002f7a:	bf00      	nop
 8002f7c:	20001baa 	.word	0x20001baa

08002f80 <USBD_DrumController_DataOut>:
{
  /* This is a placeholder to match endpoint descriptor.
   * The drum controller doesn't typically process OUT data,
   * so we just return OK to acknowledge the transaction. */
  return USBD_OK;
}
 8002f80:	2000      	movs	r0, #0
 8002f82:	4770      	bx	lr

08002f84 <USBD_DrumController_GetDeviceQualifierDesc>:
    0x40,                                       /* bMaxPacketSize */
    0x01,                                       /* bNumConfigurations */
    0x00                                        /* bReserved */
  };

  *length = sizeof(USBD_DRUMCONTROLLER_DeviceQualifierDesc);
 8002f84:	230a      	movs	r3, #10
 8002f86:	8003      	strh	r3, [r0, #0]
  return USBD_DRUMCONTROLLER_DeviceQualifierDesc;
}
 8002f88:	4800      	ldr	r0, [pc, #0]	; (8002f8c <USBD_DrumController_GetDeviceQualifierDesc+0x8>)
 8002f8a:	4770      	bx	lr
 8002f8c:	200001bc 	.word	0x200001bc

08002f90 <USBD_FS_InterfaceStrDescriptor>:
{
 8002f90:	b510      	push	{r4, lr}
 8002f92:	460a      	mov	r2, r1
    USBD_GetString((uint8_t *)USBD_DRUMCONTROLLER_INTERFACE_STRING_HID_FS, USBD_StrDesc, length);
 8002f94:	4c03      	ldr	r4, [pc, #12]	; (8002fa4 <USBD_FS_InterfaceStrDescriptor+0x14>)
 8002f96:	4621      	mov	r1, r4
 8002f98:	4803      	ldr	r0, [pc, #12]	; (8002fa8 <USBD_FS_InterfaceStrDescriptor+0x18>)
 8002f9a:	f004 fe10 	bl	8007bbe <USBD_GetString>
}
 8002f9e:	4620      	mov	r0, r4
 8002fa0:	bd10      	pop	{r4, pc}
 8002fa2:	bf00      	nop
 8002fa4:	20001bac 	.word	0x20001bac
 8002fa8:	08009940 	.word	0x08009940

08002fac <USBD_FS_ConfigStrDescriptor>:
{
 8002fac:	b508      	push	{r3, lr}
 8002fae:	460a      	mov	r2, r1
	  if(speed == USBD_SPEED_HIGH)
 8002fb0:	b928      	cbnz	r0, 8002fbe <USBD_FS_ConfigStrDescriptor+0x12>
	    USBD_GetString((uint8_t *)USBD_DRUMCONTROLLER_CONFIGURATION_STRING_FS, USBD_StrDesc, length);
 8002fb2:	4905      	ldr	r1, [pc, #20]	; (8002fc8 <USBD_FS_ConfigStrDescriptor+0x1c>)
 8002fb4:	4805      	ldr	r0, [pc, #20]	; (8002fcc <USBD_FS_ConfigStrDescriptor+0x20>)
 8002fb6:	f004 fe02 	bl	8007bbe <USBD_GetString>
}
 8002fba:	4803      	ldr	r0, [pc, #12]	; (8002fc8 <USBD_FS_ConfigStrDescriptor+0x1c>)
 8002fbc:	bd08      	pop	{r3, pc}
	    USBD_GetString((uint8_t *)USBD_DRUMCONTROLLER_CONFIGURATION_STRING_FS, USBD_StrDesc, length);
 8002fbe:	4902      	ldr	r1, [pc, #8]	; (8002fc8 <USBD_FS_ConfigStrDescriptor+0x1c>)
 8002fc0:	4802      	ldr	r0, [pc, #8]	; (8002fcc <USBD_FS_ConfigStrDescriptor+0x20>)
 8002fc2:	f004 fdfc 	bl	8007bbe <USBD_GetString>
 8002fc6:	e7f8      	b.n	8002fba <USBD_FS_ConfigStrDescriptor+0xe>
 8002fc8:	20001bac 	.word	0x20001bac
 8002fcc:	08009948 	.word	0x08009948

08002fd0 <USBD_FS_ProductStrDescriptor>:
{
 8002fd0:	b508      	push	{r3, lr}
 8002fd2:	460a      	mov	r2, r1
	  if(speed == 0)
 8002fd4:	b928      	cbnz	r0, 8002fe2 <USBD_FS_ProductStrDescriptor+0x12>
	    USBD_GetString((uint8_t *)USBD_DRUMCONTROLLER_PRODUCT_STRING_FS, USBD_StrDesc, length);
 8002fd6:	4905      	ldr	r1, [pc, #20]	; (8002fec <USBD_FS_ProductStrDescriptor+0x1c>)
 8002fd8:	4805      	ldr	r0, [pc, #20]	; (8002ff0 <USBD_FS_ProductStrDescriptor+0x20>)
 8002fda:	f004 fdf0 	bl	8007bbe <USBD_GetString>
}
 8002fde:	4803      	ldr	r0, [pc, #12]	; (8002fec <USBD_FS_ProductStrDescriptor+0x1c>)
 8002fe0:	bd08      	pop	{r3, pc}
	    USBD_GetString((uint8_t *)USBD_DRUMCONTROLLER_PRODUCT_STRING_FS, USBD_StrDesc, length);
 8002fe2:	4902      	ldr	r1, [pc, #8]	; (8002fec <USBD_FS_ProductStrDescriptor+0x1c>)
 8002fe4:	4802      	ldr	r0, [pc, #8]	; (8002ff0 <USBD_FS_ProductStrDescriptor+0x20>)
 8002fe6:	f004 fdea 	bl	8007bbe <USBD_GetString>
 8002fea:	e7f8      	b.n	8002fde <USBD_FS_ProductStrDescriptor+0xe>
 8002fec:	20001bac 	.word	0x20001bac
 8002ff0:	08009958 	.word	0x08009958

08002ff4 <USBD_FS_ManufacturerStrDescriptor>:
{
 8002ff4:	b510      	push	{r4, lr}
 8002ff6:	460a      	mov	r2, r1
	  USBD_GetString((uint8_t *)USBD_DRUMCONTROLLER_MANUFACTURER_STRING, USBD_StrDesc, length);
 8002ff8:	4c03      	ldr	r4, [pc, #12]	; (8003008 <USBD_FS_ManufacturerStrDescriptor+0x14>)
 8002ffa:	4621      	mov	r1, r4
 8002ffc:	4803      	ldr	r0, [pc, #12]	; (800300c <USBD_FS_ManufacturerStrDescriptor+0x18>)
 8002ffe:	f004 fdde 	bl	8007bbe <USBD_GetString>
}
 8003002:	4620      	mov	r0, r4
 8003004:	bd10      	pop	{r4, pc}
 8003006:	bf00      	nop
 8003008:	20001bac 	.word	0x20001bac
 800300c:	0800996c 	.word	0x0800996c

08003010 <USBD_DrumController_Setup>:
{
 8003010:	b570      	push	{r4, r5, r6, lr}
 8003012:	b082      	sub	sp, #8
  USBD_HID_HandleTypeDef *hhid = (USBD_HID_HandleTypeDef *)(pdev->pHID);
 8003014:	f8d0 52c8 	ldr.w	r5, [r0, #712]	; 0x2c8
  uint16_t status_info = 0U;
 8003018:	2300      	movs	r3, #0
 800301a:	f8ad 3006 	strh.w	r3, [sp, #6]
  switch (req->bmRequest & USB_REQ_TYPE_MASK)
 800301e:	780c      	ldrb	r4, [r1, #0]
 8003020:	f014 0460 	ands.w	r4, r4, #96	; 0x60
 8003024:	d025      	beq.n	8003072 <USBD_DrumController_Setup+0x62>
 8003026:	2c20      	cmp	r4, #32
 8003028:	d172      	bne.n	8003110 <USBD_DrumController_Setup+0x100>
      switch (req->bRequest)
 800302a:	784b      	ldrb	r3, [r1, #1]
 800302c:	3b02      	subs	r3, #2
 800302e:	2b09      	cmp	r3, #9
 8003030:	d81b      	bhi.n	800306a <USBD_DrumController_Setup+0x5a>
 8003032:	e8df f003 	tbb	[pc, r3]
 8003036:	0914      	.short	0x0914
 8003038:	1a1a1a1a 	.word	0x1a1a1a1a
 800303c:	050f1a1a 	.word	0x050f1a1a
          hhid->Protocol = (uint8_t)(req->wValue);
 8003040:	788b      	ldrb	r3, [r1, #2]
 8003042:	602b      	str	r3, [r5, #0]
  USBD_StatusTypeDef ret = USBD_OK;
 8003044:	2400      	movs	r4, #0
          break;
 8003046:	e066      	b.n	8003116 <USBD_DrumController_Setup+0x106>
          USBD_CtlSendData(pdev, (uint8_t *)(void *)&hhid->Protocol, 1U);
 8003048:	2201      	movs	r2, #1
 800304a:	4629      	mov	r1, r5
 800304c:	f004 fdd3 	bl	8007bf6 <USBD_CtlSendData>
  USBD_StatusTypeDef ret = USBD_OK;
 8003050:	2400      	movs	r4, #0
          break;
 8003052:	e060      	b.n	8003116 <USBD_DrumController_Setup+0x106>
          hhid->IdleState = (uint8_t)(req->wValue >> 8);
 8003054:	884b      	ldrh	r3, [r1, #2]
 8003056:	0a1b      	lsrs	r3, r3, #8
 8003058:	606b      	str	r3, [r5, #4]
  USBD_StatusTypeDef ret = USBD_OK;
 800305a:	2400      	movs	r4, #0
          break;
 800305c:	e05b      	b.n	8003116 <USBD_DrumController_Setup+0x106>
          USBD_CtlSendData(pdev, (uint8_t *)(void *)&hhid->IdleState, 1U);
 800305e:	2201      	movs	r2, #1
 8003060:	1d29      	adds	r1, r5, #4
 8003062:	f004 fdc8 	bl	8007bf6 <USBD_CtlSendData>
  USBD_StatusTypeDef ret = USBD_OK;
 8003066:	2400      	movs	r4, #0
          break;
 8003068:	e055      	b.n	8003116 <USBD_DrumController_Setup+0x106>
          USBD_CtlError(pdev, req);
 800306a:	f004 fab9 	bl	80075e0 <USBD_CtlError>
          ret = USBD_FAIL;
 800306e:	2402      	movs	r4, #2
          break;
 8003070:	e051      	b.n	8003116 <USBD_DrumController_Setup+0x106>
      switch (req->bRequest)
 8003072:	784e      	ldrb	r6, [r1, #1]
 8003074:	2e0b      	cmp	r6, #11
 8003076:	d847      	bhi.n	8003108 <USBD_DrumController_Setup+0xf8>
 8003078:	e8df f006 	tbb	[pc, r6]
 800307c:	46464606 	.word	0x46464606
 8003080:	46154646 	.word	0x46154646
 8003084:	3b2d4646 	.word	0x3b2d4646
          if (pdev->dev_state == USBD_STATE_CONFIGURED)
 8003088:	f890 329c 	ldrb.w	r3, [r0, #668]	; 0x29c
 800308c:	2b03      	cmp	r3, #3
 800308e:	d003      	beq.n	8003098 <USBD_DrumController_Setup+0x88>
            USBD_CtlError(pdev, req);
 8003090:	f004 faa6 	bl	80075e0 <USBD_CtlError>
            ret = USBD_FAIL;
 8003094:	2402      	movs	r4, #2
 8003096:	e03e      	b.n	8003116 <USBD_DrumController_Setup+0x106>
            USBD_CtlSendData(pdev, (uint8_t *)(void *)&status_info, 2U);
 8003098:	2202      	movs	r2, #2
 800309a:	f10d 0106 	add.w	r1, sp, #6
 800309e:	f004 fdaa 	bl	8007bf6 <USBD_CtlSendData>
  USBD_StatusTypeDef ret = USBD_OK;
 80030a2:	4634      	mov	r4, r6
 80030a4:	e037      	b.n	8003116 <USBD_DrumController_Setup+0x106>
          if (req->wValue >> 8 == HID_REPORT_DESC)
 80030a6:	884b      	ldrh	r3, [r1, #2]
 80030a8:	0a1b      	lsrs	r3, r3, #8
 80030aa:	2b22      	cmp	r3, #34	; 0x22
 80030ac:	d009      	beq.n	80030c2 <USBD_DrumController_Setup+0xb2>
          else if (req->wValue >> 8 == HID_DESCRIPTOR_TYPE)
 80030ae:	2b21      	cmp	r3, #33	; 0x21
 80030b0:	d10d      	bne.n	80030ce <USBD_DrumController_Setup+0xbe>
            len = MIN(USB_HID_DESC_SIZ, req->wLength);
 80030b2:	88ca      	ldrh	r2, [r1, #6]
 80030b4:	2a09      	cmp	r2, #9
 80030b6:	bf28      	it	cs
 80030b8:	2209      	movcs	r2, #9
            pbuf = USBD_DRUMCONTROLLER_HID_Desc;
 80030ba:	4918      	ldr	r1, [pc, #96]	; (800311c <USBD_DrumController_Setup+0x10c>)
          USBD_CtlSendData(pdev, pbuf, len);
 80030bc:	f004 fd9b 	bl	8007bf6 <USBD_CtlSendData>
          break;
 80030c0:	e029      	b.n	8003116 <USBD_DrumController_Setup+0x106>
            len = MIN(HID_DRUMCONTROLLER_REPORT_DESC_SIZE, req->wLength);
 80030c2:	88ca      	ldrh	r2, [r1, #6]
 80030c4:	2a56      	cmp	r2, #86	; 0x56
 80030c6:	bf28      	it	cs
 80030c8:	2256      	movcs	r2, #86	; 0x56
            pbuf = HID_DRUMCONTROLLER_ReportDesc;
 80030ca:	4915      	ldr	r1, [pc, #84]	; (8003120 <USBD_DrumController_Setup+0x110>)
 80030cc:	e7f6      	b.n	80030bc <USBD_DrumController_Setup+0xac>
            USBD_CtlError(pdev, req);
 80030ce:	f004 fa87 	bl	80075e0 <USBD_CtlError>
            ret = USBD_FAIL;
 80030d2:	2402      	movs	r4, #2
            break;
 80030d4:	e01f      	b.n	8003116 <USBD_DrumController_Setup+0x106>
          if (pdev->dev_state == USBD_STATE_CONFIGURED)
 80030d6:	f890 329c 	ldrb.w	r3, [r0, #668]	; 0x29c
 80030da:	2b03      	cmp	r3, #3
 80030dc:	d003      	beq.n	80030e6 <USBD_DrumController_Setup+0xd6>
            USBD_CtlError(pdev, req);
 80030de:	f004 fa7f 	bl	80075e0 <USBD_CtlError>
            ret = USBD_FAIL;
 80030e2:	2402      	movs	r4, #2
 80030e4:	e017      	b.n	8003116 <USBD_DrumController_Setup+0x106>
            USBD_CtlSendData(pdev, (uint8_t *)(void *)&hhid->AltSetting, 1U);
 80030e6:	2201      	movs	r2, #1
 80030e8:	f105 0108 	add.w	r1, r5, #8
 80030ec:	f004 fd83 	bl	8007bf6 <USBD_CtlSendData>
 80030f0:	e011      	b.n	8003116 <USBD_DrumController_Setup+0x106>
          if (pdev->dev_state == USBD_STATE_CONFIGURED)
 80030f2:	f890 329c 	ldrb.w	r3, [r0, #668]	; 0x29c
 80030f6:	2b03      	cmp	r3, #3
 80030f8:	d102      	bne.n	8003100 <USBD_DrumController_Setup+0xf0>
            hhid->AltSetting = (uint8_t)(req->wValue);
 80030fa:	788b      	ldrb	r3, [r1, #2]
 80030fc:	60ab      	str	r3, [r5, #8]
 80030fe:	e00a      	b.n	8003116 <USBD_DrumController_Setup+0x106>
            USBD_CtlError(pdev, req);
 8003100:	f004 fa6e 	bl	80075e0 <USBD_CtlError>
            ret = USBD_FAIL;
 8003104:	2402      	movs	r4, #2
 8003106:	e006      	b.n	8003116 <USBD_DrumController_Setup+0x106>
          USBD_CtlError(pdev, req);
 8003108:	f004 fa6a 	bl	80075e0 <USBD_CtlError>
          ret = USBD_FAIL;
 800310c:	2402      	movs	r4, #2
          break;
 800310e:	e002      	b.n	8003116 <USBD_DrumController_Setup+0x106>
      USBD_CtlError(pdev, req);
 8003110:	f004 fa66 	bl	80075e0 <USBD_CtlError>
      ret = USBD_FAIL;
 8003114:	2402      	movs	r4, #2
}
 8003116:	4620      	mov	r0, r4
 8003118:	b002      	add	sp, #8
 800311a:	bd70      	pop	{r4, r5, r6, pc}
 800311c:	200001c8 	.word	0x200001c8
 8003120:	2000012c 	.word	0x2000012c

08003124 <USBD_DrumController_DeInit>:
{
 8003124:	b570      	push	{r4, r5, r6, lr}
 8003126:	4604      	mov	r4, r0
 8003128:	460e      	mov	r6, r1
  USBD_LL_CloseEP(pdev, HID_DRUMCONTROLLER_EPIN_ADDR);
 800312a:	2181      	movs	r1, #129	; 0x81
 800312c:	f005 f84f 	bl	80081ce <USBD_LL_CloseEP>
  pdev->ep_in[HID_DRUMCONTROLLER_EPIN_ADDR & 0xFU].is_used = 0U;
 8003130:	2500      	movs	r5, #0
 8003132:	62e5      	str	r5, [r4, #44]	; 0x2c
	USBD_DRUMCONTROLLER.DeInit(pdev, cfgidx);
 8003134:	4b04      	ldr	r3, [pc, #16]	; (8003148 <USBD_DrumController_DeInit+0x24>)
 8003136:	685b      	ldr	r3, [r3, #4]
 8003138:	4631      	mov	r1, r6
 800313a:	4620      	mov	r0, r4
 800313c:	4798      	blx	r3
	pdev->pClassData = NULL;
 800313e:	f8c4 52b8 	str.w	r5, [r4, #696]	; 0x2b8
}
 8003142:	4628      	mov	r0, r5
 8003144:	bd70      	pop	{r4, r5, r6, pc}
 8003146:	bf00      	nop
 8003148:	20000184 	.word	0x20000184

0800314c <USBD_DrumController_Init>:
{
 800314c:	b538      	push	{r3, r4, r5, lr}
 800314e:	4604      	mov	r4, r0
  hcomp = (USBD_Composite_HandleTypeDef *)USBD_malloc(sizeof(USBD_Composite_HandleTypeDef));
 8003150:	f44f 700e 	mov.w	r0, #568	; 0x238
 8003154:	f005 f888 	bl	8008268 <USBD_static_malloc>
  if(hcomp == NULL)
 8003158:	b1a8      	cbz	r0, 8003186 <USBD_DrumController_Init+0x3a>
  pdev->pClassData = (void *)&hcomp->hhid;
 800315a:	f500 7309 	add.w	r3, r0, #548	; 0x224
 800315e:	f8c4 32b8 	str.w	r3, [r4, #696]	; 0x2b8
  pdev->pHID = (void *)&hcomp->hhid;
 8003162:	f8c4 32c8 	str.w	r3, [r4, #712]	; 0x2c8
  pdev->pUserData = NULL;
 8003166:	2500      	movs	r5, #0
 8003168:	f8c4 52bc 	str.w	r5, [r4, #700]	; 0x2bc
  USBD_LL_OpenEP(pdev, HID_DRUMCONTROLLER_EPIN_ADDR, USBD_EP_TYPE_INTR, HID_DRUMCONTROLLER_EPIN_SIZE);
 800316c:	2340      	movs	r3, #64	; 0x40
 800316e:	2203      	movs	r2, #3
 8003170:	2181      	movs	r1, #129	; 0x81
 8003172:	4620      	mov	r0, r4
 8003174:	f005 f820 	bl	80081b8 <USBD_LL_OpenEP>
  pdev->ep_in[HID_DRUMCONTROLLER_EPIN_SIZE & 0xFU].is_used = 1U;
 8003178:	2301      	movs	r3, #1
 800317a:	61a3      	str	r3, [r4, #24]
  ((USBD_HID_HandleTypeDef *)(pdev->pHID))->state = HID_IDLE;
 800317c:	f8d4 32c8 	ldr.w	r3, [r4, #712]	; 0x2c8
 8003180:	731d      	strb	r5, [r3, #12]
  return USBD_OK;
 8003182:	4628      	mov	r0, r5
}
 8003184:	bd38      	pop	{r3, r4, r5, pc}
    pdev->pClassData = NULL;
 8003186:	2300      	movs	r3, #0
 8003188:	f8c4 32b8 	str.w	r3, [r4, #696]	; 0x2b8
    return USBD_FAIL;
 800318c:	2002      	movs	r0, #2
 800318e:	e7f9      	b.n	8003184 <USBD_DrumController_Init+0x38>

08003190 <USBD_DrumController_SendReport>:
{
 8003190:	b510      	push	{r4, lr}
  USBD_HID_HandleTypeDef     *hhid = (USBD_HID_HandleTypeDef *)pdev->pHID;
 8003192:	f8d0 42c8 	ldr.w	r4, [r0, #712]	; 0x2c8
  if (pdev->dev_state == USBD_STATE_CONFIGURED)
 8003196:	f890 329c 	ldrb.w	r3, [r0, #668]	; 0x29c
 800319a:	2b03      	cmp	r3, #3
 800319c:	d001      	beq.n	80031a2 <USBD_DrumController_SendReport+0x12>
}
 800319e:	2000      	movs	r0, #0
 80031a0:	bd10      	pop	{r4, pc}
    if (hhid->state == HID_IDLE)
 80031a2:	7b23      	ldrb	r3, [r4, #12]
 80031a4:	2b00      	cmp	r3, #0
 80031a6:	d1fa      	bne.n	800319e <USBD_DrumController_SendReport+0xe>
      hhid->state = HID_BUSY;
 80031a8:	2301      	movs	r3, #1
 80031aa:	7323      	strb	r3, [r4, #12]
      USBD_LL_Transmit(pdev,
 80031ac:	4613      	mov	r3, r2
 80031ae:	460a      	mov	r2, r1
 80031b0:	2181      	movs	r1, #129	; 0x81
 80031b2:	f005 f842 	bl	800823a <USBD_LL_Transmit>
 80031b6:	e7f2      	b.n	800319e <USBD_DrumController_SendReport+0xe>

080031b8 <Reset_Handler>:
  .weak Reset_Handler
  .type Reset_Handler, %function
Reset_Handler:

/* Call the clock system initialization function.*/
     bl  SystemInit
 80031b8:	f7ff fa9e 	bl	80026f8 <SystemInit>

/* Copy the data segment initializers from flash to SRAM */
  ldr r0, =_sdata
 80031bc:	480b      	ldr	r0, [pc, #44]	; (80031ec <LoopFillZerobss+0xe>)
  ldr r1, =_edata
 80031be:	490c      	ldr	r1, [pc, #48]	; (80031f0 <LoopFillZerobss+0x12>)
  ldr r2, =_sidata
 80031c0:	4a0c      	ldr	r2, [pc, #48]	; (80031f4 <LoopFillZerobss+0x16>)
  movs r3, #0
 80031c2:	2300      	movs	r3, #0
  b LoopCopyDataInit
 80031c4:	e002      	b.n	80031cc <LoopCopyDataInit>

080031c6 <CopyDataInit>:

CopyDataInit:
  ldr r4, [r2, r3]
 80031c6:	58d4      	ldr	r4, [r2, r3]
  str r4, [r0, r3]
 80031c8:	50c4      	str	r4, [r0, r3]
  adds r3, r3, #4
 80031ca:	3304      	adds	r3, #4

080031cc <LoopCopyDataInit>:

LoopCopyDataInit:
  adds r4, r0, r3
 80031cc:	18c4      	adds	r4, r0, r3
  cmp r4, r1
 80031ce:	428c      	cmp	r4, r1
  bcc CopyDataInit
 80031d0:	d3f9      	bcc.n	80031c6 <CopyDataInit>
  
/* Zero fill the bss segment. */
  ldr r2, =_sbss
 80031d2:	4a09      	ldr	r2, [pc, #36]	; (80031f8 <LoopFillZerobss+0x1a>)
  ldr r4, =_ebss
 80031d4:	4c09      	ldr	r4, [pc, #36]	; (80031fc <LoopFillZerobss+0x1e>)
  movs r3, #0
 80031d6:	2300      	movs	r3, #0
  b LoopFillZerobss
 80031d8:	e001      	b.n	80031de <LoopFillZerobss>

080031da <FillZerobss>:

FillZerobss:
  str  r3, [r2]
 80031da:	6013      	str	r3, [r2, #0]
  adds r2, r2, #4
 80031dc:	3204      	adds	r2, #4

080031de <LoopFillZerobss>:

LoopFillZerobss:
  cmp r2, r4
 80031de:	42a2      	cmp	r2, r4
  bcc FillZerobss
 80031e0:	d3fb      	bcc.n	80031da <FillZerobss>

/* Call static constructors */
    bl __libc_init_array
 80031e2:	f005 f84d 	bl	8008280 <__libc_init_array>
/* Call the application's entry point.*/
  bl main
 80031e6:	f7fd fd03 	bl	8000bf0 <main>
  bx lr
 80031ea:	4770      	bx	lr
  ldr r0, =_sdata
 80031ec:	20000000 	.word	0x20000000
  ldr r1, =_edata
 80031f0:	200004a8 	.word	0x200004a8
  ldr r2, =_sidata
 80031f4:	080099c4 	.word	0x080099c4
  ldr r2, =_sbss
 80031f8:	200004a8 	.word	0x200004a8
  ldr r4, =_ebss
 80031fc:	20002d5c 	.word	0x20002d5c

08003200 <ADC1_2_IRQHandler>:
 * @retval : None
*/
    .section .text.Default_Handler,"ax",%progbits
Default_Handler:
Infinite_Loop:
  b Infinite_Loop
 8003200:	e7fe      	b.n	8003200 <ADC1_2_IRQHandler>
	...

08003204 <HAL_InitTick>:
  *       implementation  in user file.
  * @param TickPriority Tick interrupt priority.
  * @retval HAL status
  */
__weak HAL_StatusTypeDef HAL_InitTick(uint32_t TickPriority)
{
 8003204:	b510      	push	{r4, lr}
 8003206:	4604      	mov	r4, r0
  /* Configure the SysTick to have interrupt in 1ms time basis*/
  if (HAL_SYSTICK_Config(SystemCoreClock / (1000U / uwTickFreq)) > 0U)
 8003208:	4b0e      	ldr	r3, [pc, #56]	; (8003244 <HAL_InitTick+0x40>)
 800320a:	7818      	ldrb	r0, [r3, #0]
 800320c:	f44f 737a 	mov.w	r3, #1000	; 0x3e8
 8003210:	fbb3 f3f0 	udiv	r3, r3, r0
 8003214:	4a0c      	ldr	r2, [pc, #48]	; (8003248 <HAL_InitTick+0x44>)
 8003216:	6810      	ldr	r0, [r2, #0]
 8003218:	fbb0 f0f3 	udiv	r0, r0, r3
 800321c:	f000 fb08 	bl	8003830 <HAL_SYSTICK_Config>
 8003220:	b968      	cbnz	r0, 800323e <HAL_InitTick+0x3a>
  {
    return HAL_ERROR;
  }

  /* Configure the SysTick IRQ priority */
  if (TickPriority < (1UL << __NVIC_PRIO_BITS))
 8003222:	2c0f      	cmp	r4, #15
 8003224:	d901      	bls.n	800322a <HAL_InitTick+0x26>
    HAL_NVIC_SetPriority(SysTick_IRQn, TickPriority, 0U);
    uwTickPrio = TickPriority;
  }
  else
  {
    return HAL_ERROR;
 8003226:	2001      	movs	r0, #1
 8003228:	e00a      	b.n	8003240 <HAL_InitTick+0x3c>
    HAL_NVIC_SetPriority(SysTick_IRQn, TickPriority, 0U);
 800322a:	2200      	movs	r2, #0
 800322c:	4621      	mov	r1, r4
 800322e:	f04f 30ff 	mov.w	r0, #4294967295
 8003232:	f000 fabb 	bl	80037ac <HAL_NVIC_SetPriority>
    uwTickPrio = TickPriority;
 8003236:	4b05      	ldr	r3, [pc, #20]	; (800324c <HAL_InitTick+0x48>)
 8003238:	601c      	str	r4, [r3, #0]
  }

  /* Return function status */
  return HAL_OK;
 800323a:	2000      	movs	r0, #0
 800323c:	e000      	b.n	8003240 <HAL_InitTick+0x3c>
    return HAL_ERROR;
 800323e:	2001      	movs	r0, #1
}
 8003240:	bd10      	pop	{r4, pc}
 8003242:	bf00      	nop
 8003244:	20000232 	.word	0x20000232
 8003248:	20000000 	.word	0x20000000
 800324c:	20000234 	.word	0x20000234

08003250 <HAL_Init>:
{
 8003250:	b508      	push	{r3, lr}
  __HAL_FLASH_PREFETCH_BUFFER_ENABLE();
 8003252:	4a07      	ldr	r2, [pc, #28]	; (8003270 <HAL_Init+0x20>)
 8003254:	6813      	ldr	r3, [r2, #0]
 8003256:	f043 0310 	orr.w	r3, r3, #16
 800325a:	6013      	str	r3, [r2, #0]
  HAL_NVIC_SetPriorityGrouping(NVIC_PRIORITYGROUP_4);
 800325c:	2003      	movs	r0, #3
 800325e:	f000 fa93 	bl	8003788 <HAL_NVIC_SetPriorityGrouping>
  HAL_InitTick(TICK_INT_PRIORITY);
 8003262:	200f      	movs	r0, #15
 8003264:	f7ff ffce 	bl	8003204 <HAL_InitTick>
  HAL_MspInit();
 8003268:	f7ff f8fe 	bl	8002468 <HAL_MspInit>
}
 800326c:	2000      	movs	r0, #0
 800326e:	bd08      	pop	{r3, pc}
 8003270:	40022000 	.word	0x40022000

08003274 <HAL_IncTick>:
  *      implementations in user file.
  * @retval None
  */
__weak void HAL_IncTick(void)
{
  uwTick += uwTickFreq;
 8003274:	4a03      	ldr	r2, [pc, #12]	; (8003284 <HAL_IncTick+0x10>)
 8003276:	6811      	ldr	r1, [r2, #0]
 8003278:	4b03      	ldr	r3, [pc, #12]	; (8003288 <HAL_IncTick+0x14>)
 800327a:	781b      	ldrb	r3, [r3, #0]
 800327c:	440b      	add	r3, r1
 800327e:	6013      	str	r3, [r2, #0]
}
 8003280:	4770      	bx	lr
 8003282:	bf00      	nop
 8003284:	20002784 	.word	0x20002784
 8003288:	20000232 	.word	0x20000232

0800328c <HAL_GetTick>:
  *       implementations in user file.
  * @retval tick value
  */
__weak uint32_t HAL_GetTick(void)
{
  return uwTick;
 800328c:	4b01      	ldr	r3, [pc, #4]	; (8003294 <HAL_GetTick+0x8>)
 800328e:	6818      	ldr	r0, [r3, #0]
}
 8003290:	4770      	bx	lr
 8003292:	bf00      	nop
 8003294:	20002784 	.word	0x20002784

08003298 <HAL_Delay>:
  *       implementations in user file.
  * @param Delay specifies the delay time length, in milliseconds.
  * @retval None
  */
__weak void HAL_Delay(uint32_t Delay)
{
 8003298:	b538      	push	{r3, r4, r5, lr}
 800329a:	4604      	mov	r4, r0
  uint32_t tickstart = HAL_GetTick();
 800329c:	f7ff fff6 	bl	800328c <HAL_GetTick>
 80032a0:	4605      	mov	r5, r0
  uint32_t wait = Delay;

  /* Add a freq to guarantee minimum wait */
  if (wait < HAL_MAX_DELAY)
 80032a2:	f1b4 3fff 	cmp.w	r4, #4294967295
 80032a6:	d002      	beq.n	80032ae <HAL_Delay+0x16>
  {
    wait += (uint32_t)(uwTickFreq);
 80032a8:	4b04      	ldr	r3, [pc, #16]	; (80032bc <HAL_Delay+0x24>)
 80032aa:	781b      	ldrb	r3, [r3, #0]
 80032ac:	441c      	add	r4, r3
  }

  while ((HAL_GetTick() - tickstart) < wait)
 80032ae:	f7ff ffed 	bl	800328c <HAL_GetTick>
 80032b2:	1b40      	subs	r0, r0, r5
 80032b4:	42a0      	cmp	r0, r4
 80032b6:	d3fa      	bcc.n	80032ae <HAL_Delay+0x16>
  {
  }
}
 80032b8:	bd38      	pop	{r3, r4, r5, pc}
 80032ba:	bf00      	nop
 80032bc:	20000232 	.word	0x20000232

080032c0 <ADC_DMAConvCplt>:
  * @brief  DMA transfer complete callback. 
  * @param  hdma: pointer to DMA handle.
  * @retval None
  */
void ADC_DMAConvCplt(DMA_HandleTypeDef *hdma)
{
 80032c0:	b508      	push	{r3, lr}
  /* Retrieve ADC handle corresponding to current DMA handle */
  ADC_HandleTypeDef* hadc = ( ADC_HandleTypeDef* )((DMA_HandleTypeDef* )hdma)->Parent;
 80032c2:	6a43      	ldr	r3, [r0, #36]	; 0x24
 
  /* Update state machine on conversion status if not in error state */
  if (HAL_IS_BIT_CLR(hadc->State, HAL_ADC_STATE_ERROR_INTERNAL | HAL_ADC_STATE_ERROR_DMA))
 80032c4:	6a9a      	ldr	r2, [r3, #40]	; 0x28
 80032c6:	f012 0f50 	tst.w	r2, #80	; 0x50
 80032ca:	d11e      	bne.n	800330a <ADC_DMAConvCplt+0x4a>
  {
    /* Update ADC state machine */
    SET_BIT(hadc->State, HAL_ADC_STATE_REG_EOC);
 80032cc:	6a9a      	ldr	r2, [r3, #40]	; 0x28
 80032ce:	f442 7200 	orr.w	r2, r2, #512	; 0x200
 80032d2:	629a      	str	r2, [r3, #40]	; 0x28
    /* Determine whether any further conversion upcoming on group regular     */
    /* by external trigger, continuous mode or scan sequence on going.        */
    /* Note: On STM32F1 devices, in case of sequencer enabled                 */
    /*       (several ranks selected), end of conversion flag is raised       */
    /*       at the end of the sequence.                                      */
    if(ADC_IS_SOFTWARE_START_REGULAR(hadc)        && 
 80032d4:	681a      	ldr	r2, [r3, #0]
 80032d6:	6892      	ldr	r2, [r2, #8]
 80032d8:	f402 2260 	and.w	r2, r2, #917504	; 0xe0000
 80032dc:	f5b2 2f60 	cmp.w	r2, #917504	; 0xe0000
 80032e0:	d003      	beq.n	80032ea <ADC_DMAConvCplt+0x2a>
    
    /* Conversion complete callback */
#if (USE_HAL_ADC_REGISTER_CALLBACKS == 1)
    hadc->ConvCpltCallback(hadc);
#else
    HAL_ADC_ConvCpltCallback(hadc);
 80032e2:	4618      	mov	r0, r3
 80032e4:	f7fd fb38 	bl	8000958 <HAL_ADC_ConvCpltCallback>
  else
  {
    /* Call DMA error callback */
    hadc->DMA_Handle->XferErrorCallback(hdma);
  }
}
 80032e8:	bd08      	pop	{r3, pc}
       (hadc->Init.ContinuousConvMode == DISABLE)   )
 80032ea:	7b1a      	ldrb	r2, [r3, #12]
    if(ADC_IS_SOFTWARE_START_REGULAR(hadc)        && 
 80032ec:	2a00      	cmp	r2, #0
 80032ee:	d1f8      	bne.n	80032e2 <ADC_DMAConvCplt+0x22>
      CLEAR_BIT(hadc->State, HAL_ADC_STATE_REG_BUSY);   
 80032f0:	6a9a      	ldr	r2, [r3, #40]	; 0x28
 80032f2:	f422 7280 	bic.w	r2, r2, #256	; 0x100
 80032f6:	629a      	str	r2, [r3, #40]	; 0x28
      if (HAL_IS_BIT_CLR(hadc->State, HAL_ADC_STATE_INJ_BUSY))
 80032f8:	6a9a      	ldr	r2, [r3, #40]	; 0x28
 80032fa:	f412 5f80 	tst.w	r2, #4096	; 0x1000
 80032fe:	d1f0      	bne.n	80032e2 <ADC_DMAConvCplt+0x22>
        SET_BIT(hadc->State, HAL_ADC_STATE_READY);
 8003300:	6a9a      	ldr	r2, [r3, #40]	; 0x28
 8003302:	f042 0201 	orr.w	r2, r2, #1
 8003306:	629a      	str	r2, [r3, #40]	; 0x28
 8003308:	e7eb      	b.n	80032e2 <ADC_DMAConvCplt+0x22>
    hadc->DMA_Handle->XferErrorCallback(hdma);
 800330a:	6a1b      	ldr	r3, [r3, #32]
 800330c:	6b1b      	ldr	r3, [r3, #48]	; 0x30
 800330e:	4798      	blx	r3
}
 8003310:	e7ea      	b.n	80032e8 <ADC_DMAConvCplt+0x28>

08003312 <ADC_DMAHalfConvCplt>:
  * @brief  DMA half transfer complete callback. 
  * @param  hdma: pointer to DMA handle.
  * @retval None
  */
void ADC_DMAHalfConvCplt(DMA_HandleTypeDef *hdma)   
{
 8003312:	b508      	push	{r3, lr}
  
  /* Half conversion callback */
#if (USE_HAL_ADC_REGISTER_CALLBACKS == 1)
    hadc->ConvHalfCpltCallback(hadc);
#else
  HAL_ADC_ConvHalfCpltCallback(hadc);
 8003314:	6a40      	ldr	r0, [r0, #36]	; 0x24
 8003316:	f7fd fafb 	bl	8000910 <HAL_ADC_ConvHalfCpltCallback>
#endif /* USE_HAL_ADC_REGISTER_CALLBACKS */
}
 800331a:	bd08      	pop	{r3, pc}

0800331c <HAL_ADC_ErrorCallback>:
}
 800331c:	4770      	bx	lr

0800331e <ADC_DMAError>:
  * @brief  DMA error callback 
  * @param  hdma: pointer to DMA handle.
  * @retval None
  */
void ADC_DMAError(DMA_HandleTypeDef *hdma)   
{
 800331e:	b508      	push	{r3, lr}
  /* Retrieve ADC handle corresponding to current DMA handle */
  ADC_HandleTypeDef* hadc = ( ADC_HandleTypeDef* )((DMA_HandleTypeDef* )hdma)->Parent;
 8003320:	6a40      	ldr	r0, [r0, #36]	; 0x24
  
  /* Set ADC state */
  SET_BIT(hadc->State, HAL_ADC_STATE_ERROR_DMA);
 8003322:	6a83      	ldr	r3, [r0, #40]	; 0x28
 8003324:	f043 0340 	orr.w	r3, r3, #64	; 0x40
 8003328:	6283      	str	r3, [r0, #40]	; 0x28
  
  /* Set ADC error code to DMA error */
  SET_BIT(hadc->ErrorCode, HAL_ADC_ERROR_DMA);
 800332a:	6ac3      	ldr	r3, [r0, #44]	; 0x2c
 800332c:	f043 0304 	orr.w	r3, r3, #4
 8003330:	62c3      	str	r3, [r0, #44]	; 0x2c
  
  /* Error callback */
#if (USE_HAL_ADC_REGISTER_CALLBACKS == 1)
  hadc->ErrorCallback(hadc);
#else
  HAL_ADC_ErrorCallback(hadc);
 8003332:	f7ff fff3 	bl	800331c <HAL_ADC_ErrorCallback>
#endif /* USE_HAL_ADC_REGISTER_CALLBACKS */
}
 8003336:	bd08      	pop	{r3, pc}

08003338 <HAL_ADC_ConfigChannel>:
{ 
 8003338:	b430      	push	{r4, r5}
 800333a:	b082      	sub	sp, #8
  __IO uint32_t wait_loop_index = 0U;
 800333c:	2200      	movs	r2, #0
 800333e:	9201      	str	r2, [sp, #4]
  __HAL_LOCK(hadc);
 8003340:	f890 2024 	ldrb.w	r2, [r0, #36]	; 0x24
 8003344:	2a01      	cmp	r2, #1
 8003346:	f000 808b 	beq.w	8003460 <HAL_ADC_ConfigChannel+0x128>
 800334a:	4603      	mov	r3, r0
 800334c:	2201      	movs	r2, #1
 800334e:	f880 2024 	strb.w	r2, [r0, #36]	; 0x24
  if (sConfig->Rank < 7U)
 8003352:	684a      	ldr	r2, [r1, #4]
 8003354:	2a06      	cmp	r2, #6
 8003356:	d829      	bhi.n	80033ac <HAL_ADC_ConfigChannel+0x74>
    MODIFY_REG(hadc->Instance->SQR3                        ,
 8003358:	6805      	ldr	r5, [r0, #0]
 800335a:	6b68      	ldr	r0, [r5, #52]	; 0x34
 800335c:	eb02 0282 	add.w	r2, r2, r2, lsl #2
 8003360:	3a05      	subs	r2, #5
 8003362:	241f      	movs	r4, #31
 8003364:	4094      	lsls	r4, r2
 8003366:	ea20 0004 	bic.w	r0, r0, r4
 800336a:	680c      	ldr	r4, [r1, #0]
 800336c:	fa04 f202 	lsl.w	r2, r4, r2
 8003370:	4302      	orrs	r2, r0
 8003372:	636a      	str	r2, [r5, #52]	; 0x34
  if (sConfig->Channel >= ADC_CHANNEL_10)
 8003374:	680a      	ldr	r2, [r1, #0]
 8003376:	2a09      	cmp	r2, #9
 8003378:	d938      	bls.n	80033ec <HAL_ADC_ConfigChannel+0xb4>
    MODIFY_REG(hadc->Instance->SMPR1                             ,
 800337a:	681d      	ldr	r5, [r3, #0]
 800337c:	68e8      	ldr	r0, [r5, #12]
 800337e:	eb02 0242 	add.w	r2, r2, r2, lsl #1
 8003382:	3a1e      	subs	r2, #30
 8003384:	2407      	movs	r4, #7
 8003386:	4094      	lsls	r4, r2
 8003388:	ea20 0004 	bic.w	r0, r0, r4
 800338c:	688c      	ldr	r4, [r1, #8]
 800338e:	fa04 f202 	lsl.w	r2, r4, r2
 8003392:	4302      	orrs	r2, r0
 8003394:	60ea      	str	r2, [r5, #12]
  if ((sConfig->Channel == ADC_CHANNEL_TEMPSENSOR) ||
 8003396:	680a      	ldr	r2, [r1, #0]
 8003398:	3a10      	subs	r2, #16
 800339a:	2a01      	cmp	r2, #1
 800339c:	d934      	bls.n	8003408 <HAL_ADC_ConfigChannel+0xd0>
  HAL_StatusTypeDef tmp_hal_status = HAL_OK;
 800339e:	2000      	movs	r0, #0
  __HAL_UNLOCK(hadc);
 80033a0:	2200      	movs	r2, #0
 80033a2:	f883 2024 	strb.w	r2, [r3, #36]	; 0x24
}
 80033a6:	b002      	add	sp, #8
 80033a8:	bc30      	pop	{r4, r5}
 80033aa:	4770      	bx	lr
  else if (sConfig->Rank < 13U)
 80033ac:	2a0c      	cmp	r2, #12
 80033ae:	d80e      	bhi.n	80033ce <HAL_ADC_ConfigChannel+0x96>
    MODIFY_REG(hadc->Instance->SQR2                        ,
 80033b0:	6805      	ldr	r5, [r0, #0]
 80033b2:	6b28      	ldr	r0, [r5, #48]	; 0x30
 80033b4:	eb02 0282 	add.w	r2, r2, r2, lsl #2
 80033b8:	3a23      	subs	r2, #35	; 0x23
 80033ba:	241f      	movs	r4, #31
 80033bc:	4094      	lsls	r4, r2
 80033be:	ea20 0004 	bic.w	r0, r0, r4
 80033c2:	680c      	ldr	r4, [r1, #0]
 80033c4:	fa04 f202 	lsl.w	r2, r4, r2
 80033c8:	4302      	orrs	r2, r0
 80033ca:	632a      	str	r2, [r5, #48]	; 0x30
 80033cc:	e7d2      	b.n	8003374 <HAL_ADC_ConfigChannel+0x3c>
    MODIFY_REG(hadc->Instance->SQR1                        ,
 80033ce:	6805      	ldr	r5, [r0, #0]
 80033d0:	6ae8      	ldr	r0, [r5, #44]	; 0x2c
 80033d2:	eb02 0282 	add.w	r2, r2, r2, lsl #2
 80033d6:	3a41      	subs	r2, #65	; 0x41
 80033d8:	241f      	movs	r4, #31
 80033da:	4094      	lsls	r4, r2
 80033dc:	ea20 0004 	bic.w	r0, r0, r4
 80033e0:	680c      	ldr	r4, [r1, #0]
 80033e2:	fa04 f202 	lsl.w	r2, r4, r2
 80033e6:	4302      	orrs	r2, r0
 80033e8:	62ea      	str	r2, [r5, #44]	; 0x2c
 80033ea:	e7c3      	b.n	8003374 <HAL_ADC_ConfigChannel+0x3c>
    MODIFY_REG(hadc->Instance->SMPR2                             ,
 80033ec:	681d      	ldr	r5, [r3, #0]
 80033ee:	6928      	ldr	r0, [r5, #16]
 80033f0:	eb02 0242 	add.w	r2, r2, r2, lsl #1
 80033f4:	2407      	movs	r4, #7
 80033f6:	4094      	lsls	r4, r2
 80033f8:	ea20 0004 	bic.w	r0, r0, r4
 80033fc:	688c      	ldr	r4, [r1, #8]
 80033fe:	fa04 f202 	lsl.w	r2, r4, r2
 8003402:	4302      	orrs	r2, r0
 8003404:	612a      	str	r2, [r5, #16]
 8003406:	e7c6      	b.n	8003396 <HAL_ADC_ConfigChannel+0x5e>
    if (hadc->Instance == ADC1)
 8003408:	681a      	ldr	r2, [r3, #0]
 800340a:	4816      	ldr	r0, [pc, #88]	; (8003464 <HAL_ADC_ConfigChannel+0x12c>)
 800340c:	4282      	cmp	r2, r0
 800340e:	d005      	beq.n	800341c <HAL_ADC_ConfigChannel+0xe4>
      SET_BIT(hadc->State, HAL_ADC_STATE_ERROR_CONFIG);
 8003410:	6a9a      	ldr	r2, [r3, #40]	; 0x28
 8003412:	f042 0220 	orr.w	r2, r2, #32
 8003416:	629a      	str	r2, [r3, #40]	; 0x28
      tmp_hal_status = HAL_ERROR;
 8003418:	2001      	movs	r0, #1
 800341a:	e7c1      	b.n	80033a0 <HAL_ADC_ConfigChannel+0x68>
      if (READ_BIT(hadc->Instance->CR2, ADC_CR2_TSVREFE) == RESET)
 800341c:	6890      	ldr	r0, [r2, #8]
 800341e:	f410 0f00 	tst.w	r0, #8388608	; 0x800000
 8003422:	d11b      	bne.n	800345c <HAL_ADC_ConfigChannel+0x124>
        SET_BIT(hadc->Instance->CR2, ADC_CR2_TSVREFE);
 8003424:	6890      	ldr	r0, [r2, #8]
 8003426:	f440 0000 	orr.w	r0, r0, #8388608	; 0x800000
 800342a:	6090      	str	r0, [r2, #8]
        if (sConfig->Channel == ADC_CHANNEL_TEMPSENSOR)
 800342c:	680a      	ldr	r2, [r1, #0]
 800342e:	2a10      	cmp	r2, #16
 8003430:	d001      	beq.n	8003436 <HAL_ADC_ConfigChannel+0xfe>
  HAL_StatusTypeDef tmp_hal_status = HAL_OK;
 8003432:	2000      	movs	r0, #0
 8003434:	e7b4      	b.n	80033a0 <HAL_ADC_ConfigChannel+0x68>
          wait_loop_index = (ADC_TEMPSENSOR_DELAY_US * (SystemCoreClock / 1000000U));
 8003436:	4a0c      	ldr	r2, [pc, #48]	; (8003468 <HAL_ADC_ConfigChannel+0x130>)
 8003438:	6812      	ldr	r2, [r2, #0]
 800343a:	490c      	ldr	r1, [pc, #48]	; (800346c <HAL_ADC_ConfigChannel+0x134>)
 800343c:	fba1 1202 	umull	r1, r2, r1, r2
 8003440:	0c92      	lsrs	r2, r2, #18
 8003442:	eb02 0282 	add.w	r2, r2, r2, lsl #2
 8003446:	0052      	lsls	r2, r2, #1
 8003448:	9201      	str	r2, [sp, #4]
          while(wait_loop_index != 0U)
 800344a:	e002      	b.n	8003452 <HAL_ADC_ConfigChannel+0x11a>
            wait_loop_index--;
 800344c:	9a01      	ldr	r2, [sp, #4]
 800344e:	3a01      	subs	r2, #1
 8003450:	9201      	str	r2, [sp, #4]
          while(wait_loop_index != 0U)
 8003452:	9a01      	ldr	r2, [sp, #4]
 8003454:	2a00      	cmp	r2, #0
 8003456:	d1f9      	bne.n	800344c <HAL_ADC_ConfigChannel+0x114>
  HAL_StatusTypeDef tmp_hal_status = HAL_OK;
 8003458:	2000      	movs	r0, #0
 800345a:	e7a1      	b.n	80033a0 <HAL_ADC_ConfigChannel+0x68>
 800345c:	2000      	movs	r0, #0
 800345e:	e79f      	b.n	80033a0 <HAL_ADC_ConfigChannel+0x68>
  __HAL_LOCK(hadc);
 8003460:	2002      	movs	r0, #2
 8003462:	e7a0      	b.n	80033a6 <HAL_ADC_ConfigChannel+0x6e>
 8003464:	40012400 	.word	0x40012400
 8003468:	20000000 	.word	0x20000000
 800346c:	431bde83 	.word	0x431bde83

08003470 <ADC_Enable>:
{
 8003470:	b530      	push	{r4, r5, lr}
 8003472:	b083      	sub	sp, #12
  __IO uint32_t wait_loop_index = 0U;
 8003474:	2300      	movs	r3, #0
 8003476:	9301      	str	r3, [sp, #4]
  if (ADC_IS_ENABLE(hadc) == RESET)
 8003478:	6803      	ldr	r3, [r0, #0]
 800347a:	689a      	ldr	r2, [r3, #8]
 800347c:	f012 0f01 	tst.w	r2, #1
 8003480:	d132      	bne.n	80034e8 <ADC_Enable+0x78>
 8003482:	4604      	mov	r4, r0
    __HAL_ADC_ENABLE(hadc);
 8003484:	689a      	ldr	r2, [r3, #8]
 8003486:	f042 0201 	orr.w	r2, r2, #1
 800348a:	609a      	str	r2, [r3, #8]
    wait_loop_index = (ADC_STAB_DELAY_US * (SystemCoreClock / 1000000U));
 800348c:	4b18      	ldr	r3, [pc, #96]	; (80034f0 <ADC_Enable+0x80>)
 800348e:	681b      	ldr	r3, [r3, #0]
 8003490:	4a18      	ldr	r2, [pc, #96]	; (80034f4 <ADC_Enable+0x84>)
 8003492:	fba2 2303 	umull	r2, r3, r2, r3
 8003496:	0c9b      	lsrs	r3, r3, #18
 8003498:	9301      	str	r3, [sp, #4]
    while(wait_loop_index != 0U)
 800349a:	9b01      	ldr	r3, [sp, #4]
 800349c:	b11b      	cbz	r3, 80034a6 <ADC_Enable+0x36>
      wait_loop_index--;
 800349e:	9b01      	ldr	r3, [sp, #4]
 80034a0:	3b01      	subs	r3, #1
 80034a2:	9301      	str	r3, [sp, #4]
 80034a4:	e7f9      	b.n	800349a <ADC_Enable+0x2a>
    tickstart = HAL_GetTick();
 80034a6:	f7ff fef1 	bl	800328c <HAL_GetTick>
 80034aa:	4605      	mov	r5, r0
    while(ADC_IS_ENABLE(hadc) == RESET)
 80034ac:	6823      	ldr	r3, [r4, #0]
 80034ae:	689b      	ldr	r3, [r3, #8]
 80034b0:	f013 0f01 	tst.w	r3, #1
 80034b4:	d116      	bne.n	80034e4 <ADC_Enable+0x74>
      if((HAL_GetTick() - tickstart) > ADC_ENABLE_TIMEOUT)
 80034b6:	f7ff fee9 	bl	800328c <HAL_GetTick>
 80034ba:	1b43      	subs	r3, r0, r5
 80034bc:	2b02      	cmp	r3, #2
 80034be:	d9f5      	bls.n	80034ac <ADC_Enable+0x3c>
        if(ADC_IS_ENABLE(hadc) == RESET)
 80034c0:	6823      	ldr	r3, [r4, #0]
 80034c2:	689b      	ldr	r3, [r3, #8]
 80034c4:	f013 0f01 	tst.w	r3, #1
 80034c8:	d1f0      	bne.n	80034ac <ADC_Enable+0x3c>
          SET_BIT(hadc->State, HAL_ADC_STATE_ERROR_INTERNAL);
 80034ca:	6aa3      	ldr	r3, [r4, #40]	; 0x28
 80034cc:	f043 0310 	orr.w	r3, r3, #16
 80034d0:	62a3      	str	r3, [r4, #40]	; 0x28
          SET_BIT(hadc->ErrorCode, HAL_ADC_ERROR_INTERNAL);
 80034d2:	6ae3      	ldr	r3, [r4, #44]	; 0x2c
 80034d4:	f043 0301 	orr.w	r3, r3, #1
 80034d8:	62e3      	str	r3, [r4, #44]	; 0x2c
          __HAL_UNLOCK(hadc);
 80034da:	2300      	movs	r3, #0
 80034dc:	f884 3024 	strb.w	r3, [r4, #36]	; 0x24
          return HAL_ERROR;
 80034e0:	2001      	movs	r0, #1
 80034e2:	e002      	b.n	80034ea <ADC_Enable+0x7a>
  return HAL_OK;
 80034e4:	2000      	movs	r0, #0
 80034e6:	e000      	b.n	80034ea <ADC_Enable+0x7a>
 80034e8:	2000      	movs	r0, #0
}
 80034ea:	b003      	add	sp, #12
 80034ec:	bd30      	pop	{r4, r5, pc}
 80034ee:	bf00      	nop
 80034f0:	20000000 	.word	0x20000000
 80034f4:	431bde83 	.word	0x431bde83

080034f8 <HAL_ADC_Start_DMA>:
{
 80034f8:	b5f8      	push	{r3, r4, r5, r6, r7, lr}
 80034fa:	4604      	mov	r4, r0
 80034fc:	460d      	mov	r5, r1
 80034fe:	4616      	mov	r6, r2
  if(ADC_MULTIMODE_IS_ENABLE(hadc) == RESET)
 8003500:	6803      	ldr	r3, [r0, #0]
 8003502:	4944      	ldr	r1, [pc, #272]	; (8003614 <HAL_ADC_Start_DMA+0x11c>)
 8003504:	428b      	cmp	r3, r1
 8003506:	d059      	beq.n	80035bc <HAL_ADC_Start_DMA+0xc4>
 8003508:	4a43      	ldr	r2, [pc, #268]	; (8003618 <HAL_ADC_Start_DMA+0x120>)
 800350a:	4293      	cmp	r3, r2
 800350c:	d056      	beq.n	80035bc <HAL_ADC_Start_DMA+0xc4>
    __HAL_LOCK(hadc);
 800350e:	f894 3024 	ldrb.w	r3, [r4, #36]	; 0x24
 8003512:	2b01      	cmp	r3, #1
 8003514:	d07c      	beq.n	8003610 <HAL_ADC_Start_DMA+0x118>
 8003516:	2301      	movs	r3, #1
 8003518:	f884 3024 	strb.w	r3, [r4, #36]	; 0x24
    tmp_hal_status = ADC_Enable(hadc);
 800351c:	4620      	mov	r0, r4
 800351e:	f7ff ffa7 	bl	8003470 <ADC_Enable>
    if (tmp_hal_status == HAL_OK)
 8003522:	4607      	mov	r7, r0
 8003524:	2800      	cmp	r0, #0
 8003526:	d16e      	bne.n	8003606 <HAL_ADC_Start_DMA+0x10e>
      ADC_STATE_CLR_SET(hadc->State,
 8003528:	6aa3      	ldr	r3, [r4, #40]	; 0x28
 800352a:	f423 6370 	bic.w	r3, r3, #3840	; 0xf00
 800352e:	f023 0301 	bic.w	r3, r3, #1
 8003532:	f443 7380 	orr.w	r3, r3, #256	; 0x100
 8003536:	62a3      	str	r3, [r4, #40]	; 0x28
    if (ADC_NONMULTIMODE_OR_MULTIMODEMASTER(hadc))
 8003538:	6822      	ldr	r2, [r4, #0]
 800353a:	4b37      	ldr	r3, [pc, #220]	; (8003618 <HAL_ADC_Start_DMA+0x120>)
 800353c:	429a      	cmp	r2, r3
 800353e:	d044      	beq.n	80035ca <HAL_ADC_Start_DMA+0xd2>
      CLEAR_BIT(hadc->State, HAL_ADC_STATE_MULTIMODE_SLAVE);
 8003540:	6aa3      	ldr	r3, [r4, #40]	; 0x28
 8003542:	f423 1380 	bic.w	r3, r3, #1048576	; 0x100000
 8003546:	62a3      	str	r3, [r4, #40]	; 0x28
      if (READ_BIT(hadc->Instance->CR1, ADC_CR1_JAUTO) != RESET)
 8003548:	6853      	ldr	r3, [r2, #4]
 800354a:	f413 6f80 	tst.w	r3, #1024	; 0x400
 800354e:	d005      	beq.n	800355c <HAL_ADC_Start_DMA+0x64>
        ADC_STATE_CLR_SET(hadc->State, HAL_ADC_STATE_INJ_EOC, HAL_ADC_STATE_INJ_BUSY);  
 8003550:	6aa3      	ldr	r3, [r4, #40]	; 0x28
 8003552:	f423 5340 	bic.w	r3, r3, #12288	; 0x3000
 8003556:	f443 5380 	orr.w	r3, r3, #4096	; 0x1000
 800355a:	62a3      	str	r3, [r4, #40]	; 0x28
      if (HAL_IS_BIT_SET(hadc->State, HAL_ADC_STATE_INJ_BUSY))
 800355c:	6aa3      	ldr	r3, [r4, #40]	; 0x28
 800355e:	f413 5f80 	tst.w	r3, #4096	; 0x1000
 8003562:	d048      	beq.n	80035f6 <HAL_ADC_Start_DMA+0xfe>
        CLEAR_BIT(hadc->ErrorCode, (HAL_ADC_ERROR_OVR | HAL_ADC_ERROR_DMA));         
 8003564:	6ae3      	ldr	r3, [r4, #44]	; 0x2c
 8003566:	f023 0306 	bic.w	r3, r3, #6
 800356a:	62e3      	str	r3, [r4, #44]	; 0x2c
      __HAL_UNLOCK(hadc);
 800356c:	2300      	movs	r3, #0
 800356e:	f884 3024 	strb.w	r3, [r4, #36]	; 0x24
      hadc->DMA_Handle->XferCpltCallback = ADC_DMAConvCplt;
 8003572:	6a23      	ldr	r3, [r4, #32]
 8003574:	4a29      	ldr	r2, [pc, #164]	; (800361c <HAL_ADC_Start_DMA+0x124>)
 8003576:	629a      	str	r2, [r3, #40]	; 0x28
      hadc->DMA_Handle->XferHalfCpltCallback = ADC_DMAHalfConvCplt;
 8003578:	6a23      	ldr	r3, [r4, #32]
 800357a:	4a29      	ldr	r2, [pc, #164]	; (8003620 <HAL_ADC_Start_DMA+0x128>)
 800357c:	62da      	str	r2, [r3, #44]	; 0x2c
      hadc->DMA_Handle->XferErrorCallback = ADC_DMAError;
 800357e:	6a23      	ldr	r3, [r4, #32]
 8003580:	4a28      	ldr	r2, [pc, #160]	; (8003624 <HAL_ADC_Start_DMA+0x12c>)
 8003582:	631a      	str	r2, [r3, #48]	; 0x30
      __HAL_ADC_CLEAR_FLAG(hadc, ADC_FLAG_EOC);
 8003584:	6823      	ldr	r3, [r4, #0]
 8003586:	f06f 0202 	mvn.w	r2, #2
 800358a:	601a      	str	r2, [r3, #0]
      SET_BIT(hadc->Instance->CR2, ADC_CR2_DMA);
 800358c:	6822      	ldr	r2, [r4, #0]
 800358e:	6893      	ldr	r3, [r2, #8]
 8003590:	f443 7380 	orr.w	r3, r3, #256	; 0x100
 8003594:	6093      	str	r3, [r2, #8]
      HAL_DMA_Start_IT(hadc->DMA_Handle, (uint32_t)&hadc->Instance->DR, (uint32_t)pData, Length);
 8003596:	6821      	ldr	r1, [r4, #0]
 8003598:	4633      	mov	r3, r6
 800359a:	462a      	mov	r2, r5
 800359c:	314c      	adds	r1, #76	; 0x4c
 800359e:	6a20      	ldr	r0, [r4, #32]
 80035a0:	f000 f9a8 	bl	80038f4 <HAL_DMA_Start_IT>
      if (ADC_IS_SOFTWARE_START_REGULAR(hadc))
 80035a4:	6823      	ldr	r3, [r4, #0]
 80035a6:	689a      	ldr	r2, [r3, #8]
 80035a8:	f402 2260 	and.w	r2, r2, #917504	; 0xe0000
 80035ac:	f5b2 2f60 	cmp.w	r2, #917504	; 0xe0000
 80035b0:	d024      	beq.n	80035fc <HAL_ADC_Start_DMA+0x104>
        SET_BIT(hadc->Instance->CR2, ADC_CR2_EXTTRIG);
 80035b2:	689a      	ldr	r2, [r3, #8]
 80035b4:	f442 1280 	orr.w	r2, r2, #1048576	; 0x100000
 80035b8:	609a      	str	r2, [r3, #8]
 80035ba:	e027      	b.n	800360c <HAL_ADC_Start_DMA+0x114>
  if(ADC_MULTIMODE_IS_ENABLE(hadc) == RESET)
 80035bc:	4b15      	ldr	r3, [pc, #84]	; (8003614 <HAL_ADC_Start_DMA+0x11c>)
 80035be:	685b      	ldr	r3, [r3, #4]
 80035c0:	f413 2f70 	tst.w	r3, #983040	; 0xf0000
 80035c4:	d0a3      	beq.n	800350e <HAL_ADC_Start_DMA+0x16>
    tmp_hal_status = HAL_ERROR;
 80035c6:	2701      	movs	r7, #1
 80035c8:	e020      	b.n	800360c <HAL_ADC_Start_DMA+0x114>
    if (ADC_NONMULTIMODE_OR_MULTIMODEMASTER(hadc))
 80035ca:	f5a3 6380 	sub.w	r3, r3, #1024	; 0x400
 80035ce:	685b      	ldr	r3, [r3, #4]
 80035d0:	f413 2f70 	tst.w	r3, #983040	; 0xf0000
 80035d4:	d0b4      	beq.n	8003540 <HAL_ADC_Start_DMA+0x48>
      SET_BIT(hadc->State, HAL_ADC_STATE_MULTIMODE_SLAVE);
 80035d6:	6aa3      	ldr	r3, [r4, #40]	; 0x28
 80035d8:	f443 1380 	orr.w	r3, r3, #1048576	; 0x100000
 80035dc:	62a3      	str	r3, [r4, #40]	; 0x28
      if (ADC_MULTIMODE_AUTO_INJECTED(hadc))
 80035de:	4b0d      	ldr	r3, [pc, #52]	; (8003614 <HAL_ADC_Start_DMA+0x11c>)
 80035e0:	685b      	ldr	r3, [r3, #4]
 80035e2:	f413 6f80 	tst.w	r3, #1024	; 0x400
 80035e6:	d0b9      	beq.n	800355c <HAL_ADC_Start_DMA+0x64>
        ADC_STATE_CLR_SET(hadc->State, HAL_ADC_STATE_INJ_EOC, HAL_ADC_STATE_INJ_BUSY);
 80035e8:	6aa3      	ldr	r3, [r4, #40]	; 0x28
 80035ea:	f423 5340 	bic.w	r3, r3, #12288	; 0x3000
 80035ee:	f443 5380 	orr.w	r3, r3, #4096	; 0x1000
 80035f2:	62a3      	str	r3, [r4, #40]	; 0x28
 80035f4:	e7b2      	b.n	800355c <HAL_ADC_Start_DMA+0x64>
        ADC_CLEAR_ERRORCODE(hadc);
 80035f6:	2300      	movs	r3, #0
 80035f8:	62e3      	str	r3, [r4, #44]	; 0x2c
 80035fa:	e7b7      	b.n	800356c <HAL_ADC_Start_DMA+0x74>
        SET_BIT(hadc->Instance->CR2, (ADC_CR2_SWSTART | ADC_CR2_EXTTRIG));
 80035fc:	689a      	ldr	r2, [r3, #8]
 80035fe:	f442 02a0 	orr.w	r2, r2, #5242880	; 0x500000
 8003602:	609a      	str	r2, [r3, #8]
 8003604:	e002      	b.n	800360c <HAL_ADC_Start_DMA+0x114>
      __HAL_UNLOCK(hadc);
 8003606:	2300      	movs	r3, #0
 8003608:	f884 3024 	strb.w	r3, [r4, #36]	; 0x24
}
 800360c:	4638      	mov	r0, r7
 800360e:	bdf8      	pop	{r3, r4, r5, r6, r7, pc}
    __HAL_LOCK(hadc);
 8003610:	2702      	movs	r7, #2
 8003612:	e7fb      	b.n	800360c <HAL_ADC_Start_DMA+0x114>
 8003614:	40012400 	.word	0x40012400
 8003618:	40012800 	.word	0x40012800
 800361c:	080032c1 	.word	0x080032c1
 8003620:	08003313 	.word	0x08003313
 8003624:	0800331f 	.word	0x0800331f

08003628 <ADC_ConversionStop_Disable>:
{
 8003628:	b538      	push	{r3, r4, r5, lr}
  if (ADC_IS_ENABLE(hadc) != RESET)
 800362a:	6803      	ldr	r3, [r0, #0]
 800362c:	689a      	ldr	r2, [r3, #8]
 800362e:	f012 0f01 	tst.w	r2, #1
 8003632:	d101      	bne.n	8003638 <ADC_ConversionStop_Disable+0x10>
  return HAL_OK;
 8003634:	2000      	movs	r0, #0
}
 8003636:	bd38      	pop	{r3, r4, r5, pc}
 8003638:	4604      	mov	r4, r0
    __HAL_ADC_DISABLE(hadc);
 800363a:	689a      	ldr	r2, [r3, #8]
 800363c:	f022 0201 	bic.w	r2, r2, #1
 8003640:	609a      	str	r2, [r3, #8]
    tickstart = HAL_GetTick();
 8003642:	f7ff fe23 	bl	800328c <HAL_GetTick>
 8003646:	4605      	mov	r5, r0
    while(ADC_IS_ENABLE(hadc) != RESET)
 8003648:	6823      	ldr	r3, [r4, #0]
 800364a:	689b      	ldr	r3, [r3, #8]
 800364c:	f013 0f01 	tst.w	r3, #1
 8003650:	d013      	beq.n	800367a <ADC_ConversionStop_Disable+0x52>
      if((HAL_GetTick() - tickstart) > ADC_DISABLE_TIMEOUT)
 8003652:	f7ff fe1b 	bl	800328c <HAL_GetTick>
 8003656:	1b43      	subs	r3, r0, r5
 8003658:	2b02      	cmp	r3, #2
 800365a:	d9f5      	bls.n	8003648 <ADC_ConversionStop_Disable+0x20>
        if(ADC_IS_ENABLE(hadc) != RESET)
 800365c:	6823      	ldr	r3, [r4, #0]
 800365e:	689b      	ldr	r3, [r3, #8]
 8003660:	f013 0f01 	tst.w	r3, #1
 8003664:	d0f0      	beq.n	8003648 <ADC_ConversionStop_Disable+0x20>
          SET_BIT(hadc->State, HAL_ADC_STATE_ERROR_INTERNAL);
 8003666:	6aa3      	ldr	r3, [r4, #40]	; 0x28
 8003668:	f043 0310 	orr.w	r3, r3, #16
 800366c:	62a3      	str	r3, [r4, #40]	; 0x28
          SET_BIT(hadc->ErrorCode, HAL_ADC_ERROR_INTERNAL);
 800366e:	6ae3      	ldr	r3, [r4, #44]	; 0x2c
 8003670:	f043 0301 	orr.w	r3, r3, #1
 8003674:	62e3      	str	r3, [r4, #44]	; 0x2c
          return HAL_ERROR;
 8003676:	2001      	movs	r0, #1
 8003678:	e7dd      	b.n	8003636 <ADC_ConversionStop_Disable+0xe>
  return HAL_OK;
 800367a:	2000      	movs	r0, #0
 800367c:	e7db      	b.n	8003636 <ADC_ConversionStop_Disable+0xe>
	...

08003680 <HAL_ADC_Init>:
  if(hadc == NULL)
 8003680:	2800      	cmp	r0, #0
 8003682:	d07b      	beq.n	800377c <HAL_ADC_Init+0xfc>
{
 8003684:	b570      	push	{r4, r5, r6, lr}
 8003686:	4604      	mov	r4, r0
  if (hadc->State == HAL_ADC_STATE_RESET)
 8003688:	6a83      	ldr	r3, [r0, #40]	; 0x28
 800368a:	2b00      	cmp	r3, #0
 800368c:	d04d      	beq.n	800372a <HAL_ADC_Init+0xaa>
  tmp_hal_status = ADC_ConversionStop_Disable(hadc);
 800368e:	4620      	mov	r0, r4
 8003690:	f7ff ffca 	bl	8003628 <ADC_ConversionStop_Disable>
  if (HAL_IS_BIT_CLR(hadc->State, HAL_ADC_STATE_ERROR_INTERNAL) &&
 8003694:	6aa3      	ldr	r3, [r4, #40]	; 0x28
 8003696:	f013 0310 	ands.w	r3, r3, #16
 800369a:	d169      	bne.n	8003770 <HAL_ADC_Init+0xf0>
 800369c:	2800      	cmp	r0, #0
 800369e:	d167      	bne.n	8003770 <HAL_ADC_Init+0xf0>
    ADC_STATE_CLR_SET(hadc->State,
 80036a0:	6aa2      	ldr	r2, [r4, #40]	; 0x28
 80036a2:	f422 5288 	bic.w	r2, r2, #4352	; 0x1100
 80036a6:	f022 0202 	bic.w	r2, r2, #2
 80036aa:	f042 0202 	orr.w	r2, r2, #2
 80036ae:	62a2      	str	r2, [r4, #40]	; 0x28
    tmp_cr2 |= (hadc->Init.DataAlign                                          |
 80036b0:	6862      	ldr	r2, [r4, #4]
                ADC_CFGR_EXTSEL(hadc, hadc->Init.ExternalTrigConv)            |
 80036b2:	69e1      	ldr	r1, [r4, #28]
    tmp_cr2 |= (hadc->Init.DataAlign                                          |
 80036b4:	430a      	orrs	r2, r1
                ADC_CR2_CONTINUOUS((uint32_t)hadc->Init.ContinuousConvMode)   );
 80036b6:	7b21      	ldrb	r1, [r4, #12]
                ADC_CFGR_EXTSEL(hadc, hadc->Init.ExternalTrigConv)            |
 80036b8:	ea42 0241 	orr.w	r2, r2, r1, lsl #1
    tmp_cr1 |= (ADC_CR1_SCAN_SET(hadc->Init.ScanConvMode));
 80036bc:	68a5      	ldr	r5, [r4, #8]
 80036be:	f5b5 7f80 	cmp.w	r5, #256	; 0x100
 80036c2:	d002      	beq.n	80036ca <HAL_ADC_Init+0x4a>
 80036c4:	2d01      	cmp	r5, #1
 80036c6:	d036      	beq.n	8003736 <HAL_ADC_Init+0xb6>
 80036c8:	461d      	mov	r5, r3
    if (hadc->Init.DiscontinuousConvMode == ENABLE)
 80036ca:	7d26      	ldrb	r6, [r4, #20]
 80036cc:	2e01      	cmp	r6, #1
 80036ce:	d035      	beq.n	800373c <HAL_ADC_Init+0xbc>
      MODIFY_REG(hadc->Instance->CR1,
 80036d0:	6826      	ldr	r6, [r4, #0]
 80036d2:	6871      	ldr	r1, [r6, #4]
 80036d4:	f421 4169 	bic.w	r1, r1, #59648	; 0xe900
 80036d8:	4329      	orrs	r1, r5
 80036da:	6071      	str	r1, [r6, #4]
      MODIFY_REG(hadc->Instance->CR2,
 80036dc:	6825      	ldr	r5, [r4, #0]
 80036de:	68ae      	ldr	r6, [r5, #8]
 80036e0:	4927      	ldr	r1, [pc, #156]	; (8003780 <HAL_ADC_Init+0x100>)
 80036e2:	4031      	ands	r1, r6
 80036e4:	4311      	orrs	r1, r2
 80036e6:	60a9      	str	r1, [r5, #8]
    if (ADC_CR1_SCAN_SET(hadc->Init.ScanConvMode) == ADC_SCAN_ENABLE)
 80036e8:	68a1      	ldr	r1, [r4, #8]
 80036ea:	f5b1 7f80 	cmp.w	r1, #256	; 0x100
 80036ee:	d001      	beq.n	80036f4 <HAL_ADC_Init+0x74>
 80036f0:	2901      	cmp	r1, #1
 80036f2:	d102      	bne.n	80036fa <HAL_ADC_Init+0x7a>
      tmp_sqr1 = ADC_SQR1_L_SHIFT(hadc->Init.NbrOfConversion);
 80036f4:	6923      	ldr	r3, [r4, #16]
 80036f6:	3b01      	subs	r3, #1
 80036f8:	051b      	lsls	r3, r3, #20
    MODIFY_REG(hadc->Instance->SQR1,
 80036fa:	6825      	ldr	r5, [r4, #0]
 80036fc:	6ae9      	ldr	r1, [r5, #44]	; 0x2c
 80036fe:	f421 0170 	bic.w	r1, r1, #15728640	; 0xf00000
 8003702:	430b      	orrs	r3, r1
 8003704:	62eb      	str	r3, [r5, #44]	; 0x2c
    if (READ_BIT(hadc->Instance->CR2, ~(ADC_CR2_ADON | ADC_CR2_DMA |
 8003706:	6823      	ldr	r3, [r4, #0]
 8003708:	6899      	ldr	r1, [r3, #8]
 800370a:	4b1e      	ldr	r3, [pc, #120]	; (8003784 <HAL_ADC_Init+0x104>)
 800370c:	400b      	ands	r3, r1
 800370e:	429a      	cmp	r2, r3
 8003710:	d025      	beq.n	800375e <HAL_ADC_Init+0xde>
      ADC_STATE_CLR_SET(hadc->State,
 8003712:	6aa3      	ldr	r3, [r4, #40]	; 0x28
 8003714:	f023 0312 	bic.w	r3, r3, #18
 8003718:	f043 0310 	orr.w	r3, r3, #16
 800371c:	62a3      	str	r3, [r4, #40]	; 0x28
      SET_BIT(hadc->ErrorCode, HAL_ADC_ERROR_INTERNAL);
 800371e:	6ae3      	ldr	r3, [r4, #44]	; 0x2c
 8003720:	f043 0301 	orr.w	r3, r3, #1
 8003724:	62e3      	str	r3, [r4, #44]	; 0x2c
      tmp_hal_status = HAL_ERROR;
 8003726:	2001      	movs	r0, #1
 8003728:	e027      	b.n	800377a <HAL_ADC_Init+0xfa>
    ADC_CLEAR_ERRORCODE(hadc);
 800372a:	62c3      	str	r3, [r0, #44]	; 0x2c
    hadc->Lock = HAL_UNLOCKED;
 800372c:	f880 3024 	strb.w	r3, [r0, #36]	; 0x24
    HAL_ADC_MspInit(hadc);
 8003730:	f7fe febc 	bl	80024ac <HAL_ADC_MspInit>
 8003734:	e7ab      	b.n	800368e <HAL_ADC_Init+0xe>
    tmp_cr1 |= (ADC_CR1_SCAN_SET(hadc->Init.ScanConvMode));
 8003736:	f44f 7580 	mov.w	r5, #256	; 0x100
 800373a:	e7c6      	b.n	80036ca <HAL_ADC_Init+0x4a>
      if (hadc->Init.ContinuousConvMode == DISABLE)
 800373c:	b931      	cbnz	r1, 800374c <HAL_ADC_Init+0xcc>
        SET_BIT(tmp_cr1, ADC_CR1_DISCEN                                            |
 800373e:	69a1      	ldr	r1, [r4, #24]
 8003740:	3901      	subs	r1, #1
 8003742:	ea45 3141 	orr.w	r1, r5, r1, lsl #13
 8003746:	f441 6500 	orr.w	r5, r1, #2048	; 0x800
 800374a:	e7c1      	b.n	80036d0 <HAL_ADC_Init+0x50>
        SET_BIT(hadc->State, HAL_ADC_STATE_ERROR_CONFIG);
 800374c:	6aa1      	ldr	r1, [r4, #40]	; 0x28
 800374e:	f041 0120 	orr.w	r1, r1, #32
 8003752:	62a1      	str	r1, [r4, #40]	; 0x28
        SET_BIT(hadc->ErrorCode, HAL_ADC_ERROR_INTERNAL);
 8003754:	6ae1      	ldr	r1, [r4, #44]	; 0x2c
 8003756:	f041 0101 	orr.w	r1, r1, #1
 800375a:	62e1      	str	r1, [r4, #44]	; 0x2c
 800375c:	e7b8      	b.n	80036d0 <HAL_ADC_Init+0x50>
      ADC_CLEAR_ERRORCODE(hadc);
 800375e:	2300      	movs	r3, #0
 8003760:	62e3      	str	r3, [r4, #44]	; 0x2c
      ADC_STATE_CLR_SET(hadc->State,
 8003762:	6aa3      	ldr	r3, [r4, #40]	; 0x28
 8003764:	f023 0303 	bic.w	r3, r3, #3
 8003768:	f043 0301 	orr.w	r3, r3, #1
 800376c:	62a3      	str	r3, [r4, #40]	; 0x28
 800376e:	e004      	b.n	800377a <HAL_ADC_Init+0xfa>
    SET_BIT(hadc->State, HAL_ADC_STATE_ERROR_INTERNAL);
 8003770:	6aa3      	ldr	r3, [r4, #40]	; 0x28
 8003772:	f043 0310 	orr.w	r3, r3, #16
 8003776:	62a3      	str	r3, [r4, #40]	; 0x28
    tmp_hal_status = HAL_ERROR;
 8003778:	2001      	movs	r0, #1
}
 800377a:	bd70      	pop	{r4, r5, r6, pc}
    return HAL_ERROR;
 800377c:	2001      	movs	r0, #1
}
 800377e:	4770      	bx	lr
 8003780:	ffe1f7fd 	.word	0xffe1f7fd
 8003784:	ff1f0efe 	.word	0xff1f0efe

08003788 <HAL_NVIC_SetPriorityGrouping>:
__STATIC_INLINE void __NVIC_SetPriorityGrouping(uint32_t PriorityGroup)
{
  uint32_t reg_value;
  uint32_t PriorityGroupTmp = (PriorityGroup & (uint32_t)0x07UL);             /* only values 0..7 are used          */

  reg_value  =  SCB->AIRCR;                                                   /* read old register configuration    */
 8003788:	4a07      	ldr	r2, [pc, #28]	; (80037a8 <HAL_NVIC_SetPriorityGrouping+0x20>)
 800378a:	68d3      	ldr	r3, [r2, #12]
  reg_value &= ~((uint32_t)(SCB_AIRCR_VECTKEY_Msk | SCB_AIRCR_PRIGROUP_Msk)); /* clear bits to change               */
 800378c:	f423 63e0 	bic.w	r3, r3, #1792	; 0x700
 8003790:	041b      	lsls	r3, r3, #16
 8003792:	0c1b      	lsrs	r3, r3, #16
  reg_value  =  (reg_value                                   |
                ((uint32_t)0x5FAUL << SCB_AIRCR_VECTKEY_Pos) |
                (PriorityGroupTmp << SCB_AIRCR_PRIGROUP_Pos) );               /* Insert write key and priority group */
 8003794:	0200      	lsls	r0, r0, #8
 8003796:	f400 60e0 	and.w	r0, r0, #1792	; 0x700
                ((uint32_t)0x5FAUL << SCB_AIRCR_VECTKEY_Pos) |
 800379a:	4303      	orrs	r3, r0
  reg_value  =  (reg_value                                   |
 800379c:	f043 63bf 	orr.w	r3, r3, #100139008	; 0x5f80000
 80037a0:	f443 3300 	orr.w	r3, r3, #131072	; 0x20000
  SCB->AIRCR =  reg_value;
 80037a4:	60d3      	str	r3, [r2, #12]
  /* Check the parameters */
  assert_param(IS_NVIC_PRIORITY_GROUP(PriorityGroup));
  
  /* Set the PRIGROUP[10:8] bits according to the PriorityGroup parameter value */
  NVIC_SetPriorityGrouping(PriorityGroup);
}
 80037a6:	4770      	bx	lr
 80037a8:	e000ed00 	.word	0xe000ed00

080037ac <HAL_NVIC_SetPriority>:
  *         This parameter can be a value between 0 and 15
  *         A lower priority value indicates a higher priority.          
  * @retval None
  */
void HAL_NVIC_SetPriority(IRQn_Type IRQn, uint32_t PreemptPriority, uint32_t SubPriority)
{ 
 80037ac:	b430      	push	{r4, r5}
  \details Reads the priority grouping field from the NVIC Interrupt Controller.
  \return                Priority grouping field (SCB->AIRCR [10:8] PRIGROUP field).
 */
__STATIC_INLINE uint32_t __NVIC_GetPriorityGrouping(void)
{
  return ((uint32_t)((SCB->AIRCR & SCB_AIRCR_PRIGROUP_Msk) >> SCB_AIRCR_PRIGROUP_Pos));
 80037ae:	4b17      	ldr	r3, [pc, #92]	; (800380c <HAL_NVIC_SetPriority+0x60>)
 80037b0:	68db      	ldr	r3, [r3, #12]
 80037b2:	f3c3 2302 	ubfx	r3, r3, #8, #3
{
  uint32_t PriorityGroupTmp = (PriorityGroup & (uint32_t)0x07UL);   /* only values 0..7 are used          */
  uint32_t PreemptPriorityBits;
  uint32_t SubPriorityBits;

  PreemptPriorityBits = ((7UL - PriorityGroupTmp) > (uint32_t)(__NVIC_PRIO_BITS)) ? (uint32_t)(__NVIC_PRIO_BITS) : (uint32_t)(7UL - PriorityGroupTmp);
 80037b6:	f1c3 0407 	rsb	r4, r3, #7
 80037ba:	2c04      	cmp	r4, #4
 80037bc:	bf28      	it	cs
 80037be:	2404      	movcs	r4, #4
  SubPriorityBits     = ((PriorityGroupTmp + (uint32_t)(__NVIC_PRIO_BITS)) < (uint32_t)7UL) ? (uint32_t)0UL : (uint32_t)((PriorityGroupTmp - 7UL) + (uint32_t)(__NVIC_PRIO_BITS));
 80037c0:	1d1d      	adds	r5, r3, #4
 80037c2:	2d06      	cmp	r5, #6
 80037c4:	d918      	bls.n	80037f8 <HAL_NVIC_SetPriority+0x4c>
 80037c6:	3b03      	subs	r3, #3

  return (
           ((PreemptPriority & (uint32_t)((1UL << (PreemptPriorityBits)) - 1UL)) << SubPriorityBits) |
 80037c8:	f04f 35ff 	mov.w	r5, #4294967295
 80037cc:	fa05 f404 	lsl.w	r4, r5, r4
 80037d0:	ea21 0104 	bic.w	r1, r1, r4
 80037d4:	4099      	lsls	r1, r3
           ((SubPriority     & (uint32_t)((1UL << (SubPriorityBits    )) - 1UL)))
 80037d6:	fa05 f303 	lsl.w	r3, r5, r3
 80037da:	ea22 0303 	bic.w	r3, r2, r3
           ((PreemptPriority & (uint32_t)((1UL << (PreemptPriorityBits)) - 1UL)) << SubPriorityBits) |
 80037de:	4319      	orrs	r1, r3
  if ((int32_t)(IRQn) >= 0)
 80037e0:	2800      	cmp	r0, #0
 80037e2:	db0b      	blt.n	80037fc <HAL_NVIC_SetPriority+0x50>
    NVIC->IP[((uint32_t)IRQn)]               = (uint8_t)((priority << (8U - __NVIC_PRIO_BITS)) & (uint32_t)0xFFUL);
 80037e4:	0109      	lsls	r1, r1, #4
 80037e6:	b2c9      	uxtb	r1, r1
 80037e8:	f100 4060 	add.w	r0, r0, #3758096384	; 0xe0000000
 80037ec:	f500 4061 	add.w	r0, r0, #57600	; 0xe100
 80037f0:	f880 1300 	strb.w	r1, [r0, #768]	; 0x300
  assert_param(IS_NVIC_PREEMPTION_PRIORITY(PreemptPriority));
  
  prioritygroup = NVIC_GetPriorityGrouping();
  
  NVIC_SetPriority(IRQn, NVIC_EncodePriority(prioritygroup, PreemptPriority, SubPriority));
}
 80037f4:	bc30      	pop	{r4, r5}
 80037f6:	4770      	bx	lr
  SubPriorityBits     = ((PriorityGroupTmp + (uint32_t)(__NVIC_PRIO_BITS)) < (uint32_t)7UL) ? (uint32_t)0UL : (uint32_t)((PriorityGroupTmp - 7UL) + (uint32_t)(__NVIC_PRIO_BITS));
 80037f8:	2300      	movs	r3, #0
 80037fa:	e7e5      	b.n	80037c8 <HAL_NVIC_SetPriority+0x1c>
    SCB->SHP[(((uint32_t)IRQn) & 0xFUL)-4UL] = (uint8_t)((priority << (8U - __NVIC_PRIO_BITS)) & (uint32_t)0xFFUL);
 80037fc:	f000 000f 	and.w	r0, r0, #15
 8003800:	0109      	lsls	r1, r1, #4
 8003802:	b2c9      	uxtb	r1, r1
 8003804:	4b02      	ldr	r3, [pc, #8]	; (8003810 <HAL_NVIC_SetPriority+0x64>)
 8003806:	5419      	strb	r1, [r3, r0]
 8003808:	e7f4      	b.n	80037f4 <HAL_NVIC_SetPriority+0x48>
 800380a:	bf00      	nop
 800380c:	e000ed00 	.word	0xe000ed00
 8003810:	e000ed14 	.word	0xe000ed14

08003814 <HAL_NVIC_EnableIRQ>:
  if ((int32_t)(IRQn) >= 0)
 8003814:	2800      	cmp	r0, #0
 8003816:	db07      	blt.n	8003828 <HAL_NVIC_EnableIRQ+0x14>
    NVIC->ISER[(((uint32_t)IRQn) >> 5UL)] = (uint32_t)(1UL << (((uint32_t)IRQn) & 0x1FUL));
 8003818:	f000 021f 	and.w	r2, r0, #31
 800381c:	0940      	lsrs	r0, r0, #5
 800381e:	2301      	movs	r3, #1
 8003820:	4093      	lsls	r3, r2
 8003822:	4a02      	ldr	r2, [pc, #8]	; (800382c <HAL_NVIC_EnableIRQ+0x18>)
 8003824:	f842 3020 	str.w	r3, [r2, r0, lsl #2]
  /* Check the parameters */
  assert_param(IS_NVIC_DEVICE_IRQ(IRQn));

  /* Enable interrupt */
  NVIC_EnableIRQ(IRQn);
}
 8003828:	4770      	bx	lr
 800382a:	bf00      	nop
 800382c:	e000e100 	.word	0xe000e100

08003830 <HAL_SYSTICK_Config>:
           function <b>SysTick_Config</b> is not included. In this case, the file <b><i>device</i>.h</b>
           must contain a vendor-specific implementation of this function.
 */
__STATIC_INLINE uint32_t SysTick_Config(uint32_t ticks)
{
  if ((ticks - 1UL) > SysTick_LOAD_RELOAD_Msk)
 8003830:	3801      	subs	r0, #1
 8003832:	f1b0 7f80 	cmp.w	r0, #16777216	; 0x1000000
 8003836:	d20a      	bcs.n	800384e <HAL_SYSTICK_Config+0x1e>
  {
    return (1UL);                                                   /* Reload value impossible */
  }

  SysTick->LOAD  = (uint32_t)(ticks - 1UL);                         /* set reload register */
 8003838:	4b06      	ldr	r3, [pc, #24]	; (8003854 <HAL_SYSTICK_Config+0x24>)
 800383a:	6058      	str	r0, [r3, #4]
    SCB->SHP[(((uint32_t)IRQn) & 0xFUL)-4UL] = (uint8_t)((priority << (8U - __NVIC_PRIO_BITS)) & (uint32_t)0xFFUL);
 800383c:	4a06      	ldr	r2, [pc, #24]	; (8003858 <HAL_SYSTICK_Config+0x28>)
 800383e:	21f0      	movs	r1, #240	; 0xf0
 8003840:	f882 1023 	strb.w	r1, [r2, #35]	; 0x23
  NVIC_SetPriority (SysTick_IRQn, (1UL << __NVIC_PRIO_BITS) - 1UL); /* set Priority for Systick Interrupt */
  SysTick->VAL   = 0UL;                                             /* Load the SysTick Counter Value */
 8003844:	2000      	movs	r0, #0
 8003846:	6098      	str	r0, [r3, #8]
  SysTick->CTRL  = SysTick_CTRL_CLKSOURCE_Msk |
 8003848:	2207      	movs	r2, #7
 800384a:	601a      	str	r2, [r3, #0]
                   SysTick_CTRL_TICKINT_Msk   |
                   SysTick_CTRL_ENABLE_Msk;                         /* Enable SysTick IRQ and SysTick Timer */
  return (0UL);                                                     /* Function successful */
 800384c:	4770      	bx	lr
    return (1UL);                                                   /* Reload value impossible */
 800384e:	2001      	movs	r0, #1
  *                  - 1  Function failed.
  */
uint32_t HAL_SYSTICK_Config(uint32_t TicksNumb)
{
   return SysTick_Config(TicksNumb);
}
 8003850:	4770      	bx	lr
 8003852:	bf00      	nop
 8003854:	e000e010 	.word	0xe000e010
 8003858:	e000ed00 	.word	0xe000ed00

0800385c <DMA_SetConfig>:
  * @param  DstAddress: The destination memory Buffer address
  * @param  DataLength: The length of data to be transferred from source to destination
  * @retval HAL status
  */
static void DMA_SetConfig(DMA_HandleTypeDef *hdma, uint32_t SrcAddress, uint32_t DstAddress, uint32_t DataLength)
{
 800385c:	b470      	push	{r4, r5, r6}
  /* Clear all flags */
  hdma->DmaBaseAddress->IFCR = (DMA_ISR_GIF1 << hdma->ChannelIndex);
 800385e:	6c06      	ldr	r6, [r0, #64]	; 0x40
 8003860:	6bc5      	ldr	r5, [r0, #60]	; 0x3c
 8003862:	2401      	movs	r4, #1
 8003864:	40b4      	lsls	r4, r6
 8003866:	606c      	str	r4, [r5, #4]

  /* Configure DMA Channel data length */
  hdma->Instance->CNDTR = DataLength;
 8003868:	6804      	ldr	r4, [r0, #0]
 800386a:	6063      	str	r3, [r4, #4]

  /* Memory to Peripheral */
  if((hdma->Init.Direction) == DMA_MEMORY_TO_PERIPH)
 800386c:	6843      	ldr	r3, [r0, #4]
 800386e:	2b10      	cmp	r3, #16
 8003870:	d005      	beq.n	800387e <DMA_SetConfig+0x22>
  }
  /* Peripheral to Memory */
  else
  {
    /* Configure DMA Channel source address */
    hdma->Instance->CPAR = SrcAddress;
 8003872:	6803      	ldr	r3, [r0, #0]
 8003874:	6099      	str	r1, [r3, #8]

    /* Configure DMA Channel destination address */
    hdma->Instance->CMAR = DstAddress;
 8003876:	6803      	ldr	r3, [r0, #0]
 8003878:	60da      	str	r2, [r3, #12]
  }
}
 800387a:	bc70      	pop	{r4, r5, r6}
 800387c:	4770      	bx	lr
    hdma->Instance->CPAR = DstAddress;
 800387e:	6803      	ldr	r3, [r0, #0]
 8003880:	609a      	str	r2, [r3, #8]
    hdma->Instance->CMAR = SrcAddress;
 8003882:	6803      	ldr	r3, [r0, #0]
 8003884:	60d9      	str	r1, [r3, #12]
 8003886:	e7f8      	b.n	800387a <DMA_SetConfig+0x1e>

08003888 <HAL_DMA_Init>:
  if(hdma == NULL)
 8003888:	b360      	cbz	r0, 80038e4 <HAL_DMA_Init+0x5c>
{
 800388a:	b410      	push	{r4}
 800388c:	4602      	mov	r2, r0
  hdma->ChannelIndex = (((uint32_t)hdma->Instance - (uint32_t)DMA1_Channel1) / ((uint32_t)DMA1_Channel2 - (uint32_t)DMA1_Channel1)) << 2;
 800388e:	6801      	ldr	r1, [r0, #0]
 8003890:	4b15      	ldr	r3, [pc, #84]	; (80038e8 <HAL_DMA_Init+0x60>)
 8003892:	440b      	add	r3, r1
 8003894:	4815      	ldr	r0, [pc, #84]	; (80038ec <HAL_DMA_Init+0x64>)
 8003896:	fba0 0303 	umull	r0, r3, r0, r3
 800389a:	091b      	lsrs	r3, r3, #4
 800389c:	009b      	lsls	r3, r3, #2
 800389e:	6413      	str	r3, [r2, #64]	; 0x40
  hdma->DmaBaseAddress = DMA1;
 80038a0:	4b13      	ldr	r3, [pc, #76]	; (80038f0 <HAL_DMA_Init+0x68>)
 80038a2:	63d3      	str	r3, [r2, #60]	; 0x3c
  hdma->State = HAL_DMA_STATE_BUSY;
 80038a4:	2302      	movs	r3, #2
 80038a6:	f882 3021 	strb.w	r3, [r2, #33]	; 0x21
  tmp = hdma->Instance->CCR;
 80038aa:	6808      	ldr	r0, [r1, #0]
  tmp &= ((uint32_t)~(DMA_CCR_PL    | DMA_CCR_MSIZE  | DMA_CCR_PSIZE  | \
 80038ac:	f420 507f 	bic.w	r0, r0, #16320	; 0x3fc0
 80038b0:	f020 0030 	bic.w	r0, r0, #48	; 0x30
  tmp |=  hdma->Init.Direction        |
 80038b4:	6853      	ldr	r3, [r2, #4]
          hdma->Init.PeriphInc           | hdma->Init.MemInc           |
 80038b6:	6894      	ldr	r4, [r2, #8]
  tmp |=  hdma->Init.Direction        |
 80038b8:	4323      	orrs	r3, r4
          hdma->Init.PeriphInc           | hdma->Init.MemInc           |
 80038ba:	68d4      	ldr	r4, [r2, #12]
 80038bc:	4323      	orrs	r3, r4
          hdma->Init.PeriphDataAlignment | hdma->Init.MemDataAlignment |
 80038be:	6914      	ldr	r4, [r2, #16]
          hdma->Init.PeriphInc           | hdma->Init.MemInc           |
 80038c0:	4323      	orrs	r3, r4
          hdma->Init.PeriphDataAlignment | hdma->Init.MemDataAlignment |
 80038c2:	6954      	ldr	r4, [r2, #20]
 80038c4:	4323      	orrs	r3, r4
          hdma->Init.Mode                | hdma->Init.Priority;
 80038c6:	6994      	ldr	r4, [r2, #24]
          hdma->Init.PeriphDataAlignment | hdma->Init.MemDataAlignment |
 80038c8:	4323      	orrs	r3, r4
          hdma->Init.Mode                | hdma->Init.Priority;
 80038ca:	69d4      	ldr	r4, [r2, #28]
 80038cc:	4323      	orrs	r3, r4
  tmp |=  hdma->Init.Direction        |
 80038ce:	4303      	orrs	r3, r0
  hdma->Instance->CCR = tmp;
 80038d0:	600b      	str	r3, [r1, #0]
  hdma->ErrorCode = HAL_DMA_ERROR_NONE;
 80038d2:	2000      	movs	r0, #0
 80038d4:	6390      	str	r0, [r2, #56]	; 0x38
  hdma->State = HAL_DMA_STATE_READY;
 80038d6:	2301      	movs	r3, #1
 80038d8:	f882 3021 	strb.w	r3, [r2, #33]	; 0x21
  hdma->Lock = HAL_UNLOCKED;
 80038dc:	f882 0020 	strb.w	r0, [r2, #32]
}
 80038e0:	bc10      	pop	{r4}
 80038e2:	4770      	bx	lr
    return HAL_ERROR;
 80038e4:	2001      	movs	r0, #1
}
 80038e6:	4770      	bx	lr
 80038e8:	bffdfff8 	.word	0xbffdfff8
 80038ec:	cccccccd 	.word	0xcccccccd
 80038f0:	40020000 	.word	0x40020000

080038f4 <HAL_DMA_Start_IT>:
{
 80038f4:	b538      	push	{r3, r4, r5, lr}
 80038f6:	4604      	mov	r4, r0
  __HAL_LOCK(hdma);
 80038f8:	f890 0020 	ldrb.w	r0, [r0, #32]
 80038fc:	2801      	cmp	r0, #1
 80038fe:	d032      	beq.n	8003966 <HAL_DMA_Start_IT+0x72>
 8003900:	2001      	movs	r0, #1
 8003902:	f884 0020 	strb.w	r0, [r4, #32]
  if(HAL_DMA_STATE_READY == hdma->State)
 8003906:	f894 0021 	ldrb.w	r0, [r4, #33]	; 0x21
 800390a:	b2c0      	uxtb	r0, r0
 800390c:	2801      	cmp	r0, #1
 800390e:	d004      	beq.n	800391a <HAL_DMA_Start_IT+0x26>
    __HAL_UNLOCK(hdma); 
 8003910:	2300      	movs	r3, #0
 8003912:	f884 3020 	strb.w	r3, [r4, #32]
    status = HAL_BUSY;
 8003916:	2002      	movs	r0, #2
}
 8003918:	bd38      	pop	{r3, r4, r5, pc}
    hdma->State = HAL_DMA_STATE_BUSY;
 800391a:	2002      	movs	r0, #2
 800391c:	f884 0021 	strb.w	r0, [r4, #33]	; 0x21
    hdma->ErrorCode = HAL_DMA_ERROR_NONE;
 8003920:	2000      	movs	r0, #0
 8003922:	63a0      	str	r0, [r4, #56]	; 0x38
    __HAL_DMA_DISABLE(hdma);
 8003924:	6825      	ldr	r5, [r4, #0]
 8003926:	6828      	ldr	r0, [r5, #0]
 8003928:	f020 0001 	bic.w	r0, r0, #1
 800392c:	6028      	str	r0, [r5, #0]
    DMA_SetConfig(hdma, SrcAddress, DstAddress, DataLength);
 800392e:	4620      	mov	r0, r4
 8003930:	f7ff ff94 	bl	800385c <DMA_SetConfig>
    if(NULL != hdma->XferHalfCpltCallback)
 8003934:	6ae3      	ldr	r3, [r4, #44]	; 0x2c
 8003936:	b15b      	cbz	r3, 8003950 <HAL_DMA_Start_IT+0x5c>
      __HAL_DMA_ENABLE_IT(hdma, (DMA_IT_TC | DMA_IT_HT | DMA_IT_TE));
 8003938:	6822      	ldr	r2, [r4, #0]
 800393a:	6813      	ldr	r3, [r2, #0]
 800393c:	f043 030e 	orr.w	r3, r3, #14
 8003940:	6013      	str	r3, [r2, #0]
    __HAL_DMA_ENABLE(hdma);
 8003942:	6822      	ldr	r2, [r4, #0]
 8003944:	6813      	ldr	r3, [r2, #0]
 8003946:	f043 0301 	orr.w	r3, r3, #1
 800394a:	6013      	str	r3, [r2, #0]
  HAL_StatusTypeDef status = HAL_OK;
 800394c:	2000      	movs	r0, #0
 800394e:	e7e3      	b.n	8003918 <HAL_DMA_Start_IT+0x24>
      __HAL_DMA_DISABLE_IT(hdma, DMA_IT_HT);
 8003950:	6822      	ldr	r2, [r4, #0]
 8003952:	6813      	ldr	r3, [r2, #0]
 8003954:	f023 0304 	bic.w	r3, r3, #4
 8003958:	6013      	str	r3, [r2, #0]
      __HAL_DMA_ENABLE_IT(hdma, (DMA_IT_TC | DMA_IT_TE));
 800395a:	6822      	ldr	r2, [r4, #0]
 800395c:	6813      	ldr	r3, [r2, #0]
 800395e:	f043 030a 	orr.w	r3, r3, #10
 8003962:	6013      	str	r3, [r2, #0]
 8003964:	e7ed      	b.n	8003942 <HAL_DMA_Start_IT+0x4e>
  __HAL_LOCK(hdma);
 8003966:	2002      	movs	r0, #2
 8003968:	e7d6      	b.n	8003918 <HAL_DMA_Start_IT+0x24>

0800396a <HAL_DMA_Abort>:
  if(hdma->State != HAL_DMA_STATE_BUSY)
 800396a:	f890 3021 	ldrb.w	r3, [r0, #33]	; 0x21
 800396e:	b2db      	uxtb	r3, r3
 8003970:	2b02      	cmp	r3, #2
 8003972:	d006      	beq.n	8003982 <HAL_DMA_Abort+0x18>
    hdma->ErrorCode = HAL_DMA_ERROR_NO_XFER;
 8003974:	2304      	movs	r3, #4
 8003976:	6383      	str	r3, [r0, #56]	; 0x38
    __HAL_UNLOCK(hdma);
 8003978:	2300      	movs	r3, #0
 800397a:	f880 3020 	strb.w	r3, [r0, #32]
    return HAL_ERROR;
 800397e:	2001      	movs	r0, #1
 8003980:	4770      	bx	lr
    __HAL_DMA_DISABLE_IT(hdma, (DMA_IT_TC | DMA_IT_HT | DMA_IT_TE));
 8003982:	6802      	ldr	r2, [r0, #0]
 8003984:	6813      	ldr	r3, [r2, #0]
 8003986:	f023 030e 	bic.w	r3, r3, #14
 800398a:	6013      	str	r3, [r2, #0]
    __HAL_DMA_DISABLE(hdma);
 800398c:	6802      	ldr	r2, [r0, #0]
 800398e:	6813      	ldr	r3, [r2, #0]
 8003990:	f023 0301 	bic.w	r3, r3, #1
 8003994:	6013      	str	r3, [r2, #0]
    hdma->DmaBaseAddress->IFCR = (DMA_ISR_GIF1 << hdma->ChannelIndex);
 8003996:	6c03      	ldr	r3, [r0, #64]	; 0x40
 8003998:	6bc1      	ldr	r1, [r0, #60]	; 0x3c
 800399a:	2201      	movs	r2, #1
 800399c:	fa02 f303 	lsl.w	r3, r2, r3
 80039a0:	604b      	str	r3, [r1, #4]
  hdma->State = HAL_DMA_STATE_READY;
 80039a2:	f880 2021 	strb.w	r2, [r0, #33]	; 0x21
  __HAL_UNLOCK(hdma);      
 80039a6:	2300      	movs	r3, #0
 80039a8:	f880 3020 	strb.w	r3, [r0, #32]
  return status; 
 80039ac:	4618      	mov	r0, r3
}
 80039ae:	4770      	bx	lr

080039b0 <HAL_DMA_Abort_IT>:
{  
 80039b0:	b508      	push	{r3, lr}
  if(HAL_DMA_STATE_BUSY != hdma->State)
 80039b2:	f890 3021 	ldrb.w	r3, [r0, #33]	; 0x21
 80039b6:	b2db      	uxtb	r3, r3
 80039b8:	2b02      	cmp	r3, #2
 80039ba:	d003      	beq.n	80039c4 <HAL_DMA_Abort_IT+0x14>
    hdma->ErrorCode = HAL_DMA_ERROR_NO_XFER;
 80039bc:	2304      	movs	r3, #4
 80039be:	6383      	str	r3, [r0, #56]	; 0x38
    status = HAL_ERROR;
 80039c0:	2001      	movs	r0, #1
}
 80039c2:	bd08      	pop	{r3, pc}
    __HAL_DMA_DISABLE_IT(hdma, (DMA_IT_TC | DMA_IT_HT | DMA_IT_TE));
 80039c4:	6802      	ldr	r2, [r0, #0]
 80039c6:	6813      	ldr	r3, [r2, #0]
 80039c8:	f023 030e 	bic.w	r3, r3, #14
 80039cc:	6013      	str	r3, [r2, #0]
    __HAL_DMA_DISABLE(hdma);
 80039ce:	6802      	ldr	r2, [r0, #0]
 80039d0:	6813      	ldr	r3, [r2, #0]
 80039d2:	f023 0301 	bic.w	r3, r3, #1
 80039d6:	6013      	str	r3, [r2, #0]
    __HAL_DMA_CLEAR_FLAG(hdma, __HAL_DMA_GET_GI_FLAG_INDEX(hdma));
 80039d8:	6803      	ldr	r3, [r0, #0]
 80039da:	4a19      	ldr	r2, [pc, #100]	; (8003a40 <HAL_DMA_Abort_IT+0x90>)
 80039dc:	4293      	cmp	r3, r2
 80039de:	d014      	beq.n	8003a0a <HAL_DMA_Abort_IT+0x5a>
 80039e0:	3214      	adds	r2, #20
 80039e2:	4293      	cmp	r3, r2
 80039e4:	d01f      	beq.n	8003a26 <HAL_DMA_Abort_IT+0x76>
 80039e6:	3214      	adds	r2, #20
 80039e8:	4293      	cmp	r3, r2
 80039ea:	d01e      	beq.n	8003a2a <HAL_DMA_Abort_IT+0x7a>
 80039ec:	3214      	adds	r2, #20
 80039ee:	4293      	cmp	r3, r2
 80039f0:	d01e      	beq.n	8003a30 <HAL_DMA_Abort_IT+0x80>
 80039f2:	3214      	adds	r2, #20
 80039f4:	4293      	cmp	r3, r2
 80039f6:	d01e      	beq.n	8003a36 <HAL_DMA_Abort_IT+0x86>
 80039f8:	3214      	adds	r2, #20
 80039fa:	4293      	cmp	r3, r2
 80039fc:	d002      	beq.n	8003a04 <HAL_DMA_Abort_IT+0x54>
 80039fe:	f04f 7280 	mov.w	r2, #16777216	; 0x1000000
 8003a02:	e003      	b.n	8003a0c <HAL_DMA_Abort_IT+0x5c>
 8003a04:	f44f 1280 	mov.w	r2, #1048576	; 0x100000
 8003a08:	e000      	b.n	8003a0c <HAL_DMA_Abort_IT+0x5c>
 8003a0a:	2201      	movs	r2, #1
 8003a0c:	4b0d      	ldr	r3, [pc, #52]	; (8003a44 <HAL_DMA_Abort_IT+0x94>)
 8003a0e:	605a      	str	r2, [r3, #4]
    hdma->State = HAL_DMA_STATE_READY;
 8003a10:	2301      	movs	r3, #1
 8003a12:	f880 3021 	strb.w	r3, [r0, #33]	; 0x21
    __HAL_UNLOCK(hdma);
 8003a16:	2300      	movs	r3, #0
 8003a18:	f880 3020 	strb.w	r3, [r0, #32]
    if(hdma->XferAbortCallback != NULL)
 8003a1c:	6b43      	ldr	r3, [r0, #52]	; 0x34
 8003a1e:	b16b      	cbz	r3, 8003a3c <HAL_DMA_Abort_IT+0x8c>
      hdma->XferAbortCallback(hdma);
 8003a20:	4798      	blx	r3
  HAL_StatusTypeDef status = HAL_OK;
 8003a22:	2000      	movs	r0, #0
 8003a24:	e7cd      	b.n	80039c2 <HAL_DMA_Abort_IT+0x12>
    __HAL_DMA_CLEAR_FLAG(hdma, __HAL_DMA_GET_GI_FLAG_INDEX(hdma));
 8003a26:	2210      	movs	r2, #16
 8003a28:	e7f0      	b.n	8003a0c <HAL_DMA_Abort_IT+0x5c>
 8003a2a:	f44f 7280 	mov.w	r2, #256	; 0x100
 8003a2e:	e7ed      	b.n	8003a0c <HAL_DMA_Abort_IT+0x5c>
 8003a30:	f44f 5280 	mov.w	r2, #4096	; 0x1000
 8003a34:	e7ea      	b.n	8003a0c <HAL_DMA_Abort_IT+0x5c>
 8003a36:	f44f 3280 	mov.w	r2, #65536	; 0x10000
 8003a3a:	e7e7      	b.n	8003a0c <HAL_DMA_Abort_IT+0x5c>
  HAL_StatusTypeDef status = HAL_OK;
 8003a3c:	2000      	movs	r0, #0
 8003a3e:	e7c0      	b.n	80039c2 <HAL_DMA_Abort_IT+0x12>
 8003a40:	40020008 	.word	0x40020008
 8003a44:	40020000 	.word	0x40020000

08003a48 <HAL_DMA_IRQHandler>:
{
 8003a48:	b538      	push	{r3, r4, r5, lr}
  uint32_t flag_it = hdma->DmaBaseAddress->ISR;
 8003a4a:	6bc3      	ldr	r3, [r0, #60]	; 0x3c
 8003a4c:	681a      	ldr	r2, [r3, #0]
  uint32_t source_it = hdma->Instance->CCR;
 8003a4e:	6804      	ldr	r4, [r0, #0]
 8003a50:	6825      	ldr	r5, [r4, #0]
  if (((flag_it & (DMA_FLAG_HT1 << hdma->ChannelIndex)) != RESET) && ((source_it & DMA_IT_HT) != RESET))
 8003a52:	6c01      	ldr	r1, [r0, #64]	; 0x40
 8003a54:	2304      	movs	r3, #4
 8003a56:	408b      	lsls	r3, r1
 8003a58:	4213      	tst	r3, r2
 8003a5a:	d035      	beq.n	8003ac8 <HAL_DMA_IRQHandler+0x80>
 8003a5c:	f015 0f04 	tst.w	r5, #4
 8003a60:	d032      	beq.n	8003ac8 <HAL_DMA_IRQHandler+0x80>
    if((hdma->Instance->CCR & DMA_CCR_CIRC) == 0U)
 8003a62:	6823      	ldr	r3, [r4, #0]
 8003a64:	f013 0f20 	tst.w	r3, #32
 8003a68:	d103      	bne.n	8003a72 <HAL_DMA_IRQHandler+0x2a>
      __HAL_DMA_DISABLE_IT(hdma, DMA_IT_HT);
 8003a6a:	6823      	ldr	r3, [r4, #0]
 8003a6c:	f023 0304 	bic.w	r3, r3, #4
 8003a70:	6023      	str	r3, [r4, #0]
    __HAL_DMA_CLEAR_FLAG(hdma, __HAL_DMA_GET_HT_FLAG_INDEX(hdma));
 8003a72:	6803      	ldr	r3, [r0, #0]
 8003a74:	4a43      	ldr	r2, [pc, #268]	; (8003b84 <HAL_DMA_IRQHandler+0x13c>)
 8003a76:	4293      	cmp	r3, r2
 8003a78:	d014      	beq.n	8003aa4 <HAL_DMA_IRQHandler+0x5c>
 8003a7a:	3214      	adds	r2, #20
 8003a7c:	4293      	cmp	r3, r2
 8003a7e:	d018      	beq.n	8003ab2 <HAL_DMA_IRQHandler+0x6a>
 8003a80:	3214      	adds	r2, #20
 8003a82:	4293      	cmp	r3, r2
 8003a84:	d017      	beq.n	8003ab6 <HAL_DMA_IRQHandler+0x6e>
 8003a86:	3214      	adds	r2, #20
 8003a88:	4293      	cmp	r3, r2
 8003a8a:	d017      	beq.n	8003abc <HAL_DMA_IRQHandler+0x74>
 8003a8c:	3214      	adds	r2, #20
 8003a8e:	4293      	cmp	r3, r2
 8003a90:	d017      	beq.n	8003ac2 <HAL_DMA_IRQHandler+0x7a>
 8003a92:	3214      	adds	r2, #20
 8003a94:	4293      	cmp	r3, r2
 8003a96:	d002      	beq.n	8003a9e <HAL_DMA_IRQHandler+0x56>
 8003a98:	f04f 6280 	mov.w	r2, #67108864	; 0x4000000
 8003a9c:	e003      	b.n	8003aa6 <HAL_DMA_IRQHandler+0x5e>
 8003a9e:	f44f 0280 	mov.w	r2, #4194304	; 0x400000
 8003aa2:	e000      	b.n	8003aa6 <HAL_DMA_IRQHandler+0x5e>
 8003aa4:	2204      	movs	r2, #4
 8003aa6:	4b38      	ldr	r3, [pc, #224]	; (8003b88 <HAL_DMA_IRQHandler+0x140>)
 8003aa8:	605a      	str	r2, [r3, #4]
    if(hdma->XferHalfCpltCallback != NULL)
 8003aaa:	6ac3      	ldr	r3, [r0, #44]	; 0x2c
 8003aac:	b103      	cbz	r3, 8003ab0 <HAL_DMA_IRQHandler+0x68>
      hdma->XferHalfCpltCallback(hdma);
 8003aae:	4798      	blx	r3
}
 8003ab0:	bd38      	pop	{r3, r4, r5, pc}
    __HAL_DMA_CLEAR_FLAG(hdma, __HAL_DMA_GET_HT_FLAG_INDEX(hdma));
 8003ab2:	2240      	movs	r2, #64	; 0x40
 8003ab4:	e7f7      	b.n	8003aa6 <HAL_DMA_IRQHandler+0x5e>
 8003ab6:	f44f 6280 	mov.w	r2, #1024	; 0x400
 8003aba:	e7f4      	b.n	8003aa6 <HAL_DMA_IRQHandler+0x5e>
 8003abc:	f44f 4280 	mov.w	r2, #16384	; 0x4000
 8003ac0:	e7f1      	b.n	8003aa6 <HAL_DMA_IRQHandler+0x5e>
 8003ac2:	f44f 2280 	mov.w	r2, #262144	; 0x40000
 8003ac6:	e7ee      	b.n	8003aa6 <HAL_DMA_IRQHandler+0x5e>
  else if (((flag_it & (DMA_FLAG_TC1 << hdma->ChannelIndex)) != RESET) && ((source_it & DMA_IT_TC) != RESET))
 8003ac8:	2302      	movs	r3, #2
 8003aca:	408b      	lsls	r3, r1
 8003acc:	4213      	tst	r3, r2
 8003ace:	d03c      	beq.n	8003b4a <HAL_DMA_IRQHandler+0x102>
 8003ad0:	f015 0f02 	tst.w	r5, #2
 8003ad4:	d039      	beq.n	8003b4a <HAL_DMA_IRQHandler+0x102>
    if((hdma->Instance->CCR & DMA_CCR_CIRC) == 0U)
 8003ad6:	6823      	ldr	r3, [r4, #0]
 8003ad8:	f013 0f20 	tst.w	r3, #32
 8003adc:	d106      	bne.n	8003aec <HAL_DMA_IRQHandler+0xa4>
      __HAL_DMA_DISABLE_IT(hdma, DMA_IT_TE | DMA_IT_TC);  
 8003ade:	6823      	ldr	r3, [r4, #0]
 8003ae0:	f023 030a 	bic.w	r3, r3, #10
 8003ae4:	6023      	str	r3, [r4, #0]
      hdma->State = HAL_DMA_STATE_READY;
 8003ae6:	2301      	movs	r3, #1
 8003ae8:	f880 3021 	strb.w	r3, [r0, #33]	; 0x21
      __HAL_DMA_CLEAR_FLAG(hdma, __HAL_DMA_GET_TC_FLAG_INDEX(hdma));
 8003aec:	6803      	ldr	r3, [r0, #0]
 8003aee:	4a25      	ldr	r2, [pc, #148]	; (8003b84 <HAL_DMA_IRQHandler+0x13c>)
 8003af0:	4293      	cmp	r3, r2
 8003af2:	d014      	beq.n	8003b1e <HAL_DMA_IRQHandler+0xd6>
 8003af4:	3214      	adds	r2, #20
 8003af6:	4293      	cmp	r3, r2
 8003af8:	d01c      	beq.n	8003b34 <HAL_DMA_IRQHandler+0xec>
 8003afa:	3214      	adds	r2, #20
 8003afc:	4293      	cmp	r3, r2
 8003afe:	d01b      	beq.n	8003b38 <HAL_DMA_IRQHandler+0xf0>
 8003b00:	3214      	adds	r2, #20
 8003b02:	4293      	cmp	r3, r2
 8003b04:	d01b      	beq.n	8003b3e <HAL_DMA_IRQHandler+0xf6>
 8003b06:	3214      	adds	r2, #20
 8003b08:	4293      	cmp	r3, r2
 8003b0a:	d01b      	beq.n	8003b44 <HAL_DMA_IRQHandler+0xfc>
 8003b0c:	3214      	adds	r2, #20
 8003b0e:	4293      	cmp	r3, r2
 8003b10:	d002      	beq.n	8003b18 <HAL_DMA_IRQHandler+0xd0>
 8003b12:	f04f 7200 	mov.w	r2, #33554432	; 0x2000000
 8003b16:	e003      	b.n	8003b20 <HAL_DMA_IRQHandler+0xd8>
 8003b18:	f44f 1200 	mov.w	r2, #2097152	; 0x200000
 8003b1c:	e000      	b.n	8003b20 <HAL_DMA_IRQHandler+0xd8>
 8003b1e:	2202      	movs	r2, #2
 8003b20:	4b19      	ldr	r3, [pc, #100]	; (8003b88 <HAL_DMA_IRQHandler+0x140>)
 8003b22:	605a      	str	r2, [r3, #4]
    __HAL_UNLOCK(hdma);
 8003b24:	2300      	movs	r3, #0
 8003b26:	f880 3020 	strb.w	r3, [r0, #32]
    if(hdma->XferCpltCallback != NULL)
 8003b2a:	6a83      	ldr	r3, [r0, #40]	; 0x28
 8003b2c:	2b00      	cmp	r3, #0
 8003b2e:	d0bf      	beq.n	8003ab0 <HAL_DMA_IRQHandler+0x68>
      hdma->XferCpltCallback(hdma);
 8003b30:	4798      	blx	r3
 8003b32:	e7bd      	b.n	8003ab0 <HAL_DMA_IRQHandler+0x68>
      __HAL_DMA_CLEAR_FLAG(hdma, __HAL_DMA_GET_TC_FLAG_INDEX(hdma));
 8003b34:	2220      	movs	r2, #32
 8003b36:	e7f3      	b.n	8003b20 <HAL_DMA_IRQHandler+0xd8>
 8003b38:	f44f 7200 	mov.w	r2, #512	; 0x200
 8003b3c:	e7f0      	b.n	8003b20 <HAL_DMA_IRQHandler+0xd8>
 8003b3e:	f44f 5200 	mov.w	r2, #8192	; 0x2000
 8003b42:	e7ed      	b.n	8003b20 <HAL_DMA_IRQHandler+0xd8>
 8003b44:	f44f 3200 	mov.w	r2, #131072	; 0x20000
 8003b48:	e7ea      	b.n	8003b20 <HAL_DMA_IRQHandler+0xd8>
  else if (( RESET != (flag_it & (DMA_FLAG_TE1 << hdma->ChannelIndex))) && (RESET != (source_it & DMA_IT_TE)))
 8003b4a:	2308      	movs	r3, #8
 8003b4c:	fa03 f101 	lsl.w	r1, r3, r1
 8003b50:	4211      	tst	r1, r2
 8003b52:	d0ad      	beq.n	8003ab0 <HAL_DMA_IRQHandler+0x68>
 8003b54:	f015 0f08 	tst.w	r5, #8
 8003b58:	d0aa      	beq.n	8003ab0 <HAL_DMA_IRQHandler+0x68>
    __HAL_DMA_DISABLE_IT(hdma, (DMA_IT_TC | DMA_IT_HT | DMA_IT_TE));
 8003b5a:	6823      	ldr	r3, [r4, #0]
 8003b5c:	f023 030e 	bic.w	r3, r3, #14
 8003b60:	6023      	str	r3, [r4, #0]
    hdma->DmaBaseAddress->IFCR = (DMA_ISR_GIF1 << hdma->ChannelIndex);
 8003b62:	6c02      	ldr	r2, [r0, #64]	; 0x40
 8003b64:	6bc1      	ldr	r1, [r0, #60]	; 0x3c
 8003b66:	2301      	movs	r3, #1
 8003b68:	fa03 f202 	lsl.w	r2, r3, r2
 8003b6c:	604a      	str	r2, [r1, #4]
    hdma->ErrorCode = HAL_DMA_ERROR_TE;
 8003b6e:	6383      	str	r3, [r0, #56]	; 0x38
    hdma->State = HAL_DMA_STATE_READY;
 8003b70:	f880 3021 	strb.w	r3, [r0, #33]	; 0x21
    __HAL_UNLOCK(hdma);
 8003b74:	2300      	movs	r3, #0
 8003b76:	f880 3020 	strb.w	r3, [r0, #32]
    if (hdma->XferErrorCallback != NULL)
 8003b7a:	6b03      	ldr	r3, [r0, #48]	; 0x30
 8003b7c:	2b00      	cmp	r3, #0
 8003b7e:	d097      	beq.n	8003ab0 <HAL_DMA_IRQHandler+0x68>
      hdma->XferErrorCallback(hdma);
 8003b80:	4798      	blx	r3
  return;
 8003b82:	e795      	b.n	8003ab0 <HAL_DMA_IRQHandler+0x68>
 8003b84:	40020008 	.word	0x40020008
 8003b88:	40020000 	.word	0x40020000

08003b8c <FLASH_Program_HalfWord>:
  * @retval None
  */
static void FLASH_Program_HalfWord(uint32_t Address, uint16_t Data)
{
  /* Clean the error context */
  pFlash.ErrorCode = HAL_FLASH_ERROR_NONE;
 8003b8c:	4b04      	ldr	r3, [pc, #16]	; (8003ba0 <FLASH_Program_HalfWord+0x14>)
 8003b8e:	2200      	movs	r2, #0
 8003b90:	61da      	str	r2, [r3, #28]
#if defined(FLASH_BANK2_END)
  if(Address <= FLASH_BANK1_END)
  {
#endif /* FLASH_BANK2_END */
    /* Proceed to program the new data */
    SET_BIT(FLASH->CR, FLASH_CR_PG);
 8003b92:	4a04      	ldr	r2, [pc, #16]	; (8003ba4 <FLASH_Program_HalfWord+0x18>)
 8003b94:	6913      	ldr	r3, [r2, #16]
 8003b96:	f043 0301 	orr.w	r3, r3, #1
 8003b9a:	6113      	str	r3, [r2, #16]
    SET_BIT(FLASH->CR2, FLASH_CR2_PG);
  }
#endif /* FLASH_BANK2_END */

  /* Write data in the address */
  *(__IO uint16_t*)Address = Data;
 8003b9c:	8001      	strh	r1, [r0, #0]
}
 8003b9e:	4770      	bx	lr
 8003ba0:	20002788 	.word	0x20002788
 8003ba4:	40022000 	.word	0x40022000

08003ba8 <FLASH_SetErrorCode>:
  uint32_t flags = 0U;
  
#if defined(FLASH_BANK2_END)
  if(__HAL_FLASH_GET_FLAG(FLASH_FLAG_WRPERR) || __HAL_FLASH_GET_FLAG(FLASH_FLAG_WRPERR_BANK2))
#else
  if(__HAL_FLASH_GET_FLAG(FLASH_FLAG_WRPERR))
 8003ba8:	4b19      	ldr	r3, [pc, #100]	; (8003c10 <FLASH_SetErrorCode+0x68>)
 8003baa:	68db      	ldr	r3, [r3, #12]
 8003bac:	f013 0310 	ands.w	r3, r3, #16
 8003bb0:	d005      	beq.n	8003bbe <FLASH_SetErrorCode+0x16>
#endif /* FLASH_BANK2_END */
  {
    pFlash.ErrorCode |= HAL_FLASH_ERROR_WRP;
 8003bb2:	4a18      	ldr	r2, [pc, #96]	; (8003c14 <FLASH_SetErrorCode+0x6c>)
 8003bb4:	69d3      	ldr	r3, [r2, #28]
 8003bb6:	f043 0302 	orr.w	r3, r3, #2
 8003bba:	61d3      	str	r3, [r2, #28]
#if defined(FLASH_BANK2_END)
    flags |= FLASH_FLAG_WRPERR | FLASH_FLAG_WRPERR_BANK2;
#else
    flags |= FLASH_FLAG_WRPERR;
 8003bbc:	2310      	movs	r3, #16
#endif /* FLASH_BANK2_END */
  }
#if defined(FLASH_BANK2_END)
  if(__HAL_FLASH_GET_FLAG(FLASH_FLAG_PGERR) || __HAL_FLASH_GET_FLAG(FLASH_FLAG_PGERR_BANK2))
#else
  if(__HAL_FLASH_GET_FLAG(FLASH_FLAG_PGERR))
 8003bbe:	4a14      	ldr	r2, [pc, #80]	; (8003c10 <FLASH_SetErrorCode+0x68>)
 8003bc0:	68d2      	ldr	r2, [r2, #12]
 8003bc2:	f012 0f04 	tst.w	r2, #4
 8003bc6:	d006      	beq.n	8003bd6 <FLASH_SetErrorCode+0x2e>
#endif /* FLASH_BANK2_END */
  {
    pFlash.ErrorCode |= HAL_FLASH_ERROR_PROG;
 8003bc8:	4912      	ldr	r1, [pc, #72]	; (8003c14 <FLASH_SetErrorCode+0x6c>)
 8003bca:	69ca      	ldr	r2, [r1, #28]
 8003bcc:	f042 0201 	orr.w	r2, r2, #1
 8003bd0:	61ca      	str	r2, [r1, #28]
#if defined(FLASH_BANK2_END)
    flags |= FLASH_FLAG_PGERR | FLASH_FLAG_PGERR_BANK2;
#else
    flags |= FLASH_FLAG_PGERR;
 8003bd2:	f043 0304 	orr.w	r3, r3, #4
#endif /* FLASH_BANK2_END */
  }
  if(__HAL_FLASH_GET_FLAG(FLASH_FLAG_OPTVERR))
 8003bd6:	4a0e      	ldr	r2, [pc, #56]	; (8003c10 <FLASH_SetErrorCode+0x68>)
 8003bd8:	69d2      	ldr	r2, [r2, #28]
 8003bda:	f012 0f01 	tst.w	r2, #1
 8003bde:	d009      	beq.n	8003bf4 <FLASH_SetErrorCode+0x4c>
  {
    pFlash.ErrorCode |= HAL_FLASH_ERROR_OPTV;
 8003be0:	490c      	ldr	r1, [pc, #48]	; (8003c14 <FLASH_SetErrorCode+0x6c>)
 8003be2:	69ca      	ldr	r2, [r1, #28]
 8003be4:	f042 0204 	orr.w	r2, r2, #4
 8003be8:	61ca      	str	r2, [r1, #28]
  __HAL_FLASH_CLEAR_FLAG(FLASH_FLAG_OPTVERR);
 8003bea:	4909      	ldr	r1, [pc, #36]	; (8003c10 <FLASH_SetErrorCode+0x68>)
 8003bec:	69ca      	ldr	r2, [r1, #28]
 8003bee:	f022 0201 	bic.w	r2, r2, #1
 8003bf2:	61ca      	str	r2, [r1, #28]
  }

  /* Clear FLASH error pending bits */
  __HAL_FLASH_CLEAR_FLAG(flags);
 8003bf4:	f240 1201 	movw	r2, #257	; 0x101
 8003bf8:	4293      	cmp	r3, r2
 8003bfa:	d002      	beq.n	8003c02 <FLASH_SetErrorCode+0x5a>
 8003bfc:	4a04      	ldr	r2, [pc, #16]	; (8003c10 <FLASH_SetErrorCode+0x68>)
 8003bfe:	60d3      	str	r3, [r2, #12]
}  
 8003c00:	4770      	bx	lr
  __HAL_FLASH_CLEAR_FLAG(flags);
 8003c02:	4a03      	ldr	r2, [pc, #12]	; (8003c10 <FLASH_SetErrorCode+0x68>)
 8003c04:	69d3      	ldr	r3, [r2, #28]
 8003c06:	f023 0301 	bic.w	r3, r3, #1
 8003c0a:	61d3      	str	r3, [r2, #28]
 8003c0c:	4770      	bx	lr
 8003c0e:	bf00      	nop
 8003c10:	40022000 	.word	0x40022000
 8003c14:	20002788 	.word	0x20002788

08003c18 <HAL_FLASH_Unlock>:
  if(READ_BIT(FLASH->CR, FLASH_CR_LOCK) != RESET)
 8003c18:	4b0a      	ldr	r3, [pc, #40]	; (8003c44 <HAL_FLASH_Unlock+0x2c>)
 8003c1a:	691b      	ldr	r3, [r3, #16]
 8003c1c:	f013 0f80 	tst.w	r3, #128	; 0x80
 8003c20:	d00b      	beq.n	8003c3a <HAL_FLASH_Unlock+0x22>
    WRITE_REG(FLASH->KEYR, FLASH_KEY1);
 8003c22:	4b08      	ldr	r3, [pc, #32]	; (8003c44 <HAL_FLASH_Unlock+0x2c>)
 8003c24:	4a08      	ldr	r2, [pc, #32]	; (8003c48 <HAL_FLASH_Unlock+0x30>)
 8003c26:	605a      	str	r2, [r3, #4]
    WRITE_REG(FLASH->KEYR, FLASH_KEY2);
 8003c28:	f102 3288 	add.w	r2, r2, #2290649224	; 0x88888888
 8003c2c:	605a      	str	r2, [r3, #4]
    if(READ_BIT(FLASH->CR, FLASH_CR_LOCK) != RESET)
 8003c2e:	691b      	ldr	r3, [r3, #16]
 8003c30:	f013 0f80 	tst.w	r3, #128	; 0x80
 8003c34:	d103      	bne.n	8003c3e <HAL_FLASH_Unlock+0x26>
  HAL_StatusTypeDef status = HAL_OK;
 8003c36:	2000      	movs	r0, #0
 8003c38:	4770      	bx	lr
 8003c3a:	2000      	movs	r0, #0
 8003c3c:	4770      	bx	lr
      status = HAL_ERROR;
 8003c3e:	2001      	movs	r0, #1
}
 8003c40:	4770      	bx	lr
 8003c42:	bf00      	nop
 8003c44:	40022000 	.word	0x40022000
 8003c48:	45670123 	.word	0x45670123

08003c4c <HAL_FLASH_Lock>:
  SET_BIT(FLASH->CR, FLASH_CR_LOCK);
 8003c4c:	4a03      	ldr	r2, [pc, #12]	; (8003c5c <HAL_FLASH_Lock+0x10>)
 8003c4e:	6913      	ldr	r3, [r2, #16]
 8003c50:	f043 0380 	orr.w	r3, r3, #128	; 0x80
 8003c54:	6113      	str	r3, [r2, #16]
}
 8003c56:	2000      	movs	r0, #0
 8003c58:	4770      	bx	lr
 8003c5a:	bf00      	nop
 8003c5c:	40022000 	.word	0x40022000

08003c60 <FLASH_WaitForLastOperation>:
{
 8003c60:	b538      	push	{r3, r4, r5, lr}
 8003c62:	4604      	mov	r4, r0
  uint32_t tickstart = HAL_GetTick();
 8003c64:	f7ff fb12 	bl	800328c <HAL_GetTick>
 8003c68:	4605      	mov	r5, r0
  while(__HAL_FLASH_GET_FLAG(FLASH_FLAG_BSY)) 
 8003c6a:	4b16      	ldr	r3, [pc, #88]	; (8003cc4 <FLASH_WaitForLastOperation+0x64>)
 8003c6c:	68db      	ldr	r3, [r3, #12]
 8003c6e:	f013 0f01 	tst.w	r3, #1
 8003c72:	d00a      	beq.n	8003c8a <FLASH_WaitForLastOperation+0x2a>
    if (Timeout != HAL_MAX_DELAY)
 8003c74:	f1b4 3fff 	cmp.w	r4, #4294967295
 8003c78:	d0f7      	beq.n	8003c6a <FLASH_WaitForLastOperation+0xa>
      if((Timeout == 0U) || ((HAL_GetTick()-tickstart) > Timeout))
 8003c7a:	b124      	cbz	r4, 8003c86 <FLASH_WaitForLastOperation+0x26>
 8003c7c:	f7ff fb06 	bl	800328c <HAL_GetTick>
 8003c80:	1b40      	subs	r0, r0, r5
 8003c82:	42a0      	cmp	r0, r4
 8003c84:	d9f1      	bls.n	8003c6a <FLASH_WaitForLastOperation+0xa>
        return HAL_TIMEOUT;
 8003c86:	2003      	movs	r0, #3
 8003c88:	e01b      	b.n	8003cc2 <FLASH_WaitForLastOperation+0x62>
  if (__HAL_FLASH_GET_FLAG(FLASH_FLAG_EOP))
 8003c8a:	4b0e      	ldr	r3, [pc, #56]	; (8003cc4 <FLASH_WaitForLastOperation+0x64>)
 8003c8c:	68db      	ldr	r3, [r3, #12]
 8003c8e:	f013 0f20 	tst.w	r3, #32
 8003c92:	d002      	beq.n	8003c9a <FLASH_WaitForLastOperation+0x3a>
    __HAL_FLASH_CLEAR_FLAG(FLASH_FLAG_EOP);
 8003c94:	4b0b      	ldr	r3, [pc, #44]	; (8003cc4 <FLASH_WaitForLastOperation+0x64>)
 8003c96:	2220      	movs	r2, #32
 8003c98:	60da      	str	r2, [r3, #12]
  if(__HAL_FLASH_GET_FLAG(FLASH_FLAG_WRPERR)  || 
 8003c9a:	4b0a      	ldr	r3, [pc, #40]	; (8003cc4 <FLASH_WaitForLastOperation+0x64>)
 8003c9c:	68db      	ldr	r3, [r3, #12]
 8003c9e:	f013 0f10 	tst.w	r3, #16
 8003ca2:	d10b      	bne.n	8003cbc <FLASH_WaitForLastOperation+0x5c>
     __HAL_FLASH_GET_FLAG(FLASH_FLAG_OPTVERR) || 
 8003ca4:	4b07      	ldr	r3, [pc, #28]	; (8003cc4 <FLASH_WaitForLastOperation+0x64>)
 8003ca6:	69db      	ldr	r3, [r3, #28]
  if(__HAL_FLASH_GET_FLAG(FLASH_FLAG_WRPERR)  || 
 8003ca8:	f013 0f01 	tst.w	r3, #1
 8003cac:	d106      	bne.n	8003cbc <FLASH_WaitForLastOperation+0x5c>
     __HAL_FLASH_GET_FLAG(FLASH_FLAG_PGERR))
 8003cae:	4b05      	ldr	r3, [pc, #20]	; (8003cc4 <FLASH_WaitForLastOperation+0x64>)
 8003cb0:	68db      	ldr	r3, [r3, #12]
     __HAL_FLASH_GET_FLAG(FLASH_FLAG_OPTVERR) || 
 8003cb2:	f013 0f04 	tst.w	r3, #4
 8003cb6:	d101      	bne.n	8003cbc <FLASH_WaitForLastOperation+0x5c>
  return HAL_OK;
 8003cb8:	2000      	movs	r0, #0
 8003cba:	e002      	b.n	8003cc2 <FLASH_WaitForLastOperation+0x62>
    FLASH_SetErrorCode();
 8003cbc:	f7ff ff74 	bl	8003ba8 <FLASH_SetErrorCode>
    return HAL_ERROR;
 8003cc0:	2001      	movs	r0, #1
}
 8003cc2:	bd38      	pop	{r3, r4, r5, pc}
 8003cc4:	40022000 	.word	0x40022000

08003cc8 <HAL_FLASH_Program>:
{
 8003cc8:	e92d 43f8 	stmdb	sp!, {r3, r4, r5, r6, r7, r8, r9, lr}
 8003ccc:	461e      	mov	r6, r3
  __HAL_LOCK(&pFlash);
 8003cce:	4b23      	ldr	r3, [pc, #140]	; (8003d5c <HAL_FLASH_Program+0x94>)
 8003cd0:	7e1b      	ldrb	r3, [r3, #24]
 8003cd2:	2b01      	cmp	r3, #1
 8003cd4:	d040      	beq.n	8003d58 <HAL_FLASH_Program+0x90>
 8003cd6:	4604      	mov	r4, r0
 8003cd8:	460f      	mov	r7, r1
 8003cda:	4690      	mov	r8, r2
 8003cdc:	4b1f      	ldr	r3, [pc, #124]	; (8003d5c <HAL_FLASH_Program+0x94>)
 8003cde:	2201      	movs	r2, #1
 8003ce0:	761a      	strb	r2, [r3, #24]
    status = FLASH_WaitForLastOperation(FLASH_TIMEOUT_VALUE);
 8003ce2:	f24c 3050 	movw	r0, #50000	; 0xc350
 8003ce6:	f7ff ffbb 	bl	8003c60 <FLASH_WaitForLastOperation>
  if(status == HAL_OK)
 8003cea:	4603      	mov	r3, r0
 8003cec:	bb70      	cbnz	r0, 8003d4c <HAL_FLASH_Program+0x84>
    if(TypeProgram == FLASH_TYPEPROGRAM_HALFWORD)
 8003cee:	2c01      	cmp	r4, #1
 8003cf0:	d029      	beq.n	8003d46 <HAL_FLASH_Program+0x7e>
    else if(TypeProgram == FLASH_TYPEPROGRAM_WORD)
 8003cf2:	2c02      	cmp	r4, #2
 8003cf4:	d024      	beq.n	8003d40 <HAL_FLASH_Program+0x78>
      nbiterations = 4U;
 8003cf6:	f04f 0904 	mov.w	r9, #4
    for (index = 0U; index < nbiterations; index++)
 8003cfa:	461c      	mov	r4, r3
 8003cfc:	454c      	cmp	r4, r9
 8003cfe:	d225      	bcs.n	8003d4c <HAL_FLASH_Program+0x84>
      FLASH_Program_HalfWord((Address + (2U*index)), (uint16_t)(Data >> (16U*index)));
 8003d00:	0121      	lsls	r1, r4, #4
 8003d02:	f1c1 0220 	rsb	r2, r1, #32
 8003d06:	f1a1 0320 	sub.w	r3, r1, #32
 8003d0a:	fa28 f101 	lsr.w	r1, r8, r1
 8003d0e:	fa06 f202 	lsl.w	r2, r6, r2
 8003d12:	4311      	orrs	r1, r2
 8003d14:	fa26 f303 	lsr.w	r3, r6, r3
 8003d18:	4319      	orrs	r1, r3
 8003d1a:	b289      	uxth	r1, r1
 8003d1c:	eb07 0044 	add.w	r0, r7, r4, lsl #1
 8003d20:	f7ff ff34 	bl	8003b8c <FLASH_Program_HalfWord>
        status = FLASH_WaitForLastOperation(FLASH_TIMEOUT_VALUE);
 8003d24:	f24c 3050 	movw	r0, #50000	; 0xc350
 8003d28:	f7ff ff9a 	bl	8003c60 <FLASH_WaitForLastOperation>
        CLEAR_BIT(FLASH->CR, FLASH_CR_PG);
 8003d2c:	4b0c      	ldr	r3, [pc, #48]	; (8003d60 <HAL_FLASH_Program+0x98>)
 8003d2e:	691d      	ldr	r5, [r3, #16]
 8003d30:	f025 0501 	bic.w	r5, r5, #1
 8003d34:	611d      	str	r5, [r3, #16]
      if (status != HAL_OK)
 8003d36:	4603      	mov	r3, r0
 8003d38:	b940      	cbnz	r0, 8003d4c <HAL_FLASH_Program+0x84>
    for (index = 0U; index < nbiterations; index++)
 8003d3a:	3401      	adds	r4, #1
 8003d3c:	b2e4      	uxtb	r4, r4
 8003d3e:	e7dd      	b.n	8003cfc <HAL_FLASH_Program+0x34>
      nbiterations = 2U;
 8003d40:	f04f 0902 	mov.w	r9, #2
 8003d44:	e7d9      	b.n	8003cfa <HAL_FLASH_Program+0x32>
      nbiterations = 1U;
 8003d46:	f04f 0901 	mov.w	r9, #1
 8003d4a:	e7d6      	b.n	8003cfa <HAL_FLASH_Program+0x32>
  __HAL_UNLOCK(&pFlash);
 8003d4c:	4a03      	ldr	r2, [pc, #12]	; (8003d5c <HAL_FLASH_Program+0x94>)
 8003d4e:	2100      	movs	r1, #0
 8003d50:	7611      	strb	r1, [r2, #24]
}
 8003d52:	4618      	mov	r0, r3
 8003d54:	e8bd 83f8 	ldmia.w	sp!, {r3, r4, r5, r6, r7, r8, r9, pc}
  __HAL_LOCK(&pFlash);
 8003d58:	2302      	movs	r3, #2
 8003d5a:	e7fa      	b.n	8003d52 <HAL_FLASH_Program+0x8a>
 8003d5c:	20002788 	.word	0x20002788
 8003d60:	40022000 	.word	0x40022000

08003d64 <FLASH_MassErase>:
{
  /* Check the parameters */
  assert_param(IS_FLASH_BANK(Banks));

  /* Clean the error context */
  pFlash.ErrorCode = HAL_FLASH_ERROR_NONE;
 8003d64:	4b06      	ldr	r3, [pc, #24]	; (8003d80 <FLASH_MassErase+0x1c>)
 8003d66:	2200      	movs	r2, #0
 8003d68:	61da      	str	r2, [r3, #28]
#if !defined(FLASH_BANK2_END)
  /* Prevent unused argument(s) compilation warning */
  UNUSED(Banks);
#endif /* FLASH_BANK2_END */  
    /* Only bank1 will be erased*/
    SET_BIT(FLASH->CR, FLASH_CR_MER);
 8003d6a:	4b06      	ldr	r3, [pc, #24]	; (8003d84 <FLASH_MassErase+0x20>)
 8003d6c:	691a      	ldr	r2, [r3, #16]
 8003d6e:	f042 0204 	orr.w	r2, r2, #4
 8003d72:	611a      	str	r2, [r3, #16]
    SET_BIT(FLASH->CR, FLASH_CR_STRT);
 8003d74:	691a      	ldr	r2, [r3, #16]
 8003d76:	f042 0240 	orr.w	r2, r2, #64	; 0x40
 8003d7a:	611a      	str	r2, [r3, #16]
#if defined(FLASH_BANK2_END)
  }
#endif /* FLASH_BANK2_END */
}
 8003d7c:	4770      	bx	lr
 8003d7e:	bf00      	nop
 8003d80:	20002788 	.word	0x20002788
 8003d84:	40022000 	.word	0x40022000

08003d88 <FLASH_PageErase>:
  * @retval None
  */
void FLASH_PageErase(uint32_t PageAddress)
{
  /* Clean the error context */
  pFlash.ErrorCode = HAL_FLASH_ERROR_NONE;
 8003d88:	4b06      	ldr	r3, [pc, #24]	; (8003da4 <FLASH_PageErase+0x1c>)
 8003d8a:	2200      	movs	r2, #0
 8003d8c:	61da      	str	r2, [r3, #28]
  }
  else
  {
#endif /* FLASH_BANK2_END */
    /* Proceed to erase the page */
    SET_BIT(FLASH->CR, FLASH_CR_PER);
 8003d8e:	4b06      	ldr	r3, [pc, #24]	; (8003da8 <FLASH_PageErase+0x20>)
 8003d90:	691a      	ldr	r2, [r3, #16]
 8003d92:	f042 0202 	orr.w	r2, r2, #2
 8003d96:	611a      	str	r2, [r3, #16]
    WRITE_REG(FLASH->AR, PageAddress);
 8003d98:	6158      	str	r0, [r3, #20]
    SET_BIT(FLASH->CR, FLASH_CR_STRT);
 8003d9a:	691a      	ldr	r2, [r3, #16]
 8003d9c:	f042 0240 	orr.w	r2, r2, #64	; 0x40
 8003da0:	611a      	str	r2, [r3, #16]
#if defined(FLASH_BANK2_END)
  }
#endif /* FLASH_BANK2_END */
}
 8003da2:	4770      	bx	lr
 8003da4:	20002788 	.word	0x20002788
 8003da8:	40022000 	.word	0x40022000

08003dac <HAL_FLASHEx_Erase>:
  __HAL_LOCK(&pFlash);
 8003dac:	4b26      	ldr	r3, [pc, #152]	; (8003e48 <HAL_FLASHEx_Erase+0x9c>)
 8003dae:	7e1b      	ldrb	r3, [r3, #24]
 8003db0:	2b01      	cmp	r3, #1
 8003db2:	d046      	beq.n	8003e42 <HAL_FLASHEx_Erase+0x96>
{
 8003db4:	b570      	push	{r4, r5, r6, lr}
 8003db6:	4605      	mov	r5, r0
 8003db8:	460e      	mov	r6, r1
  __HAL_LOCK(&pFlash);
 8003dba:	4b23      	ldr	r3, [pc, #140]	; (8003e48 <HAL_FLASHEx_Erase+0x9c>)
 8003dbc:	2201      	movs	r2, #1
 8003dbe:	761a      	strb	r2, [r3, #24]
  if (pEraseInit->TypeErase == FLASH_TYPEERASE_MASSERASE)
 8003dc0:	6803      	ldr	r3, [r0, #0]
 8003dc2:	2b02      	cmp	r3, #2
 8003dc4:	d020      	beq.n	8003e08 <HAL_FLASHEx_Erase+0x5c>
      if (FLASH_WaitForLastOperation((uint32_t)FLASH_TIMEOUT_VALUE) == HAL_OK)
 8003dc6:	f24c 3050 	movw	r0, #50000	; 0xc350
 8003dca:	f7ff ff49 	bl	8003c60 <FLASH_WaitForLastOperation>
 8003dce:	bb90      	cbnz	r0, 8003e36 <HAL_FLASHEx_Erase+0x8a>
        *PageError = 0xFFFFFFFFU;
 8003dd0:	f04f 33ff 	mov.w	r3, #4294967295
 8003dd4:	6033      	str	r3, [r6, #0]
        for(address = pEraseInit->PageAddress;
 8003dd6:	68ac      	ldr	r4, [r5, #8]
  HAL_StatusTypeDef status = HAL_ERROR;
 8003dd8:	2101      	movs	r1, #1
            address < ((pEraseInit->NbPages * FLASH_PAGE_SIZE) + pEraseInit->PageAddress);
 8003dda:	68ea      	ldr	r2, [r5, #12]
 8003ddc:	68ab      	ldr	r3, [r5, #8]
 8003dde:	eb03 2382 	add.w	r3, r3, r2, lsl #10
        for(address = pEraseInit->PageAddress;
 8003de2:	42a3      	cmp	r3, r4
 8003de4:	d928      	bls.n	8003e38 <HAL_FLASHEx_Erase+0x8c>
          FLASH_PageErase(address);
 8003de6:	4620      	mov	r0, r4
 8003de8:	f7ff ffce 	bl	8003d88 <FLASH_PageErase>
          status = FLASH_WaitForLastOperation((uint32_t)FLASH_TIMEOUT_VALUE);
 8003dec:	f24c 3050 	movw	r0, #50000	; 0xc350
 8003df0:	f7ff ff36 	bl	8003c60 <FLASH_WaitForLastOperation>
          CLEAR_BIT(FLASH->CR, FLASH_CR_PER);
 8003df4:	4a15      	ldr	r2, [pc, #84]	; (8003e4c <HAL_FLASHEx_Erase+0xa0>)
 8003df6:	6913      	ldr	r3, [r2, #16]
 8003df8:	f023 0302 	bic.w	r3, r3, #2
 8003dfc:	6113      	str	r3, [r2, #16]
          if (status != HAL_OK)
 8003dfe:	4601      	mov	r1, r0
 8003e00:	b9b8      	cbnz	r0, 8003e32 <HAL_FLASHEx_Erase+0x86>
            address += FLASH_PAGE_SIZE)
 8003e02:	f504 6480 	add.w	r4, r4, #1024	; 0x400
 8003e06:	e7e8      	b.n	8003dda <HAL_FLASHEx_Erase+0x2e>
      if (FLASH_WaitForLastOperation((uint32_t)FLASH_TIMEOUT_VALUE) == HAL_OK)
 8003e08:	f24c 3050 	movw	r0, #50000	; 0xc350
 8003e0c:	f7ff ff28 	bl	8003c60 <FLASH_WaitForLastOperation>
 8003e10:	b108      	cbz	r0, 8003e16 <HAL_FLASHEx_Erase+0x6a>
  HAL_StatusTypeDef status = HAL_ERROR;
 8003e12:	2101      	movs	r1, #1
 8003e14:	e010      	b.n	8003e38 <HAL_FLASHEx_Erase+0x8c>
        FLASH_MassErase(FLASH_BANK_1);
 8003e16:	2001      	movs	r0, #1
 8003e18:	f7ff ffa4 	bl	8003d64 <FLASH_MassErase>
        status = FLASH_WaitForLastOperation((uint32_t)FLASH_TIMEOUT_VALUE);
 8003e1c:	f24c 3050 	movw	r0, #50000	; 0xc350
 8003e20:	f7ff ff1e 	bl	8003c60 <FLASH_WaitForLastOperation>
 8003e24:	4601      	mov	r1, r0
        CLEAR_BIT(FLASH->CR, FLASH_CR_MER);
 8003e26:	4a09      	ldr	r2, [pc, #36]	; (8003e4c <HAL_FLASHEx_Erase+0xa0>)
 8003e28:	6913      	ldr	r3, [r2, #16]
 8003e2a:	f023 0304 	bic.w	r3, r3, #4
 8003e2e:	6113      	str	r3, [r2, #16]
 8003e30:	e002      	b.n	8003e38 <HAL_FLASHEx_Erase+0x8c>
            *PageError = address;
 8003e32:	6034      	str	r4, [r6, #0]
            break;
 8003e34:	e000      	b.n	8003e38 <HAL_FLASHEx_Erase+0x8c>
  HAL_StatusTypeDef status = HAL_ERROR;
 8003e36:	2101      	movs	r1, #1
  __HAL_UNLOCK(&pFlash);
 8003e38:	4b03      	ldr	r3, [pc, #12]	; (8003e48 <HAL_FLASHEx_Erase+0x9c>)
 8003e3a:	2200      	movs	r2, #0
 8003e3c:	761a      	strb	r2, [r3, #24]
}
 8003e3e:	4608      	mov	r0, r1
 8003e40:	bd70      	pop	{r4, r5, r6, pc}
  __HAL_LOCK(&pFlash);
 8003e42:	2102      	movs	r1, #2
}
 8003e44:	4608      	mov	r0, r1
 8003e46:	4770      	bx	lr
 8003e48:	20002788 	.word	0x20002788
 8003e4c:	40022000 	.word	0x40022000

08003e50 <HAL_GPIO_Init>:
  * @param  GPIO_Init: pointer to a GPIO_InitTypeDef structure that contains
  *         the configuration information for the specified GPIO peripheral.
  * @retval None
  */
void HAL_GPIO_Init(GPIO_TypeDef  *GPIOx, GPIO_InitTypeDef *GPIO_Init)
{
 8003e50:	b4f0      	push	{r4, r5, r6, r7}
 8003e52:	b082      	sub	sp, #8
  uint32_t position = 0x00u;
  uint32_t ioposition;
  uint32_t iocurrent;
  uint32_t temp;
  uint32_t config = 0x00u;
 8003e54:	2500      	movs	r5, #0
  uint32_t position = 0x00u;
 8003e56:	462c      	mov	r4, r5
  assert_param(IS_GPIO_ALL_INSTANCE(GPIOx));
  assert_param(IS_GPIO_PIN(GPIO_Init->Pin));
  assert_param(IS_GPIO_MODE(GPIO_Init->Mode));

  /* Configure the port pins */
  while (((GPIO_Init->Pin) >> position) != 0x00u)
 8003e58:	e0a3      	b.n	8003fa2 <HAL_GPIO_Init+0x152>
    {
      /* Check the Alternate function parameters */
      assert_param(IS_GPIO_AF_INSTANCE(GPIOx));

      /* Based on the required mode, filling config variable with MODEy[1:0] and CNFy[3:2] corresponding bits */
      switch (GPIO_Init->Mode)
 8003e5a:	4f7f      	ldr	r7, [pc, #508]	; (8004058 <HAL_GPIO_Init+0x208>)
 8003e5c:	42bb      	cmp	r3, r7
 8003e5e:	d010      	beq.n	8003e82 <HAL_GPIO_Init+0x32>
 8003e60:	d907      	bls.n	8003e72 <HAL_GPIO_Init+0x22>
 8003e62:	4f7e      	ldr	r7, [pc, #504]	; (800405c <HAL_GPIO_Init+0x20c>)
 8003e64:	42bb      	cmp	r3, r7
 8003e66:	d00c      	beq.n	8003e82 <HAL_GPIO_Init+0x32>
 8003e68:	f507 3780 	add.w	r7, r7, #65536	; 0x10000
 8003e6c:	42bb      	cmp	r3, r7
 8003e6e:	d008      	beq.n	8003e82 <HAL_GPIO_Init+0x32>
 8003e70:	e013      	b.n	8003e9a <HAL_GPIO_Init+0x4a>
 8003e72:	f5a7 1780 	sub.w	r7, r7, #1048576	; 0x100000
 8003e76:	42bb      	cmp	r3, r7
 8003e78:	d003      	beq.n	8003e82 <HAL_GPIO_Init+0x32>
 8003e7a:	f507 2770 	add.w	r7, r7, #983040	; 0xf0000
 8003e7e:	42bb      	cmp	r3, r7
 8003e80:	d107      	bne.n	8003e92 <HAL_GPIO_Init+0x42>
        case GPIO_MODE_EVT_RISING:
        case GPIO_MODE_EVT_FALLING:
        case GPIO_MODE_EVT_RISING_FALLING:
          /* Check the GPIO pull parameter */
          assert_param(IS_GPIO_PULL(GPIO_Init->Pull));
          if (GPIO_Init->Pull == GPIO_NOPULL)
 8003e82:	688b      	ldr	r3, [r1, #8]
 8003e84:	2b00      	cmp	r3, #0
 8003e86:	d058      	beq.n	8003f3a <HAL_GPIO_Init+0xea>
          {
            config = GPIO_CR_MODE_INPUT + GPIO_CR_CNF_INPUT_FLOATING;
          }
          else if (GPIO_Init->Pull == GPIO_PULLUP)
 8003e88:	2b01      	cmp	r3, #1
 8003e8a:	d051      	beq.n	8003f30 <HAL_GPIO_Init+0xe0>
          else /* GPIO_PULLDOWN */
          {
            config = GPIO_CR_MODE_INPUT + GPIO_CR_CNF_INPUT_PU_PD;

            /* Reset the corresponding ODR bit */
            GPIOx->BRR = ioposition;
 8003e8c:	6142      	str	r2, [r0, #20]
            config = GPIO_CR_MODE_INPUT + GPIO_CR_CNF_INPUT_PU_PD;
 8003e8e:	2508      	movs	r5, #8
 8003e90:	e003      	b.n	8003e9a <HAL_GPIO_Init+0x4a>
      switch (GPIO_Init->Mode)
 8003e92:	f5a7 1780 	sub.w	r7, r7, #1048576	; 0x100000
 8003e96:	42bb      	cmp	r3, r7
 8003e98:	d0f3      	beq.n	8003e82 <HAL_GPIO_Init+0x32>
          break;
      }

      /* Check if the current bit belongs to first half or last half of the pin count number
       in order to address CRH or CRL register*/
      configregister = (iocurrent < GPIO_PIN_8) ? &GPIOx->CRL     : &GPIOx->CRH;
 8003e9a:	2eff      	cmp	r6, #255	; 0xff
 8003e9c:	d84f      	bhi.n	8003f3e <HAL_GPIO_Init+0xee>
 8003e9e:	4684      	mov	ip, r0
      registeroffset = (iocurrent < GPIO_PIN_8) ? (position << 2u) : ((position - 8u) << 2u);
 8003ea0:	2eff      	cmp	r6, #255	; 0xff
 8003ea2:	d84f      	bhi.n	8003f44 <HAL_GPIO_Init+0xf4>
 8003ea4:	00a2      	lsls	r2, r4, #2

      /* Apply the new configuration of the pin to the register */
      MODIFY_REG((*configregister), ((GPIO_CRL_MODE0 | GPIO_CRL_CNF0) << registeroffset), (config << registeroffset));
 8003ea6:	f8dc 3000 	ldr.w	r3, [ip]
 8003eaa:	270f      	movs	r7, #15
 8003eac:	4097      	lsls	r7, r2
 8003eae:	ea23 0307 	bic.w	r3, r3, r7
 8003eb2:	fa05 f202 	lsl.w	r2, r5, r2
 8003eb6:	4313      	orrs	r3, r2
 8003eb8:	f8cc 3000 	str.w	r3, [ip]

      /*--------------------- EXTI Mode Configuration ------------------------*/
      /* Configure the External Interrupt or event for the current IO */
      if ((GPIO_Init->Mode & EXTI_MODE) == EXTI_MODE)
 8003ebc:	684b      	ldr	r3, [r1, #4]
 8003ebe:	f013 5f80 	tst.w	r3, #268435456	; 0x10000000
 8003ec2:	d06d      	beq.n	8003fa0 <HAL_GPIO_Init+0x150>
      {
        /* Enable AFIO Clock */
        __HAL_RCC_AFIO_CLK_ENABLE();
 8003ec4:	4b66      	ldr	r3, [pc, #408]	; (8004060 <HAL_GPIO_Init+0x210>)
 8003ec6:	699a      	ldr	r2, [r3, #24]
 8003ec8:	f042 0201 	orr.w	r2, r2, #1
 8003ecc:	619a      	str	r2, [r3, #24]
 8003ece:	699b      	ldr	r3, [r3, #24]
 8003ed0:	f003 0301 	and.w	r3, r3, #1
 8003ed4:	9301      	str	r3, [sp, #4]
 8003ed6:	9b01      	ldr	r3, [sp, #4]
        temp = AFIO->EXTICR[position >> 2u];
 8003ed8:	08a2      	lsrs	r2, r4, #2
 8003eda:	1c97      	adds	r7, r2, #2
 8003edc:	4b61      	ldr	r3, [pc, #388]	; (8004064 <HAL_GPIO_Init+0x214>)
 8003ede:	f853 3027 	ldr.w	r3, [r3, r7, lsl #2]
        CLEAR_BIT(temp, (0x0Fu) << (4u * (position & 0x03u)));
 8003ee2:	f004 0703 	and.w	r7, r4, #3
 8003ee6:	00bf      	lsls	r7, r7, #2
 8003ee8:	f04f 0c0f 	mov.w	ip, #15
 8003eec:	fa0c fc07 	lsl.w	ip, ip, r7
 8003ef0:	ea23 0c0c 	bic.w	ip, r3, ip
        SET_BIT(temp, (GPIO_GET_INDEX(GPIOx)) << (4u * (position & 0x03u)));
 8003ef4:	4b5c      	ldr	r3, [pc, #368]	; (8004068 <HAL_GPIO_Init+0x218>)
 8003ef6:	4298      	cmp	r0, r3
 8003ef8:	d02a      	beq.n	8003f50 <HAL_GPIO_Init+0x100>
 8003efa:	f503 6380 	add.w	r3, r3, #1024	; 0x400
 8003efe:	4298      	cmp	r0, r3
 8003f00:	f000 808a 	beq.w	8004018 <HAL_GPIO_Init+0x1c8>
 8003f04:	f503 6380 	add.w	r3, r3, #1024	; 0x400
 8003f08:	4298      	cmp	r0, r3
 8003f0a:	f000 8087 	beq.w	800401c <HAL_GPIO_Init+0x1cc>
 8003f0e:	f503 6380 	add.w	r3, r3, #1024	; 0x400
 8003f12:	4298      	cmp	r0, r3
 8003f14:	d01a      	beq.n	8003f4c <HAL_GPIO_Init+0xfc>
 8003f16:	2304      	movs	r3, #4
 8003f18:	e01b      	b.n	8003f52 <HAL_GPIO_Init+0x102>
          config = GPIO_Init->Speed + GPIO_CR_CNF_GP_OUTPUT_PP;
 8003f1a:	68cd      	ldr	r5, [r1, #12]
          break;
 8003f1c:	e7bd      	b.n	8003e9a <HAL_GPIO_Init+0x4a>
          config = GPIO_Init->Speed + GPIO_CR_CNF_GP_OUTPUT_OD;
 8003f1e:	68cd      	ldr	r5, [r1, #12]
 8003f20:	3504      	adds	r5, #4
          break;
 8003f22:	e7ba      	b.n	8003e9a <HAL_GPIO_Init+0x4a>
          config = GPIO_Init->Speed + GPIO_CR_CNF_AF_OUTPUT_PP;
 8003f24:	68cd      	ldr	r5, [r1, #12]
 8003f26:	3508      	adds	r5, #8
          break;
 8003f28:	e7b7      	b.n	8003e9a <HAL_GPIO_Init+0x4a>
          config = GPIO_Init->Speed + GPIO_CR_CNF_AF_OUTPUT_OD;
 8003f2a:	68cd      	ldr	r5, [r1, #12]
 8003f2c:	350c      	adds	r5, #12
          break;
 8003f2e:	e7b4      	b.n	8003e9a <HAL_GPIO_Init+0x4a>
            GPIOx->BSRR = ioposition;
 8003f30:	6102      	str	r2, [r0, #16]
            config = GPIO_CR_MODE_INPUT + GPIO_CR_CNF_INPUT_PU_PD;
 8003f32:	2508      	movs	r5, #8
 8003f34:	e7b1      	b.n	8003e9a <HAL_GPIO_Init+0x4a>
          config = GPIO_CR_MODE_INPUT + GPIO_CR_CNF_ANALOG;
 8003f36:	2500      	movs	r5, #0
 8003f38:	e7af      	b.n	8003e9a <HAL_GPIO_Init+0x4a>
            config = GPIO_CR_MODE_INPUT + GPIO_CR_CNF_INPUT_FLOATING;
 8003f3a:	2504      	movs	r5, #4
 8003f3c:	e7ad      	b.n	8003e9a <HAL_GPIO_Init+0x4a>
      configregister = (iocurrent < GPIO_PIN_8) ? &GPIOx->CRL     : &GPIOx->CRH;
 8003f3e:	f100 0c04 	add.w	ip, r0, #4
 8003f42:	e7ad      	b.n	8003ea0 <HAL_GPIO_Init+0x50>
      registeroffset = (iocurrent < GPIO_PIN_8) ? (position << 2u) : ((position - 8u) << 2u);
 8003f44:	f1a4 0208 	sub.w	r2, r4, #8
 8003f48:	0092      	lsls	r2, r2, #2
 8003f4a:	e7ac      	b.n	8003ea6 <HAL_GPIO_Init+0x56>
        SET_BIT(temp, (GPIO_GET_INDEX(GPIOx)) << (4u * (position & 0x03u)));
 8003f4c:	2303      	movs	r3, #3
 8003f4e:	e000      	b.n	8003f52 <HAL_GPIO_Init+0x102>
 8003f50:	2300      	movs	r3, #0
 8003f52:	40bb      	lsls	r3, r7
 8003f54:	ea43 030c 	orr.w	r3, r3, ip
        AFIO->EXTICR[position >> 2u] = temp;
 8003f58:	3202      	adds	r2, #2
 8003f5a:	4f42      	ldr	r7, [pc, #264]	; (8004064 <HAL_GPIO_Init+0x214>)
 8003f5c:	f847 3022 	str.w	r3, [r7, r2, lsl #2]


        /* Enable or disable the rising trigger */
        if ((GPIO_Init->Mode & RISING_EDGE) == RISING_EDGE)
 8003f60:	684b      	ldr	r3, [r1, #4]
 8003f62:	f413 1f80 	tst.w	r3, #1048576	; 0x100000
 8003f66:	d05b      	beq.n	8004020 <HAL_GPIO_Init+0x1d0>
        {
          SET_BIT(EXTI->RTSR, iocurrent);
 8003f68:	4a40      	ldr	r2, [pc, #256]	; (800406c <HAL_GPIO_Init+0x21c>)
 8003f6a:	6893      	ldr	r3, [r2, #8]
 8003f6c:	4333      	orrs	r3, r6
 8003f6e:	6093      	str	r3, [r2, #8]
        {
          CLEAR_BIT(EXTI->RTSR, iocurrent);
        }

        /* Enable or disable the falling trigger */
        if ((GPIO_Init->Mode & FALLING_EDGE) == FALLING_EDGE)
 8003f70:	684b      	ldr	r3, [r1, #4]
 8003f72:	f413 1f00 	tst.w	r3, #2097152	; 0x200000
 8003f76:	d059      	beq.n	800402c <HAL_GPIO_Init+0x1dc>
        {
          SET_BIT(EXTI->FTSR, iocurrent);
 8003f78:	4a3c      	ldr	r2, [pc, #240]	; (800406c <HAL_GPIO_Init+0x21c>)
 8003f7a:	68d3      	ldr	r3, [r2, #12]
 8003f7c:	4333      	orrs	r3, r6
 8003f7e:	60d3      	str	r3, [r2, #12]
        {
          CLEAR_BIT(EXTI->FTSR, iocurrent);
        }

        /* Configure the event mask */
        if ((GPIO_Init->Mode & GPIO_MODE_EVT) == GPIO_MODE_EVT)
 8003f80:	684b      	ldr	r3, [r1, #4]
 8003f82:	f413 3f00 	tst.w	r3, #131072	; 0x20000
 8003f86:	d057      	beq.n	8004038 <HAL_GPIO_Init+0x1e8>
        {
          SET_BIT(EXTI->EMR, iocurrent);
 8003f88:	4a38      	ldr	r2, [pc, #224]	; (800406c <HAL_GPIO_Init+0x21c>)
 8003f8a:	6853      	ldr	r3, [r2, #4]
 8003f8c:	4333      	orrs	r3, r6
 8003f8e:	6053      	str	r3, [r2, #4]
        {
          CLEAR_BIT(EXTI->EMR, iocurrent);
        }

        /* Configure the interrupt mask */
        if ((GPIO_Init->Mode & GPIO_MODE_IT) == GPIO_MODE_IT)
 8003f90:	684b      	ldr	r3, [r1, #4]
 8003f92:	f413 3f80 	tst.w	r3, #65536	; 0x10000
 8003f96:	d055      	beq.n	8004044 <HAL_GPIO_Init+0x1f4>
        {
          SET_BIT(EXTI->IMR, iocurrent);
 8003f98:	4a34      	ldr	r2, [pc, #208]	; (800406c <HAL_GPIO_Init+0x21c>)
 8003f9a:	6813      	ldr	r3, [r2, #0]
 8003f9c:	431e      	orrs	r6, r3
 8003f9e:	6016      	str	r6, [r2, #0]
          CLEAR_BIT(EXTI->IMR, iocurrent);
        }
      }
    }

	position++;
 8003fa0:	3401      	adds	r4, #1
  while (((GPIO_Init->Pin) >> position) != 0x00u)
 8003fa2:	680b      	ldr	r3, [r1, #0]
 8003fa4:	fa33 f204 	lsrs.w	r2, r3, r4
 8003fa8:	d052      	beq.n	8004050 <HAL_GPIO_Init+0x200>
    ioposition = (0x01uL << position);
 8003faa:	2201      	movs	r2, #1
 8003fac:	40a2      	lsls	r2, r4
    iocurrent = (uint32_t)(GPIO_Init->Pin) & ioposition;
 8003fae:	ea03 0602 	and.w	r6, r3, r2
    if (iocurrent == ioposition)
 8003fb2:	ea32 0303 	bics.w	r3, r2, r3
 8003fb6:	d1f3      	bne.n	8003fa0 <HAL_GPIO_Init+0x150>
      switch (GPIO_Init->Mode)
 8003fb8:	684b      	ldr	r3, [r1, #4]
 8003fba:	2b12      	cmp	r3, #18
 8003fbc:	f63f af4d 	bhi.w	8003e5a <HAL_GPIO_Init+0xa>
 8003fc0:	2b12      	cmp	r3, #18
 8003fc2:	f63f af6a 	bhi.w	8003e9a <HAL_GPIO_Init+0x4a>
 8003fc6:	a701      	add	r7, pc, #4	; (adr r7, 8003fcc <HAL_GPIO_Init+0x17c>)
 8003fc8:	f857 f023 	ldr.w	pc, [r7, r3, lsl #2]
 8003fcc:	08003e83 	.word	0x08003e83
 8003fd0:	08003f1b 	.word	0x08003f1b
 8003fd4:	08003f25 	.word	0x08003f25
 8003fd8:	08003f37 	.word	0x08003f37
 8003fdc:	08003e9b 	.word	0x08003e9b
 8003fe0:	08003e9b 	.word	0x08003e9b
 8003fe4:	08003e9b 	.word	0x08003e9b
 8003fe8:	08003e9b 	.word	0x08003e9b
 8003fec:	08003e9b 	.word	0x08003e9b
 8003ff0:	08003e9b 	.word	0x08003e9b
 8003ff4:	08003e9b 	.word	0x08003e9b
 8003ff8:	08003e9b 	.word	0x08003e9b
 8003ffc:	08003e9b 	.word	0x08003e9b
 8004000:	08003e9b 	.word	0x08003e9b
 8004004:	08003e9b 	.word	0x08003e9b
 8004008:	08003e9b 	.word	0x08003e9b
 800400c:	08003e9b 	.word	0x08003e9b
 8004010:	08003f1f 	.word	0x08003f1f
 8004014:	08003f2b 	.word	0x08003f2b
        SET_BIT(temp, (GPIO_GET_INDEX(GPIOx)) << (4u * (position & 0x03u)));
 8004018:	2301      	movs	r3, #1
 800401a:	e79a      	b.n	8003f52 <HAL_GPIO_Init+0x102>
 800401c:	2302      	movs	r3, #2
 800401e:	e798      	b.n	8003f52 <HAL_GPIO_Init+0x102>
          CLEAR_BIT(EXTI->RTSR, iocurrent);
 8004020:	4a12      	ldr	r2, [pc, #72]	; (800406c <HAL_GPIO_Init+0x21c>)
 8004022:	6893      	ldr	r3, [r2, #8]
 8004024:	ea23 0306 	bic.w	r3, r3, r6
 8004028:	6093      	str	r3, [r2, #8]
 800402a:	e7a1      	b.n	8003f70 <HAL_GPIO_Init+0x120>
          CLEAR_BIT(EXTI->FTSR, iocurrent);
 800402c:	4a0f      	ldr	r2, [pc, #60]	; (800406c <HAL_GPIO_Init+0x21c>)
 800402e:	68d3      	ldr	r3, [r2, #12]
 8004030:	ea23 0306 	bic.w	r3, r3, r6
 8004034:	60d3      	str	r3, [r2, #12]
 8004036:	e7a3      	b.n	8003f80 <HAL_GPIO_Init+0x130>
          CLEAR_BIT(EXTI->EMR, iocurrent);
 8004038:	4a0c      	ldr	r2, [pc, #48]	; (800406c <HAL_GPIO_Init+0x21c>)
 800403a:	6853      	ldr	r3, [r2, #4]
 800403c:	ea23 0306 	bic.w	r3, r3, r6
 8004040:	6053      	str	r3, [r2, #4]
 8004042:	e7a5      	b.n	8003f90 <HAL_GPIO_Init+0x140>
          CLEAR_BIT(EXTI->IMR, iocurrent);
 8004044:	4a09      	ldr	r2, [pc, #36]	; (800406c <HAL_GPIO_Init+0x21c>)
 8004046:	6813      	ldr	r3, [r2, #0]
 8004048:	ea23 0606 	bic.w	r6, r3, r6
 800404c:	6016      	str	r6, [r2, #0]
 800404e:	e7a7      	b.n	8003fa0 <HAL_GPIO_Init+0x150>
  }
}
 8004050:	b002      	add	sp, #8
 8004052:	bcf0      	pop	{r4, r5, r6, r7}
 8004054:	4770      	bx	lr
 8004056:	bf00      	nop
 8004058:	10220000 	.word	0x10220000
 800405c:	10310000 	.word	0x10310000
 8004060:	40021000 	.word	0x40021000
 8004064:	40010000 	.word	0x40010000
 8004068:	40010800 	.word	0x40010800
 800406c:	40010400 	.word	0x40010400

08004070 <HAL_GPIO_ReadPin>:
  GPIO_PinState bitstatus;

  /* Check the parameters */
  assert_param(IS_GPIO_PIN(GPIO_Pin));

  if ((GPIOx->IDR & GPIO_Pin) != (uint32_t)GPIO_PIN_RESET)
 8004070:	6883      	ldr	r3, [r0, #8]
 8004072:	4219      	tst	r1, r3
 8004074:	d001      	beq.n	800407a <HAL_GPIO_ReadPin+0xa>
  {
    bitstatus = GPIO_PIN_SET;
 8004076:	2001      	movs	r0, #1
 8004078:	4770      	bx	lr
  }
  else
  {
    bitstatus = GPIO_PIN_RESET;
 800407a:	2000      	movs	r0, #0
  }
  return bitstatus;
}
 800407c:	4770      	bx	lr

0800407e <HAL_GPIO_WritePin>:
{
  /* Check the parameters */
  assert_param(IS_GPIO_PIN(GPIO_Pin));
  assert_param(IS_GPIO_PIN_ACTION(PinState));

  if (PinState != GPIO_PIN_RESET)
 800407e:	b10a      	cbz	r2, 8004084 <HAL_GPIO_WritePin+0x6>
  {
    GPIOx->BSRR = GPIO_Pin;
 8004080:	6101      	str	r1, [r0, #16]
 8004082:	4770      	bx	lr
  }
  else
  {
    GPIOx->BSRR = (uint32_t)GPIO_Pin << 16u;
 8004084:	0409      	lsls	r1, r1, #16
 8004086:	6101      	str	r1, [r0, #16]
  }
}
 8004088:	4770      	bx	lr

0800408a <HAL_PCD_EP_DB_Receive>:
  * @param  wEPVal Last snapshot of EPRx register value taken in ISR
  * @retval HAL status
  */
static uint16_t HAL_PCD_EP_DB_Receive(PCD_HandleTypeDef *hpcd,
                                      PCD_EPTypeDef *ep, uint16_t wEPVal)
{
 800408a:	b570      	push	{r4, r5, r6, lr}
  uint16_t count;

  /* Manage Buffer0 OUT */
  if ((wEPVal & USB_EP_DTOG_RX) != 0U)
 800408c:	f412 4f80 	tst.w	r2, #16384	; 0x4000
 8004090:	d043      	beq.n	800411a <HAL_PCD_EP_DB_Receive+0x90>
  {
    /* Get count of received Data on buffer0 */
    count = (uint16_t)PCD_GET_EP_DBUF0_CNT(hpcd->Instance, ep->num);
 8004092:	6804      	ldr	r4, [r0, #0]
 8004094:	f8b4 3050 	ldrh.w	r3, [r4, #80]	; 0x50
 8004098:	b29b      	uxth	r3, r3
 800409a:	780d      	ldrb	r5, [r1, #0]
 800409c:	eb03 03c5 	add.w	r3, r3, r5, lsl #3
 80040a0:	3302      	adds	r3, #2
 80040a2:	eb04 0343 	add.w	r3, r4, r3, lsl #1
 80040a6:	f8b3 4400 	ldrh.w	r4, [r3, #1024]	; 0x400
 80040aa:	f3c4 0409 	ubfx	r4, r4, #0, #10

    if (ep->xfer_len >= count)
 80040ae:	698b      	ldr	r3, [r1, #24]
 80040b0:	42a3      	cmp	r3, r4
 80040b2:	d328      	bcc.n	8004106 <HAL_PCD_EP_DB_Receive+0x7c>
    {
      ep->xfer_len -= count;
 80040b4:	1b1b      	subs	r3, r3, r4
 80040b6:	618b      	str	r3, [r1, #24]
    else
    {
      ep->xfer_len = 0U;
    }

    if (ep->xfer_len == 0U)
 80040b8:	698b      	ldr	r3, [r1, #24]
 80040ba:	b97b      	cbnz	r3, 80040dc <HAL_PCD_EP_DB_Receive+0x52>
    {
      /* set NAK to OUT endpoint since double buffer is enabled */
      PCD_SET_EP_RX_STATUS(hpcd->Instance, ep->num, USB_EP_RX_NAK);
 80040bc:	6806      	ldr	r6, [r0, #0]
 80040be:	f836 3025 	ldrh.w	r3, [r6, r5, lsl #2]
 80040c2:	b29b      	uxth	r3, r3
 80040c4:	f423 4380 	bic.w	r3, r3, #16384	; 0x4000
 80040c8:	f023 0370 	bic.w	r3, r3, #112	; 0x70
 80040cc:	f483 5300 	eor.w	r3, r3, #8192	; 0x2000
 80040d0:	f443 4300 	orr.w	r3, r3, #32768	; 0x8000
 80040d4:	f043 0380 	orr.w	r3, r3, #128	; 0x80
 80040d8:	f826 3025 	strh.w	r3, [r6, r5, lsl #2]
    }

    /* Check if Buffer1 is in blocked state which requires to toggle */
    if ((wEPVal & USB_EP_DTOG_TX) != 0U)
 80040dc:	f012 0f40 	tst.w	r2, #64	; 0x40
 80040e0:	d00e      	beq.n	8004100 <HAL_PCD_EP_DB_Receive+0x76>
    {
      PCD_FREE_USER_BUFFER(hpcd->Instance, ep->num, 0U);
 80040e2:	6802      	ldr	r2, [r0, #0]
 80040e4:	780d      	ldrb	r5, [r1, #0]
 80040e6:	f832 3025 	ldrh.w	r3, [r2, r5, lsl #2]
 80040ea:	b29b      	uxth	r3, r3
 80040ec:	f423 43e0 	bic.w	r3, r3, #28672	; 0x7000
 80040f0:	f023 0370 	bic.w	r3, r3, #112	; 0x70
 80040f4:	f443 4300 	orr.w	r3, r3, #32768	; 0x8000
 80040f8:	f043 03c0 	orr.w	r3, r3, #192	; 0xc0
 80040fc:	f822 3025 	strh.w	r3, [r2, r5, lsl #2]
    }

    if (count != 0U)
 8004100:	b924      	cbnz	r4, 800410c <HAL_PCD_EP_DB_Receive+0x82>
      USB_ReadPMA(hpcd->Instance, ep->xfer_buff, ep->pmaaddr1, count);
    }
  }

  return count;
}
 8004102:	4620      	mov	r0, r4
 8004104:	bd70      	pop	{r4, r5, r6, pc}
      ep->xfer_len = 0U;
 8004106:	2300      	movs	r3, #0
 8004108:	618b      	str	r3, [r1, #24]
 800410a:	e7d5      	b.n	80040b8 <HAL_PCD_EP_DB_Receive+0x2e>
      USB_ReadPMA(hpcd->Instance, ep->xfer_buff, ep->pmaaddr0, count);
 800410c:	4623      	mov	r3, r4
 800410e:	890a      	ldrh	r2, [r1, #8]
 8004110:	6949      	ldr	r1, [r1, #20]
 8004112:	6800      	ldr	r0, [r0, #0]
 8004114:	f002 ffea 	bl	80070ec <USB_ReadPMA>
 8004118:	e7f3      	b.n	8004102 <HAL_PCD_EP_DB_Receive+0x78>
    count = (uint16_t)PCD_GET_EP_DBUF1_CNT(hpcd->Instance, ep->num);
 800411a:	6804      	ldr	r4, [r0, #0]
 800411c:	f8b4 3050 	ldrh.w	r3, [r4, #80]	; 0x50
 8004120:	b29b      	uxth	r3, r3
 8004122:	780d      	ldrb	r5, [r1, #0]
 8004124:	eb03 03c5 	add.w	r3, r3, r5, lsl #3
 8004128:	3306      	adds	r3, #6
 800412a:	eb04 0343 	add.w	r3, r4, r3, lsl #1
 800412e:	f8b3 4400 	ldrh.w	r4, [r3, #1024]	; 0x400
 8004132:	f3c4 0409 	ubfx	r4, r4, #0, #10
    if (ep->xfer_len >= count)
 8004136:	698b      	ldr	r3, [r1, #24]
 8004138:	42a3      	cmp	r3, r4
 800413a:	d32e      	bcc.n	800419a <HAL_PCD_EP_DB_Receive+0x110>
      ep->xfer_len -= count;
 800413c:	1b1b      	subs	r3, r3, r4
 800413e:	618b      	str	r3, [r1, #24]
    if (ep->xfer_len == 0U)
 8004140:	698b      	ldr	r3, [r1, #24]
 8004142:	b97b      	cbnz	r3, 8004164 <HAL_PCD_EP_DB_Receive+0xda>
      PCD_SET_EP_RX_STATUS(hpcd->Instance, ep->num, USB_EP_RX_NAK);
 8004144:	6806      	ldr	r6, [r0, #0]
 8004146:	f836 3025 	ldrh.w	r3, [r6, r5, lsl #2]
 800414a:	b29b      	uxth	r3, r3
 800414c:	f423 4380 	bic.w	r3, r3, #16384	; 0x4000
 8004150:	f023 0370 	bic.w	r3, r3, #112	; 0x70
 8004154:	f483 5300 	eor.w	r3, r3, #8192	; 0x2000
 8004158:	f443 4300 	orr.w	r3, r3, #32768	; 0x8000
 800415c:	f043 0380 	orr.w	r3, r3, #128	; 0x80
 8004160:	f826 3025 	strh.w	r3, [r6, r5, lsl #2]
    if ((wEPVal & USB_EP_DTOG_TX) == 0U)
 8004164:	f012 0f40 	tst.w	r2, #64	; 0x40
 8004168:	d10e      	bne.n	8004188 <HAL_PCD_EP_DB_Receive+0xfe>
      PCD_FREE_USER_BUFFER(hpcd->Instance, ep->num, 0U);
 800416a:	6802      	ldr	r2, [r0, #0]
 800416c:	780d      	ldrb	r5, [r1, #0]
 800416e:	f832 3025 	ldrh.w	r3, [r2, r5, lsl #2]
 8004172:	b29b      	uxth	r3, r3
 8004174:	f423 43e0 	bic.w	r3, r3, #28672	; 0x7000
 8004178:	f023 0370 	bic.w	r3, r3, #112	; 0x70
 800417c:	f443 4300 	orr.w	r3, r3, #32768	; 0x8000
 8004180:	f043 03c0 	orr.w	r3, r3, #192	; 0xc0
 8004184:	f822 3025 	strh.w	r3, [r2, r5, lsl #2]
    if (count != 0U)
 8004188:	2c00      	cmp	r4, #0
 800418a:	d0ba      	beq.n	8004102 <HAL_PCD_EP_DB_Receive+0x78>
      USB_ReadPMA(hpcd->Instance, ep->xfer_buff, ep->pmaaddr1, count);
 800418c:	4623      	mov	r3, r4
 800418e:	894a      	ldrh	r2, [r1, #10]
 8004190:	6949      	ldr	r1, [r1, #20]
 8004192:	6800      	ldr	r0, [r0, #0]
 8004194:	f002 ffaa 	bl	80070ec <USB_ReadPMA>
 8004198:	e7b3      	b.n	8004102 <HAL_PCD_EP_DB_Receive+0x78>
      ep->xfer_len = 0U;
 800419a:	2300      	movs	r3, #0
 800419c:	618b      	str	r3, [r1, #24]
 800419e:	e7cf      	b.n	8004140 <HAL_PCD_EP_DB_Receive+0xb6>

080041a0 <HAL_PCD_Init>:
{
 80041a0:	b538      	push	{r3, r4, r5, lr}
  if (hpcd == NULL)
 80041a2:	2800      	cmp	r0, #0
 80041a4:	d06d      	beq.n	8004282 <HAL_PCD_Init+0xe2>
 80041a6:	4604      	mov	r4, r0
  if (hpcd->State == HAL_PCD_STATE_RESET)
 80041a8:	f890 3291 	ldrb.w	r3, [r0, #657]	; 0x291
 80041ac:	b1a3      	cbz	r3, 80041d8 <HAL_PCD_Init+0x38>
  hpcd->State = HAL_PCD_STATE_BUSY;
 80041ae:	2303      	movs	r3, #3
 80041b0:	f884 3291 	strb.w	r3, [r4, #657]	; 0x291
  hpcd->Init.dma_enable = 0U;
 80041b4:	2300      	movs	r3, #0
 80041b6:	7163      	strb	r3, [r4, #5]
  __HAL_PCD_DISABLE(hpcd);
 80041b8:	6820      	ldr	r0, [r4, #0]
 80041ba:	f002 f847 	bl	800624c <USB_DisableGlobalInt>
  if (USB_CoreInit(hpcd->Instance, hpcd->Init) != HAL_OK)
 80041be:	4623      	mov	r3, r4
 80041c0:	f853 0b04 	ldr.w	r0, [r3], #4
 80041c4:	cb0e      	ldmia	r3, {r1, r2, r3}
 80041c6:	f002 f831 	bl	800622c <USB_CoreInit>
 80041ca:	b150      	cbz	r0, 80041e2 <HAL_PCD_Init+0x42>
    hpcd->State = HAL_PCD_STATE_ERROR;
 80041cc:	2302      	movs	r3, #2
 80041ce:	f884 3291 	strb.w	r3, [r4, #657]	; 0x291
    return HAL_ERROR;
 80041d2:	2501      	movs	r5, #1
}
 80041d4:	4628      	mov	r0, r5
 80041d6:	bd38      	pop	{r3, r4, r5, pc}
    hpcd->Lock = HAL_UNLOCKED;
 80041d8:	f880 3290 	strb.w	r3, [r0, #656]	; 0x290
    HAL_PCD_MspInit(hpcd);
 80041dc:	f003 ff2c 	bl	8008038 <HAL_PCD_MspInit>
 80041e0:	e7e5      	b.n	80041ae <HAL_PCD_Init+0xe>
  if (USB_SetCurrentMode(hpcd->Instance, USB_DEVICE_MODE) != HAL_OK)
 80041e2:	2100      	movs	r1, #0
 80041e4:	6820      	ldr	r0, [r4, #0]
 80041e6:	f002 f83b 	bl	8006260 <USB_SetCurrentMode>
 80041ea:	4603      	mov	r3, r0
 80041ec:	b9a8      	cbnz	r0, 800421a <HAL_PCD_Init+0x7a>
  for (i = 0U; i < hpcd->Init.dev_endpoints; i++)
 80041ee:	4602      	mov	r2, r0
 80041f0:	7920      	ldrb	r0, [r4, #4]
 80041f2:	4290      	cmp	r0, r2
 80041f4:	d92d      	bls.n	8004252 <HAL_PCD_Init+0xb2>
    hpcd->IN_ep[i].is_in = 1U;
 80041f6:	eb02 0182 	add.w	r1, r2, r2, lsl #2
 80041fa:	eb04 01c1 	add.w	r1, r4, r1, lsl #3
 80041fe:	2001      	movs	r0, #1
 8004200:	7448      	strb	r0, [r1, #17]
    hpcd->IN_ep[i].num = i;
 8004202:	740a      	strb	r2, [r1, #16]
    hpcd->IN_ep[i].type = EP_TYPE_CTRL;
 8004204:	2000      	movs	r0, #0
 8004206:	74c8      	strb	r0, [r1, #19]
    hpcd->IN_ep[i].maxpacket = 0U;
 8004208:	6208      	str	r0, [r1, #32]
    hpcd->IN_ep[i].xfer_buff = 0U;
 800420a:	6248      	str	r0, [r1, #36]	; 0x24
    hpcd->IN_ep[i].xfer_len = 0U;
 800420c:	3201      	adds	r2, #1
 800420e:	eb02 0182 	add.w	r1, r2, r2, lsl #2
 8004212:	00c9      	lsls	r1, r1, #3
 8004214:	5060      	str	r0, [r4, r1]
  for (i = 0U; i < hpcd->Init.dev_endpoints; i++)
 8004216:	b2d2      	uxtb	r2, r2
 8004218:	e7ea      	b.n	80041f0 <HAL_PCD_Init+0x50>
    hpcd->State = HAL_PCD_STATE_ERROR;
 800421a:	2302      	movs	r3, #2
 800421c:	f884 3291 	strb.w	r3, [r4, #657]	; 0x291
    return HAL_ERROR;
 8004220:	2501      	movs	r5, #1
 8004222:	e7d7      	b.n	80041d4 <HAL_PCD_Init+0x34>
    hpcd->OUT_ep[i].is_in = 0U;
 8004224:	eb03 0283 	add.w	r2, r3, r3, lsl #2
 8004228:	eb04 02c2 	add.w	r2, r4, r2, lsl #3
 800422c:	2100      	movs	r1, #0
 800422e:	f882 1151 	strb.w	r1, [r2, #337]	; 0x151
    hpcd->OUT_ep[i].num = i;
 8004232:	f882 3150 	strb.w	r3, [r2, #336]	; 0x150
    hpcd->OUT_ep[i].type = EP_TYPE_CTRL;
 8004236:	f882 1153 	strb.w	r1, [r2, #339]	; 0x153
    hpcd->OUT_ep[i].maxpacket = 0U;
 800423a:	f8c2 1160 	str.w	r1, [r2, #352]	; 0x160
    hpcd->OUT_ep[i].xfer_buff = 0U;
 800423e:	f8c2 1164 	str.w	r1, [r2, #356]	; 0x164
    hpcd->OUT_ep[i].xfer_len = 0U;
 8004242:	eb03 0283 	add.w	r2, r3, r3, lsl #2
 8004246:	eb04 02c2 	add.w	r2, r4, r2, lsl #3
 800424a:	f8c2 1168 	str.w	r1, [r2, #360]	; 0x168
  for (i = 0U; i < hpcd->Init.dev_endpoints; i++)
 800424e:	3301      	adds	r3, #1
 8004250:	b2db      	uxtb	r3, r3
 8004252:	4298      	cmp	r0, r3
 8004254:	d8e6      	bhi.n	8004224 <HAL_PCD_Init+0x84>
  if (USB_DevInit(hpcd->Instance, hpcd->Init) != HAL_OK)
 8004256:	4623      	mov	r3, r4
 8004258:	f853 0b04 	ldr.w	r0, [r3], #4
 800425c:	cb0e      	ldmia	r3, {r1, r2, r3}
 800425e:	f002 f801 	bl	8006264 <USB_DevInit>
 8004262:	4605      	mov	r5, r0
 8004264:	b120      	cbz	r0, 8004270 <HAL_PCD_Init+0xd0>
    hpcd->State = HAL_PCD_STATE_ERROR;
 8004266:	2302      	movs	r3, #2
 8004268:	f884 3291 	strb.w	r3, [r4, #657]	; 0x291
    return HAL_ERROR;
 800426c:	2501      	movs	r5, #1
 800426e:	e7b1      	b.n	80041d4 <HAL_PCD_Init+0x34>
  hpcd->USB_Address = 0U;
 8004270:	2300      	movs	r3, #0
 8004272:	7363      	strb	r3, [r4, #13]
  hpcd->State = HAL_PCD_STATE_READY;
 8004274:	2301      	movs	r3, #1
 8004276:	f884 3291 	strb.w	r3, [r4, #657]	; 0x291
  (void)USB_DevDisconnect(hpcd->Instance);
 800427a:	6820      	ldr	r0, [r4, #0]
 800427c:	f002 fb34 	bl	80068e8 <USB_DevDisconnect>
  return HAL_OK;
 8004280:	e7a8      	b.n	80041d4 <HAL_PCD_Init+0x34>
    return HAL_ERROR;
 8004282:	2501      	movs	r5, #1
 8004284:	e7a6      	b.n	80041d4 <HAL_PCD_Init+0x34>

08004286 <HAL_PCD_Start>:
{
 8004286:	b538      	push	{r3, r4, r5, lr}
  __HAL_LOCK(hpcd);
 8004288:	f890 3290 	ldrb.w	r3, [r0, #656]	; 0x290
 800428c:	2b01      	cmp	r3, #1
 800428e:	d011      	beq.n	80042b4 <HAL_PCD_Start+0x2e>
 8004290:	4604      	mov	r4, r0
 8004292:	2501      	movs	r5, #1
 8004294:	f880 5290 	strb.w	r5, [r0, #656]	; 0x290
  __HAL_PCD_ENABLE(hpcd);
 8004298:	6800      	ldr	r0, [r0, #0]
 800429a:	f001 ffce 	bl	800623a <USB_EnableGlobalInt>
  HAL_PCDEx_SetConnectionState(hpcd, 1U);
 800429e:	4629      	mov	r1, r5
 80042a0:	4620      	mov	r0, r4
 80042a2:	f003 ffe6 	bl	8008272 <HAL_PCDEx_SetConnectionState>
  (void)USB_DevConnect(hpcd->Instance);
 80042a6:	6820      	ldr	r0, [r4, #0]
 80042a8:	f002 fb1c 	bl	80068e4 <USB_DevConnect>
  __HAL_UNLOCK(hpcd);
 80042ac:	2000      	movs	r0, #0
 80042ae:	f884 0290 	strb.w	r0, [r4, #656]	; 0x290
}
 80042b2:	bd38      	pop	{r3, r4, r5, pc}
  __HAL_LOCK(hpcd);
 80042b4:	2002      	movs	r0, #2
 80042b6:	e7fc      	b.n	80042b2 <HAL_PCD_Start+0x2c>

080042b8 <HAL_PCD_EP_DB_Transmit>:
  * @param  wEPVal Last snapshot of EPRx register value taken in ISR
  * @retval HAL status
  */
static HAL_StatusTypeDef HAL_PCD_EP_DB_Transmit(PCD_HandleTypeDef *hpcd,
                                                PCD_EPTypeDef *ep, uint16_t wEPVal)
{
 80042b8:	b570      	push	{r4, r5, r6, lr}
 80042ba:	4605      	mov	r5, r0
 80042bc:	460c      	mov	r4, r1
 80042be:	4616      	mov	r6, r2
  uint32_t len;
  uint16_t TxPctSize;

  /* Data Buffer0 ACK received */
  if ((wEPVal & USB_EP_DTOG_TX) != 0U)
 80042c0:	f012 0f40 	tst.w	r2, #64	; 0x40
 80042c4:	f000 810e 	beq.w	80044e4 <HAL_PCD_EP_DB_Transmit+0x22c>
  {
    /* multi-packet on the NON control IN endpoint */
    TxPctSize = (uint16_t)PCD_GET_EP_DBUF0_CNT(hpcd->Instance, ep->num);
 80042c8:	6802      	ldr	r2, [r0, #0]
 80042ca:	f8b2 3050 	ldrh.w	r3, [r2, #80]	; 0x50
 80042ce:	b29b      	uxth	r3, r3
 80042d0:	7809      	ldrb	r1, [r1, #0]
 80042d2:	eb03 03c1 	add.w	r3, r3, r1, lsl #3
 80042d6:	3302      	adds	r3, #2
 80042d8:	eb02 0343 	add.w	r3, r2, r3, lsl #1
 80042dc:	f8b3 2400 	ldrh.w	r2, [r3, #1024]	; 0x400
 80042e0:	f3c2 0209 	ubfx	r2, r2, #0, #10

    if (ep->xfer_len > TxPctSize)
 80042e4:	69a3      	ldr	r3, [r4, #24]
 80042e6:	4293      	cmp	r3, r2
 80042e8:	d94e      	bls.n	8004388 <HAL_PCD_EP_DB_Transmit+0xd0>
    {
      ep->xfer_len -= TxPctSize;
 80042ea:	1a9b      	subs	r3, r3, r2
 80042ec:	61a3      	str	r3, [r4, #24]
    {
      ep->xfer_len = 0U;
    }

    /* Transfer is completed */
    if (ep->xfer_len == 0U)
 80042ee:	69a3      	ldr	r3, [r4, #24]
 80042f0:	2b00      	cmp	r3, #0
 80042f2:	d166      	bne.n	80043c2 <HAL_PCD_EP_DB_Transmit+0x10a>
    {
      PCD_SET_EP_DBUF0_CNT(hpcd->Instance, ep->num, ep->is_in, 0U);
 80042f4:	7863      	ldrb	r3, [r4, #1]
 80042f6:	2b00      	cmp	r3, #0
 80042f8:	d149      	bne.n	800438e <HAL_PCD_EP_DB_Transmit+0xd6>
 80042fa:	682b      	ldr	r3, [r5, #0]
 80042fc:	f8b3 2050 	ldrh.w	r2, [r3, #80]	; 0x50
 8004300:	b292      	uxth	r2, r2
 8004302:	4413      	add	r3, r2
 8004304:	eb03 1101 	add.w	r1, r3, r1, lsl #4
 8004308:	f8b1 3404 	ldrh.w	r3, [r1, #1028]	; 0x404
 800430c:	f3c3 0309 	ubfx	r3, r3, #0, #10
 8004310:	f8a1 3404 	strh.w	r3, [r1, #1028]	; 0x404
 8004314:	f8b1 3404 	ldrh.w	r3, [r1, #1028]	; 0x404
 8004318:	ea6f 4343 	mvn.w	r3, r3, lsl #17
 800431c:	ea6f 4353 	mvn.w	r3, r3, lsr #17
 8004320:	b29b      	uxth	r3, r3
 8004322:	f8a1 3404 	strh.w	r3, [r1, #1028]	; 0x404
      PCD_SET_EP_DBUF1_CNT(hpcd->Instance, ep->num, ep->is_in, 0U);
 8004326:	682b      	ldr	r3, [r5, #0]
 8004328:	7862      	ldrb	r2, [r4, #1]
 800432a:	2a00      	cmp	r2, #0
 800432c:	d13c      	bne.n	80043a8 <HAL_PCD_EP_DB_Transmit+0xf0>
 800432e:	f8b3 2050 	ldrh.w	r2, [r3, #80]	; 0x50
 8004332:	b292      	uxth	r2, r2
 8004334:	4413      	add	r3, r2
 8004336:	7822      	ldrb	r2, [r4, #0]
 8004338:	eb03 1302 	add.w	r3, r3, r2, lsl #4
 800433c:	f8b3 240c 	ldrh.w	r2, [r3, #1036]	; 0x40c
 8004340:	f3c2 0209 	ubfx	r2, r2, #0, #10
 8004344:	f8a3 240c 	strh.w	r2, [r3, #1036]	; 0x40c
 8004348:	f8b3 240c 	ldrh.w	r2, [r3, #1036]	; 0x40c
 800434c:	ea6f 4242 	mvn.w	r2, r2, lsl #17
 8004350:	ea6f 4252 	mvn.w	r2, r2, lsr #17
 8004354:	b292      	uxth	r2, r2
 8004356:	f8a3 240c 	strh.w	r2, [r3, #1036]	; 0x40c

      /* TX COMPLETE */
#if (USE_HAL_PCD_REGISTER_CALLBACKS == 1U)
      hpcd->DataInStageCallback(hpcd, ep->num);
#else
      HAL_PCD_DataInStageCallback(hpcd, ep->num);
 800435a:	7821      	ldrb	r1, [r4, #0]
 800435c:	4628      	mov	r0, r5
 800435e:	f003 fe9f 	bl	80080a0 <HAL_PCD_DataInStageCallback>
#endif /* USE_HAL_PCD_REGISTER_CALLBACKS */

      if ((wEPVal & USB_EP_DTOG_RX) != 0U)
 8004362:	f416 4f80 	tst.w	r6, #16384	; 0x4000
 8004366:	d041      	beq.n	80043ec <HAL_PCD_EP_DB_Transmit+0x134>
      {
        PCD_FREE_USER_BUFFER(hpcd->Instance, ep->num, 1U);
 8004368:	682a      	ldr	r2, [r5, #0]
 800436a:	7821      	ldrb	r1, [r4, #0]
 800436c:	f832 3021 	ldrh.w	r3, [r2, r1, lsl #2]
 8004370:	b29b      	uxth	r3, r3
 8004372:	f423 43e0 	bic.w	r3, r3, #28672	; 0x7000
 8004376:	f023 0370 	bic.w	r3, r3, #112	; 0x70
 800437a:	f443 4340 	orr.w	r3, r3, #49152	; 0xc000
 800437e:	f043 0380 	orr.w	r3, r3, #128	; 0x80
 8004382:	f822 3021 	strh.w	r3, [r2, r1, lsl #2]
 8004386:	e031      	b.n	80043ec <HAL_PCD_EP_DB_Transmit+0x134>
      ep->xfer_len = 0U;
 8004388:	2300      	movs	r3, #0
 800438a:	61a3      	str	r3, [r4, #24]
 800438c:	e7af      	b.n	80042ee <HAL_PCD_EP_DB_Transmit+0x36>
      PCD_SET_EP_DBUF0_CNT(hpcd->Instance, ep->num, ep->is_in, 0U);
 800438e:	2b01      	cmp	r3, #1
 8004390:	d1c9      	bne.n	8004326 <HAL_PCD_EP_DB_Transmit+0x6e>
 8004392:	682b      	ldr	r3, [r5, #0]
 8004394:	f8b3 2050 	ldrh.w	r2, [r3, #80]	; 0x50
 8004398:	b292      	uxth	r2, r2
 800439a:	4413      	add	r3, r2
 800439c:	eb03 1101 	add.w	r1, r3, r1, lsl #4
 80043a0:	2300      	movs	r3, #0
 80043a2:	f8a1 3404 	strh.w	r3, [r1, #1028]	; 0x404
 80043a6:	e7be      	b.n	8004326 <HAL_PCD_EP_DB_Transmit+0x6e>
      PCD_SET_EP_DBUF1_CNT(hpcd->Instance, ep->num, ep->is_in, 0U);
 80043a8:	2a01      	cmp	r2, #1
 80043aa:	d1d6      	bne.n	800435a <HAL_PCD_EP_DB_Transmit+0xa2>
 80043ac:	f8b3 2050 	ldrh.w	r2, [r3, #80]	; 0x50
 80043b0:	b292      	uxth	r2, r2
 80043b2:	4413      	add	r3, r2
 80043b4:	7822      	ldrb	r2, [r4, #0]
 80043b6:	eb03 1302 	add.w	r3, r3, r2, lsl #4
 80043ba:	2200      	movs	r2, #0
 80043bc:	f8a3 240c 	strh.w	r2, [r3, #1036]	; 0x40c
 80043c0:	e7cb      	b.n	800435a <HAL_PCD_EP_DB_Transmit+0xa2>
      }
    }
    else /* Transfer is not yet Done */
    {
      /* need to Free USB Buff */
      if ((wEPVal & USB_EP_DTOG_RX) != 0U)
 80043c2:	f416 4f80 	tst.w	r6, #16384	; 0x4000
 80043c6:	d00d      	beq.n	80043e4 <HAL_PCD_EP_DB_Transmit+0x12c>
      {
        PCD_FREE_USER_BUFFER(hpcd->Instance, ep->num, 1U);
 80043c8:	6828      	ldr	r0, [r5, #0]
 80043ca:	f830 3021 	ldrh.w	r3, [r0, r1, lsl #2]
 80043ce:	b29b      	uxth	r3, r3
 80043d0:	f423 43e0 	bic.w	r3, r3, #28672	; 0x7000
 80043d4:	f023 0370 	bic.w	r3, r3, #112	; 0x70
 80043d8:	f443 4340 	orr.w	r3, r3, #49152	; 0xc000
 80043dc:	f043 0380 	orr.w	r3, r3, #128	; 0x80
 80043e0:	f820 3021 	strh.w	r3, [r0, r1, lsl #2]
      }

      /* Still there is data to Fill in the next Buffer */
      if (ep->xfer_fill_db == 1U)
 80043e4:	f894 3024 	ldrb.w	r3, [r4, #36]	; 0x24
 80043e8:	2b01      	cmp	r3, #1
 80043ea:	d012      	beq.n	8004412 <HAL_PCD_EP_DB_Transmit+0x15a>
      }
    }
  }

  /*enable endpoint IN*/
  PCD_SET_EP_TX_STATUS(hpcd->Instance, ep->num, USB_EP_TX_VALID);
 80043ec:	682a      	ldr	r2, [r5, #0]
 80043ee:	7821      	ldrb	r1, [r4, #0]
 80043f0:	f832 3021 	ldrh.w	r3, [r2, r1, lsl #2]
 80043f4:	b29b      	uxth	r3, r3
 80043f6:	f423 43e0 	bic.w	r3, r3, #28672	; 0x7000
 80043fa:	f023 0340 	bic.w	r3, r3, #64	; 0x40
 80043fe:	f083 0330 	eor.w	r3, r3, #48	; 0x30
 8004402:	f443 4300 	orr.w	r3, r3, #32768	; 0x8000
 8004406:	f043 0380 	orr.w	r3, r3, #128	; 0x80
 800440a:	f822 3021 	strh.w	r3, [r2, r1, lsl #2]

  return HAL_OK;
}
 800440e:	2000      	movs	r0, #0
 8004410:	bd70      	pop	{r4, r5, r6, pc}
        ep->xfer_buff += TxPctSize;
 8004412:	6963      	ldr	r3, [r4, #20]
 8004414:	4413      	add	r3, r2
 8004416:	6163      	str	r3, [r4, #20]
        ep->xfer_count += TxPctSize;
 8004418:	69e3      	ldr	r3, [r4, #28]
 800441a:	4413      	add	r3, r2
 800441c:	61e3      	str	r3, [r4, #28]
        if (ep->xfer_len_db >= ep->maxpacket)
 800441e:	6a21      	ldr	r1, [r4, #32]
 8004420:	6923      	ldr	r3, [r4, #16]
 8004422:	4299      	cmp	r1, r3
 8004424:	d324      	bcc.n	8004470 <HAL_PCD_EP_DB_Transmit+0x1b8>
          ep->xfer_len_db -= len;
 8004426:	1ac9      	subs	r1, r1, r3
 8004428:	6221      	str	r1, [r4, #32]
        PCD_SET_EP_DBUF0_CNT(hpcd->Instance, ep->num, ep->is_in, len);
 800442a:	7862      	ldrb	r2, [r4, #1]
 800442c:	2a00      	cmp	r2, #0
 800442e:	d144      	bne.n	80044ba <HAL_PCD_EP_DB_Transmit+0x202>
 8004430:	682a      	ldr	r2, [r5, #0]
 8004432:	f8b2 1050 	ldrh.w	r1, [r2, #80]	; 0x50
 8004436:	b289      	uxth	r1, r1
 8004438:	440a      	add	r2, r1
 800443a:	7821      	ldrb	r1, [r4, #0]
 800443c:	eb02 1201 	add.w	r2, r2, r1, lsl #4
 8004440:	f8b2 1404 	ldrh.w	r1, [r2, #1028]	; 0x404
 8004444:	f3c1 0109 	ubfx	r1, r1, #0, #10
 8004448:	f8a2 1404 	strh.w	r1, [r2, #1028]	; 0x404
 800444c:	2b3e      	cmp	r3, #62	; 0x3e
 800444e:	d91b      	bls.n	8004488 <HAL_PCD_EP_DB_Transmit+0x1d0>
 8004450:	0958      	lsrs	r0, r3, #5
 8004452:	f013 0f1f 	tst.w	r3, #31
 8004456:	d100      	bne.n	800445a <HAL_PCD_EP_DB_Transmit+0x1a2>
 8004458:	3801      	subs	r0, #1
 800445a:	f8b2 1404 	ldrh.w	r1, [r2, #1028]	; 0x404
 800445e:	b289      	uxth	r1, r1
 8004460:	0280      	lsls	r0, r0, #10
 8004462:	b280      	uxth	r0, r0
 8004464:	4301      	orrs	r1, r0
 8004466:	f441 4100 	orr.w	r1, r1, #32768	; 0x8000
 800446a:	f8a2 1404 	strh.w	r1, [r2, #1028]	; 0x404
 800446e:	e026      	b.n	80044be <HAL_PCD_EP_DB_Transmit+0x206>
        else if (ep->xfer_len_db == 0U)
 8004470:	b921      	cbnz	r1, 800447c <HAL_PCD_EP_DB_Transmit+0x1c4>
          ep->xfer_fill_db = 0U;
 8004472:	2300      	movs	r3, #0
 8004474:	f884 3024 	strb.w	r3, [r4, #36]	; 0x24
          len = TxPctSize;
 8004478:	4613      	mov	r3, r2
 800447a:	e7d6      	b.n	800442a <HAL_PCD_EP_DB_Transmit+0x172>
          ep->xfer_fill_db = 0U;
 800447c:	2300      	movs	r3, #0
 800447e:	f884 3024 	strb.w	r3, [r4, #36]	; 0x24
          ep->xfer_len_db = 0U;
 8004482:	6223      	str	r3, [r4, #32]
          len = ep->xfer_len_db;
 8004484:	460b      	mov	r3, r1
 8004486:	e7d0      	b.n	800442a <HAL_PCD_EP_DB_Transmit+0x172>
        PCD_SET_EP_DBUF0_CNT(hpcd->Instance, ep->num, ep->is_in, len);
 8004488:	b94b      	cbnz	r3, 800449e <HAL_PCD_EP_DB_Transmit+0x1e6>
 800448a:	f8b2 1404 	ldrh.w	r1, [r2, #1028]	; 0x404
 800448e:	ea6f 4141 	mvn.w	r1, r1, lsl #17
 8004492:	ea6f 4151 	mvn.w	r1, r1, lsr #17
 8004496:	b289      	uxth	r1, r1
 8004498:	f8a2 1404 	strh.w	r1, [r2, #1028]	; 0x404
 800449c:	e00f      	b.n	80044be <HAL_PCD_EP_DB_Transmit+0x206>
 800449e:	0859      	lsrs	r1, r3, #1
 80044a0:	f013 0f01 	tst.w	r3, #1
 80044a4:	d000      	beq.n	80044a8 <HAL_PCD_EP_DB_Transmit+0x1f0>
 80044a6:	3101      	adds	r1, #1
 80044a8:	f8b2 0404 	ldrh.w	r0, [r2, #1028]	; 0x404
 80044ac:	b280      	uxth	r0, r0
 80044ae:	0289      	lsls	r1, r1, #10
 80044b0:	b289      	uxth	r1, r1
 80044b2:	4301      	orrs	r1, r0
 80044b4:	f8a2 1404 	strh.w	r1, [r2, #1028]	; 0x404
 80044b8:	e001      	b.n	80044be <HAL_PCD_EP_DB_Transmit+0x206>
 80044ba:	2a01      	cmp	r2, #1
 80044bc:	d006      	beq.n	80044cc <HAL_PCD_EP_DB_Transmit+0x214>
        USB_WritePMA(hpcd->Instance, ep->xfer_buff,  ep->pmaaddr0, (uint16_t)len);
 80044be:	b29b      	uxth	r3, r3
 80044c0:	8922      	ldrh	r2, [r4, #8]
 80044c2:	6961      	ldr	r1, [r4, #20]
 80044c4:	6828      	ldr	r0, [r5, #0]
 80044c6:	f002 fa17 	bl	80068f8 <USB_WritePMA>
 80044ca:	e78f      	b.n	80043ec <HAL_PCD_EP_DB_Transmit+0x134>
        PCD_SET_EP_DBUF0_CNT(hpcd->Instance, ep->num, ep->is_in, len);
 80044cc:	682a      	ldr	r2, [r5, #0]
 80044ce:	f8b2 1050 	ldrh.w	r1, [r2, #80]	; 0x50
 80044d2:	b289      	uxth	r1, r1
 80044d4:	440a      	add	r2, r1
 80044d6:	7821      	ldrb	r1, [r4, #0]
 80044d8:	eb02 1201 	add.w	r2, r2, r1, lsl #4
 80044dc:	b299      	uxth	r1, r3
 80044de:	f8a2 1404 	strh.w	r1, [r2, #1028]	; 0x404
 80044e2:	e7ec      	b.n	80044be <HAL_PCD_EP_DB_Transmit+0x206>
    TxPctSize = (uint16_t)PCD_GET_EP_DBUF1_CNT(hpcd->Instance, ep->num);
 80044e4:	6802      	ldr	r2, [r0, #0]
 80044e6:	f8b2 3050 	ldrh.w	r3, [r2, #80]	; 0x50
 80044ea:	b29b      	uxth	r3, r3
 80044ec:	7809      	ldrb	r1, [r1, #0]
 80044ee:	eb03 03c1 	add.w	r3, r3, r1, lsl #3
 80044f2:	3306      	adds	r3, #6
 80044f4:	eb02 0343 	add.w	r3, r2, r3, lsl #1
 80044f8:	f8b3 2400 	ldrh.w	r2, [r3, #1024]	; 0x400
 80044fc:	f3c2 0209 	ubfx	r2, r2, #0, #10
    if (ep->xfer_len >= TxPctSize)
 8004500:	69a3      	ldr	r3, [r4, #24]
 8004502:	4293      	cmp	r3, r2
 8004504:	d34f      	bcc.n	80045a6 <HAL_PCD_EP_DB_Transmit+0x2ee>
      ep->xfer_len -= TxPctSize;
 8004506:	1a9b      	subs	r3, r3, r2
 8004508:	61a3      	str	r3, [r4, #24]
    if (ep->xfer_len == 0U)
 800450a:	69a3      	ldr	r3, [r4, #24]
 800450c:	2b00      	cmp	r3, #0
 800450e:	d167      	bne.n	80045e0 <HAL_PCD_EP_DB_Transmit+0x328>
      PCD_SET_EP_DBUF0_CNT(hpcd->Instance, ep->num, ep->is_in, 0U);
 8004510:	7863      	ldrb	r3, [r4, #1]
 8004512:	2b00      	cmp	r3, #0
 8004514:	d14a      	bne.n	80045ac <HAL_PCD_EP_DB_Transmit+0x2f4>
 8004516:	682b      	ldr	r3, [r5, #0]
 8004518:	f8b3 2050 	ldrh.w	r2, [r3, #80]	; 0x50
 800451c:	b292      	uxth	r2, r2
 800451e:	4413      	add	r3, r2
 8004520:	eb03 1101 	add.w	r1, r3, r1, lsl #4
 8004524:	f8b1 3404 	ldrh.w	r3, [r1, #1028]	; 0x404
 8004528:	f3c3 0309 	ubfx	r3, r3, #0, #10
 800452c:	f8a1 3404 	strh.w	r3, [r1, #1028]	; 0x404
 8004530:	f8b1 3404 	ldrh.w	r3, [r1, #1028]	; 0x404
 8004534:	ea6f 4343 	mvn.w	r3, r3, lsl #17
 8004538:	ea6f 4353 	mvn.w	r3, r3, lsr #17
 800453c:	b29b      	uxth	r3, r3
 800453e:	f8a1 3404 	strh.w	r3, [r1, #1028]	; 0x404
      PCD_SET_EP_DBUF1_CNT(hpcd->Instance, ep->num, ep->is_in, 0U);
 8004542:	682b      	ldr	r3, [r5, #0]
 8004544:	7862      	ldrb	r2, [r4, #1]
 8004546:	2a00      	cmp	r2, #0
 8004548:	d13d      	bne.n	80045c6 <HAL_PCD_EP_DB_Transmit+0x30e>
 800454a:	f8b3 2050 	ldrh.w	r2, [r3, #80]	; 0x50
 800454e:	b292      	uxth	r2, r2
 8004550:	4413      	add	r3, r2
 8004552:	7822      	ldrb	r2, [r4, #0]
 8004554:	eb03 1302 	add.w	r3, r3, r2, lsl #4
 8004558:	f8b3 240c 	ldrh.w	r2, [r3, #1036]	; 0x40c
 800455c:	f3c2 0209 	ubfx	r2, r2, #0, #10
 8004560:	f8a3 240c 	strh.w	r2, [r3, #1036]	; 0x40c
 8004564:	f8b3 240c 	ldrh.w	r2, [r3, #1036]	; 0x40c
 8004568:	ea6f 4242 	mvn.w	r2, r2, lsl #17
 800456c:	ea6f 4252 	mvn.w	r2, r2, lsr #17
 8004570:	b292      	uxth	r2, r2
 8004572:	f8a3 240c 	strh.w	r2, [r3, #1036]	; 0x40c
      HAL_PCD_DataInStageCallback(hpcd, ep->num);
 8004576:	7821      	ldrb	r1, [r4, #0]
 8004578:	4628      	mov	r0, r5
 800457a:	f003 fd91 	bl	80080a0 <HAL_PCD_DataInStageCallback>
      if ((wEPVal & USB_EP_DTOG_RX) == 0U)
 800457e:	f416 4f80 	tst.w	r6, #16384	; 0x4000
 8004582:	f47f af33 	bne.w	80043ec <HAL_PCD_EP_DB_Transmit+0x134>
        PCD_FREE_USER_BUFFER(hpcd->Instance, ep->num, 1U);
 8004586:	682a      	ldr	r2, [r5, #0]
 8004588:	7821      	ldrb	r1, [r4, #0]
 800458a:	f832 3021 	ldrh.w	r3, [r2, r1, lsl #2]
 800458e:	b29b      	uxth	r3, r3
 8004590:	f423 43e0 	bic.w	r3, r3, #28672	; 0x7000
 8004594:	f023 0370 	bic.w	r3, r3, #112	; 0x70
 8004598:	f443 4340 	orr.w	r3, r3, #49152	; 0xc000
 800459c:	f043 0380 	orr.w	r3, r3, #128	; 0x80
 80045a0:	f822 3021 	strh.w	r3, [r2, r1, lsl #2]
 80045a4:	e722      	b.n	80043ec <HAL_PCD_EP_DB_Transmit+0x134>
      ep->xfer_len = 0U;
 80045a6:	2300      	movs	r3, #0
 80045a8:	61a3      	str	r3, [r4, #24]
 80045aa:	e7ae      	b.n	800450a <HAL_PCD_EP_DB_Transmit+0x252>
      PCD_SET_EP_DBUF0_CNT(hpcd->Instance, ep->num, ep->is_in, 0U);
 80045ac:	2b01      	cmp	r3, #1
 80045ae:	d1c8      	bne.n	8004542 <HAL_PCD_EP_DB_Transmit+0x28a>
 80045b0:	682b      	ldr	r3, [r5, #0]
 80045b2:	f8b3 2050 	ldrh.w	r2, [r3, #80]	; 0x50
 80045b6:	b292      	uxth	r2, r2
 80045b8:	4413      	add	r3, r2
 80045ba:	eb03 1101 	add.w	r1, r3, r1, lsl #4
 80045be:	2300      	movs	r3, #0
 80045c0:	f8a1 3404 	strh.w	r3, [r1, #1028]	; 0x404
 80045c4:	e7bd      	b.n	8004542 <HAL_PCD_EP_DB_Transmit+0x28a>
      PCD_SET_EP_DBUF1_CNT(hpcd->Instance, ep->num, ep->is_in, 0U);
 80045c6:	2a01      	cmp	r2, #1
 80045c8:	d1d5      	bne.n	8004576 <HAL_PCD_EP_DB_Transmit+0x2be>
 80045ca:	f8b3 2050 	ldrh.w	r2, [r3, #80]	; 0x50
 80045ce:	b292      	uxth	r2, r2
 80045d0:	4413      	add	r3, r2
 80045d2:	7822      	ldrb	r2, [r4, #0]
 80045d4:	eb03 1302 	add.w	r3, r3, r2, lsl #4
 80045d8:	2200      	movs	r2, #0
 80045da:	f8a3 240c 	strh.w	r2, [r3, #1036]	; 0x40c
 80045de:	e7ca      	b.n	8004576 <HAL_PCD_EP_DB_Transmit+0x2be>
      if ((wEPVal & USB_EP_DTOG_RX) == 0U)
 80045e0:	f416 4f80 	tst.w	r6, #16384	; 0x4000
 80045e4:	d10d      	bne.n	8004602 <HAL_PCD_EP_DB_Transmit+0x34a>
        PCD_FREE_USER_BUFFER(hpcd->Instance, ep->num, 1U);
 80045e6:	6828      	ldr	r0, [r5, #0]
 80045e8:	f830 3021 	ldrh.w	r3, [r0, r1, lsl #2]
 80045ec:	b29b      	uxth	r3, r3
 80045ee:	f423 43e0 	bic.w	r3, r3, #28672	; 0x7000
 80045f2:	f023 0370 	bic.w	r3, r3, #112	; 0x70
 80045f6:	f443 4340 	orr.w	r3, r3, #49152	; 0xc000
 80045fa:	f043 0380 	orr.w	r3, r3, #128	; 0x80
 80045fe:	f820 3021 	strh.w	r3, [r0, r1, lsl #2]
      if (ep->xfer_fill_db == 1U)
 8004602:	f894 3024 	ldrb.w	r3, [r4, #36]	; 0x24
 8004606:	2b01      	cmp	r3, #1
 8004608:	f47f aef0 	bne.w	80043ec <HAL_PCD_EP_DB_Transmit+0x134>
        ep->xfer_buff += TxPctSize;
 800460c:	6963      	ldr	r3, [r4, #20]
 800460e:	4413      	add	r3, r2
 8004610:	6163      	str	r3, [r4, #20]
        ep->xfer_count += TxPctSize;
 8004612:	69e3      	ldr	r3, [r4, #28]
 8004614:	4413      	add	r3, r2
 8004616:	61e3      	str	r3, [r4, #28]
        if (ep->xfer_len_db >= ep->maxpacket)
 8004618:	6a21      	ldr	r1, [r4, #32]
 800461a:	6923      	ldr	r3, [r4, #16]
 800461c:	4299      	cmp	r1, r3
 800461e:	d324      	bcc.n	800466a <HAL_PCD_EP_DB_Transmit+0x3b2>
          ep->xfer_len_db -= len;
 8004620:	1ac9      	subs	r1, r1, r3
 8004622:	6221      	str	r1, [r4, #32]
        PCD_SET_EP_DBUF1_CNT(hpcd->Instance, ep->num, ep->is_in, len);
 8004624:	682a      	ldr	r2, [r5, #0]
 8004626:	7861      	ldrb	r1, [r4, #1]
 8004628:	2900      	cmp	r1, #0
 800462a:	d143      	bne.n	80046b4 <HAL_PCD_EP_DB_Transmit+0x3fc>
 800462c:	f8b2 1050 	ldrh.w	r1, [r2, #80]	; 0x50
 8004630:	b289      	uxth	r1, r1
 8004632:	440a      	add	r2, r1
 8004634:	7821      	ldrb	r1, [r4, #0]
 8004636:	eb02 1201 	add.w	r2, r2, r1, lsl #4
 800463a:	f8b2 140c 	ldrh.w	r1, [r2, #1036]	; 0x40c
 800463e:	f3c1 0109 	ubfx	r1, r1, #0, #10
 8004642:	f8a2 140c 	strh.w	r1, [r2, #1036]	; 0x40c
 8004646:	2b3e      	cmp	r3, #62	; 0x3e
 8004648:	d91b      	bls.n	8004682 <HAL_PCD_EP_DB_Transmit+0x3ca>
 800464a:	0958      	lsrs	r0, r3, #5
 800464c:	f013 0f1f 	tst.w	r3, #31
 8004650:	d100      	bne.n	8004654 <HAL_PCD_EP_DB_Transmit+0x39c>
 8004652:	3801      	subs	r0, #1
 8004654:	f8b2 140c 	ldrh.w	r1, [r2, #1036]	; 0x40c
 8004658:	b289      	uxth	r1, r1
 800465a:	0280      	lsls	r0, r0, #10
 800465c:	b280      	uxth	r0, r0
 800465e:	4301      	orrs	r1, r0
 8004660:	f441 4100 	orr.w	r1, r1, #32768	; 0x8000
 8004664:	f8a2 140c 	strh.w	r1, [r2, #1036]	; 0x40c
 8004668:	e026      	b.n	80046b8 <HAL_PCD_EP_DB_Transmit+0x400>
        else if (ep->xfer_len_db == 0U)
 800466a:	b921      	cbnz	r1, 8004676 <HAL_PCD_EP_DB_Transmit+0x3be>
          ep->xfer_fill_db = 0U;
 800466c:	2300      	movs	r3, #0
 800466e:	f884 3024 	strb.w	r3, [r4, #36]	; 0x24
          len = TxPctSize;
 8004672:	4613      	mov	r3, r2
 8004674:	e7d6      	b.n	8004624 <HAL_PCD_EP_DB_Transmit+0x36c>
          ep->xfer_len_db = 0U;
 8004676:	2300      	movs	r3, #0
 8004678:	6223      	str	r3, [r4, #32]
          ep->xfer_fill_db = 0;
 800467a:	f884 3024 	strb.w	r3, [r4, #36]	; 0x24
          len = ep->xfer_len_db;
 800467e:	460b      	mov	r3, r1
 8004680:	e7d0      	b.n	8004624 <HAL_PCD_EP_DB_Transmit+0x36c>
        PCD_SET_EP_DBUF1_CNT(hpcd->Instance, ep->num, ep->is_in, len);
 8004682:	b94b      	cbnz	r3, 8004698 <HAL_PCD_EP_DB_Transmit+0x3e0>
 8004684:	f8b2 140c 	ldrh.w	r1, [r2, #1036]	; 0x40c
 8004688:	ea6f 4141 	mvn.w	r1, r1, lsl #17
 800468c:	ea6f 4151 	mvn.w	r1, r1, lsr #17
 8004690:	b289      	uxth	r1, r1
 8004692:	f8a2 140c 	strh.w	r1, [r2, #1036]	; 0x40c
 8004696:	e00f      	b.n	80046b8 <HAL_PCD_EP_DB_Transmit+0x400>
 8004698:	0859      	lsrs	r1, r3, #1
 800469a:	f013 0f01 	tst.w	r3, #1
 800469e:	d000      	beq.n	80046a2 <HAL_PCD_EP_DB_Transmit+0x3ea>
 80046a0:	3101      	adds	r1, #1
 80046a2:	f8b2 040c 	ldrh.w	r0, [r2, #1036]	; 0x40c
 80046a6:	b280      	uxth	r0, r0
 80046a8:	0289      	lsls	r1, r1, #10
 80046aa:	b289      	uxth	r1, r1
 80046ac:	4301      	orrs	r1, r0
 80046ae:	f8a2 140c 	strh.w	r1, [r2, #1036]	; 0x40c
 80046b2:	e001      	b.n	80046b8 <HAL_PCD_EP_DB_Transmit+0x400>
 80046b4:	2901      	cmp	r1, #1
 80046b6:	d006      	beq.n	80046c6 <HAL_PCD_EP_DB_Transmit+0x40e>
        USB_WritePMA(hpcd->Instance, ep->xfer_buff,  ep->pmaaddr1, (uint16_t)len);
 80046b8:	b29b      	uxth	r3, r3
 80046ba:	8962      	ldrh	r2, [r4, #10]
 80046bc:	6961      	ldr	r1, [r4, #20]
 80046be:	6828      	ldr	r0, [r5, #0]
 80046c0:	f002 f91a 	bl	80068f8 <USB_WritePMA>
 80046c4:	e692      	b.n	80043ec <HAL_PCD_EP_DB_Transmit+0x134>
        PCD_SET_EP_DBUF1_CNT(hpcd->Instance, ep->num, ep->is_in, len);
 80046c6:	f8b2 1050 	ldrh.w	r1, [r2, #80]	; 0x50
 80046ca:	b289      	uxth	r1, r1
 80046cc:	440a      	add	r2, r1
 80046ce:	7821      	ldrb	r1, [r4, #0]
 80046d0:	eb02 1201 	add.w	r2, r2, r1, lsl #4
 80046d4:	b299      	uxth	r1, r3
 80046d6:	f8a2 140c 	strh.w	r1, [r2, #1036]	; 0x40c
 80046da:	e7ed      	b.n	80046b8 <HAL_PCD_EP_DB_Transmit+0x400>

080046dc <PCD_EP_ISR_Handler>:
{
 80046dc:	e92d 41f0 	stmdb	sp!, {r4, r5, r6, r7, r8, lr}
 80046e0:	4605      	mov	r5, r0
  while ((hpcd->Instance->ISTR & USB_ISTR_CTR) != 0U)
 80046e2:	6828      	ldr	r0, [r5, #0]
 80046e4:	f8b0 3044 	ldrh.w	r3, [r0, #68]	; 0x44
 80046e8:	f413 4f00 	tst.w	r3, #32768	; 0x8000
 80046ec:	f000 829d 	beq.w	8004c2a <PCD_EP_ISR_Handler+0x54e>
    wIstr = hpcd->Instance->ISTR;
 80046f0:	f8b0 4044 	ldrh.w	r4, [r0, #68]	; 0x44
 80046f4:	b2a3      	uxth	r3, r4
    if (epindex == 0U)
 80046f6:	f014 040f 	ands.w	r4, r4, #15
 80046fa:	f040 80de 	bne.w	80048ba <PCD_EP_ISR_Handler+0x1de>
      if ((wIstr & USB_ISTR_DIR) == 0U)
 80046fe:	f013 0f10 	tst.w	r3, #16
 8004702:	d06b      	beq.n	80047dc <PCD_EP_ISR_Handler+0x100>
        wEPVal = PCD_GET_ENDPOINT(hpcd->Instance, PCD_ENDP0);
 8004704:	8803      	ldrh	r3, [r0, #0]
 8004706:	b29a      	uxth	r2, r3
        if ((wEPVal & USB_EP_SETUP) != 0U)
 8004708:	f413 6f00 	tst.w	r3, #2048	; 0x800
 800470c:	f040 8099 	bne.w	8004842 <PCD_EP_ISR_Handler+0x166>
        else if ((wEPVal & USB_EP_CTR_RX) != 0U)
 8004710:	f412 4f00 	tst.w	r2, #32768	; 0x8000
 8004714:	d0e5      	beq.n	80046e2 <PCD_EP_ISR_Handler+0x6>
          PCD_CLEAR_RX_EP_CTR(hpcd->Instance, PCD_ENDP0);
 8004716:	8803      	ldrh	r3, [r0, #0]
 8004718:	f023 0370 	bic.w	r3, r3, #112	; 0x70
 800471c:	051b      	lsls	r3, r3, #20
 800471e:	0d1b      	lsrs	r3, r3, #20
 8004720:	f043 0380 	orr.w	r3, r3, #128	; 0x80
 8004724:	8003      	strh	r3, [r0, #0]
          ep->xfer_count = PCD_GET_EP_RX_CNT(hpcd->Instance, ep->num);
 8004726:	6828      	ldr	r0, [r5, #0]
 8004728:	f8b0 3050 	ldrh.w	r3, [r0, #80]	; 0x50
 800472c:	b29b      	uxth	r3, r3
 800472e:	f895 2150 	ldrb.w	r2, [r5, #336]	; 0x150
 8004732:	eb03 03c2 	add.w	r3, r3, r2, lsl #3
 8004736:	3306      	adds	r3, #6
 8004738:	eb00 0343 	add.w	r3, r0, r3, lsl #1
 800473c:	f8b3 3400 	ldrh.w	r3, [r3, #1024]	; 0x400
 8004740:	f3c3 0309 	ubfx	r3, r3, #0, #10
 8004744:	f8c5 316c 	str.w	r3, [r5, #364]	; 0x16c
          if ((ep->xfer_count != 0U) && (ep->xfer_buff != 0U))
 8004748:	b18b      	cbz	r3, 800476e <PCD_EP_ISR_Handler+0x92>
 800474a:	f8d5 1164 	ldr.w	r1, [r5, #356]	; 0x164
 800474e:	b171      	cbz	r1, 800476e <PCD_EP_ISR_Handler+0x92>
            USB_ReadPMA(hpcd->Instance, ep->xfer_buff,
 8004750:	f8b5 2156 	ldrh.w	r2, [r5, #342]	; 0x156
 8004754:	f002 fcca 	bl	80070ec <USB_ReadPMA>
            ep->xfer_buff += ep->xfer_count;
 8004758:	f8d5 216c 	ldr.w	r2, [r5, #364]	; 0x16c
 800475c:	f8d5 3164 	ldr.w	r3, [r5, #356]	; 0x164
 8004760:	4413      	add	r3, r2
 8004762:	f8c5 3164 	str.w	r3, [r5, #356]	; 0x164
            HAL_PCD_DataOutStageCallback(hpcd, 0U);
 8004766:	2100      	movs	r1, #0
 8004768:	4628      	mov	r0, r5
 800476a:	f003 fc8d 	bl	8008088 <HAL_PCD_DataOutStageCallback>
          wEPVal = (uint16_t)PCD_GET_ENDPOINT(hpcd->Instance, PCD_ENDP0);
 800476e:	682a      	ldr	r2, [r5, #0]
 8004770:	8813      	ldrh	r3, [r2, #0]
 8004772:	b299      	uxth	r1, r3
          if (((wEPVal & USB_EP_SETUP) == 0U) && ((wEPVal & USB_EP_RX_STRX) != USB_EP_RX_VALID))
 8004774:	f413 6f00 	tst.w	r3, #2048	; 0x800
 8004778:	d1b3      	bne.n	80046e2 <PCD_EP_ISR_Handler+0x6>
 800477a:	f401 5140 	and.w	r1, r1, #12288	; 0x3000
 800477e:	f5b1 5f40 	cmp.w	r1, #12288	; 0x3000
 8004782:	d0ae      	beq.n	80046e2 <PCD_EP_ISR_Handler+0x6>
            PCD_SET_EP_RX_CNT(hpcd->Instance, PCD_ENDP0, ep->maxpacket);
 8004784:	f8b2 3050 	ldrh.w	r3, [r2, #80]	; 0x50
 8004788:	b29b      	uxth	r3, r3
 800478a:	441a      	add	r2, r3
 800478c:	f8b2 340c 	ldrh.w	r3, [r2, #1036]	; 0x40c
 8004790:	f3c3 0309 	ubfx	r3, r3, #0, #10
 8004794:	f8a2 340c 	strh.w	r3, [r2, #1036]	; 0x40c
 8004798:	f8d5 3160 	ldr.w	r3, [r5, #352]	; 0x160
 800479c:	2b3e      	cmp	r3, #62	; 0x3e
 800479e:	d973      	bls.n	8004888 <PCD_EP_ISR_Handler+0x1ac>
 80047a0:	0959      	lsrs	r1, r3, #5
 80047a2:	f013 0f1f 	tst.w	r3, #31
 80047a6:	d100      	bne.n	80047aa <PCD_EP_ISR_Handler+0xce>
 80047a8:	3901      	subs	r1, #1
 80047aa:	f8b2 340c 	ldrh.w	r3, [r2, #1036]	; 0x40c
 80047ae:	b29b      	uxth	r3, r3
 80047b0:	0289      	lsls	r1, r1, #10
 80047b2:	b289      	uxth	r1, r1
 80047b4:	430b      	orrs	r3, r1
 80047b6:	f443 4300 	orr.w	r3, r3, #32768	; 0x8000
 80047ba:	f8a2 340c 	strh.w	r3, [r2, #1036]	; 0x40c
            PCD_SET_EP_RX_STATUS(hpcd->Instance, PCD_ENDP0, USB_EP_RX_VALID);
 80047be:	682a      	ldr	r2, [r5, #0]
 80047c0:	8813      	ldrh	r3, [r2, #0]
 80047c2:	b29b      	uxth	r3, r3
 80047c4:	f423 4380 	bic.w	r3, r3, #16384	; 0x4000
 80047c8:	f023 0370 	bic.w	r3, r3, #112	; 0x70
 80047cc:	f483 5340 	eor.w	r3, r3, #12288	; 0x3000
 80047d0:	f443 4300 	orr.w	r3, r3, #32768	; 0x8000
 80047d4:	f043 0380 	orr.w	r3, r3, #128	; 0x80
 80047d8:	8013      	strh	r3, [r2, #0]
 80047da:	e782      	b.n	80046e2 <PCD_EP_ISR_Handler+0x6>
        PCD_CLEAR_TX_EP_CTR(hpcd->Instance, PCD_ENDP0);
 80047dc:	8803      	ldrh	r3, [r0, #0]
 80047de:	b29b      	uxth	r3, r3
 80047e0:	f423 43e1 	bic.w	r3, r3, #28800	; 0x7080
 80047e4:	f023 0370 	bic.w	r3, r3, #112	; 0x70
 80047e8:	ea6f 4343 	mvn.w	r3, r3, lsl #17
 80047ec:	ea6f 4353 	mvn.w	r3, r3, lsr #17
 80047f0:	b29b      	uxth	r3, r3
 80047f2:	8003      	strh	r3, [r0, #0]
        ep->xfer_count = PCD_GET_EP_TX_CNT(hpcd->Instance, ep->num);
 80047f4:	682a      	ldr	r2, [r5, #0]
 80047f6:	f8b2 3050 	ldrh.w	r3, [r2, #80]	; 0x50
 80047fa:	b29b      	uxth	r3, r3
 80047fc:	7c29      	ldrb	r1, [r5, #16]
 80047fe:	eb03 03c1 	add.w	r3, r3, r1, lsl #3
 8004802:	3302      	adds	r3, #2
 8004804:	eb02 0343 	add.w	r3, r2, r3, lsl #1
 8004808:	f8b3 3400 	ldrh.w	r3, [r3, #1024]	; 0x400
 800480c:	f3c3 0309 	ubfx	r3, r3, #0, #10
 8004810:	62eb      	str	r3, [r5, #44]	; 0x2c
        ep->xfer_buff += ep->xfer_count;
 8004812:	6a6a      	ldr	r2, [r5, #36]	; 0x24
 8004814:	4413      	add	r3, r2
 8004816:	626b      	str	r3, [r5, #36]	; 0x24
        HAL_PCD_DataInStageCallback(hpcd, 0U);
 8004818:	2100      	movs	r1, #0
 800481a:	4628      	mov	r0, r5
 800481c:	f003 fc40 	bl	80080a0 <HAL_PCD_DataInStageCallback>
        if ((hpcd->USB_Address > 0U) && (ep->xfer_len == 0U))
 8004820:	7b6b      	ldrb	r3, [r5, #13]
 8004822:	2b00      	cmp	r3, #0
 8004824:	f43f af5d 	beq.w	80046e2 <PCD_EP_ISR_Handler+0x6>
 8004828:	6aab      	ldr	r3, [r5, #40]	; 0x28
 800482a:	2b00      	cmp	r3, #0
 800482c:	f47f af59 	bne.w	80046e2 <PCD_EP_ISR_Handler+0x6>
          hpcd->Instance->DADDR = ((uint16_t)hpcd->USB_Address | USB_DADDR_EF);
 8004830:	7b6b      	ldrb	r3, [r5, #13]
 8004832:	682a      	ldr	r2, [r5, #0]
 8004834:	f043 0380 	orr.w	r3, r3, #128	; 0x80
 8004838:	f8a2 304c 	strh.w	r3, [r2, #76]	; 0x4c
          hpcd->USB_Address = 0U;
 800483c:	2300      	movs	r3, #0
 800483e:	736b      	strb	r3, [r5, #13]
 8004840:	e74f      	b.n	80046e2 <PCD_EP_ISR_Handler+0x6>
          ep->xfer_count = PCD_GET_EP_RX_CNT(hpcd->Instance, ep->num);
 8004842:	f8b0 3050 	ldrh.w	r3, [r0, #80]	; 0x50
 8004846:	b29b      	uxth	r3, r3
 8004848:	f895 2150 	ldrb.w	r2, [r5, #336]	; 0x150
 800484c:	eb03 03c2 	add.w	r3, r3, r2, lsl #3
 8004850:	3306      	adds	r3, #6
 8004852:	eb00 0343 	add.w	r3, r0, r3, lsl #1
 8004856:	f8b3 3400 	ldrh.w	r3, [r3, #1024]	; 0x400
 800485a:	f3c3 0309 	ubfx	r3, r3, #0, #10
 800485e:	f8c5 316c 	str.w	r3, [r5, #364]	; 0x16c
          USB_ReadPMA(hpcd->Instance, (uint8_t *)hpcd->Setup,
 8004862:	f8b5 2156 	ldrh.w	r2, [r5, #342]	; 0x156
 8004866:	f505 7126 	add.w	r1, r5, #664	; 0x298
 800486a:	f002 fc3f 	bl	80070ec <USB_ReadPMA>
          PCD_CLEAR_RX_EP_CTR(hpcd->Instance, PCD_ENDP0);
 800486e:	682a      	ldr	r2, [r5, #0]
 8004870:	8813      	ldrh	r3, [r2, #0]
 8004872:	f023 0370 	bic.w	r3, r3, #112	; 0x70
 8004876:	051b      	lsls	r3, r3, #20
 8004878:	0d1b      	lsrs	r3, r3, #20
 800487a:	f043 0380 	orr.w	r3, r3, #128	; 0x80
 800487e:	8013      	strh	r3, [r2, #0]
          HAL_PCD_SetupStageCallback(hpcd);
 8004880:	4628      	mov	r0, r5
 8004882:	f003 fbf9 	bl	8008078 <HAL_PCD_SetupStageCallback>
 8004886:	e72c      	b.n	80046e2 <PCD_EP_ISR_Handler+0x6>
            PCD_SET_EP_RX_CNT(hpcd->Instance, PCD_ENDP0, ep->maxpacket);
 8004888:	b94b      	cbnz	r3, 800489e <PCD_EP_ISR_Handler+0x1c2>
 800488a:	f8b2 340c 	ldrh.w	r3, [r2, #1036]	; 0x40c
 800488e:	ea6f 4343 	mvn.w	r3, r3, lsl #17
 8004892:	ea6f 4353 	mvn.w	r3, r3, lsr #17
 8004896:	b29b      	uxth	r3, r3
 8004898:	f8a2 340c 	strh.w	r3, [r2, #1036]	; 0x40c
 800489c:	e78f      	b.n	80047be <PCD_EP_ISR_Handler+0xe2>
 800489e:	0859      	lsrs	r1, r3, #1
 80048a0:	f013 0f01 	tst.w	r3, #1
 80048a4:	d000      	beq.n	80048a8 <PCD_EP_ISR_Handler+0x1cc>
 80048a6:	3101      	adds	r1, #1
 80048a8:	f8b2 340c 	ldrh.w	r3, [r2, #1036]	; 0x40c
 80048ac:	b298      	uxth	r0, r3
 80048ae:	028b      	lsls	r3, r1, #10
 80048b0:	b29b      	uxth	r3, r3
 80048b2:	4303      	orrs	r3, r0
 80048b4:	f8a2 340c 	strh.w	r3, [r2, #1036]	; 0x40c
 80048b8:	e781      	b.n	80047be <PCD_EP_ISR_Handler+0xe2>
      wEPVal = PCD_GET_ENDPOINT(hpcd->Instance, epindex);
 80048ba:	f830 3024 	ldrh.w	r3, [r0, r4, lsl #2]
 80048be:	b29e      	uxth	r6, r3
      if ((wEPVal & USB_EP_CTR_RX) != 0U)
 80048c0:	f413 4f00 	tst.w	r3, #32768	; 0x8000
 80048c4:	d154      	bne.n	8004970 <PCD_EP_ISR_Handler+0x294>
      if ((wEPVal & USB_EP_CTR_TX) != 0U)
 80048c6:	f016 0f80 	tst.w	r6, #128	; 0x80
 80048ca:	f43f af0a 	beq.w	80046e2 <PCD_EP_ISR_Handler+0x6>
        ep = &hpcd->IN_ep[epindex];
 80048ce:	eb04 0184 	add.w	r1, r4, r4, lsl #2
 80048d2:	00c9      	lsls	r1, r1, #3
 80048d4:	3110      	adds	r1, #16
 80048d6:	4429      	add	r1, r5
        PCD_CLEAR_TX_EP_CTR(hpcd->Instance, epindex);
 80048d8:	682a      	ldr	r2, [r5, #0]
 80048da:	f832 3024 	ldrh.w	r3, [r2, r4, lsl #2]
 80048de:	b29b      	uxth	r3, r3
 80048e0:	f423 43e1 	bic.w	r3, r3, #28800	; 0x7080
 80048e4:	f023 0370 	bic.w	r3, r3, #112	; 0x70
 80048e8:	ea6f 4343 	mvn.w	r3, r3, lsl #17
 80048ec:	ea6f 4353 	mvn.w	r3, r3, lsr #17
 80048f0:	b29b      	uxth	r3, r3
 80048f2:	f822 3024 	strh.w	r3, [r2, r4, lsl #2]
        if (ep->type == EP_TYPE_ISOC)
 80048f6:	eb04 0384 	add.w	r3, r4, r4, lsl #2
 80048fa:	eb05 03c3 	add.w	r3, r5, r3, lsl #3
 80048fe:	7cdb      	ldrb	r3, [r3, #19]
 8004900:	2b01      	cmp	r3, #1
 8004902:	f000 80f6 	beq.w	8004af2 <PCD_EP_ISR_Handler+0x416>
          if ((wEPVal & USB_EP_KIND) == 0U)
 8004906:	f416 7f80 	tst.w	r6, #256	; 0x100
 800490a:	f040 8189 	bne.w	8004c20 <PCD_EP_ISR_Handler+0x544>
            TxPctSize = (uint16_t)PCD_GET_EP_TX_CNT(hpcd->Instance, ep->num);
 800490e:	6828      	ldr	r0, [r5, #0]
 8004910:	f8b0 3050 	ldrh.w	r3, [r0, #80]	; 0x50
 8004914:	b29b      	uxth	r3, r3
 8004916:	eb04 0284 	add.w	r2, r4, r4, lsl #2
 800491a:	eb05 02c2 	add.w	r2, r5, r2, lsl #3
 800491e:	7c12      	ldrb	r2, [r2, #16]
 8004920:	eb03 03c2 	add.w	r3, r3, r2, lsl #3
 8004924:	3302      	adds	r3, #2
 8004926:	eb00 0343 	add.w	r3, r0, r3, lsl #1
 800492a:	f8b3 3400 	ldrh.w	r3, [r3, #1024]	; 0x400
 800492e:	f3c3 0309 	ubfx	r3, r3, #0, #10
            if (ep->xfer_len > TxPctSize)
 8004932:	1c62      	adds	r2, r4, #1
 8004934:	eb02 0282 	add.w	r2, r2, r2, lsl #2
 8004938:	f855 2032 	ldr.w	r2, [r5, r2, lsl #3]
 800493c:	429a      	cmp	r2, r3
 800493e:	f240 8156 	bls.w	8004bee <PCD_EP_ISR_Handler+0x512>
              ep->xfer_len -= TxPctSize;
 8004942:	1c66      	adds	r6, r4, #1
 8004944:	eb06 0686 	add.w	r6, r6, r6, lsl #2
 8004948:	1ad2      	subs	r2, r2, r3
 800494a:	f845 2036 	str.w	r2, [r5, r6, lsl #3]
            if (ep->xfer_len == 0U)
 800494e:	1c62      	adds	r2, r4, #1
 8004950:	eb02 0282 	add.w	r2, r2, r2, lsl #2
 8004954:	f855 2032 	ldr.w	r2, [r5, r2, lsl #3]
 8004958:	2a00      	cmp	r2, #0
 800495a:	f040 814f 	bne.w	8004bfc <PCD_EP_ISR_Handler+0x520>
              HAL_PCD_DataInStageCallback(hpcd, ep->num);
 800495e:	eb04 0484 	add.w	r4, r4, r4, lsl #2
 8004962:	eb05 04c4 	add.w	r4, r5, r4, lsl #3
 8004966:	7c21      	ldrb	r1, [r4, #16]
 8004968:	4628      	mov	r0, r5
 800496a:	f003 fb99 	bl	80080a0 <HAL_PCD_DataInStageCallback>
 800496e:	e6b8      	b.n	80046e2 <PCD_EP_ISR_Handler+0x6>
        PCD_CLEAR_RX_EP_CTR(hpcd->Instance, epindex);
 8004970:	f830 3024 	ldrh.w	r3, [r0, r4, lsl #2]
 8004974:	f023 0370 	bic.w	r3, r3, #112	; 0x70
 8004978:	051b      	lsls	r3, r3, #20
 800497a:	0d1b      	lsrs	r3, r3, #20
 800497c:	f043 0380 	orr.w	r3, r3, #128	; 0x80
 8004980:	f820 3024 	strh.w	r3, [r0, r4, lsl #2]
        ep = &hpcd->OUT_ep[epindex];
 8004984:	eb04 0184 	add.w	r1, r4, r4, lsl #2
 8004988:	00c9      	lsls	r1, r1, #3
 800498a:	f501 71a8 	add.w	r1, r1, #336	; 0x150
 800498e:	eb05 0801 	add.w	r8, r5, r1
        if (ep->doublebuffer == 0U)
 8004992:	eb04 0384 	add.w	r3, r4, r4, lsl #2
 8004996:	eb05 03c3 	add.w	r3, r5, r3, lsl #3
 800499a:	f893 315c 	ldrb.w	r3, [r3, #348]	; 0x15c
 800499e:	2b00      	cmp	r3, #0
 80049a0:	d142      	bne.n	8004a28 <PCD_EP_ISR_Handler+0x34c>
          count = (uint16_t)PCD_GET_EP_RX_CNT(hpcd->Instance, ep->num);
 80049a2:	6828      	ldr	r0, [r5, #0]
 80049a4:	f8b0 3050 	ldrh.w	r3, [r0, #80]	; 0x50
 80049a8:	b29b      	uxth	r3, r3
 80049aa:	eb04 0284 	add.w	r2, r4, r4, lsl #2
 80049ae:	eb05 02c2 	add.w	r2, r5, r2, lsl #3
 80049b2:	f892 2150 	ldrb.w	r2, [r2, #336]	; 0x150
 80049b6:	eb03 03c2 	add.w	r3, r3, r2, lsl #3
 80049ba:	3306      	adds	r3, #6
 80049bc:	eb00 0343 	add.w	r3, r0, r3, lsl #1
 80049c0:	f8b3 7400 	ldrh.w	r7, [r3, #1024]	; 0x400
 80049c4:	f3c7 0709 	ubfx	r7, r7, #0, #10
          if (count != 0U)
 80049c8:	bb17      	cbnz	r7, 8004a10 <PCD_EP_ISR_Handler+0x334>
        ep->xfer_count += count;
 80049ca:	eb04 0384 	add.w	r3, r4, r4, lsl #2
 80049ce:	eb05 03c3 	add.w	r3, r5, r3, lsl #3
 80049d2:	f8d3 216c 	ldr.w	r2, [r3, #364]	; 0x16c
 80049d6:	443a      	add	r2, r7
 80049d8:	f8c3 216c 	str.w	r2, [r3, #364]	; 0x16c
        ep->xfer_buff += count;
 80049dc:	f8d3 2164 	ldr.w	r2, [r3, #356]	; 0x164
 80049e0:	443a      	add	r2, r7
 80049e2:	f8c3 2164 	str.w	r2, [r3, #356]	; 0x164
        if ((ep->xfer_len == 0U) || (count < ep->maxpacket))
 80049e6:	f8d3 3168 	ldr.w	r3, [r3, #360]	; 0x168
 80049ea:	b13b      	cbz	r3, 80049fc <PCD_EP_ISR_Handler+0x320>
 80049ec:	eb04 0384 	add.w	r3, r4, r4, lsl #2
 80049f0:	eb05 03c3 	add.w	r3, r5, r3, lsl #3
 80049f4:	f8d3 3160 	ldr.w	r3, [r3, #352]	; 0x160
 80049f8:	429f      	cmp	r7, r3
 80049fa:	d275      	bcs.n	8004ae8 <PCD_EP_ISR_Handler+0x40c>
          HAL_PCD_DataOutStageCallback(hpcd, ep->num);
 80049fc:	eb04 0384 	add.w	r3, r4, r4, lsl #2
 8004a00:	eb05 03c3 	add.w	r3, r5, r3, lsl #3
 8004a04:	f893 1150 	ldrb.w	r1, [r3, #336]	; 0x150
 8004a08:	4628      	mov	r0, r5
 8004a0a:	f003 fb3d 	bl	8008088 <HAL_PCD_DataOutStageCallback>
 8004a0e:	e75a      	b.n	80048c6 <PCD_EP_ISR_Handler+0x1ea>
            USB_ReadPMA(hpcd->Instance, ep->xfer_buff, ep->pmaadress, count);
 8004a10:	eb04 0184 	add.w	r1, r4, r4, lsl #2
 8004a14:	eb05 01c1 	add.w	r1, r5, r1, lsl #3
 8004a18:	463b      	mov	r3, r7
 8004a1a:	f8b1 2156 	ldrh.w	r2, [r1, #342]	; 0x156
 8004a1e:	f8d1 1164 	ldr.w	r1, [r1, #356]	; 0x164
 8004a22:	f002 fb63 	bl	80070ec <USB_ReadPMA>
 8004a26:	e7d0      	b.n	80049ca <PCD_EP_ISR_Handler+0x2ee>
          if (ep->type == EP_TYPE_BULK)
 8004a28:	eb04 0384 	add.w	r3, r4, r4, lsl #2
 8004a2c:	eb05 03c3 	add.w	r3, r5, r3, lsl #3
 8004a30:	f893 3153 	ldrb.w	r3, [r3, #339]	; 0x153
 8004a34:	2b02      	cmp	r3, #2
 8004a36:	d035      	beq.n	8004aa4 <PCD_EP_ISR_Handler+0x3c8>
            PCD_FREE_USER_BUFFER(hpcd->Instance, ep->num, 0U);
 8004a38:	6829      	ldr	r1, [r5, #0]
 8004a3a:	eb04 0284 	add.w	r2, r4, r4, lsl #2
 8004a3e:	eb05 02c2 	add.w	r2, r5, r2, lsl #3
 8004a42:	f892 0150 	ldrb.w	r0, [r2, #336]	; 0x150
 8004a46:	f831 3020 	ldrh.w	r3, [r1, r0, lsl #2]
 8004a4a:	b29b      	uxth	r3, r3
 8004a4c:	f423 43e0 	bic.w	r3, r3, #28672	; 0x7000
 8004a50:	f023 0370 	bic.w	r3, r3, #112	; 0x70
 8004a54:	f443 4300 	orr.w	r3, r3, #32768	; 0x8000
 8004a58:	f043 03c0 	orr.w	r3, r3, #192	; 0xc0
 8004a5c:	f821 3020 	strh.w	r3, [r1, r0, lsl #2]
            if ((PCD_GET_ENDPOINT(hpcd->Instance, ep->num) & USB_EP_DTOG_RX) != 0U)
 8004a60:	6828      	ldr	r0, [r5, #0]
 8004a62:	f892 2150 	ldrb.w	r2, [r2, #336]	; 0x150
 8004a66:	f830 3022 	ldrh.w	r3, [r0, r2, lsl #2]
 8004a6a:	f413 4f80 	tst.w	r3, #16384	; 0x4000
 8004a6e:	d020      	beq.n	8004ab2 <PCD_EP_ISR_Handler+0x3d6>
              count = (uint16_t)PCD_GET_EP_DBUF0_CNT(hpcd->Instance, ep->num);
 8004a70:	f8b0 3050 	ldrh.w	r3, [r0, #80]	; 0x50
 8004a74:	b29b      	uxth	r3, r3
 8004a76:	eb03 03c2 	add.w	r3, r3, r2, lsl #3
 8004a7a:	3302      	adds	r3, #2
 8004a7c:	eb00 0343 	add.w	r3, r0, r3, lsl #1
 8004a80:	f8b3 7400 	ldrh.w	r7, [r3, #1024]	; 0x400
 8004a84:	f3c7 0709 	ubfx	r7, r7, #0, #10
              if (count != 0U)
 8004a88:	2f00      	cmp	r7, #0
 8004a8a:	d09e      	beq.n	80049ca <PCD_EP_ISR_Handler+0x2ee>
                USB_ReadPMA(hpcd->Instance, ep->xfer_buff, ep->pmaaddr0, count);
 8004a8c:	eb04 0184 	add.w	r1, r4, r4, lsl #2
 8004a90:	eb05 01c1 	add.w	r1, r5, r1, lsl #3
 8004a94:	463b      	mov	r3, r7
 8004a96:	f8b1 2158 	ldrh.w	r2, [r1, #344]	; 0x158
 8004a9a:	f8d1 1164 	ldr.w	r1, [r1, #356]	; 0x164
 8004a9e:	f002 fb25 	bl	80070ec <USB_ReadPMA>
 8004aa2:	e792      	b.n	80049ca <PCD_EP_ISR_Handler+0x2ee>
            count = HAL_PCD_EP_DB_Receive(hpcd, ep, wEPVal);
 8004aa4:	4632      	mov	r2, r6
 8004aa6:	4641      	mov	r1, r8
 8004aa8:	4628      	mov	r0, r5
 8004aaa:	f7ff faee 	bl	800408a <HAL_PCD_EP_DB_Receive>
 8004aae:	4607      	mov	r7, r0
 8004ab0:	e78b      	b.n	80049ca <PCD_EP_ISR_Handler+0x2ee>
              count = (uint16_t)PCD_GET_EP_DBUF1_CNT(hpcd->Instance, ep->num);
 8004ab2:	f8b0 3050 	ldrh.w	r3, [r0, #80]	; 0x50
 8004ab6:	b29b      	uxth	r3, r3
 8004ab8:	eb03 03c2 	add.w	r3, r3, r2, lsl #3
 8004abc:	3306      	adds	r3, #6
 8004abe:	eb00 0343 	add.w	r3, r0, r3, lsl #1
 8004ac2:	f8b3 7400 	ldrh.w	r7, [r3, #1024]	; 0x400
 8004ac6:	f3c7 0709 	ubfx	r7, r7, #0, #10
              if (count != 0U)
 8004aca:	2f00      	cmp	r7, #0
 8004acc:	f43f af7d 	beq.w	80049ca <PCD_EP_ISR_Handler+0x2ee>
                USB_ReadPMA(hpcd->Instance, ep->xfer_buff, ep->pmaaddr1, count);
 8004ad0:	eb04 0184 	add.w	r1, r4, r4, lsl #2
 8004ad4:	eb05 01c1 	add.w	r1, r5, r1, lsl #3
 8004ad8:	463b      	mov	r3, r7
 8004ada:	f8b1 215a 	ldrh.w	r2, [r1, #346]	; 0x15a
 8004ade:	f8d1 1164 	ldr.w	r1, [r1, #356]	; 0x164
 8004ae2:	f002 fb03 	bl	80070ec <USB_ReadPMA>
 8004ae6:	e770      	b.n	80049ca <PCD_EP_ISR_Handler+0x2ee>
          (void)USB_EPStartXfer(hpcd->Instance, ep);
 8004ae8:	4641      	mov	r1, r8
 8004aea:	6828      	ldr	r0, [r5, #0]
 8004aec:	f001 ff17 	bl	800691e <USB_EPStartXfer>
 8004af0:	e6e9      	b.n	80048c6 <PCD_EP_ISR_Handler+0x1ea>
          ep->xfer_len = 0U;
 8004af2:	1c63      	adds	r3, r4, #1
 8004af4:	eb03 0383 	add.w	r3, r3, r3, lsl #2
 8004af8:	00db      	lsls	r3, r3, #3
 8004afa:	2200      	movs	r2, #0
 8004afc:	50ea      	str	r2, [r5, r3]
          if (ep->doublebuffer != 0U)
 8004afe:	eb04 0384 	add.w	r3, r4, r4, lsl #2
 8004b02:	eb05 03c3 	add.w	r3, r5, r3, lsl #3
 8004b06:	7f1b      	ldrb	r3, [r3, #28]
 8004b08:	b31b      	cbz	r3, 8004b52 <PCD_EP_ISR_Handler+0x476>
            if ((wEPVal & USB_EP_DTOG_TX) != 0U)
 8004b0a:	f016 0f40 	tst.w	r6, #64	; 0x40
 8004b0e:	d03b      	beq.n	8004b88 <PCD_EP_ISR_Handler+0x4ac>
              PCD_SET_EP_DBUF0_CNT(hpcd->Instance, ep->num, ep->is_in, 0U);
 8004b10:	eb04 0384 	add.w	r3, r4, r4, lsl #2
 8004b14:	eb05 03c3 	add.w	r3, r5, r3, lsl #3
 8004b18:	7c5b      	ldrb	r3, [r3, #17]
 8004b1a:	bb1b      	cbnz	r3, 8004b64 <PCD_EP_ISR_Handler+0x488>
 8004b1c:	682b      	ldr	r3, [r5, #0]
 8004b1e:	f8b3 2050 	ldrh.w	r2, [r3, #80]	; 0x50
 8004b22:	b292      	uxth	r2, r2
 8004b24:	4413      	add	r3, r2
 8004b26:	eb04 0284 	add.w	r2, r4, r4, lsl #2
 8004b2a:	eb05 02c2 	add.w	r2, r5, r2, lsl #3
 8004b2e:	7c12      	ldrb	r2, [r2, #16]
 8004b30:	eb03 1302 	add.w	r3, r3, r2, lsl #4
 8004b34:	f8b3 2404 	ldrh.w	r2, [r3, #1028]	; 0x404
 8004b38:	f3c2 0209 	ubfx	r2, r2, #0, #10
 8004b3c:	f8a3 2404 	strh.w	r2, [r3, #1028]	; 0x404
 8004b40:	f8b3 2404 	ldrh.w	r2, [r3, #1028]	; 0x404
 8004b44:	ea6f 4242 	mvn.w	r2, r2, lsl #17
 8004b48:	ea6f 4252 	mvn.w	r2, r2, lsr #17
 8004b4c:	b292      	uxth	r2, r2
 8004b4e:	f8a3 2404 	strh.w	r2, [r3, #1028]	; 0x404
          HAL_PCD_DataInStageCallback(hpcd, ep->num);
 8004b52:	eb04 0484 	add.w	r4, r4, r4, lsl #2
 8004b56:	eb05 04c4 	add.w	r4, r5, r4, lsl #3
 8004b5a:	7c21      	ldrb	r1, [r4, #16]
 8004b5c:	4628      	mov	r0, r5
 8004b5e:	f003 fa9f 	bl	80080a0 <HAL_PCD_DataInStageCallback>
 8004b62:	e5be      	b.n	80046e2 <PCD_EP_ISR_Handler+0x6>
              PCD_SET_EP_DBUF0_CNT(hpcd->Instance, ep->num, ep->is_in, 0U);
 8004b64:	2b01      	cmp	r3, #1
 8004b66:	d1f4      	bne.n	8004b52 <PCD_EP_ISR_Handler+0x476>
 8004b68:	682b      	ldr	r3, [r5, #0]
 8004b6a:	f8b3 2050 	ldrh.w	r2, [r3, #80]	; 0x50
 8004b6e:	b292      	uxth	r2, r2
 8004b70:	4413      	add	r3, r2
 8004b72:	eb04 0284 	add.w	r2, r4, r4, lsl #2
 8004b76:	eb05 02c2 	add.w	r2, r5, r2, lsl #3
 8004b7a:	7c12      	ldrb	r2, [r2, #16]
 8004b7c:	eb03 1302 	add.w	r3, r3, r2, lsl #4
 8004b80:	2200      	movs	r2, #0
 8004b82:	f8a3 2404 	strh.w	r2, [r3, #1028]	; 0x404
 8004b86:	e7e4      	b.n	8004b52 <PCD_EP_ISR_Handler+0x476>
              PCD_SET_EP_DBUF1_CNT(hpcd->Instance, ep->num, ep->is_in, 0U);
 8004b88:	682b      	ldr	r3, [r5, #0]
 8004b8a:	eb04 0284 	add.w	r2, r4, r4, lsl #2
 8004b8e:	eb05 02c2 	add.w	r2, r5, r2, lsl #3
 8004b92:	7c52      	ldrb	r2, [r2, #17]
 8004b94:	b9d2      	cbnz	r2, 8004bcc <PCD_EP_ISR_Handler+0x4f0>
 8004b96:	f8b3 2050 	ldrh.w	r2, [r3, #80]	; 0x50
 8004b9a:	b292      	uxth	r2, r2
 8004b9c:	4413      	add	r3, r2
 8004b9e:	eb04 0284 	add.w	r2, r4, r4, lsl #2
 8004ba2:	eb05 02c2 	add.w	r2, r5, r2, lsl #3
 8004ba6:	7c12      	ldrb	r2, [r2, #16]
 8004ba8:	eb03 1302 	add.w	r3, r3, r2, lsl #4
 8004bac:	f8b3 240c 	ldrh.w	r2, [r3, #1036]	; 0x40c
 8004bb0:	f3c2 0209 	ubfx	r2, r2, #0, #10
 8004bb4:	f8a3 240c 	strh.w	r2, [r3, #1036]	; 0x40c
 8004bb8:	f8b3 240c 	ldrh.w	r2, [r3, #1036]	; 0x40c
 8004bbc:	ea6f 4242 	mvn.w	r2, r2, lsl #17
 8004bc0:	ea6f 4252 	mvn.w	r2, r2, lsr #17
 8004bc4:	b292      	uxth	r2, r2
 8004bc6:	f8a3 240c 	strh.w	r2, [r3, #1036]	; 0x40c
 8004bca:	e7c2      	b.n	8004b52 <PCD_EP_ISR_Handler+0x476>
 8004bcc:	2a01      	cmp	r2, #1
 8004bce:	d1c0      	bne.n	8004b52 <PCD_EP_ISR_Handler+0x476>
 8004bd0:	f8b3 2050 	ldrh.w	r2, [r3, #80]	; 0x50
 8004bd4:	b292      	uxth	r2, r2
 8004bd6:	4413      	add	r3, r2
 8004bd8:	eb04 0284 	add.w	r2, r4, r4, lsl #2
 8004bdc:	eb05 02c2 	add.w	r2, r5, r2, lsl #3
 8004be0:	7c12      	ldrb	r2, [r2, #16]
 8004be2:	eb03 1302 	add.w	r3, r3, r2, lsl #4
 8004be6:	2200      	movs	r2, #0
 8004be8:	f8a3 240c 	strh.w	r2, [r3, #1036]	; 0x40c
 8004bec:	e7b1      	b.n	8004b52 <PCD_EP_ISR_Handler+0x476>
              ep->xfer_len = 0U;
 8004bee:	1c62      	adds	r2, r4, #1
 8004bf0:	eb02 0282 	add.w	r2, r2, r2, lsl #2
 8004bf4:	00d2      	lsls	r2, r2, #3
 8004bf6:	2600      	movs	r6, #0
 8004bf8:	50ae      	str	r6, [r5, r2]
 8004bfa:	e6a8      	b.n	800494e <PCD_EP_ISR_Handler+0x272>
              ep->xfer_buff += TxPctSize;
 8004bfc:	eb04 0284 	add.w	r2, r4, r4, lsl #2
 8004c00:	eb05 02c2 	add.w	r2, r5, r2, lsl #3
 8004c04:	6a56      	ldr	r6, [r2, #36]	; 0x24
 8004c06:	441e      	add	r6, r3
 8004c08:	6256      	str	r6, [r2, #36]	; 0x24
              ep->xfer_count += TxPctSize;
 8004c0a:	3401      	adds	r4, #1
 8004c0c:	eb04 0284 	add.w	r2, r4, r4, lsl #2
 8004c10:	eb05 02c2 	add.w	r2, r5, r2, lsl #3
 8004c14:	6854      	ldr	r4, [r2, #4]
 8004c16:	4423      	add	r3, r4
 8004c18:	6053      	str	r3, [r2, #4]
              (void)USB_EPStartXfer(hpcd->Instance, ep);
 8004c1a:	f001 fe80 	bl	800691e <USB_EPStartXfer>
 8004c1e:	e560      	b.n	80046e2 <PCD_EP_ISR_Handler+0x6>
            (void)HAL_PCD_EP_DB_Transmit(hpcd, ep, wEPVal);
 8004c20:	4632      	mov	r2, r6
 8004c22:	4628      	mov	r0, r5
 8004c24:	f7ff fb48 	bl	80042b8 <HAL_PCD_EP_DB_Transmit>
 8004c28:	e55b      	b.n	80046e2 <PCD_EP_ISR_Handler+0x6>
}
 8004c2a:	2000      	movs	r0, #0
 8004c2c:	e8bd 81f0 	ldmia.w	sp!, {r4, r5, r6, r7, r8, pc}

08004c30 <HAL_PCD_SetAddress>:
  __HAL_LOCK(hpcd);
 8004c30:	f890 3290 	ldrb.w	r3, [r0, #656]	; 0x290
 8004c34:	2b01      	cmp	r3, #1
 8004c36:	d00c      	beq.n	8004c52 <HAL_PCD_SetAddress+0x22>
{
 8004c38:	b510      	push	{r4, lr}
 8004c3a:	4604      	mov	r4, r0
  __HAL_LOCK(hpcd);
 8004c3c:	2301      	movs	r3, #1
 8004c3e:	f880 3290 	strb.w	r3, [r0, #656]	; 0x290
  hpcd->USB_Address = address;
 8004c42:	7341      	strb	r1, [r0, #13]
  (void)USB_SetDevAddress(hpcd->Instance, address);
 8004c44:	6800      	ldr	r0, [r0, #0]
 8004c46:	f001 fe47 	bl	80068d8 <USB_SetDevAddress>
  __HAL_UNLOCK(hpcd);
 8004c4a:	2000      	movs	r0, #0
 8004c4c:	f884 0290 	strb.w	r0, [r4, #656]	; 0x290
}
 8004c50:	bd10      	pop	{r4, pc}
  __HAL_LOCK(hpcd);
 8004c52:	2002      	movs	r0, #2
}
 8004c54:	4770      	bx	lr

08004c56 <HAL_PCD_IRQHandler>:
{
 8004c56:	b510      	push	{r4, lr}
 8004c58:	b084      	sub	sp, #16
 8004c5a:	4604      	mov	r4, r0
  uint32_t wIstr = USB_ReadInterrupts(hpcd->Instance);
 8004c5c:	6800      	ldr	r0, [r0, #0]
 8004c5e:	f001 fe45 	bl	80068ec <USB_ReadInterrupts>
  if ((wIstr & USB_ISTR_CTR) == USB_ISTR_CTR)
 8004c62:	f410 4f00 	tst.w	r0, #32768	; 0x8000
 8004c66:	d120      	bne.n	8004caa <HAL_PCD_IRQHandler+0x54>
  if ((wIstr & USB_ISTR_RESET) == USB_ISTR_RESET)
 8004c68:	f410 6f80 	tst.w	r0, #1024	; 0x400
 8004c6c:	d121      	bne.n	8004cb2 <HAL_PCD_IRQHandler+0x5c>
  if ((wIstr & USB_ISTR_PMAOVR) == USB_ISTR_PMAOVR)
 8004c6e:	f410 4f80 	tst.w	r0, #16384	; 0x4000
 8004c72:	d12f      	bne.n	8004cd4 <HAL_PCD_IRQHandler+0x7e>
  if ((wIstr & USB_ISTR_ERR) == USB_ISTR_ERR)
 8004c74:	f410 5f00 	tst.w	r0, #8192	; 0x2000
 8004c78:	d137      	bne.n	8004cea <HAL_PCD_IRQHandler+0x94>
  if ((wIstr & USB_ISTR_WKUP) == USB_ISTR_WKUP)
 8004c7a:	f410 5f80 	tst.w	r0, #4096	; 0x1000
 8004c7e:	d13e      	bne.n	8004cfe <HAL_PCD_IRQHandler+0xa8>
  if ((wIstr & USB_ISTR_SUSP) == USB_ISTR_SUSP)
 8004c80:	f410 6f00 	tst.w	r0, #2048	; 0x800
 8004c84:	f040 8087 	bne.w	8004d96 <HAL_PCD_IRQHandler+0x140>
  if ((wIstr & USB_ISTR_SOF) == USB_ISTR_SOF)
 8004c88:	f410 7f00 	tst.w	r0, #512	; 0x200
 8004c8c:	f040 80ae 	bne.w	8004dec <HAL_PCD_IRQHandler+0x196>
  if ((wIstr & USB_ISTR_ESOF) == USB_ISTR_ESOF)
 8004c90:	f410 7f80 	tst.w	r0, #256	; 0x100
 8004c94:	d027      	beq.n	8004ce6 <HAL_PCD_IRQHandler+0x90>
    __HAL_PCD_CLEAR_FLAG(hpcd, USB_ISTR_ESOF);
 8004c96:	6822      	ldr	r2, [r4, #0]
 8004c98:	f8b2 3044 	ldrh.w	r3, [r2, #68]	; 0x44
 8004c9c:	b29b      	uxth	r3, r3
 8004c9e:	f423 7380 	bic.w	r3, r3, #256	; 0x100
 8004ca2:	b29b      	uxth	r3, r3
 8004ca4:	f8a2 3044 	strh.w	r3, [r2, #68]	; 0x44
    return;
 8004ca8:	e01d      	b.n	8004ce6 <HAL_PCD_IRQHandler+0x90>
    (void)PCD_EP_ISR_Handler(hpcd);
 8004caa:	4620      	mov	r0, r4
 8004cac:	f7ff fd16 	bl	80046dc <PCD_EP_ISR_Handler>
    return;
 8004cb0:	e019      	b.n	8004ce6 <HAL_PCD_IRQHandler+0x90>
    __HAL_PCD_CLEAR_FLAG(hpcd, USB_ISTR_RESET);
 8004cb2:	6822      	ldr	r2, [r4, #0]
 8004cb4:	f8b2 3044 	ldrh.w	r3, [r2, #68]	; 0x44
 8004cb8:	b29b      	uxth	r3, r3
 8004cba:	f423 6380 	bic.w	r3, r3, #1024	; 0x400
 8004cbe:	b29b      	uxth	r3, r3
 8004cc0:	f8a2 3044 	strh.w	r3, [r2, #68]	; 0x44
    HAL_PCD_ResetCallback(hpcd);
 8004cc4:	4620      	mov	r0, r4
 8004cc6:	f003 f9fc 	bl	80080c2 <HAL_PCD_ResetCallback>
    (void)HAL_PCD_SetAddress(hpcd, 0U);
 8004cca:	2100      	movs	r1, #0
 8004ccc:	4620      	mov	r0, r4
 8004cce:	f7ff ffaf 	bl	8004c30 <HAL_PCD_SetAddress>
    return;
 8004cd2:	e008      	b.n	8004ce6 <HAL_PCD_IRQHandler+0x90>
    __HAL_PCD_CLEAR_FLAG(hpcd, USB_ISTR_PMAOVR);
 8004cd4:	6822      	ldr	r2, [r4, #0]
 8004cd6:	f8b2 3044 	ldrh.w	r3, [r2, #68]	; 0x44
 8004cda:	b29b      	uxth	r3, r3
 8004cdc:	f423 4380 	bic.w	r3, r3, #16384	; 0x4000
 8004ce0:	b29b      	uxth	r3, r3
 8004ce2:	f8a2 3044 	strh.w	r3, [r2, #68]	; 0x44
}
 8004ce6:	b004      	add	sp, #16
 8004ce8:	bd10      	pop	{r4, pc}
    __HAL_PCD_CLEAR_FLAG(hpcd, USB_ISTR_ERR);
 8004cea:	6822      	ldr	r2, [r4, #0]
 8004cec:	f8b2 3044 	ldrh.w	r3, [r2, #68]	; 0x44
 8004cf0:	b29b      	uxth	r3, r3
 8004cf2:	f423 5300 	bic.w	r3, r3, #8192	; 0x2000
 8004cf6:	b29b      	uxth	r3, r3
 8004cf8:	f8a2 3044 	strh.w	r3, [r2, #68]	; 0x44
    return;
 8004cfc:	e7f3      	b.n	8004ce6 <HAL_PCD_IRQHandler+0x90>
    hpcd->Instance->CNTR &= (uint16_t) ~(USB_CNTR_LP_MODE);
 8004cfe:	6822      	ldr	r2, [r4, #0]
 8004d00:	f8b2 3040 	ldrh.w	r3, [r2, #64]	; 0x40
 8004d04:	b29b      	uxth	r3, r3
 8004d06:	f023 0304 	bic.w	r3, r3, #4
 8004d0a:	b29b      	uxth	r3, r3
 8004d0c:	f8a2 3040 	strh.w	r3, [r2, #64]	; 0x40
    hpcd->Instance->CNTR &= (uint16_t) ~(USB_CNTR_FSUSP);
 8004d10:	6822      	ldr	r2, [r4, #0]
 8004d12:	f8b2 3040 	ldrh.w	r3, [r2, #64]	; 0x40
 8004d16:	b29b      	uxth	r3, r3
 8004d18:	f023 0308 	bic.w	r3, r3, #8
 8004d1c:	b29b      	uxth	r3, r3
 8004d1e:	f8a2 3040 	strh.w	r3, [r2, #64]	; 0x40
    HAL_PCD_ResumeCallback(hpcd);
 8004d22:	4620      	mov	r0, r4
 8004d24:	f003 f9f0 	bl	8008108 <HAL_PCD_ResumeCallback>
    __HAL_PCD_CLEAR_FLAG(hpcd, USB_ISTR_WKUP);
 8004d28:	6822      	ldr	r2, [r4, #0]
 8004d2a:	f8b2 3044 	ldrh.w	r3, [r2, #68]	; 0x44
 8004d2e:	b29b      	uxth	r3, r3
 8004d30:	f423 5380 	bic.w	r3, r3, #4096	; 0x1000
 8004d34:	b29b      	uxth	r3, r3
 8004d36:	f8a2 3044 	strh.w	r3, [r2, #68]	; 0x44
    return;
 8004d3a:	e7d4      	b.n	8004ce6 <HAL_PCD_IRQHandler+0x90>
      store_ep[i] = PCD_GET_ENDPOINT(hpcd->Instance, i);
 8004d3c:	6822      	ldr	r2, [r4, #0]
 8004d3e:	f832 1023 	ldrh.w	r1, [r2, r3, lsl #2]
 8004d42:	aa04      	add	r2, sp, #16
 8004d44:	eb02 0243 	add.w	r2, r2, r3, lsl #1
 8004d48:	f822 1c10 	strh.w	r1, [r2, #-16]
    for (i = 0U; i < 8U; i++)
 8004d4c:	3301      	adds	r3, #1
 8004d4e:	b2db      	uxtb	r3, r3
 8004d50:	2b07      	cmp	r3, #7
 8004d52:	d9f3      	bls.n	8004d3c <HAL_PCD_IRQHandler+0xe6>
    hpcd->Instance->CNTR |= (uint16_t)(USB_CNTR_FRES);
 8004d54:	6822      	ldr	r2, [r4, #0]
 8004d56:	f8b2 3040 	ldrh.w	r3, [r2, #64]	; 0x40
 8004d5a:	b29b      	uxth	r3, r3
 8004d5c:	f043 0301 	orr.w	r3, r3, #1
 8004d60:	f8a2 3040 	strh.w	r3, [r2, #64]	; 0x40
    hpcd->Instance->CNTR &= (uint16_t)(~USB_CNTR_FRES);
 8004d64:	6822      	ldr	r2, [r4, #0]
 8004d66:	f8b2 3040 	ldrh.w	r3, [r2, #64]	; 0x40
 8004d6a:	b29b      	uxth	r3, r3
 8004d6c:	f023 0301 	bic.w	r3, r3, #1
 8004d70:	b29b      	uxth	r3, r3
 8004d72:	f8a2 3040 	strh.w	r3, [r2, #64]	; 0x40
    while ((hpcd->Instance->ISTR & USB_ISTR_RESET) == 0U)
 8004d76:	6823      	ldr	r3, [r4, #0]
 8004d78:	f8b3 2044 	ldrh.w	r2, [r3, #68]	; 0x44
 8004d7c:	f412 6f80 	tst.w	r2, #1024	; 0x400
 8004d80:	d0f9      	beq.n	8004d76 <HAL_PCD_IRQHandler+0x120>
    __HAL_PCD_CLEAR_FLAG(hpcd, USB_ISTR_RESET);
 8004d82:	f8b3 2044 	ldrh.w	r2, [r3, #68]	; 0x44
 8004d86:	b292      	uxth	r2, r2
 8004d88:	f422 6280 	bic.w	r2, r2, #1024	; 0x400
 8004d8c:	b292      	uxth	r2, r2
 8004d8e:	f8a3 2044 	strh.w	r2, [r3, #68]	; 0x44
    for (i = 0U; i < 8U; i++)
 8004d92:	2300      	movs	r3, #0
 8004d94:	e00b      	b.n	8004dae <HAL_PCD_IRQHandler+0x158>
    for (i = 0U; i < 8U; i++)
 8004d96:	2300      	movs	r3, #0
 8004d98:	e7da      	b.n	8004d50 <HAL_PCD_IRQHandler+0xfa>
      PCD_SET_ENDPOINT(hpcd->Instance, i, store_ep[i]);
 8004d9a:	6822      	ldr	r2, [r4, #0]
 8004d9c:	a904      	add	r1, sp, #16
 8004d9e:	eb01 0143 	add.w	r1, r1, r3, lsl #1
 8004da2:	f831 1c10 	ldrh.w	r1, [r1, #-16]
 8004da6:	f822 1023 	strh.w	r1, [r2, r3, lsl #2]
    for (i = 0U; i < 8U; i++)
 8004daa:	3301      	adds	r3, #1
 8004dac:	b2db      	uxtb	r3, r3
 8004dae:	2b07      	cmp	r3, #7
 8004db0:	d9f3      	bls.n	8004d9a <HAL_PCD_IRQHandler+0x144>
    hpcd->Instance->CNTR |= (uint16_t)USB_CNTR_FSUSP;
 8004db2:	6822      	ldr	r2, [r4, #0]
 8004db4:	f8b2 3040 	ldrh.w	r3, [r2, #64]	; 0x40
 8004db8:	b29b      	uxth	r3, r3
 8004dba:	f043 0308 	orr.w	r3, r3, #8
 8004dbe:	f8a2 3040 	strh.w	r3, [r2, #64]	; 0x40
    __HAL_PCD_CLEAR_FLAG(hpcd, USB_ISTR_SUSP);
 8004dc2:	6822      	ldr	r2, [r4, #0]
 8004dc4:	f8b2 3044 	ldrh.w	r3, [r2, #68]	; 0x44
 8004dc8:	b29b      	uxth	r3, r3
 8004dca:	f423 6300 	bic.w	r3, r3, #2048	; 0x800
 8004dce:	b29b      	uxth	r3, r3
 8004dd0:	f8a2 3044 	strh.w	r3, [r2, #68]	; 0x44
    hpcd->Instance->CNTR |= (uint16_t)USB_CNTR_LP_MODE;
 8004dd4:	6822      	ldr	r2, [r4, #0]
 8004dd6:	f8b2 3040 	ldrh.w	r3, [r2, #64]	; 0x40
 8004dda:	b29b      	uxth	r3, r3
 8004ddc:	f043 0304 	orr.w	r3, r3, #4
 8004de0:	f8a2 3040 	strh.w	r3, [r2, #64]	; 0x40
    HAL_PCD_SuspendCallback(hpcd);
 8004de4:	4620      	mov	r0, r4
 8004de6:	f003 f97f 	bl	80080e8 <HAL_PCD_SuspendCallback>
    return;
 8004dea:	e77c      	b.n	8004ce6 <HAL_PCD_IRQHandler+0x90>
    __HAL_PCD_CLEAR_FLAG(hpcd, USB_ISTR_SOF);
 8004dec:	6822      	ldr	r2, [r4, #0]
 8004dee:	f8b2 3044 	ldrh.w	r3, [r2, #68]	; 0x44
 8004df2:	b29b      	uxth	r3, r3
 8004df4:	f423 7300 	bic.w	r3, r3, #512	; 0x200
 8004df8:	b29b      	uxth	r3, r3
 8004dfa:	f8a2 3044 	strh.w	r3, [r2, #68]	; 0x44
    HAL_PCD_SOFCallback(hpcd);
 8004dfe:	4620      	mov	r0, r4
 8004e00:	f003 f959 	bl	80080b6 <HAL_PCD_SOFCallback>
    return;
 8004e04:	e76f      	b.n	8004ce6 <HAL_PCD_IRQHandler+0x90>

08004e06 <HAL_PCD_EP_Open>:
{
 8004e06:	b570      	push	{r4, r5, r6, lr}
 8004e08:	4604      	mov	r4, r0
 8004e0a:	4608      	mov	r0, r1
  if ((ep_addr & 0x80U) == 0x80U)
 8004e0c:	f011 0f80 	tst.w	r1, #128	; 0x80
 8004e10:	d123      	bne.n	8004e5a <HAL_PCD_EP_Open+0x54>
    ep = &hpcd->OUT_ep[ep_addr & EP_ADDR_MSK];
 8004e12:	f001 0507 	and.w	r5, r1, #7
 8004e16:	eb05 0685 	add.w	r6, r5, r5, lsl #2
 8004e1a:	00f6      	lsls	r6, r6, #3
 8004e1c:	f506 76a8 	add.w	r6, r6, #336	; 0x150
 8004e20:	19a1      	adds	r1, r4, r6
    ep->is_in = 0U;
 8004e22:	eb05 0585 	add.w	r5, r5, r5, lsl #2
 8004e26:	eb04 05c5 	add.w	r5, r4, r5, lsl #3
 8004e2a:	2600      	movs	r6, #0
 8004e2c:	f885 6151 	strb.w	r6, [r5, #337]	; 0x151
  ep->num = ep_addr & EP_ADDR_MSK;
 8004e30:	f000 0007 	and.w	r0, r0, #7
 8004e34:	7008      	strb	r0, [r1, #0]
  ep->maxpacket = ep_mps;
 8004e36:	610a      	str	r2, [r1, #16]
  ep->type = ep_type;
 8004e38:	70cb      	strb	r3, [r1, #3]
  if (ep_type == EP_TYPE_BULK)
 8004e3a:	2b02      	cmp	r3, #2
 8004e3c:	d01b      	beq.n	8004e76 <HAL_PCD_EP_Open+0x70>
  __HAL_LOCK(hpcd);
 8004e3e:	f894 3290 	ldrb.w	r3, [r4, #656]	; 0x290
 8004e42:	2b01      	cmp	r3, #1
 8004e44:	d01a      	beq.n	8004e7c <HAL_PCD_EP_Open+0x76>
 8004e46:	2301      	movs	r3, #1
 8004e48:	f884 3290 	strb.w	r3, [r4, #656]	; 0x290
  (void)USB_ActivateEndpoint(hpcd->Instance, ep);
 8004e4c:	6820      	ldr	r0, [r4, #0]
 8004e4e:	f001 fa1c 	bl	800628a <USB_ActivateEndpoint>
  __HAL_UNLOCK(hpcd);
 8004e52:	2000      	movs	r0, #0
 8004e54:	f884 0290 	strb.w	r0, [r4, #656]	; 0x290
}
 8004e58:	bd70      	pop	{r4, r5, r6, pc}
    ep = &hpcd->IN_ep[ep_addr & EP_ADDR_MSK];
 8004e5a:	f001 0507 	and.w	r5, r1, #7
 8004e5e:	eb05 0185 	add.w	r1, r5, r5, lsl #2
 8004e62:	00c9      	lsls	r1, r1, #3
 8004e64:	3110      	adds	r1, #16
 8004e66:	4421      	add	r1, r4
    ep->is_in = 1U;
 8004e68:	eb05 0585 	add.w	r5, r5, r5, lsl #2
 8004e6c:	eb04 05c5 	add.w	r5, r4, r5, lsl #3
 8004e70:	2601      	movs	r6, #1
 8004e72:	746e      	strb	r6, [r5, #17]
 8004e74:	e7dc      	b.n	8004e30 <HAL_PCD_EP_Open+0x2a>
    ep->data_pid_start = 0U;
 8004e76:	2300      	movs	r3, #0
 8004e78:	710b      	strb	r3, [r1, #4]
 8004e7a:	e7e0      	b.n	8004e3e <HAL_PCD_EP_Open+0x38>
  __HAL_LOCK(hpcd);
 8004e7c:	2002      	movs	r0, #2
 8004e7e:	e7eb      	b.n	8004e58 <HAL_PCD_EP_Open+0x52>

08004e80 <HAL_PCD_EP_Close>:
{
 8004e80:	b510      	push	{r4, lr}
 8004e82:	4604      	mov	r4, r0
 8004e84:	460a      	mov	r2, r1
  if ((ep_addr & 0x80U) == 0x80U)
 8004e86:	f011 0f80 	tst.w	r1, #128	; 0x80
 8004e8a:	d11f      	bne.n	8004ecc <HAL_PCD_EP_Close+0x4c>
    ep = &hpcd->OUT_ep[ep_addr & EP_ADDR_MSK];
 8004e8c:	f001 0007 	and.w	r0, r1, #7
 8004e90:	eb00 0380 	add.w	r3, r0, r0, lsl #2
 8004e94:	00db      	lsls	r3, r3, #3
 8004e96:	f503 73a8 	add.w	r3, r3, #336	; 0x150
 8004e9a:	18e1      	adds	r1, r4, r3
    ep->is_in = 0U;
 8004e9c:	eb00 0080 	add.w	r0, r0, r0, lsl #2
 8004ea0:	eb04 00c0 	add.w	r0, r4, r0, lsl #3
 8004ea4:	2300      	movs	r3, #0
 8004ea6:	f880 3151 	strb.w	r3, [r0, #337]	; 0x151
  ep->num = ep_addr & EP_ADDR_MSK;
 8004eaa:	f002 0207 	and.w	r2, r2, #7
 8004eae:	700a      	strb	r2, [r1, #0]
  __HAL_LOCK(hpcd);
 8004eb0:	f894 3290 	ldrb.w	r3, [r4, #656]	; 0x290
 8004eb4:	2b01      	cmp	r3, #1
 8004eb6:	d017      	beq.n	8004ee8 <HAL_PCD_EP_Close+0x68>
 8004eb8:	2301      	movs	r3, #1
 8004eba:	f884 3290 	strb.w	r3, [r4, #656]	; 0x290
  (void)USB_DeactivateEndpoint(hpcd->Instance, ep);
 8004ebe:	6820      	ldr	r0, [r4, #0]
 8004ec0:	f001 fbaa 	bl	8006618 <USB_DeactivateEndpoint>
  __HAL_UNLOCK(hpcd);
 8004ec4:	2000      	movs	r0, #0
 8004ec6:	f884 0290 	strb.w	r0, [r4, #656]	; 0x290
}
 8004eca:	bd10      	pop	{r4, pc}
    ep = &hpcd->IN_ep[ep_addr & EP_ADDR_MSK];
 8004ecc:	f001 0007 	and.w	r0, r1, #7
 8004ed0:	eb00 0380 	add.w	r3, r0, r0, lsl #2
 8004ed4:	00db      	lsls	r3, r3, #3
 8004ed6:	3310      	adds	r3, #16
 8004ed8:	18e1      	adds	r1, r4, r3
    ep->is_in = 1U;
 8004eda:	eb00 0080 	add.w	r0, r0, r0, lsl #2
 8004ede:	eb04 00c0 	add.w	r0, r4, r0, lsl #3
 8004ee2:	2301      	movs	r3, #1
 8004ee4:	7443      	strb	r3, [r0, #17]
 8004ee6:	e7e0      	b.n	8004eaa <HAL_PCD_EP_Close+0x2a>
  __HAL_LOCK(hpcd);
 8004ee8:	2002      	movs	r0, #2
 8004eea:	e7ee      	b.n	8004eca <HAL_PCD_EP_Close+0x4a>

08004eec <HAL_PCD_EP_Receive>:
{
 8004eec:	b570      	push	{r4, r5, r6, lr}
  ep = &hpcd->OUT_ep[ep_addr & EP_ADDR_MSK];
 8004eee:	f001 0407 	and.w	r4, r1, #7
 8004ef2:	eb04 0184 	add.w	r1, r4, r4, lsl #2
 8004ef6:	00c9      	lsls	r1, r1, #3
 8004ef8:	f501 71a8 	add.w	r1, r1, #336	; 0x150
  ep->xfer_buff = pBuf;
 8004efc:	eb04 0584 	add.w	r5, r4, r4, lsl #2
 8004f00:	eb00 05c5 	add.w	r5, r0, r5, lsl #3
 8004f04:	f8c5 2164 	str.w	r2, [r5, #356]	; 0x164
  ep->xfer_len = len;
 8004f08:	f8c5 3168 	str.w	r3, [r5, #360]	; 0x168
  ep->xfer_count = 0U;
 8004f0c:	2600      	movs	r6, #0
 8004f0e:	f8c5 616c 	str.w	r6, [r5, #364]	; 0x16c
  ep->is_in = 0U;
 8004f12:	f885 6151 	strb.w	r6, [r5, #337]	; 0x151
  ep->num = ep_addr & EP_ADDR_MSK;
 8004f16:	f885 4150 	strb.w	r4, [r5, #336]	; 0x150
  (void)USB_EPStartXfer(hpcd->Instance, ep);
 8004f1a:	4401      	add	r1, r0
 8004f1c:	6800      	ldr	r0, [r0, #0]
 8004f1e:	f001 fcfe 	bl	800691e <USB_EPStartXfer>
}
 8004f22:	4630      	mov	r0, r6
 8004f24:	bd70      	pop	{r4, r5, r6, pc}

08004f26 <HAL_PCD_EP_GetRxCount>:
  return hpcd->OUT_ep[ep_addr & EP_ADDR_MSK].xfer_count;
 8004f26:	f001 0107 	and.w	r1, r1, #7
 8004f2a:	eb01 0181 	add.w	r1, r1, r1, lsl #2
 8004f2e:	eb00 01c1 	add.w	r1, r0, r1, lsl #3
}
 8004f32:	f8d1 016c 	ldr.w	r0, [r1, #364]	; 0x16c
 8004f36:	4770      	bx	lr

08004f38 <HAL_PCD_EP_Transmit>:
{
 8004f38:	b5f8      	push	{r3, r4, r5, r6, r7, lr}
  ep = &hpcd->IN_ep[ep_addr & EP_ADDR_MSK];
 8004f3a:	f001 0407 	and.w	r4, r1, #7
 8004f3e:	eb04 0184 	add.w	r1, r4, r4, lsl #2
 8004f42:	00c9      	lsls	r1, r1, #3
 8004f44:	3110      	adds	r1, #16
  ep->xfer_buff = pBuf;
 8004f46:	eb04 0584 	add.w	r5, r4, r4, lsl #2
 8004f4a:	eb00 05c5 	add.w	r5, r0, r5, lsl #3
 8004f4e:	626a      	str	r2, [r5, #36]	; 0x24
  ep->xfer_len = len;
 8004f50:	1c62      	adds	r2, r4, #1
 8004f52:	eb02 0682 	add.w	r6, r2, r2, lsl #2
 8004f56:	f840 3036 	str.w	r3, [r0, r6, lsl #3]
  ep->xfer_fill_db = 1U;
 8004f5a:	2701      	movs	r7, #1
 8004f5c:	f885 7034 	strb.w	r7, [r5, #52]	; 0x34
  ep->xfer_len_db = len;
 8004f60:	632b      	str	r3, [r5, #48]	; 0x30
  ep->xfer_count = 0U;
 8004f62:	eb00 02c6 	add.w	r2, r0, r6, lsl #3
 8004f66:	2600      	movs	r6, #0
 8004f68:	6056      	str	r6, [r2, #4]
  ep->is_in = 1U;
 8004f6a:	746f      	strb	r7, [r5, #17]
  ep->num = ep_addr & EP_ADDR_MSK;
 8004f6c:	742c      	strb	r4, [r5, #16]
  (void)USB_EPStartXfer(hpcd->Instance, ep);
 8004f6e:	4401      	add	r1, r0
 8004f70:	6800      	ldr	r0, [r0, #0]
 8004f72:	f001 fcd4 	bl	800691e <USB_EPStartXfer>
}
 8004f76:	4630      	mov	r0, r6
 8004f78:	bdf8      	pop	{r3, r4, r5, r6, r7, pc}

08004f7a <HAL_PCD_EP_SetStall>:
{
 8004f7a:	b538      	push	{r3, r4, r5, lr}
  if (((uint32_t)ep_addr & EP_ADDR_MSK) > hpcd->Init.dev_endpoints)
 8004f7c:	f001 0507 	and.w	r5, r1, #7
 8004f80:	7902      	ldrb	r2, [r0, #4]
 8004f82:	42aa      	cmp	r2, r5
 8004f84:	d335      	bcc.n	8004ff2 <HAL_PCD_EP_SetStall+0x78>
 8004f86:	4604      	mov	r4, r0
 8004f88:	460b      	mov	r3, r1
  if ((0x80U & ep_addr) == 0x80U)
 8004f8a:	f011 0f80 	tst.w	r1, #128	; 0x80
 8004f8e:	d11e      	bne.n	8004fce <HAL_PCD_EP_SetStall+0x54>
    ep = &hpcd->OUT_ep[ep_addr];
 8004f90:	eb01 0181 	add.w	r1, r1, r1, lsl #2
 8004f94:	00c9      	lsls	r1, r1, #3
 8004f96:	f501 71a8 	add.w	r1, r1, #336	; 0x150
 8004f9a:	4401      	add	r1, r0
    ep->is_in = 0U;
 8004f9c:	eb03 0383 	add.w	r3, r3, r3, lsl #2
 8004fa0:	eb00 03c3 	add.w	r3, r0, r3, lsl #3
 8004fa4:	2200      	movs	r2, #0
 8004fa6:	f883 2151 	strb.w	r2, [r3, #337]	; 0x151
  ep->is_stall = 1U;
 8004faa:	2301      	movs	r3, #1
 8004fac:	708b      	strb	r3, [r1, #2]
  ep->num = ep_addr & EP_ADDR_MSK;
 8004fae:	700d      	strb	r5, [r1, #0]
  __HAL_LOCK(hpcd);
 8004fb0:	f894 3290 	ldrb.w	r3, [r4, #656]	; 0x290
 8004fb4:	2b01      	cmp	r3, #1
 8004fb6:	d01e      	beq.n	8004ff6 <HAL_PCD_EP_SetStall+0x7c>
 8004fb8:	2301      	movs	r3, #1
 8004fba:	f884 3290 	strb.w	r3, [r4, #656]	; 0x290
  (void)USB_EPSetStall(hpcd->Instance, ep);
 8004fbe:	6820      	ldr	r0, [r4, #0]
 8004fc0:	f001 fc14 	bl	80067ec <USB_EPSetStall>
  if ((ep_addr & EP_ADDR_MSK) == 0U)
 8004fc4:	b17d      	cbz	r5, 8004fe6 <HAL_PCD_EP_SetStall+0x6c>
  __HAL_UNLOCK(hpcd);
 8004fc6:	2000      	movs	r0, #0
 8004fc8:	f884 0290 	strb.w	r0, [r4, #656]	; 0x290
}
 8004fcc:	bd38      	pop	{r3, r4, r5, pc}
    ep = &hpcd->IN_ep[ep_addr & EP_ADDR_MSK];
 8004fce:	eb05 0185 	add.w	r1, r5, r5, lsl #2
 8004fd2:	00c9      	lsls	r1, r1, #3
 8004fd4:	3110      	adds	r1, #16
 8004fd6:	4401      	add	r1, r0
    ep->is_in = 1U;
 8004fd8:	eb05 0385 	add.w	r3, r5, r5, lsl #2
 8004fdc:	eb00 03c3 	add.w	r3, r0, r3, lsl #3
 8004fe0:	2201      	movs	r2, #1
 8004fe2:	745a      	strb	r2, [r3, #17]
 8004fe4:	e7e1      	b.n	8004faa <HAL_PCD_EP_SetStall+0x30>
    (void)USB_EP0_OutStart(hpcd->Instance, (uint8_t *)hpcd->Setup);
 8004fe6:	f504 7126 	add.w	r1, r4, #664	; 0x298
 8004fea:	6820      	ldr	r0, [r4, #0]
 8004fec:	f001 fc82 	bl	80068f4 <USB_EP0_OutStart>
 8004ff0:	e7e9      	b.n	8004fc6 <HAL_PCD_EP_SetStall+0x4c>
    return HAL_ERROR;
 8004ff2:	2001      	movs	r0, #1
 8004ff4:	e7ea      	b.n	8004fcc <HAL_PCD_EP_SetStall+0x52>
  __HAL_LOCK(hpcd);
 8004ff6:	2002      	movs	r0, #2
 8004ff8:	e7e8      	b.n	8004fcc <HAL_PCD_EP_SetStall+0x52>

08004ffa <HAL_PCD_EP_ClrStall>:
{
 8004ffa:	460b      	mov	r3, r1
  if (((uint32_t)ep_addr & 0x0FU) > hpcd->Init.dev_endpoints)
 8004ffc:	7901      	ldrb	r1, [r0, #4]
 8004ffe:	f003 020f 	and.w	r2, r3, #15
 8005002:	4291      	cmp	r1, r2
 8005004:	d334      	bcc.n	8005070 <HAL_PCD_EP_ClrStall+0x76>
{
 8005006:	b510      	push	{r4, lr}
 8005008:	4604      	mov	r4, r0
  if ((0x80U & ep_addr) == 0x80U)
 800500a:	f013 0f80 	tst.w	r3, #128	; 0x80
 800500e:	d121      	bne.n	8005054 <HAL_PCD_EP_ClrStall+0x5a>
    ep = &hpcd->OUT_ep[ep_addr & EP_ADDR_MSK];
 8005010:	f003 0207 	and.w	r2, r3, #7
 8005014:	eb02 0182 	add.w	r1, r2, r2, lsl #2
 8005018:	00c9      	lsls	r1, r1, #3
 800501a:	f501 71a8 	add.w	r1, r1, #336	; 0x150
 800501e:	4401      	add	r1, r0
    ep->is_in = 0U;
 8005020:	eb02 0282 	add.w	r2, r2, r2, lsl #2
 8005024:	eb00 02c2 	add.w	r2, r0, r2, lsl #3
 8005028:	2000      	movs	r0, #0
 800502a:	f882 0151 	strb.w	r0, [r2, #337]	; 0x151
  ep->is_stall = 0U;
 800502e:	2200      	movs	r2, #0
 8005030:	708a      	strb	r2, [r1, #2]
  ep->num = ep_addr & EP_ADDR_MSK;
 8005032:	f003 0307 	and.w	r3, r3, #7
 8005036:	700b      	strb	r3, [r1, #0]
  __HAL_LOCK(hpcd);
 8005038:	f894 3290 	ldrb.w	r3, [r4, #656]	; 0x290
 800503c:	2b01      	cmp	r3, #1
 800503e:	d019      	beq.n	8005074 <HAL_PCD_EP_ClrStall+0x7a>
 8005040:	2301      	movs	r3, #1
 8005042:	f884 3290 	strb.w	r3, [r4, #656]	; 0x290
  (void)USB_EPClearStall(hpcd->Instance, ep);
 8005046:	6820      	ldr	r0, [r4, #0]
 8005048:	f001 fbf5 	bl	8006836 <USB_EPClearStall>
  __HAL_UNLOCK(hpcd);
 800504c:	2000      	movs	r0, #0
 800504e:	f884 0290 	strb.w	r0, [r4, #656]	; 0x290
}
 8005052:	bd10      	pop	{r4, pc}
    ep = &hpcd->IN_ep[ep_addr & EP_ADDR_MSK];
 8005054:	f003 0207 	and.w	r2, r3, #7
 8005058:	eb02 0182 	add.w	r1, r2, r2, lsl #2
 800505c:	00c9      	lsls	r1, r1, #3
 800505e:	3110      	adds	r1, #16
 8005060:	4401      	add	r1, r0
    ep->is_in = 1U;
 8005062:	eb02 0282 	add.w	r2, r2, r2, lsl #2
 8005066:	eb00 02c2 	add.w	r2, r0, r2, lsl #3
 800506a:	2001      	movs	r0, #1
 800506c:	7450      	strb	r0, [r2, #17]
 800506e:	e7de      	b.n	800502e <HAL_PCD_EP_ClrStall+0x34>
    return HAL_ERROR;
 8005070:	2001      	movs	r0, #1
}
 8005072:	4770      	bx	lr
  __HAL_LOCK(hpcd);
 8005074:	2002      	movs	r0, #2
 8005076:	e7ec      	b.n	8005052 <HAL_PCD_EP_ClrStall+0x58>

08005078 <HAL_PCDEx_PMAConfig>:
                                       uint16_t ep_kind, uint32_t pmaadress)
{
  PCD_EPTypeDef *ep;

  /* initialize ep structure*/
  if ((0x80U & ep_addr) == 0x80U)
 8005078:	f011 0f80 	tst.w	r1, #128	; 0x80
 800507c:	d00b      	beq.n	8005096 <HAL_PCDEx_PMAConfig+0x1e>
  {
    ep = &hpcd->IN_ep[ep_addr & EP_ADDR_MSK];
 800507e:	f001 0107 	and.w	r1, r1, #7
 8005082:	eb01 0181 	add.w	r1, r1, r1, lsl #2
 8005086:	00c9      	lsls	r1, r1, #3
 8005088:	3110      	adds	r1, #16
 800508a:	4401      	add	r1, r0
  {
    ep = &hpcd->OUT_ep[ep_addr];
  }

  /* Here we check if the endpoint is single or double Buffer*/
  if (ep_kind == PCD_SNG_BUF)
 800508c:	b952      	cbnz	r2, 80050a4 <HAL_PCDEx_PMAConfig+0x2c>
  {
    /* Single Buffer */
    ep->doublebuffer = 0U;
 800508e:	730a      	strb	r2, [r1, #12]
    /* Configure the PMA */
    ep->pmaadress = (uint16_t)pmaadress;
 8005090:	80cb      	strh	r3, [r1, #6]
    ep->pmaaddr1 = (uint16_t)((pmaadress & 0xFFFF0000U) >> 16);
  }
#endif /* (USE_USB_DOUBLE_BUFFER == 1U) */

  return HAL_OK;
}
 8005092:	2000      	movs	r0, #0
 8005094:	4770      	bx	lr
    ep = &hpcd->OUT_ep[ep_addr];
 8005096:	eb01 0181 	add.w	r1, r1, r1, lsl #2
 800509a:	00c9      	lsls	r1, r1, #3
 800509c:	f501 71a8 	add.w	r1, r1, #336	; 0x150
 80050a0:	4401      	add	r1, r0
 80050a2:	e7f3      	b.n	800508c <HAL_PCDEx_PMAConfig+0x14>
    ep->doublebuffer = 1U;
 80050a4:	2201      	movs	r2, #1
 80050a6:	730a      	strb	r2, [r1, #12]
    ep->pmaaddr0 = (uint16_t)(pmaadress & 0xFFFFU);
 80050a8:	810b      	strh	r3, [r1, #8]
    ep->pmaaddr1 = (uint16_t)((pmaadress & 0xFFFF0000U) >> 16);
 80050aa:	0c1b      	lsrs	r3, r3, #16
 80050ac:	814b      	strh	r3, [r1, #10]
 80050ae:	e7f0      	b.n	8005092 <HAL_PCDEx_PMAConfig+0x1a>

080050b0 <RCC_Delay>:
  * @brief  This function provides delay (in milliseconds) based on CPU cycles method.
  * @param  mdelay: specifies the delay time length, in milliseconds.
  * @retval None
  */
static void RCC_Delay(uint32_t mdelay)
{
 80050b0:	b082      	sub	sp, #8
  __IO uint32_t Delay = mdelay * (SystemCoreClock / 8U / 1000U);
 80050b2:	4b08      	ldr	r3, [pc, #32]	; (80050d4 <RCC_Delay+0x24>)
 80050b4:	681b      	ldr	r3, [r3, #0]
 80050b6:	4a08      	ldr	r2, [pc, #32]	; (80050d8 <RCC_Delay+0x28>)
 80050b8:	fba2 2303 	umull	r2, r3, r2, r3
 80050bc:	0a5b      	lsrs	r3, r3, #9
 80050be:	fb00 f303 	mul.w	r3, r0, r3
 80050c2:	9301      	str	r3, [sp, #4]
  do
  {
    __NOP();
 80050c4:	bf00      	nop
  }
  while (Delay --);
 80050c6:	9b01      	ldr	r3, [sp, #4]
 80050c8:	1e5a      	subs	r2, r3, #1
 80050ca:	9201      	str	r2, [sp, #4]
 80050cc:	2b00      	cmp	r3, #0
 80050ce:	d1f9      	bne.n	80050c4 <RCC_Delay+0x14>
}
 80050d0:	b002      	add	sp, #8
 80050d2:	4770      	bx	lr
 80050d4:	20000000 	.word	0x20000000
 80050d8:	10624dd3 	.word	0x10624dd3

080050dc <HAL_RCC_OscConfig>:
  if (RCC_OscInitStruct == NULL)
 80050dc:	2800      	cmp	r0, #0
 80050de:	f000 81f1 	beq.w	80054c4 <HAL_RCC_OscConfig+0x3e8>
{
 80050e2:	b570      	push	{r4, r5, r6, lr}
 80050e4:	b082      	sub	sp, #8
 80050e6:	4604      	mov	r4, r0
  if (((RCC_OscInitStruct->OscillatorType) & RCC_OSCILLATORTYPE_HSE) == RCC_OSCILLATORTYPE_HSE)
 80050e8:	6803      	ldr	r3, [r0, #0]
 80050ea:	f013 0f01 	tst.w	r3, #1
 80050ee:	d02c      	beq.n	800514a <HAL_RCC_OscConfig+0x6e>
    if ((__HAL_RCC_GET_SYSCLK_SOURCE() == RCC_SYSCLKSOURCE_STATUS_HSE)
 80050f0:	4baa      	ldr	r3, [pc, #680]	; (800539c <HAL_RCC_OscConfig+0x2c0>)
 80050f2:	685b      	ldr	r3, [r3, #4]
 80050f4:	f003 030c 	and.w	r3, r3, #12
 80050f8:	2b04      	cmp	r3, #4
 80050fa:	d01d      	beq.n	8005138 <HAL_RCC_OscConfig+0x5c>
        || ((__HAL_RCC_GET_SYSCLK_SOURCE() == RCC_SYSCLKSOURCE_STATUS_PLLCLK) && (__HAL_RCC_GET_PLL_OSCSOURCE() == RCC_PLLSOURCE_HSE)))
 80050fc:	4ba7      	ldr	r3, [pc, #668]	; (800539c <HAL_RCC_OscConfig+0x2c0>)
 80050fe:	685b      	ldr	r3, [r3, #4]
 8005100:	f003 030c 	and.w	r3, r3, #12
 8005104:	2b08      	cmp	r3, #8
 8005106:	d012      	beq.n	800512e <HAL_RCC_OscConfig+0x52>
      __HAL_RCC_HSE_CONFIG(RCC_OscInitStruct->HSEState);
 8005108:	6863      	ldr	r3, [r4, #4]
 800510a:	f5b3 3f80 	cmp.w	r3, #65536	; 0x10000
 800510e:	d041      	beq.n	8005194 <HAL_RCC_OscConfig+0xb8>
 8005110:	2b00      	cmp	r3, #0
 8005112:	d155      	bne.n	80051c0 <HAL_RCC_OscConfig+0xe4>
 8005114:	f103 4380 	add.w	r3, r3, #1073741824	; 0x40000000
 8005118:	f503 3304 	add.w	r3, r3, #135168	; 0x21000
 800511c:	681a      	ldr	r2, [r3, #0]
 800511e:	f422 3280 	bic.w	r2, r2, #65536	; 0x10000
 8005122:	601a      	str	r2, [r3, #0]
 8005124:	681a      	ldr	r2, [r3, #0]
 8005126:	f422 2280 	bic.w	r2, r2, #262144	; 0x40000
 800512a:	601a      	str	r2, [r3, #0]
 800512c:	e037      	b.n	800519e <HAL_RCC_OscConfig+0xc2>
        || ((__HAL_RCC_GET_SYSCLK_SOURCE() == RCC_SYSCLKSOURCE_STATUS_PLLCLK) && (__HAL_RCC_GET_PLL_OSCSOURCE() == RCC_PLLSOURCE_HSE)))
 800512e:	4b9b      	ldr	r3, [pc, #620]	; (800539c <HAL_RCC_OscConfig+0x2c0>)
 8005130:	685b      	ldr	r3, [r3, #4]
 8005132:	f413 3f80 	tst.w	r3, #65536	; 0x10000
 8005136:	d0e7      	beq.n	8005108 <HAL_RCC_OscConfig+0x2c>
      if ((__HAL_RCC_GET_FLAG(RCC_FLAG_HSERDY) != RESET) && (RCC_OscInitStruct->HSEState == RCC_HSE_OFF))
 8005138:	4b98      	ldr	r3, [pc, #608]	; (800539c <HAL_RCC_OscConfig+0x2c0>)
 800513a:	681b      	ldr	r3, [r3, #0]
 800513c:	f413 3f00 	tst.w	r3, #131072	; 0x20000
 8005140:	d003      	beq.n	800514a <HAL_RCC_OscConfig+0x6e>
 8005142:	6863      	ldr	r3, [r4, #4]
 8005144:	2b00      	cmp	r3, #0
 8005146:	f000 81bf 	beq.w	80054c8 <HAL_RCC_OscConfig+0x3ec>
  if (((RCC_OscInitStruct->OscillatorType) & RCC_OSCILLATORTYPE_HSI) == RCC_OSCILLATORTYPE_HSI)
 800514a:	6823      	ldr	r3, [r4, #0]
 800514c:	f013 0f02 	tst.w	r3, #2
 8005150:	d075      	beq.n	800523e <HAL_RCC_OscConfig+0x162>
    if ((__HAL_RCC_GET_SYSCLK_SOURCE() == RCC_SYSCLKSOURCE_STATUS_HSI)
 8005152:	4b92      	ldr	r3, [pc, #584]	; (800539c <HAL_RCC_OscConfig+0x2c0>)
 8005154:	685b      	ldr	r3, [r3, #4]
 8005156:	f013 0f0c 	tst.w	r3, #12
 800515a:	d05f      	beq.n	800521c <HAL_RCC_OscConfig+0x140>
        || ((__HAL_RCC_GET_SYSCLK_SOURCE() == RCC_SYSCLKSOURCE_STATUS_PLLCLK) && (__HAL_RCC_GET_PLL_OSCSOURCE() == RCC_PLLSOURCE_HSI_DIV2)))
 800515c:	4b8f      	ldr	r3, [pc, #572]	; (800539c <HAL_RCC_OscConfig+0x2c0>)
 800515e:	685b      	ldr	r3, [r3, #4]
 8005160:	f003 030c 	and.w	r3, r3, #12
 8005164:	2b08      	cmp	r3, #8
 8005166:	d054      	beq.n	8005212 <HAL_RCC_OscConfig+0x136>
      if (RCC_OscInitStruct->HSIState != RCC_HSI_OFF)
 8005168:	6923      	ldr	r3, [r4, #16]
 800516a:	2b00      	cmp	r3, #0
 800516c:	f000 8089 	beq.w	8005282 <HAL_RCC_OscConfig+0x1a6>
        __HAL_RCC_HSI_ENABLE();
 8005170:	4b8b      	ldr	r3, [pc, #556]	; (80053a0 <HAL_RCC_OscConfig+0x2c4>)
 8005172:	2201      	movs	r2, #1
 8005174:	601a      	str	r2, [r3, #0]
        tickstart = HAL_GetTick();
 8005176:	f7fe f889 	bl	800328c <HAL_GetTick>
 800517a:	4605      	mov	r5, r0
        while (__HAL_RCC_GET_FLAG(RCC_FLAG_HSIRDY) == RESET)
 800517c:	4b87      	ldr	r3, [pc, #540]	; (800539c <HAL_RCC_OscConfig+0x2c0>)
 800517e:	681b      	ldr	r3, [r3, #0]
 8005180:	f013 0f02 	tst.w	r3, #2
 8005184:	d174      	bne.n	8005270 <HAL_RCC_OscConfig+0x194>
          if ((HAL_GetTick() - tickstart) > HSI_TIMEOUT_VALUE)
 8005186:	f7fe f881 	bl	800328c <HAL_GetTick>
 800518a:	1b40      	subs	r0, r0, r5
 800518c:	2802      	cmp	r0, #2
 800518e:	d9f5      	bls.n	800517c <HAL_RCC_OscConfig+0xa0>
            return HAL_TIMEOUT;
 8005190:	2003      	movs	r0, #3
 8005192:	e19e      	b.n	80054d2 <HAL_RCC_OscConfig+0x3f6>
      __HAL_RCC_HSE_CONFIG(RCC_OscInitStruct->HSEState);
 8005194:	4a81      	ldr	r2, [pc, #516]	; (800539c <HAL_RCC_OscConfig+0x2c0>)
 8005196:	6813      	ldr	r3, [r2, #0]
 8005198:	f443 3380 	orr.w	r3, r3, #65536	; 0x10000
 800519c:	6013      	str	r3, [r2, #0]
      if (RCC_OscInitStruct->HSEState != RCC_HSE_OFF)
 800519e:	6863      	ldr	r3, [r4, #4]
 80051a0:	b343      	cbz	r3, 80051f4 <HAL_RCC_OscConfig+0x118>
        tickstart = HAL_GetTick();
 80051a2:	f7fe f873 	bl	800328c <HAL_GetTick>
 80051a6:	4605      	mov	r5, r0
        while (__HAL_RCC_GET_FLAG(RCC_FLAG_HSERDY) == RESET)
 80051a8:	4b7c      	ldr	r3, [pc, #496]	; (800539c <HAL_RCC_OscConfig+0x2c0>)
 80051aa:	681b      	ldr	r3, [r3, #0]
 80051ac:	f413 3f00 	tst.w	r3, #131072	; 0x20000
 80051b0:	d1cb      	bne.n	800514a <HAL_RCC_OscConfig+0x6e>
          if ((HAL_GetTick() - tickstart) > HSE_TIMEOUT_VALUE)
 80051b2:	f7fe f86b 	bl	800328c <HAL_GetTick>
 80051b6:	1b40      	subs	r0, r0, r5
 80051b8:	2864      	cmp	r0, #100	; 0x64
 80051ba:	d9f5      	bls.n	80051a8 <HAL_RCC_OscConfig+0xcc>
            return HAL_TIMEOUT;
 80051bc:	2003      	movs	r0, #3
 80051be:	e188      	b.n	80054d2 <HAL_RCC_OscConfig+0x3f6>
      __HAL_RCC_HSE_CONFIG(RCC_OscInitStruct->HSEState);
 80051c0:	f5b3 2fa0 	cmp.w	r3, #327680	; 0x50000
 80051c4:	d009      	beq.n	80051da <HAL_RCC_OscConfig+0xfe>
 80051c6:	4b75      	ldr	r3, [pc, #468]	; (800539c <HAL_RCC_OscConfig+0x2c0>)
 80051c8:	681a      	ldr	r2, [r3, #0]
 80051ca:	f422 3280 	bic.w	r2, r2, #65536	; 0x10000
 80051ce:	601a      	str	r2, [r3, #0]
 80051d0:	681a      	ldr	r2, [r3, #0]
 80051d2:	f422 2280 	bic.w	r2, r2, #262144	; 0x40000
 80051d6:	601a      	str	r2, [r3, #0]
 80051d8:	e7e1      	b.n	800519e <HAL_RCC_OscConfig+0xc2>
 80051da:	f103 4380 	add.w	r3, r3, #1073741824	; 0x40000000
 80051de:	f5a3 333c 	sub.w	r3, r3, #192512	; 0x2f000
 80051e2:	681a      	ldr	r2, [r3, #0]
 80051e4:	f442 2280 	orr.w	r2, r2, #262144	; 0x40000
 80051e8:	601a      	str	r2, [r3, #0]
 80051ea:	681a      	ldr	r2, [r3, #0]
 80051ec:	f442 3280 	orr.w	r2, r2, #65536	; 0x10000
 80051f0:	601a      	str	r2, [r3, #0]
 80051f2:	e7d4      	b.n	800519e <HAL_RCC_OscConfig+0xc2>
        tickstart = HAL_GetTick();
 80051f4:	f7fe f84a 	bl	800328c <HAL_GetTick>
 80051f8:	4605      	mov	r5, r0
        while (__HAL_RCC_GET_FLAG(RCC_FLAG_HSERDY) != RESET)
 80051fa:	4b68      	ldr	r3, [pc, #416]	; (800539c <HAL_RCC_OscConfig+0x2c0>)
 80051fc:	681b      	ldr	r3, [r3, #0]
 80051fe:	f413 3f00 	tst.w	r3, #131072	; 0x20000
 8005202:	d0a2      	beq.n	800514a <HAL_RCC_OscConfig+0x6e>
          if ((HAL_GetTick() - tickstart) > HSE_TIMEOUT_VALUE)
 8005204:	f7fe f842 	bl	800328c <HAL_GetTick>
 8005208:	1b40      	subs	r0, r0, r5
 800520a:	2864      	cmp	r0, #100	; 0x64
 800520c:	d9f5      	bls.n	80051fa <HAL_RCC_OscConfig+0x11e>
            return HAL_TIMEOUT;
 800520e:	2003      	movs	r0, #3
 8005210:	e15f      	b.n	80054d2 <HAL_RCC_OscConfig+0x3f6>
        || ((__HAL_RCC_GET_SYSCLK_SOURCE() == RCC_SYSCLKSOURCE_STATUS_PLLCLK) && (__HAL_RCC_GET_PLL_OSCSOURCE() == RCC_PLLSOURCE_HSI_DIV2)))
 8005212:	4b62      	ldr	r3, [pc, #392]	; (800539c <HAL_RCC_OscConfig+0x2c0>)
 8005214:	685b      	ldr	r3, [r3, #4]
 8005216:	f413 3f80 	tst.w	r3, #65536	; 0x10000
 800521a:	d1a5      	bne.n	8005168 <HAL_RCC_OscConfig+0x8c>
      if ((__HAL_RCC_GET_FLAG(RCC_FLAG_HSIRDY) != RESET) && (RCC_OscInitStruct->HSIState != RCC_HSI_ON))
 800521c:	4b5f      	ldr	r3, [pc, #380]	; (800539c <HAL_RCC_OscConfig+0x2c0>)
 800521e:	681b      	ldr	r3, [r3, #0]
 8005220:	f013 0f02 	tst.w	r3, #2
 8005224:	d003      	beq.n	800522e <HAL_RCC_OscConfig+0x152>
 8005226:	6923      	ldr	r3, [r4, #16]
 8005228:	2b01      	cmp	r3, #1
 800522a:	f040 814f 	bne.w	80054cc <HAL_RCC_OscConfig+0x3f0>
        __HAL_RCC_HSI_CALIBRATIONVALUE_ADJUST(RCC_OscInitStruct->HSICalibrationValue);
 800522e:	4a5b      	ldr	r2, [pc, #364]	; (800539c <HAL_RCC_OscConfig+0x2c0>)
 8005230:	6813      	ldr	r3, [r2, #0]
 8005232:	f023 03f8 	bic.w	r3, r3, #248	; 0xf8
 8005236:	6961      	ldr	r1, [r4, #20]
 8005238:	ea43 03c1 	orr.w	r3, r3, r1, lsl #3
 800523c:	6013      	str	r3, [r2, #0]
  if (((RCC_OscInitStruct->OscillatorType) & RCC_OSCILLATORTYPE_LSI) == RCC_OSCILLATORTYPE_LSI)
 800523e:	6823      	ldr	r3, [r4, #0]
 8005240:	f013 0f08 	tst.w	r3, #8
 8005244:	d032      	beq.n	80052ac <HAL_RCC_OscConfig+0x1d0>
    if (RCC_OscInitStruct->LSIState != RCC_LSI_OFF)
 8005246:	69a3      	ldr	r3, [r4, #24]
 8005248:	2b00      	cmp	r3, #0
 800524a:	d045      	beq.n	80052d8 <HAL_RCC_OscConfig+0x1fc>
      __HAL_RCC_LSI_ENABLE();
 800524c:	4b55      	ldr	r3, [pc, #340]	; (80053a4 <HAL_RCC_OscConfig+0x2c8>)
 800524e:	2201      	movs	r2, #1
 8005250:	601a      	str	r2, [r3, #0]
      tickstart = HAL_GetTick();
 8005252:	f7fe f81b 	bl	800328c <HAL_GetTick>
 8005256:	4605      	mov	r5, r0
      while (__HAL_RCC_GET_FLAG(RCC_FLAG_LSIRDY) == RESET)
 8005258:	4b50      	ldr	r3, [pc, #320]	; (800539c <HAL_RCC_OscConfig+0x2c0>)
 800525a:	6a5b      	ldr	r3, [r3, #36]	; 0x24
 800525c:	f013 0f02 	tst.w	r3, #2
 8005260:	d121      	bne.n	80052a6 <HAL_RCC_OscConfig+0x1ca>
        if ((HAL_GetTick() - tickstart) > LSI_TIMEOUT_VALUE)
 8005262:	f7fe f813 	bl	800328c <HAL_GetTick>
 8005266:	1b40      	subs	r0, r0, r5
 8005268:	2802      	cmp	r0, #2
 800526a:	d9f5      	bls.n	8005258 <HAL_RCC_OscConfig+0x17c>
          return HAL_TIMEOUT;
 800526c:	2003      	movs	r0, #3
 800526e:	e130      	b.n	80054d2 <HAL_RCC_OscConfig+0x3f6>
        __HAL_RCC_HSI_CALIBRATIONVALUE_ADJUST(RCC_OscInitStruct->HSICalibrationValue);
 8005270:	4a4a      	ldr	r2, [pc, #296]	; (800539c <HAL_RCC_OscConfig+0x2c0>)
 8005272:	6813      	ldr	r3, [r2, #0]
 8005274:	f023 03f8 	bic.w	r3, r3, #248	; 0xf8
 8005278:	6961      	ldr	r1, [r4, #20]
 800527a:	ea43 03c1 	orr.w	r3, r3, r1, lsl #3
 800527e:	6013      	str	r3, [r2, #0]
 8005280:	e7dd      	b.n	800523e <HAL_RCC_OscConfig+0x162>
        __HAL_RCC_HSI_DISABLE();
 8005282:	4b47      	ldr	r3, [pc, #284]	; (80053a0 <HAL_RCC_OscConfig+0x2c4>)
 8005284:	2200      	movs	r2, #0
 8005286:	601a      	str	r2, [r3, #0]
        tickstart = HAL_GetTick();
 8005288:	f7fe f800 	bl	800328c <HAL_GetTick>
 800528c:	4605      	mov	r5, r0
        while (__HAL_RCC_GET_FLAG(RCC_FLAG_HSIRDY) != RESET)
 800528e:	4b43      	ldr	r3, [pc, #268]	; (800539c <HAL_RCC_OscConfig+0x2c0>)
 8005290:	681b      	ldr	r3, [r3, #0]
 8005292:	f013 0f02 	tst.w	r3, #2
 8005296:	d0d2      	beq.n	800523e <HAL_RCC_OscConfig+0x162>
          if ((HAL_GetTick() - tickstart) > HSI_TIMEOUT_VALUE)
 8005298:	f7fd fff8 	bl	800328c <HAL_GetTick>
 800529c:	1b40      	subs	r0, r0, r5
 800529e:	2802      	cmp	r0, #2
 80052a0:	d9f5      	bls.n	800528e <HAL_RCC_OscConfig+0x1b2>
            return HAL_TIMEOUT;
 80052a2:	2003      	movs	r0, #3
 80052a4:	e115      	b.n	80054d2 <HAL_RCC_OscConfig+0x3f6>
      RCC_Delay(1);
 80052a6:	2001      	movs	r0, #1
 80052a8:	f7ff ff02 	bl	80050b0 <RCC_Delay>
  if (((RCC_OscInitStruct->OscillatorType) & RCC_OSCILLATORTYPE_LSE) == RCC_OSCILLATORTYPE_LSE)
 80052ac:	6823      	ldr	r3, [r4, #0]
 80052ae:	f013 0f04 	tst.w	r3, #4
 80052b2:	f000 8097 	beq.w	80053e4 <HAL_RCC_OscConfig+0x308>
    if (__HAL_RCC_PWR_IS_CLK_DISABLED())
 80052b6:	4b39      	ldr	r3, [pc, #228]	; (800539c <HAL_RCC_OscConfig+0x2c0>)
 80052b8:	69db      	ldr	r3, [r3, #28]
 80052ba:	f013 5f80 	tst.w	r3, #268435456	; 0x10000000
 80052be:	d11d      	bne.n	80052fc <HAL_RCC_OscConfig+0x220>
      __HAL_RCC_PWR_CLK_ENABLE();
 80052c0:	4b36      	ldr	r3, [pc, #216]	; (800539c <HAL_RCC_OscConfig+0x2c0>)
 80052c2:	69da      	ldr	r2, [r3, #28]
 80052c4:	f042 5280 	orr.w	r2, r2, #268435456	; 0x10000000
 80052c8:	61da      	str	r2, [r3, #28]
 80052ca:	69db      	ldr	r3, [r3, #28]
 80052cc:	f003 5380 	and.w	r3, r3, #268435456	; 0x10000000
 80052d0:	9301      	str	r3, [sp, #4]
 80052d2:	9b01      	ldr	r3, [sp, #4]
      pwrclkchanged = SET;
 80052d4:	2501      	movs	r5, #1
 80052d6:	e012      	b.n	80052fe <HAL_RCC_OscConfig+0x222>
      __HAL_RCC_LSI_DISABLE();
 80052d8:	4b32      	ldr	r3, [pc, #200]	; (80053a4 <HAL_RCC_OscConfig+0x2c8>)
 80052da:	2200      	movs	r2, #0
 80052dc:	601a      	str	r2, [r3, #0]
      tickstart = HAL_GetTick();
 80052de:	f7fd ffd5 	bl	800328c <HAL_GetTick>
 80052e2:	4605      	mov	r5, r0
      while (__HAL_RCC_GET_FLAG(RCC_FLAG_LSIRDY) != RESET)
 80052e4:	4b2d      	ldr	r3, [pc, #180]	; (800539c <HAL_RCC_OscConfig+0x2c0>)
 80052e6:	6a5b      	ldr	r3, [r3, #36]	; 0x24
 80052e8:	f013 0f02 	tst.w	r3, #2
 80052ec:	d0de      	beq.n	80052ac <HAL_RCC_OscConfig+0x1d0>
        if ((HAL_GetTick() - tickstart) > LSI_TIMEOUT_VALUE)
 80052ee:	f7fd ffcd 	bl	800328c <HAL_GetTick>
 80052f2:	1b40      	subs	r0, r0, r5
 80052f4:	2802      	cmp	r0, #2
 80052f6:	d9f5      	bls.n	80052e4 <HAL_RCC_OscConfig+0x208>
          return HAL_TIMEOUT;
 80052f8:	2003      	movs	r0, #3
 80052fa:	e0ea      	b.n	80054d2 <HAL_RCC_OscConfig+0x3f6>
    FlagStatus       pwrclkchanged = RESET;
 80052fc:	2500      	movs	r5, #0
    if (HAL_IS_BIT_CLR(PWR->CR, PWR_CR_DBP))
 80052fe:	4b2a      	ldr	r3, [pc, #168]	; (80053a8 <HAL_RCC_OscConfig+0x2cc>)
 8005300:	681b      	ldr	r3, [r3, #0]
 8005302:	f413 7f80 	tst.w	r3, #256	; 0x100
 8005306:	d011      	beq.n	800532c <HAL_RCC_OscConfig+0x250>
    __HAL_RCC_LSE_CONFIG(RCC_OscInitStruct->LSEState);
 8005308:	68e3      	ldr	r3, [r4, #12]
 800530a:	2b01      	cmp	r3, #1
 800530c:	d022      	beq.n	8005354 <HAL_RCC_OscConfig+0x278>
 800530e:	2b00      	cmp	r3, #0
 8005310:	d138      	bne.n	8005384 <HAL_RCC_OscConfig+0x2a8>
 8005312:	f103 4380 	add.w	r3, r3, #1073741824	; 0x40000000
 8005316:	f503 3304 	add.w	r3, r3, #135168	; 0x21000
 800531a:	6a1a      	ldr	r2, [r3, #32]
 800531c:	f022 0201 	bic.w	r2, r2, #1
 8005320:	621a      	str	r2, [r3, #32]
 8005322:	6a1a      	ldr	r2, [r3, #32]
 8005324:	f022 0204 	bic.w	r2, r2, #4
 8005328:	621a      	str	r2, [r3, #32]
 800532a:	e018      	b.n	800535e <HAL_RCC_OscConfig+0x282>
      SET_BIT(PWR->CR, PWR_CR_DBP);
 800532c:	4a1e      	ldr	r2, [pc, #120]	; (80053a8 <HAL_RCC_OscConfig+0x2cc>)
 800532e:	6813      	ldr	r3, [r2, #0]
 8005330:	f443 7380 	orr.w	r3, r3, #256	; 0x100
 8005334:	6013      	str	r3, [r2, #0]
      tickstart = HAL_GetTick();
 8005336:	f7fd ffa9 	bl	800328c <HAL_GetTick>
 800533a:	4606      	mov	r6, r0
      while (HAL_IS_BIT_CLR(PWR->CR, PWR_CR_DBP))
 800533c:	4b1a      	ldr	r3, [pc, #104]	; (80053a8 <HAL_RCC_OscConfig+0x2cc>)
 800533e:	681b      	ldr	r3, [r3, #0]
 8005340:	f413 7f80 	tst.w	r3, #256	; 0x100
 8005344:	d1e0      	bne.n	8005308 <HAL_RCC_OscConfig+0x22c>
        if ((HAL_GetTick() - tickstart) > RCC_DBP_TIMEOUT_VALUE)
 8005346:	f7fd ffa1 	bl	800328c <HAL_GetTick>
 800534a:	1b80      	subs	r0, r0, r6
 800534c:	2864      	cmp	r0, #100	; 0x64
 800534e:	d9f5      	bls.n	800533c <HAL_RCC_OscConfig+0x260>
          return HAL_TIMEOUT;
 8005350:	2003      	movs	r0, #3
 8005352:	e0be      	b.n	80054d2 <HAL_RCC_OscConfig+0x3f6>
    __HAL_RCC_LSE_CONFIG(RCC_OscInitStruct->LSEState);
 8005354:	4a11      	ldr	r2, [pc, #68]	; (800539c <HAL_RCC_OscConfig+0x2c0>)
 8005356:	6a13      	ldr	r3, [r2, #32]
 8005358:	f043 0301 	orr.w	r3, r3, #1
 800535c:	6213      	str	r3, [r2, #32]
    if (RCC_OscInitStruct->LSEState != RCC_LSE_OFF)
 800535e:	68e3      	ldr	r3, [r4, #12]
 8005360:	b373      	cbz	r3, 80053c0 <HAL_RCC_OscConfig+0x2e4>
      tickstart = HAL_GetTick();
 8005362:	f7fd ff93 	bl	800328c <HAL_GetTick>
 8005366:	4606      	mov	r6, r0
      while (__HAL_RCC_GET_FLAG(RCC_FLAG_LSERDY) == RESET)
 8005368:	4b0c      	ldr	r3, [pc, #48]	; (800539c <HAL_RCC_OscConfig+0x2c0>)
 800536a:	6a1b      	ldr	r3, [r3, #32]
 800536c:	f013 0f02 	tst.w	r3, #2
 8005370:	d137      	bne.n	80053e2 <HAL_RCC_OscConfig+0x306>
        if ((HAL_GetTick() - tickstart) > RCC_LSE_TIMEOUT_VALUE)
 8005372:	f7fd ff8b 	bl	800328c <HAL_GetTick>
 8005376:	1b80      	subs	r0, r0, r6
 8005378:	f241 3388 	movw	r3, #5000	; 0x1388
 800537c:	4298      	cmp	r0, r3
 800537e:	d9f3      	bls.n	8005368 <HAL_RCC_OscConfig+0x28c>
          return HAL_TIMEOUT;
 8005380:	2003      	movs	r0, #3
 8005382:	e0a6      	b.n	80054d2 <HAL_RCC_OscConfig+0x3f6>
    __HAL_RCC_LSE_CONFIG(RCC_OscInitStruct->LSEState);
 8005384:	2b05      	cmp	r3, #5
 8005386:	d011      	beq.n	80053ac <HAL_RCC_OscConfig+0x2d0>
 8005388:	4b04      	ldr	r3, [pc, #16]	; (800539c <HAL_RCC_OscConfig+0x2c0>)
 800538a:	6a1a      	ldr	r2, [r3, #32]
 800538c:	f022 0201 	bic.w	r2, r2, #1
 8005390:	621a      	str	r2, [r3, #32]
 8005392:	6a1a      	ldr	r2, [r3, #32]
 8005394:	f022 0204 	bic.w	r2, r2, #4
 8005398:	621a      	str	r2, [r3, #32]
 800539a:	e7e0      	b.n	800535e <HAL_RCC_OscConfig+0x282>
 800539c:	40021000 	.word	0x40021000
 80053a0:	42420000 	.word	0x42420000
 80053a4:	42420480 	.word	0x42420480
 80053a8:	40007000 	.word	0x40007000
 80053ac:	4b4d      	ldr	r3, [pc, #308]	; (80054e4 <HAL_RCC_OscConfig+0x408>)
 80053ae:	6a1a      	ldr	r2, [r3, #32]
 80053b0:	f042 0204 	orr.w	r2, r2, #4
 80053b4:	621a      	str	r2, [r3, #32]
 80053b6:	6a1a      	ldr	r2, [r3, #32]
 80053b8:	f042 0201 	orr.w	r2, r2, #1
 80053bc:	621a      	str	r2, [r3, #32]
 80053be:	e7ce      	b.n	800535e <HAL_RCC_OscConfig+0x282>
      tickstart = HAL_GetTick();
 80053c0:	f7fd ff64 	bl	800328c <HAL_GetTick>
 80053c4:	4606      	mov	r6, r0
      while (__HAL_RCC_GET_FLAG(RCC_FLAG_LSERDY) != RESET)
 80053c6:	4b47      	ldr	r3, [pc, #284]	; (80054e4 <HAL_RCC_OscConfig+0x408>)
 80053c8:	6a1b      	ldr	r3, [r3, #32]
 80053ca:	f013 0f02 	tst.w	r3, #2
 80053ce:	d008      	beq.n	80053e2 <HAL_RCC_OscConfig+0x306>
        if ((HAL_GetTick() - tickstart) > RCC_LSE_TIMEOUT_VALUE)
 80053d0:	f7fd ff5c 	bl	800328c <HAL_GetTick>
 80053d4:	1b80      	subs	r0, r0, r6
 80053d6:	f241 3388 	movw	r3, #5000	; 0x1388
 80053da:	4298      	cmp	r0, r3
 80053dc:	d9f3      	bls.n	80053c6 <HAL_RCC_OscConfig+0x2ea>
          return HAL_TIMEOUT;
 80053de:	2003      	movs	r0, #3
 80053e0:	e077      	b.n	80054d2 <HAL_RCC_OscConfig+0x3f6>
    if (pwrclkchanged == SET)
 80053e2:	b9e5      	cbnz	r5, 800541e <HAL_RCC_OscConfig+0x342>
  if ((RCC_OscInitStruct->PLL.PLLState) != RCC_PLL_NONE)
 80053e4:	69e3      	ldr	r3, [r4, #28]
 80053e6:	2b00      	cmp	r3, #0
 80053e8:	d072      	beq.n	80054d0 <HAL_RCC_OscConfig+0x3f4>
    if (__HAL_RCC_GET_SYSCLK_SOURCE() != RCC_SYSCLKSOURCE_STATUS_PLLCLK)
 80053ea:	4a3e      	ldr	r2, [pc, #248]	; (80054e4 <HAL_RCC_OscConfig+0x408>)
 80053ec:	6852      	ldr	r2, [r2, #4]
 80053ee:	f002 020c 	and.w	r2, r2, #12
 80053f2:	2a08      	cmp	r2, #8
 80053f4:	d056      	beq.n	80054a4 <HAL_RCC_OscConfig+0x3c8>
      if ((RCC_OscInitStruct->PLL.PLLState) == RCC_PLL_ON)
 80053f6:	2b02      	cmp	r3, #2
 80053f8:	d017      	beq.n	800542a <HAL_RCC_OscConfig+0x34e>
        __HAL_RCC_PLL_DISABLE();
 80053fa:	4b3b      	ldr	r3, [pc, #236]	; (80054e8 <HAL_RCC_OscConfig+0x40c>)
 80053fc:	2200      	movs	r2, #0
 80053fe:	601a      	str	r2, [r3, #0]
        tickstart = HAL_GetTick();
 8005400:	f7fd ff44 	bl	800328c <HAL_GetTick>
 8005404:	4604      	mov	r4, r0
        while (__HAL_RCC_GET_FLAG(RCC_FLAG_PLLRDY)  != RESET)
 8005406:	4b37      	ldr	r3, [pc, #220]	; (80054e4 <HAL_RCC_OscConfig+0x408>)
 8005408:	681b      	ldr	r3, [r3, #0]
 800540a:	f013 7f00 	tst.w	r3, #33554432	; 0x2000000
 800540e:	d047      	beq.n	80054a0 <HAL_RCC_OscConfig+0x3c4>
          if ((HAL_GetTick() - tickstart) > PLL_TIMEOUT_VALUE)
 8005410:	f7fd ff3c 	bl	800328c <HAL_GetTick>
 8005414:	1b00      	subs	r0, r0, r4
 8005416:	2802      	cmp	r0, #2
 8005418:	d9f5      	bls.n	8005406 <HAL_RCC_OscConfig+0x32a>
            return HAL_TIMEOUT;
 800541a:	2003      	movs	r0, #3
 800541c:	e059      	b.n	80054d2 <HAL_RCC_OscConfig+0x3f6>
      __HAL_RCC_PWR_CLK_DISABLE();
 800541e:	4a31      	ldr	r2, [pc, #196]	; (80054e4 <HAL_RCC_OscConfig+0x408>)
 8005420:	69d3      	ldr	r3, [r2, #28]
 8005422:	f023 5380 	bic.w	r3, r3, #268435456	; 0x10000000
 8005426:	61d3      	str	r3, [r2, #28]
 8005428:	e7dc      	b.n	80053e4 <HAL_RCC_OscConfig+0x308>
        __HAL_RCC_PLL_DISABLE();
 800542a:	4b2f      	ldr	r3, [pc, #188]	; (80054e8 <HAL_RCC_OscConfig+0x40c>)
 800542c:	2200      	movs	r2, #0
 800542e:	601a      	str	r2, [r3, #0]
        tickstart = HAL_GetTick();
 8005430:	f7fd ff2c 	bl	800328c <HAL_GetTick>
 8005434:	4605      	mov	r5, r0
        while (__HAL_RCC_GET_FLAG(RCC_FLAG_PLLRDY)  != RESET)
 8005436:	4b2b      	ldr	r3, [pc, #172]	; (80054e4 <HAL_RCC_OscConfig+0x408>)
 8005438:	681b      	ldr	r3, [r3, #0]
 800543a:	f013 7f00 	tst.w	r3, #33554432	; 0x2000000
 800543e:	d006      	beq.n	800544e <HAL_RCC_OscConfig+0x372>
          if ((HAL_GetTick() - tickstart) > PLL_TIMEOUT_VALUE)
 8005440:	f7fd ff24 	bl	800328c <HAL_GetTick>
 8005444:	1b40      	subs	r0, r0, r5
 8005446:	2802      	cmp	r0, #2
 8005448:	d9f5      	bls.n	8005436 <HAL_RCC_OscConfig+0x35a>
            return HAL_TIMEOUT;
 800544a:	2003      	movs	r0, #3
 800544c:	e041      	b.n	80054d2 <HAL_RCC_OscConfig+0x3f6>
        if (RCC_OscInitStruct->PLL.PLLSource == RCC_PLLSOURCE_HSE)
 800544e:	6a23      	ldr	r3, [r4, #32]
 8005450:	f5b3 3f80 	cmp.w	r3, #65536	; 0x10000
 8005454:	d01a      	beq.n	800548c <HAL_RCC_OscConfig+0x3b0>
        __HAL_RCC_PLL_CONFIG(RCC_OscInitStruct->PLL.PLLSource,
 8005456:	4923      	ldr	r1, [pc, #140]	; (80054e4 <HAL_RCC_OscConfig+0x408>)
 8005458:	684b      	ldr	r3, [r1, #4]
 800545a:	f423 1374 	bic.w	r3, r3, #3997696	; 0x3d0000
 800545e:	6a22      	ldr	r2, [r4, #32]
 8005460:	6a60      	ldr	r0, [r4, #36]	; 0x24
 8005462:	4302      	orrs	r2, r0
 8005464:	4313      	orrs	r3, r2
 8005466:	604b      	str	r3, [r1, #4]
        __HAL_RCC_PLL_ENABLE();
 8005468:	4b1f      	ldr	r3, [pc, #124]	; (80054e8 <HAL_RCC_OscConfig+0x40c>)
 800546a:	2201      	movs	r2, #1
 800546c:	601a      	str	r2, [r3, #0]
        tickstart = HAL_GetTick();
 800546e:	f7fd ff0d 	bl	800328c <HAL_GetTick>
 8005472:	4604      	mov	r4, r0
        while (__HAL_RCC_GET_FLAG(RCC_FLAG_PLLRDY)  == RESET)
 8005474:	4b1b      	ldr	r3, [pc, #108]	; (80054e4 <HAL_RCC_OscConfig+0x408>)
 8005476:	681b      	ldr	r3, [r3, #0]
 8005478:	f013 7f00 	tst.w	r3, #33554432	; 0x2000000
 800547c:	d10e      	bne.n	800549c <HAL_RCC_OscConfig+0x3c0>
          if ((HAL_GetTick() - tickstart) > PLL_TIMEOUT_VALUE)
 800547e:	f7fd ff05 	bl	800328c <HAL_GetTick>
 8005482:	1b00      	subs	r0, r0, r4
 8005484:	2802      	cmp	r0, #2
 8005486:	d9f5      	bls.n	8005474 <HAL_RCC_OscConfig+0x398>
            return HAL_TIMEOUT;
 8005488:	2003      	movs	r0, #3
 800548a:	e022      	b.n	80054d2 <HAL_RCC_OscConfig+0x3f6>
          __HAL_RCC_HSE_PREDIV_CONFIG(RCC_OscInitStruct->HSEPredivValue);
 800548c:	4a15      	ldr	r2, [pc, #84]	; (80054e4 <HAL_RCC_OscConfig+0x408>)
 800548e:	6853      	ldr	r3, [r2, #4]
 8005490:	f423 3300 	bic.w	r3, r3, #131072	; 0x20000
 8005494:	68a1      	ldr	r1, [r4, #8]
 8005496:	430b      	orrs	r3, r1
 8005498:	6053      	str	r3, [r2, #4]
 800549a:	e7dc      	b.n	8005456 <HAL_RCC_OscConfig+0x37a>
  return HAL_OK;
 800549c:	2000      	movs	r0, #0
 800549e:	e018      	b.n	80054d2 <HAL_RCC_OscConfig+0x3f6>
 80054a0:	2000      	movs	r0, #0
 80054a2:	e016      	b.n	80054d2 <HAL_RCC_OscConfig+0x3f6>
      if ((RCC_OscInitStruct->PLL.PLLState) == RCC_PLL_OFF)
 80054a4:	2b01      	cmp	r3, #1
 80054a6:	d016      	beq.n	80054d6 <HAL_RCC_OscConfig+0x3fa>
        pll_config = RCC->CFGR;
 80054a8:	4b0e      	ldr	r3, [pc, #56]	; (80054e4 <HAL_RCC_OscConfig+0x408>)
 80054aa:	685b      	ldr	r3, [r3, #4]
        if ((READ_BIT(pll_config, RCC_CFGR_PLLSRC) != RCC_OscInitStruct->PLL.PLLSource) ||
 80054ac:	f403 3180 	and.w	r1, r3, #65536	; 0x10000
 80054b0:	6a22      	ldr	r2, [r4, #32]
 80054b2:	4291      	cmp	r1, r2
 80054b4:	d111      	bne.n	80054da <HAL_RCC_OscConfig+0x3fe>
            (READ_BIT(pll_config, RCC_CFGR_PLLMULL) != RCC_OscInitStruct->PLL.PLLMUL))
 80054b6:	f403 1370 	and.w	r3, r3, #3932160	; 0x3c0000
 80054ba:	6a62      	ldr	r2, [r4, #36]	; 0x24
        if ((READ_BIT(pll_config, RCC_CFGR_PLLSRC) != RCC_OscInitStruct->PLL.PLLSource) ||
 80054bc:	4293      	cmp	r3, r2
 80054be:	d10e      	bne.n	80054de <HAL_RCC_OscConfig+0x402>
  return HAL_OK;
 80054c0:	2000      	movs	r0, #0
 80054c2:	e006      	b.n	80054d2 <HAL_RCC_OscConfig+0x3f6>
    return HAL_ERROR;
 80054c4:	2001      	movs	r0, #1
}
 80054c6:	4770      	bx	lr
        return HAL_ERROR;
 80054c8:	2001      	movs	r0, #1
 80054ca:	e002      	b.n	80054d2 <HAL_RCC_OscConfig+0x3f6>
        return HAL_ERROR;
 80054cc:	2001      	movs	r0, #1
 80054ce:	e000      	b.n	80054d2 <HAL_RCC_OscConfig+0x3f6>
  return HAL_OK;
 80054d0:	2000      	movs	r0, #0
}
 80054d2:	b002      	add	sp, #8
 80054d4:	bd70      	pop	{r4, r5, r6, pc}
        return HAL_ERROR;
 80054d6:	2001      	movs	r0, #1
 80054d8:	e7fb      	b.n	80054d2 <HAL_RCC_OscConfig+0x3f6>
          return HAL_ERROR;
 80054da:	2001      	movs	r0, #1
 80054dc:	e7f9      	b.n	80054d2 <HAL_RCC_OscConfig+0x3f6>
 80054de:	2001      	movs	r0, #1
 80054e0:	e7f7      	b.n	80054d2 <HAL_RCC_OscConfig+0x3f6>
 80054e2:	bf00      	nop
 80054e4:	40021000 	.word	0x40021000
 80054e8:	42420060 	.word	0x42420060

080054ec <HAL_RCC_GetSysClockFreq>:
  tmpreg = RCC->CFGR;
 80054ec:	4b11      	ldr	r3, [pc, #68]	; (8005534 <HAL_RCC_GetSysClockFreq+0x48>)
 80054ee:	685a      	ldr	r2, [r3, #4]
  switch (tmpreg & RCC_CFGR_SWS)
 80054f0:	f002 030c 	and.w	r3, r2, #12
 80054f4:	2b04      	cmp	r3, #4
 80054f6:	d018      	beq.n	800552a <HAL_RCC_GetSysClockFreq+0x3e>
 80054f8:	2b08      	cmp	r3, #8
 80054fa:	d118      	bne.n	800552e <HAL_RCC_GetSysClockFreq+0x42>
      pllmul = aPLLMULFactorTable[(uint32_t)(tmpreg & RCC_CFGR_PLLMULL) >> RCC_CFGR_PLLMULL_Pos];
 80054fc:	f3c2 4383 	ubfx	r3, r2, #18, #4
 8005500:	490d      	ldr	r1, [pc, #52]	; (8005538 <HAL_RCC_GetSysClockFreq+0x4c>)
 8005502:	5ccb      	ldrb	r3, [r1, r3]
      if ((tmpreg & RCC_CFGR_PLLSRC) != RCC_PLLSOURCE_HSI_DIV2)
 8005504:	f412 3f80 	tst.w	r2, #65536	; 0x10000
 8005508:	d00b      	beq.n	8005522 <HAL_RCC_GetSysClockFreq+0x36>
        prediv = aPredivFactorTable[(uint32_t)(RCC->CFGR & RCC_CFGR_PLLXTPRE) >> RCC_CFGR_PLLXTPRE_Pos];
 800550a:	4a0a      	ldr	r2, [pc, #40]	; (8005534 <HAL_RCC_GetSysClockFreq+0x48>)
 800550c:	6852      	ldr	r2, [r2, #4]
 800550e:	f3c2 4240 	ubfx	r2, r2, #17, #1
 8005512:	490a      	ldr	r1, [pc, #40]	; (800553c <HAL_RCC_GetSysClockFreq+0x50>)
 8005514:	5c8a      	ldrb	r2, [r1, r2]
        pllclk = (uint32_t)((HSE_VALUE  * pllmul) / prediv);
 8005516:	480a      	ldr	r0, [pc, #40]	; (8005540 <HAL_RCC_GetSysClockFreq+0x54>)
 8005518:	fb00 f003 	mul.w	r0, r0, r3
 800551c:	fbb0 f0f2 	udiv	r0, r0, r2
 8005520:	4770      	bx	lr
        pllclk = (uint32_t)((HSI_VALUE >> 1) * pllmul);
 8005522:	4808      	ldr	r0, [pc, #32]	; (8005544 <HAL_RCC_GetSysClockFreq+0x58>)
 8005524:	fb00 f003 	mul.w	r0, r0, r3
 8005528:	4770      	bx	lr
  switch (tmpreg & RCC_CFGR_SWS)
 800552a:	4805      	ldr	r0, [pc, #20]	; (8005540 <HAL_RCC_GetSysClockFreq+0x54>)
 800552c:	4770      	bx	lr
      sysclockfreq = HSI_VALUE;
 800552e:	4806      	ldr	r0, [pc, #24]	; (8005548 <HAL_RCC_GetSysClockFreq+0x5c>)
}
 8005530:	4770      	bx	lr
 8005532:	bf00      	nop
 8005534:	40021000 	.word	0x40021000
 8005538:	08009974 	.word	0x08009974
 800553c:	08009984 	.word	0x08009984
 8005540:	00f42400 	.word	0x00f42400
 8005544:	003d0900 	.word	0x003d0900
 8005548:	007a1200 	.word	0x007a1200

0800554c <HAL_RCC_ClockConfig>:
  if (RCC_ClkInitStruct == NULL)
 800554c:	2800      	cmp	r0, #0
 800554e:	f000 80a0 	beq.w	8005692 <HAL_RCC_ClockConfig+0x146>
{
 8005552:	b570      	push	{r4, r5, r6, lr}
 8005554:	460d      	mov	r5, r1
 8005556:	4604      	mov	r4, r0
  if (FLatency > __HAL_FLASH_GET_LATENCY())
 8005558:	4b52      	ldr	r3, [pc, #328]	; (80056a4 <HAL_RCC_ClockConfig+0x158>)
 800555a:	681b      	ldr	r3, [r3, #0]
 800555c:	f003 0307 	and.w	r3, r3, #7
 8005560:	428b      	cmp	r3, r1
 8005562:	d20b      	bcs.n	800557c <HAL_RCC_ClockConfig+0x30>
    __HAL_FLASH_SET_LATENCY(FLatency);
 8005564:	4a4f      	ldr	r2, [pc, #316]	; (80056a4 <HAL_RCC_ClockConfig+0x158>)
 8005566:	6813      	ldr	r3, [r2, #0]
 8005568:	f023 0307 	bic.w	r3, r3, #7
 800556c:	430b      	orrs	r3, r1
 800556e:	6013      	str	r3, [r2, #0]
    if (__HAL_FLASH_GET_LATENCY() != FLatency)
 8005570:	6813      	ldr	r3, [r2, #0]
 8005572:	f003 0307 	and.w	r3, r3, #7
 8005576:	428b      	cmp	r3, r1
 8005578:	f040 808d 	bne.w	8005696 <HAL_RCC_ClockConfig+0x14a>
if (((RCC_ClkInitStruct->ClockType) & RCC_CLOCKTYPE_HCLK) == RCC_CLOCKTYPE_HCLK)
 800557c:	6823      	ldr	r3, [r4, #0]
 800557e:	f013 0f02 	tst.w	r3, #2
 8005582:	d017      	beq.n	80055b4 <HAL_RCC_ClockConfig+0x68>
    if (((RCC_ClkInitStruct->ClockType) & RCC_CLOCKTYPE_PCLK1) == RCC_CLOCKTYPE_PCLK1)
 8005584:	f013 0f04 	tst.w	r3, #4
 8005588:	d004      	beq.n	8005594 <HAL_RCC_ClockConfig+0x48>
      MODIFY_REG(RCC->CFGR, RCC_CFGR_PPRE1, RCC_HCLK_DIV16);
 800558a:	4a47      	ldr	r2, [pc, #284]	; (80056a8 <HAL_RCC_ClockConfig+0x15c>)
 800558c:	6853      	ldr	r3, [r2, #4]
 800558e:	f443 63e0 	orr.w	r3, r3, #1792	; 0x700
 8005592:	6053      	str	r3, [r2, #4]
    if (((RCC_ClkInitStruct->ClockType) & RCC_CLOCKTYPE_PCLK2) == RCC_CLOCKTYPE_PCLK2)
 8005594:	6823      	ldr	r3, [r4, #0]
 8005596:	f013 0f08 	tst.w	r3, #8
 800559a:	d004      	beq.n	80055a6 <HAL_RCC_ClockConfig+0x5a>
      MODIFY_REG(RCC->CFGR, RCC_CFGR_PPRE2, (RCC_HCLK_DIV16 << 3));
 800559c:	4a42      	ldr	r2, [pc, #264]	; (80056a8 <HAL_RCC_ClockConfig+0x15c>)
 800559e:	6853      	ldr	r3, [r2, #4]
 80055a0:	f443 5360 	orr.w	r3, r3, #14336	; 0x3800
 80055a4:	6053      	str	r3, [r2, #4]
    MODIFY_REG(RCC->CFGR, RCC_CFGR_HPRE, RCC_ClkInitStruct->AHBCLKDivider);
 80055a6:	4a40      	ldr	r2, [pc, #256]	; (80056a8 <HAL_RCC_ClockConfig+0x15c>)
 80055a8:	6853      	ldr	r3, [r2, #4]
 80055aa:	f023 03f0 	bic.w	r3, r3, #240	; 0xf0
 80055ae:	68a1      	ldr	r1, [r4, #8]
 80055b0:	430b      	orrs	r3, r1
 80055b2:	6053      	str	r3, [r2, #4]
  if (((RCC_ClkInitStruct->ClockType) & RCC_CLOCKTYPE_SYSCLK) == RCC_CLOCKTYPE_SYSCLK)
 80055b4:	6823      	ldr	r3, [r4, #0]
 80055b6:	f013 0f01 	tst.w	r3, #1
 80055ba:	d031      	beq.n	8005620 <HAL_RCC_ClockConfig+0xd4>
    if (RCC_ClkInitStruct->SYSCLKSource == RCC_SYSCLKSOURCE_HSE)
 80055bc:	6863      	ldr	r3, [r4, #4]
 80055be:	2b01      	cmp	r3, #1
 80055c0:	d020      	beq.n	8005604 <HAL_RCC_ClockConfig+0xb8>
    else if (RCC_ClkInitStruct->SYSCLKSource == RCC_SYSCLKSOURCE_PLLCLK)
 80055c2:	2b02      	cmp	r3, #2
 80055c4:	d025      	beq.n	8005612 <HAL_RCC_ClockConfig+0xc6>
      if (__HAL_RCC_GET_FLAG(RCC_FLAG_HSIRDY) == RESET)
 80055c6:	4a38      	ldr	r2, [pc, #224]	; (80056a8 <HAL_RCC_ClockConfig+0x15c>)
 80055c8:	6812      	ldr	r2, [r2, #0]
 80055ca:	f012 0f02 	tst.w	r2, #2
 80055ce:	d064      	beq.n	800569a <HAL_RCC_ClockConfig+0x14e>
    __HAL_RCC_SYSCLK_CONFIG(RCC_ClkInitStruct->SYSCLKSource);
 80055d0:	4935      	ldr	r1, [pc, #212]	; (80056a8 <HAL_RCC_ClockConfig+0x15c>)
 80055d2:	684a      	ldr	r2, [r1, #4]
 80055d4:	f022 0203 	bic.w	r2, r2, #3
 80055d8:	4313      	orrs	r3, r2
 80055da:	604b      	str	r3, [r1, #4]
    tickstart = HAL_GetTick();
 80055dc:	f7fd fe56 	bl	800328c <HAL_GetTick>
 80055e0:	4606      	mov	r6, r0
    while (__HAL_RCC_GET_SYSCLK_SOURCE() != (RCC_ClkInitStruct->SYSCLKSource << RCC_CFGR_SWS_Pos))
 80055e2:	4b31      	ldr	r3, [pc, #196]	; (80056a8 <HAL_RCC_ClockConfig+0x15c>)
 80055e4:	685b      	ldr	r3, [r3, #4]
 80055e6:	f003 030c 	and.w	r3, r3, #12
 80055ea:	6862      	ldr	r2, [r4, #4]
 80055ec:	ebb3 0f82 	cmp.w	r3, r2, lsl #2
 80055f0:	d016      	beq.n	8005620 <HAL_RCC_ClockConfig+0xd4>
      if ((HAL_GetTick() - tickstart) > CLOCKSWITCH_TIMEOUT_VALUE)
 80055f2:	f7fd fe4b 	bl	800328c <HAL_GetTick>
 80055f6:	1b80      	subs	r0, r0, r6
 80055f8:	f241 3388 	movw	r3, #5000	; 0x1388
 80055fc:	4298      	cmp	r0, r3
 80055fe:	d9f0      	bls.n	80055e2 <HAL_RCC_ClockConfig+0x96>
        return HAL_TIMEOUT;
 8005600:	2003      	movs	r0, #3
 8005602:	e045      	b.n	8005690 <HAL_RCC_ClockConfig+0x144>
      if (__HAL_RCC_GET_FLAG(RCC_FLAG_HSERDY) == RESET)
 8005604:	4a28      	ldr	r2, [pc, #160]	; (80056a8 <HAL_RCC_ClockConfig+0x15c>)
 8005606:	6812      	ldr	r2, [r2, #0]
 8005608:	f412 3f00 	tst.w	r2, #131072	; 0x20000
 800560c:	d1e0      	bne.n	80055d0 <HAL_RCC_ClockConfig+0x84>
        return HAL_ERROR;
 800560e:	2001      	movs	r0, #1
 8005610:	e03e      	b.n	8005690 <HAL_RCC_ClockConfig+0x144>
      if (__HAL_RCC_GET_FLAG(RCC_FLAG_PLLRDY) == RESET)
 8005612:	4a25      	ldr	r2, [pc, #148]	; (80056a8 <HAL_RCC_ClockConfig+0x15c>)
 8005614:	6812      	ldr	r2, [r2, #0]
 8005616:	f012 7f00 	tst.w	r2, #33554432	; 0x2000000
 800561a:	d1d9      	bne.n	80055d0 <HAL_RCC_ClockConfig+0x84>
        return HAL_ERROR;
 800561c:	2001      	movs	r0, #1
 800561e:	e037      	b.n	8005690 <HAL_RCC_ClockConfig+0x144>
  if (FLatency < __HAL_FLASH_GET_LATENCY())
 8005620:	4b20      	ldr	r3, [pc, #128]	; (80056a4 <HAL_RCC_ClockConfig+0x158>)
 8005622:	681b      	ldr	r3, [r3, #0]
 8005624:	f003 0307 	and.w	r3, r3, #7
 8005628:	42ab      	cmp	r3, r5
 800562a:	d90a      	bls.n	8005642 <HAL_RCC_ClockConfig+0xf6>
    __HAL_FLASH_SET_LATENCY(FLatency);
 800562c:	4a1d      	ldr	r2, [pc, #116]	; (80056a4 <HAL_RCC_ClockConfig+0x158>)
 800562e:	6813      	ldr	r3, [r2, #0]
 8005630:	f023 0307 	bic.w	r3, r3, #7
 8005634:	432b      	orrs	r3, r5
 8005636:	6013      	str	r3, [r2, #0]
    if (__HAL_FLASH_GET_LATENCY() != FLatency)
 8005638:	6813      	ldr	r3, [r2, #0]
 800563a:	f003 0307 	and.w	r3, r3, #7
 800563e:	42ab      	cmp	r3, r5
 8005640:	d12d      	bne.n	800569e <HAL_RCC_ClockConfig+0x152>
if (((RCC_ClkInitStruct->ClockType) & RCC_CLOCKTYPE_PCLK1) == RCC_CLOCKTYPE_PCLK1)
 8005642:	6823      	ldr	r3, [r4, #0]
 8005644:	f013 0f04 	tst.w	r3, #4
 8005648:	d006      	beq.n	8005658 <HAL_RCC_ClockConfig+0x10c>
    MODIFY_REG(RCC->CFGR, RCC_CFGR_PPRE1, RCC_ClkInitStruct->APB1CLKDivider);
 800564a:	4a17      	ldr	r2, [pc, #92]	; (80056a8 <HAL_RCC_ClockConfig+0x15c>)
 800564c:	6853      	ldr	r3, [r2, #4]
 800564e:	f423 63e0 	bic.w	r3, r3, #1792	; 0x700
 8005652:	68e1      	ldr	r1, [r4, #12]
 8005654:	430b      	orrs	r3, r1
 8005656:	6053      	str	r3, [r2, #4]
  if (((RCC_ClkInitStruct->ClockType) & RCC_CLOCKTYPE_PCLK2) == RCC_CLOCKTYPE_PCLK2)
 8005658:	6823      	ldr	r3, [r4, #0]
 800565a:	f013 0f08 	tst.w	r3, #8
 800565e:	d007      	beq.n	8005670 <HAL_RCC_ClockConfig+0x124>
    MODIFY_REG(RCC->CFGR, RCC_CFGR_PPRE2, ((RCC_ClkInitStruct->APB2CLKDivider) << 3));
 8005660:	4a11      	ldr	r2, [pc, #68]	; (80056a8 <HAL_RCC_ClockConfig+0x15c>)
 8005662:	6853      	ldr	r3, [r2, #4]
 8005664:	f423 5360 	bic.w	r3, r3, #14336	; 0x3800
 8005668:	6921      	ldr	r1, [r4, #16]
 800566a:	ea43 03c1 	orr.w	r3, r3, r1, lsl #3
 800566e:	6053      	str	r3, [r2, #4]
  SystemCoreClock = HAL_RCC_GetSysClockFreq() >> AHBPrescTable[(RCC->CFGR & RCC_CFGR_HPRE) >> RCC_CFGR_HPRE_Pos];
 8005670:	f7ff ff3c 	bl	80054ec <HAL_RCC_GetSysClockFreq>
 8005674:	4b0c      	ldr	r3, [pc, #48]	; (80056a8 <HAL_RCC_ClockConfig+0x15c>)
 8005676:	685b      	ldr	r3, [r3, #4]
 8005678:	f3c3 1303 	ubfx	r3, r3, #4, #4
 800567c:	4a0b      	ldr	r2, [pc, #44]	; (80056ac <HAL_RCC_ClockConfig+0x160>)
 800567e:	5cd3      	ldrb	r3, [r2, r3]
 8005680:	40d8      	lsrs	r0, r3
 8005682:	4b0b      	ldr	r3, [pc, #44]	; (80056b0 <HAL_RCC_ClockConfig+0x164>)
 8005684:	6018      	str	r0, [r3, #0]
  HAL_InitTick(uwTickPrio);
 8005686:	4b0b      	ldr	r3, [pc, #44]	; (80056b4 <HAL_RCC_ClockConfig+0x168>)
 8005688:	6818      	ldr	r0, [r3, #0]
 800568a:	f7fd fdbb 	bl	8003204 <HAL_InitTick>
  return HAL_OK;
 800568e:	2000      	movs	r0, #0
}
 8005690:	bd70      	pop	{r4, r5, r6, pc}
    return HAL_ERROR;
 8005692:	2001      	movs	r0, #1
}
 8005694:	4770      	bx	lr
    return HAL_ERROR;
 8005696:	2001      	movs	r0, #1
 8005698:	e7fa      	b.n	8005690 <HAL_RCC_ClockConfig+0x144>
        return HAL_ERROR;
 800569a:	2001      	movs	r0, #1
 800569c:	e7f8      	b.n	8005690 <HAL_RCC_ClockConfig+0x144>
    return HAL_ERROR;
 800569e:	2001      	movs	r0, #1
 80056a0:	e7f6      	b.n	8005690 <HAL_RCC_ClockConfig+0x144>
 80056a2:	bf00      	nop
 80056a4:	40022000 	.word	0x40022000
 80056a8:	40021000 	.word	0x40021000
 80056ac:	080098d8 	.word	0x080098d8
 80056b0:	20000000 	.word	0x20000000
 80056b4:	20000234 	.word	0x20000234

080056b8 <HAL_RCC_GetHCLKFreq>:
}
 80056b8:	4b01      	ldr	r3, [pc, #4]	; (80056c0 <HAL_RCC_GetHCLKFreq+0x8>)
 80056ba:	6818      	ldr	r0, [r3, #0]
 80056bc:	4770      	bx	lr
 80056be:	bf00      	nop
 80056c0:	20000000 	.word	0x20000000

080056c4 <HAL_RCC_GetPCLK1Freq>:
{
 80056c4:	b508      	push	{r3, lr}
  return (HAL_RCC_GetHCLKFreq() >> APBPrescTable[(RCC->CFGR & RCC_CFGR_PPRE1) >> RCC_CFGR_PPRE1_Pos]);
 80056c6:	f7ff fff7 	bl	80056b8 <HAL_RCC_GetHCLKFreq>
 80056ca:	4b04      	ldr	r3, [pc, #16]	; (80056dc <HAL_RCC_GetPCLK1Freq+0x18>)
 80056cc:	685b      	ldr	r3, [r3, #4]
 80056ce:	f3c3 2302 	ubfx	r3, r3, #8, #3
 80056d2:	4a03      	ldr	r2, [pc, #12]	; (80056e0 <HAL_RCC_GetPCLK1Freq+0x1c>)
 80056d4:	5cd3      	ldrb	r3, [r2, r3]
}
 80056d6:	40d8      	lsrs	r0, r3
 80056d8:	bd08      	pop	{r3, pc}
 80056da:	bf00      	nop
 80056dc:	40021000 	.word	0x40021000
 80056e0:	080098e8 	.word	0x080098e8

080056e4 <HAL_RCC_GetPCLK2Freq>:
{
 80056e4:	b508      	push	{r3, lr}
  return (HAL_RCC_GetHCLKFreq() >> APBPrescTable[(RCC->CFGR & RCC_CFGR_PPRE2) >> RCC_CFGR_PPRE2_Pos]);
 80056e6:	f7ff ffe7 	bl	80056b8 <HAL_RCC_GetHCLKFreq>
 80056ea:	4b04      	ldr	r3, [pc, #16]	; (80056fc <HAL_RCC_GetPCLK2Freq+0x18>)
 80056ec:	685b      	ldr	r3, [r3, #4]
 80056ee:	f3c3 23c2 	ubfx	r3, r3, #11, #3
 80056f2:	4a03      	ldr	r2, [pc, #12]	; (8005700 <HAL_RCC_GetPCLK2Freq+0x1c>)
 80056f4:	5cd3      	ldrb	r3, [r2, r3]
}
 80056f6:	40d8      	lsrs	r0, r3
 80056f8:	bd08      	pop	{r3, pc}
 80056fa:	bf00      	nop
 80056fc:	40021000 	.word	0x40021000
 8005700:	080098e8 	.word	0x080098e8

08005704 <HAL_RCCEx_PeriphCLKConfig>:
  *         manually disable it.
  *
  * @retval HAL status
  */
HAL_StatusTypeDef HAL_RCCEx_PeriphCLKConfig(RCC_PeriphCLKInitTypeDef  *PeriphClkInit)
{
 8005704:	b570      	push	{r4, r5, r6, lr}
 8005706:	b082      	sub	sp, #8
 8005708:	4604      	mov	r4, r0

  /* Check the parameters */
  assert_param(IS_RCC_PERIPHCLOCK(PeriphClkInit->PeriphClockSelection));

  /*------------------------------- RTC/LCD Configuration ------------------------*/
  if ((((PeriphClkInit->PeriphClockSelection) & RCC_PERIPHCLK_RTC) == RCC_PERIPHCLK_RTC))
 800570a:	6803      	ldr	r3, [r0, #0]
 800570c:	f013 0f01 	tst.w	r3, #1
 8005710:	d034      	beq.n	800577c <HAL_RCCEx_PeriphCLKConfig+0x78>
    assert_param(IS_RCC_RTCCLKSOURCE(PeriphClkInit->RTCClockSelection));

    /* As soon as function is called to change RTC clock source, activation of the
       power domain is done. */
    /* Requires to enable write access to Backup Domain of necessary */
    if (__HAL_RCC_PWR_IS_CLK_DISABLED())
 8005712:	4b3e      	ldr	r3, [pc, #248]	; (800580c <HAL_RCCEx_PeriphCLKConfig+0x108>)
 8005714:	69db      	ldr	r3, [r3, #28]
 8005716:	f013 5f80 	tst.w	r3, #268435456	; 0x10000000
 800571a:	d147      	bne.n	80057ac <HAL_RCCEx_PeriphCLKConfig+0xa8>
    {
      __HAL_RCC_PWR_CLK_ENABLE();
 800571c:	4b3b      	ldr	r3, [pc, #236]	; (800580c <HAL_RCCEx_PeriphCLKConfig+0x108>)
 800571e:	69da      	ldr	r2, [r3, #28]
 8005720:	f042 5280 	orr.w	r2, r2, #268435456	; 0x10000000
 8005724:	61da      	str	r2, [r3, #28]
 8005726:	69db      	ldr	r3, [r3, #28]
 8005728:	f003 5380 	and.w	r3, r3, #268435456	; 0x10000000
 800572c:	9301      	str	r3, [sp, #4]
 800572e:	9b01      	ldr	r3, [sp, #4]
      pwrclkchanged = SET;
 8005730:	2501      	movs	r5, #1
    }

    if (HAL_IS_BIT_CLR(PWR->CR, PWR_CR_DBP))
 8005732:	4b37      	ldr	r3, [pc, #220]	; (8005810 <HAL_RCCEx_PeriphCLKConfig+0x10c>)
 8005734:	681b      	ldr	r3, [r3, #0]
 8005736:	f413 7f80 	tst.w	r3, #256	; 0x100
 800573a:	d039      	beq.n	80057b0 <HAL_RCCEx_PeriphCLKConfig+0xac>
        }
      }
    }

    /* Reset the Backup domain only if the RTC Clock source selection is modified from reset value */
    temp_reg = (RCC->BDCR & RCC_BDCR_RTCSEL);
 800573c:	4b33      	ldr	r3, [pc, #204]	; (800580c <HAL_RCCEx_PeriphCLKConfig+0x108>)
 800573e:	6a1b      	ldr	r3, [r3, #32]
    if ((temp_reg != 0x00000000U) && (temp_reg != (PeriphClkInit->RTCClockSelection & RCC_BDCR_RTCSEL)))
 8005740:	f413 7340 	ands.w	r3, r3, #768	; 0x300
 8005744:	d011      	beq.n	800576a <HAL_RCCEx_PeriphCLKConfig+0x66>
 8005746:	6862      	ldr	r2, [r4, #4]
 8005748:	f402 7240 	and.w	r2, r2, #768	; 0x300
 800574c:	429a      	cmp	r2, r3
 800574e:	d00c      	beq.n	800576a <HAL_RCCEx_PeriphCLKConfig+0x66>
    {
      /* Store the content of BDCR register before the reset of Backup Domain */
      temp_reg = (RCC->BDCR & ~(RCC_BDCR_RTCSEL));
 8005750:	4a2e      	ldr	r2, [pc, #184]	; (800580c <HAL_RCCEx_PeriphCLKConfig+0x108>)
 8005752:	6a13      	ldr	r3, [r2, #32]
 8005754:	f423 7040 	bic.w	r0, r3, #768	; 0x300
      /* RTC Clock selection can be changed only if the Backup Domain is reset */
      __HAL_RCC_BACKUPRESET_FORCE();
 8005758:	492e      	ldr	r1, [pc, #184]	; (8005814 <HAL_RCCEx_PeriphCLKConfig+0x110>)
 800575a:	2601      	movs	r6, #1
 800575c:	600e      	str	r6, [r1, #0]
      __HAL_RCC_BACKUPRESET_RELEASE();
 800575e:	2600      	movs	r6, #0
 8005760:	600e      	str	r6, [r1, #0]
      /* Restore the Content of BDCR register */
      RCC->BDCR = temp_reg;
 8005762:	6210      	str	r0, [r2, #32]

      /* Wait for LSERDY if LSE was enabled */
      if (HAL_IS_BIT_SET(temp_reg, RCC_BDCR_LSEON))
 8005764:	f013 0f01 	tst.w	r3, #1
 8005768:	d136      	bne.n	80057d8 <HAL_RCCEx_PeriphCLKConfig+0xd4>
            return HAL_TIMEOUT;
          }
        }
      }
    }
    __HAL_RCC_RTC_CONFIG(PeriphClkInit->RTCClockSelection);
 800576a:	4a28      	ldr	r2, [pc, #160]	; (800580c <HAL_RCCEx_PeriphCLKConfig+0x108>)
 800576c:	6a13      	ldr	r3, [r2, #32]
 800576e:	f423 7340 	bic.w	r3, r3, #768	; 0x300
 8005772:	6861      	ldr	r1, [r4, #4]
 8005774:	430b      	orrs	r3, r1
 8005776:	6213      	str	r3, [r2, #32]

    /* Require to disable power clock if necessary */
    if (pwrclkchanged == SET)
 8005778:	2d00      	cmp	r5, #0
 800577a:	d13e      	bne.n	80057fa <HAL_RCCEx_PeriphCLKConfig+0xf6>
      __HAL_RCC_PWR_CLK_DISABLE();
    }
  }

  /*------------------------------ ADC clock Configuration ------------------*/
  if (((PeriphClkInit->PeriphClockSelection) & RCC_PERIPHCLK_ADC) == RCC_PERIPHCLK_ADC)
 800577c:	6823      	ldr	r3, [r4, #0]
 800577e:	f013 0f02 	tst.w	r3, #2
 8005782:	d006      	beq.n	8005792 <HAL_RCCEx_PeriphCLKConfig+0x8e>
  {
    /* Check the parameters */
    assert_param(IS_RCC_ADCPLLCLK_DIV(PeriphClkInit->AdcClockSelection));

    /* Configure the ADC clock source */
    __HAL_RCC_ADC_CONFIG(PeriphClkInit->AdcClockSelection);
 8005784:	4a21      	ldr	r2, [pc, #132]	; (800580c <HAL_RCCEx_PeriphCLKConfig+0x108>)
 8005786:	6853      	ldr	r3, [r2, #4]
 8005788:	f423 4340 	bic.w	r3, r3, #49152	; 0xc000
 800578c:	68a1      	ldr	r1, [r4, #8]
 800578e:	430b      	orrs	r3, r1
 8005790:	6053      	str	r3, [r2, #4]

#if defined(STM32F102x6) || defined(STM32F102xB) || defined(STM32F103x6)\
 || defined(STM32F103xB) || defined(STM32F103xE) || defined(STM32F103xG)\
 || defined(STM32F105xC) || defined(STM32F107xC)
  /*------------------------------ USB clock Configuration ------------------*/
  if (((PeriphClkInit->PeriphClockSelection) & RCC_PERIPHCLK_USB) == RCC_PERIPHCLK_USB)
 8005792:	6823      	ldr	r3, [r4, #0]
 8005794:	f013 0f10 	tst.w	r3, #16
 8005798:	d034      	beq.n	8005804 <HAL_RCCEx_PeriphCLKConfig+0x100>
  {
    /* Check the parameters */
    assert_param(IS_RCC_USBPLLCLK_DIV(PeriphClkInit->UsbClockSelection));

    /* Configure the USB clock source */
    __HAL_RCC_USB_CONFIG(PeriphClkInit->UsbClockSelection);
 800579a:	4a1c      	ldr	r2, [pc, #112]	; (800580c <HAL_RCCEx_PeriphCLKConfig+0x108>)
 800579c:	6853      	ldr	r3, [r2, #4]
 800579e:	f423 0380 	bic.w	r3, r3, #4194304	; 0x400000
 80057a2:	68e1      	ldr	r1, [r4, #12]
 80057a4:	430b      	orrs	r3, r1
 80057a6:	6053      	str	r3, [r2, #4]
  }
#endif /* STM32F102x6 || STM32F102xB || STM32F103x6 || STM32F103xB || STM32F103xE || STM32F103xG || STM32F105xC || STM32F107xC */

  return HAL_OK;
 80057a8:	2000      	movs	r0, #0
 80057aa:	e02c      	b.n	8005806 <HAL_RCCEx_PeriphCLKConfig+0x102>
    FlagStatus pwrclkchanged = RESET;
 80057ac:	2500      	movs	r5, #0
 80057ae:	e7c0      	b.n	8005732 <HAL_RCCEx_PeriphCLKConfig+0x2e>
      SET_BIT(PWR->CR, PWR_CR_DBP);
 80057b0:	4a17      	ldr	r2, [pc, #92]	; (8005810 <HAL_RCCEx_PeriphCLKConfig+0x10c>)
 80057b2:	6813      	ldr	r3, [r2, #0]
 80057b4:	f443 7380 	orr.w	r3, r3, #256	; 0x100
 80057b8:	6013      	str	r3, [r2, #0]
      tickstart = HAL_GetTick();
 80057ba:	f7fd fd67 	bl	800328c <HAL_GetTick>
 80057be:	4606      	mov	r6, r0
      while (HAL_IS_BIT_CLR(PWR->CR, PWR_CR_DBP))
 80057c0:	4b13      	ldr	r3, [pc, #76]	; (8005810 <HAL_RCCEx_PeriphCLKConfig+0x10c>)
 80057c2:	681b      	ldr	r3, [r3, #0]
 80057c4:	f413 7f80 	tst.w	r3, #256	; 0x100
 80057c8:	d1b8      	bne.n	800573c <HAL_RCCEx_PeriphCLKConfig+0x38>
        if ((HAL_GetTick() - tickstart) > RCC_DBP_TIMEOUT_VALUE)
 80057ca:	f7fd fd5f 	bl	800328c <HAL_GetTick>
 80057ce:	1b80      	subs	r0, r0, r6
 80057d0:	2864      	cmp	r0, #100	; 0x64
 80057d2:	d9f5      	bls.n	80057c0 <HAL_RCCEx_PeriphCLKConfig+0xbc>
          return HAL_TIMEOUT;
 80057d4:	2003      	movs	r0, #3
 80057d6:	e016      	b.n	8005806 <HAL_RCCEx_PeriphCLKConfig+0x102>
        tickstart = HAL_GetTick();
 80057d8:	f7fd fd58 	bl	800328c <HAL_GetTick>
 80057dc:	4606      	mov	r6, r0
        while (__HAL_RCC_GET_FLAG(RCC_FLAG_LSERDY) == RESET)
 80057de:	4b0b      	ldr	r3, [pc, #44]	; (800580c <HAL_RCCEx_PeriphCLKConfig+0x108>)
 80057e0:	6a1b      	ldr	r3, [r3, #32]
 80057e2:	f013 0f02 	tst.w	r3, #2
 80057e6:	d1c0      	bne.n	800576a <HAL_RCCEx_PeriphCLKConfig+0x66>
          if ((HAL_GetTick() - tickstart) > RCC_LSE_TIMEOUT_VALUE)
 80057e8:	f7fd fd50 	bl	800328c <HAL_GetTick>
 80057ec:	1b80      	subs	r0, r0, r6
 80057ee:	f241 3388 	movw	r3, #5000	; 0x1388
 80057f2:	4298      	cmp	r0, r3
 80057f4:	d9f3      	bls.n	80057de <HAL_RCCEx_PeriphCLKConfig+0xda>
            return HAL_TIMEOUT;
 80057f6:	2003      	movs	r0, #3
 80057f8:	e005      	b.n	8005806 <HAL_RCCEx_PeriphCLKConfig+0x102>
      __HAL_RCC_PWR_CLK_DISABLE();
 80057fa:	69d3      	ldr	r3, [r2, #28]
 80057fc:	f023 5380 	bic.w	r3, r3, #268435456	; 0x10000000
 8005800:	61d3      	str	r3, [r2, #28]
 8005802:	e7bb      	b.n	800577c <HAL_RCCEx_PeriphCLKConfig+0x78>
  return HAL_OK;
 8005804:	2000      	movs	r0, #0
}
 8005806:	b002      	add	sp, #8
 8005808:	bd70      	pop	{r4, r5, r6, pc}
 800580a:	bf00      	nop
 800580c:	40021000 	.word	0x40021000
 8005810:	40007000 	.word	0x40007000
 8005814:	42420440 	.word	0x42420440

08005818 <TIM_TI1_ConfigInputStage>:
  * @param  TIM_ICFilter Specifies the Input Capture Filter.
  *          This parameter must be a value between 0x00 and 0x0F.
  * @retval None
  */
static void TIM_TI1_ConfigInputStage(TIM_TypeDef *TIMx, uint32_t TIM_ICPolarity, uint32_t TIM_ICFilter)
{
 8005818:	b430      	push	{r4, r5}
  uint32_t tmpccmr1;
  uint32_t tmpccer;

  /* Disable the Channel 1: Reset the CC1E Bit */
  tmpccer = TIMx->CCER;
 800581a:	6a03      	ldr	r3, [r0, #32]
  TIMx->CCER &= ~TIM_CCER_CC1E;
 800581c:	6a05      	ldr	r5, [r0, #32]
 800581e:	f025 0501 	bic.w	r5, r5, #1
 8005822:	6205      	str	r5, [r0, #32]
  tmpccmr1 = TIMx->CCMR1;
 8005824:	6984      	ldr	r4, [r0, #24]

  /* Set the filter */
  tmpccmr1 &= ~TIM_CCMR1_IC1F;
 8005826:	f024 04f0 	bic.w	r4, r4, #240	; 0xf0
  tmpccmr1 |= (TIM_ICFilter << 4U);
 800582a:	ea44 1402 	orr.w	r4, r4, r2, lsl #4

  /* Select the Polarity and set the CC1E Bit */
  tmpccer &= ~(TIM_CCER_CC1P | TIM_CCER_CC1NP);
 800582e:	f023 030a 	bic.w	r3, r3, #10
  tmpccer |= TIM_ICPolarity;
 8005832:	430b      	orrs	r3, r1

  /* Write to TIMx CCMR1 and CCER registers */
  TIMx->CCMR1 = tmpccmr1;
 8005834:	6184      	str	r4, [r0, #24]
  TIMx->CCER = tmpccer;
 8005836:	6203      	str	r3, [r0, #32]
}
 8005838:	bc30      	pop	{r4, r5}
 800583a:	4770      	bx	lr

0800583c <TIM_TI2_ConfigInputStage>:
  * @param  TIM_ICFilter Specifies the Input Capture Filter.
  *          This parameter must be a value between 0x00 and 0x0F.
  * @retval None
  */
static void TIM_TI2_ConfigInputStage(TIM_TypeDef *TIMx, uint32_t TIM_ICPolarity, uint32_t TIM_ICFilter)
{
 800583c:	b430      	push	{r4, r5}
  uint32_t tmpccmr1;
  uint32_t tmpccer;

  /* Disable the Channel 2: Reset the CC2E Bit */
  tmpccer = TIMx->CCER;
 800583e:	6a03      	ldr	r3, [r0, #32]
  TIMx->CCER &= ~TIM_CCER_CC2E;
 8005840:	6a05      	ldr	r5, [r0, #32]
 8005842:	f025 0510 	bic.w	r5, r5, #16
 8005846:	6205      	str	r5, [r0, #32]
  tmpccmr1 = TIMx->CCMR1;
 8005848:	6984      	ldr	r4, [r0, #24]

  /* Set the filter */
  tmpccmr1 &= ~TIM_CCMR1_IC2F;
 800584a:	f424 4470 	bic.w	r4, r4, #61440	; 0xf000
  tmpccmr1 |= (TIM_ICFilter << 12U);
 800584e:	ea44 3402 	orr.w	r4, r4, r2, lsl #12

  /* Select the Polarity and set the CC2E Bit */
  tmpccer &= ~(TIM_CCER_CC2P | TIM_CCER_CC2NP);
 8005852:	f023 03a0 	bic.w	r3, r3, #160	; 0xa0
  tmpccer |= (TIM_ICPolarity << 4U);
 8005856:	ea43 1301 	orr.w	r3, r3, r1, lsl #4

  /* Write to TIMx CCMR1 and CCER registers */
  TIMx->CCMR1 = tmpccmr1 ;
 800585a:	6184      	str	r4, [r0, #24]
  TIMx->CCER = tmpccer;
 800585c:	6203      	str	r3, [r0, #32]
}
 800585e:	bc30      	pop	{r4, r5}
 8005860:	4770      	bx	lr

08005862 <TIM_ITRx_SetConfig>:
static void TIM_ITRx_SetConfig(TIM_TypeDef *TIMx, uint32_t InputTriggerSource)
{
  uint32_t tmpsmcr;

  /* Get the TIMx SMCR register value */
  tmpsmcr = TIMx->SMCR;
 8005862:	6883      	ldr	r3, [r0, #8]
  /* Reset the TS Bits */
  tmpsmcr &= ~TIM_SMCR_TS;
 8005864:	f023 0370 	bic.w	r3, r3, #112	; 0x70
  /* Set the Input Trigger source and the slave mode*/
  tmpsmcr |= (InputTriggerSource | TIM_SLAVEMODE_EXTERNAL1);
 8005868:	430b      	orrs	r3, r1
 800586a:	f043 0307 	orr.w	r3, r3, #7
  /* Write to TIMx SMCR */
  TIMx->SMCR = tmpsmcr;
 800586e:	6083      	str	r3, [r0, #8]
}
 8005870:	4770      	bx	lr
	...

08005874 <HAL_TIM_Base_Start_IT>:
  if (htim->State != HAL_TIM_STATE_READY)
 8005874:	f890 303d 	ldrb.w	r3, [r0, #61]	; 0x3d
 8005878:	b2db      	uxtb	r3, r3
 800587a:	2b01      	cmp	r3, #1
 800587c:	d127      	bne.n	80058ce <HAL_TIM_Base_Start_IT+0x5a>
  htim->State = HAL_TIM_STATE_BUSY;
 800587e:	2302      	movs	r3, #2
 8005880:	f880 303d 	strb.w	r3, [r0, #61]	; 0x3d
  __HAL_TIM_ENABLE_IT(htim, TIM_IT_UPDATE);
 8005884:	6802      	ldr	r2, [r0, #0]
 8005886:	68d3      	ldr	r3, [r2, #12]
 8005888:	f043 0301 	orr.w	r3, r3, #1
 800588c:	60d3      	str	r3, [r2, #12]
  if (IS_TIM_SLAVE_INSTANCE(htim->Instance))
 800588e:	6803      	ldr	r3, [r0, #0]
 8005890:	4a11      	ldr	r2, [pc, #68]	; (80058d8 <HAL_TIM_Base_Start_IT+0x64>)
 8005892:	4293      	cmp	r3, r2
 8005894:	d010      	beq.n	80058b8 <HAL_TIM_Base_Start_IT+0x44>
 8005896:	f1b3 4f80 	cmp.w	r3, #1073741824	; 0x40000000
 800589a:	d00d      	beq.n	80058b8 <HAL_TIM_Base_Start_IT+0x44>
 800589c:	f5a2 3294 	sub.w	r2, r2, #75776	; 0x12800
 80058a0:	4293      	cmp	r3, r2
 80058a2:	d009      	beq.n	80058b8 <HAL_TIM_Base_Start_IT+0x44>
 80058a4:	f502 6280 	add.w	r2, r2, #1024	; 0x400
 80058a8:	4293      	cmp	r3, r2
 80058aa:	d005      	beq.n	80058b8 <HAL_TIM_Base_Start_IT+0x44>
    __HAL_TIM_ENABLE(htim);
 80058ac:	681a      	ldr	r2, [r3, #0]
 80058ae:	f042 0201 	orr.w	r2, r2, #1
 80058b2:	601a      	str	r2, [r3, #0]
  return HAL_OK;
 80058b4:	2000      	movs	r0, #0
 80058b6:	4770      	bx	lr
    tmpsmcr = htim->Instance->SMCR & TIM_SMCR_SMS;
 80058b8:	689a      	ldr	r2, [r3, #8]
 80058ba:	f002 0207 	and.w	r2, r2, #7
    if (!IS_TIM_SLAVEMODE_TRIGGER_ENABLED(tmpsmcr))
 80058be:	2a06      	cmp	r2, #6
 80058c0:	d007      	beq.n	80058d2 <HAL_TIM_Base_Start_IT+0x5e>
      __HAL_TIM_ENABLE(htim);
 80058c2:	681a      	ldr	r2, [r3, #0]
 80058c4:	f042 0201 	orr.w	r2, r2, #1
 80058c8:	601a      	str	r2, [r3, #0]
  return HAL_OK;
 80058ca:	2000      	movs	r0, #0
 80058cc:	4770      	bx	lr
    return HAL_ERROR;
 80058ce:	2001      	movs	r0, #1
 80058d0:	4770      	bx	lr
  return HAL_OK;
 80058d2:	2000      	movs	r0, #0
}
 80058d4:	4770      	bx	lr
 80058d6:	bf00      	nop
 80058d8:	40012c00 	.word	0x40012c00

080058dc <TIM_Base_SetConfig>:
  tmpcr1 = TIMx->CR1;
 80058dc:	6803      	ldr	r3, [r0, #0]
  if (IS_TIM_COUNTER_MODE_SELECT_INSTANCE(TIMx))
 80058de:	4a1f      	ldr	r2, [pc, #124]	; (800595c <TIM_Base_SetConfig+0x80>)
 80058e0:	4290      	cmp	r0, r2
 80058e2:	d00a      	beq.n	80058fa <TIM_Base_SetConfig+0x1e>
 80058e4:	f1b0 4f80 	cmp.w	r0, #1073741824	; 0x40000000
 80058e8:	d007      	beq.n	80058fa <TIM_Base_SetConfig+0x1e>
 80058ea:	f5a2 3294 	sub.w	r2, r2, #75776	; 0x12800
 80058ee:	4290      	cmp	r0, r2
 80058f0:	d003      	beq.n	80058fa <TIM_Base_SetConfig+0x1e>
 80058f2:	f502 6280 	add.w	r2, r2, #1024	; 0x400
 80058f6:	4290      	cmp	r0, r2
 80058f8:	d103      	bne.n	8005902 <TIM_Base_SetConfig+0x26>
    tmpcr1 &= ~(TIM_CR1_DIR | TIM_CR1_CMS);
 80058fa:	f023 0370 	bic.w	r3, r3, #112	; 0x70
    tmpcr1 |= Structure->CounterMode;
 80058fe:	684a      	ldr	r2, [r1, #4]
 8005900:	4313      	orrs	r3, r2
  if (IS_TIM_CLOCK_DIVISION_INSTANCE(TIMx))
 8005902:	4a16      	ldr	r2, [pc, #88]	; (800595c <TIM_Base_SetConfig+0x80>)
 8005904:	4290      	cmp	r0, r2
 8005906:	d00a      	beq.n	800591e <TIM_Base_SetConfig+0x42>
 8005908:	f1b0 4f80 	cmp.w	r0, #1073741824	; 0x40000000
 800590c:	d007      	beq.n	800591e <TIM_Base_SetConfig+0x42>
 800590e:	f5a2 3294 	sub.w	r2, r2, #75776	; 0x12800
 8005912:	4290      	cmp	r0, r2
 8005914:	d003      	beq.n	800591e <TIM_Base_SetConfig+0x42>
 8005916:	f502 6280 	add.w	r2, r2, #1024	; 0x400
 800591a:	4290      	cmp	r0, r2
 800591c:	d103      	bne.n	8005926 <TIM_Base_SetConfig+0x4a>
    tmpcr1 &= ~TIM_CR1_CKD;
 800591e:	f423 7340 	bic.w	r3, r3, #768	; 0x300
    tmpcr1 |= (uint32_t)Structure->ClockDivision;
 8005922:	68ca      	ldr	r2, [r1, #12]
 8005924:	4313      	orrs	r3, r2
  MODIFY_REG(tmpcr1, TIM_CR1_ARPE, Structure->AutoReloadPreload);
 8005926:	f023 0380 	bic.w	r3, r3, #128	; 0x80
 800592a:	694a      	ldr	r2, [r1, #20]
 800592c:	4313      	orrs	r3, r2
  TIMx->CR1 = tmpcr1;
 800592e:	6003      	str	r3, [r0, #0]
  TIMx->ARR = (uint32_t)Structure->Period ;
 8005930:	688b      	ldr	r3, [r1, #8]
 8005932:	62c3      	str	r3, [r0, #44]	; 0x2c
  TIMx->PSC = Structure->Prescaler;
 8005934:	680b      	ldr	r3, [r1, #0]
 8005936:	6283      	str	r3, [r0, #40]	; 0x28
  if (IS_TIM_REPETITION_COUNTER_INSTANCE(TIMx))
 8005938:	4b08      	ldr	r3, [pc, #32]	; (800595c <TIM_Base_SetConfig+0x80>)
 800593a:	4298      	cmp	r0, r3
 800593c:	d00a      	beq.n	8005954 <TIM_Base_SetConfig+0x78>
  TIMx->EGR = TIM_EGR_UG;
 800593e:	2301      	movs	r3, #1
 8005940:	6143      	str	r3, [r0, #20]
  if (HAL_IS_BIT_SET(TIMx->SR, TIM_FLAG_UPDATE))
 8005942:	6903      	ldr	r3, [r0, #16]
 8005944:	f013 0f01 	tst.w	r3, #1
 8005948:	d003      	beq.n	8005952 <TIM_Base_SetConfig+0x76>
    CLEAR_BIT(TIMx->SR, TIM_FLAG_UPDATE);
 800594a:	6903      	ldr	r3, [r0, #16]
 800594c:	f023 0301 	bic.w	r3, r3, #1
 8005950:	6103      	str	r3, [r0, #16]
}
 8005952:	4770      	bx	lr
    TIMx->RCR = Structure->RepetitionCounter;
 8005954:	690b      	ldr	r3, [r1, #16]
 8005956:	6303      	str	r3, [r0, #48]	; 0x30
 8005958:	e7f1      	b.n	800593e <TIM_Base_SetConfig+0x62>
 800595a:	bf00      	nop
 800595c:	40012c00 	.word	0x40012c00

08005960 <HAL_TIM_Base_Init>:
  if (htim == NULL)
 8005960:	b340      	cbz	r0, 80059b4 <HAL_TIM_Base_Init+0x54>
{
 8005962:	b510      	push	{r4, lr}
 8005964:	4604      	mov	r4, r0
  if (htim->State == HAL_TIM_STATE_RESET)
 8005966:	f890 303d 	ldrb.w	r3, [r0, #61]	; 0x3d
 800596a:	b1f3      	cbz	r3, 80059aa <HAL_TIM_Base_Init+0x4a>
  htim->State = HAL_TIM_STATE_BUSY;
 800596c:	2302      	movs	r3, #2
 800596e:	f884 303d 	strb.w	r3, [r4, #61]	; 0x3d
  TIM_Base_SetConfig(htim->Instance, &htim->Init);
 8005972:	4621      	mov	r1, r4
 8005974:	f851 0b04 	ldr.w	r0, [r1], #4
 8005978:	f7ff ffb0 	bl	80058dc <TIM_Base_SetConfig>
  htim->DMABurstState = HAL_DMA_BURST_STATE_READY;
 800597c:	2301      	movs	r3, #1
 800597e:	f884 3046 	strb.w	r3, [r4, #70]	; 0x46
  TIM_CHANNEL_STATE_SET_ALL(htim, HAL_TIM_CHANNEL_STATE_READY);
 8005982:	f884 303e 	strb.w	r3, [r4, #62]	; 0x3e
 8005986:	f884 303f 	strb.w	r3, [r4, #63]	; 0x3f
 800598a:	f884 3040 	strb.w	r3, [r4, #64]	; 0x40
 800598e:	f884 3041 	strb.w	r3, [r4, #65]	; 0x41
  TIM_CHANNEL_N_STATE_SET_ALL(htim, HAL_TIM_CHANNEL_STATE_READY);
 8005992:	f884 3042 	strb.w	r3, [r4, #66]	; 0x42
 8005996:	f884 3043 	strb.w	r3, [r4, #67]	; 0x43
 800599a:	f884 3044 	strb.w	r3, [r4, #68]	; 0x44
 800599e:	f884 3045 	strb.w	r3, [r4, #69]	; 0x45
  htim->State = HAL_TIM_STATE_READY;
 80059a2:	f884 303d 	strb.w	r3, [r4, #61]	; 0x3d
  return HAL_OK;
 80059a6:	2000      	movs	r0, #0
}
 80059a8:	bd10      	pop	{r4, pc}
    htim->Lock = HAL_UNLOCKED;
 80059aa:	f880 303c 	strb.w	r3, [r0, #60]	; 0x3c
    HAL_TIM_Base_MspInit(htim);
 80059ae:	f7fc fdcd 	bl	800254c <HAL_TIM_Base_MspInit>
 80059b2:	e7db      	b.n	800596c <HAL_TIM_Base_Init+0xc>
    return HAL_ERROR;
 80059b4:	2001      	movs	r0, #1
}
 80059b6:	4770      	bx	lr

080059b8 <TIM_ETR_SetConfig>:
  *          This parameter must be a value between 0x00 and 0x0F
  * @retval None
  */
void TIM_ETR_SetConfig(TIM_TypeDef *TIMx, uint32_t TIM_ExtTRGPrescaler,
                       uint32_t TIM_ExtTRGPolarity, uint32_t ExtTRGFilter)
{
 80059b8:	b410      	push	{r4}
  uint32_t tmpsmcr;

  tmpsmcr = TIMx->SMCR;
 80059ba:	6884      	ldr	r4, [r0, #8]

  /* Reset the ETR Bits */
  tmpsmcr &= ~(TIM_SMCR_ETF | TIM_SMCR_ETPS | TIM_SMCR_ECE | TIM_SMCR_ETP);
 80059bc:	f424 447f 	bic.w	r4, r4, #65280	; 0xff00

  /* Set the Prescaler, the Filter value and the Polarity */
  tmpsmcr |= (uint32_t)(TIM_ExtTRGPrescaler | (TIM_ExtTRGPolarity | (ExtTRGFilter << 8U)));
 80059c0:	ea42 2203 	orr.w	r2, r2, r3, lsl #8
 80059c4:	430a      	orrs	r2, r1
 80059c6:	4322      	orrs	r2, r4

  /* Write to TIMx SMCR */
  TIMx->SMCR = tmpsmcr;
 80059c8:	6082      	str	r2, [r0, #8]
}
 80059ca:	bc10      	pop	{r4}
 80059cc:	4770      	bx	lr

080059ce <HAL_TIM_ConfigClockSource>:
  __HAL_LOCK(htim);
 80059ce:	f890 303c 	ldrb.w	r3, [r0, #60]	; 0x3c
 80059d2:	2b01      	cmp	r3, #1
 80059d4:	d078      	beq.n	8005ac8 <HAL_TIM_ConfigClockSource+0xfa>
{
 80059d6:	b510      	push	{r4, lr}
 80059d8:	4604      	mov	r4, r0
  __HAL_LOCK(htim);
 80059da:	2301      	movs	r3, #1
 80059dc:	f880 303c 	strb.w	r3, [r0, #60]	; 0x3c
  htim->State = HAL_TIM_STATE_BUSY;
 80059e0:	2302      	movs	r3, #2
 80059e2:	f880 303d 	strb.w	r3, [r0, #61]	; 0x3d
  tmpsmcr = htim->Instance->SMCR;
 80059e6:	6802      	ldr	r2, [r0, #0]
 80059e8:	6893      	ldr	r3, [r2, #8]
  tmpsmcr &= ~(TIM_SMCR_ETF | TIM_SMCR_ETPS | TIM_SMCR_ECE | TIM_SMCR_ETP);
 80059ea:	f423 437f 	bic.w	r3, r3, #65280	; 0xff00
 80059ee:	f023 0377 	bic.w	r3, r3, #119	; 0x77
  htim->Instance->SMCR = tmpsmcr;
 80059f2:	6093      	str	r3, [r2, #8]
  switch (sClockSourceConfig->ClockSource)
 80059f4:	680b      	ldr	r3, [r1, #0]
 80059f6:	2b60      	cmp	r3, #96	; 0x60
 80059f8:	d04c      	beq.n	8005a94 <HAL_TIM_ConfigClockSource+0xc6>
 80059fa:	d829      	bhi.n	8005a50 <HAL_TIM_ConfigClockSource+0x82>
 80059fc:	2b40      	cmp	r3, #64	; 0x40
 80059fe:	d054      	beq.n	8005aaa <HAL_TIM_ConfigClockSource+0xdc>
 8005a00:	d90c      	bls.n	8005a1c <HAL_TIM_ConfigClockSource+0x4e>
 8005a02:	2b50      	cmp	r3, #80	; 0x50
 8005a04:	d122      	bne.n	8005a4c <HAL_TIM_ConfigClockSource+0x7e>
      TIM_TI1_ConfigInputStage(htim->Instance,
 8005a06:	68ca      	ldr	r2, [r1, #12]
 8005a08:	6849      	ldr	r1, [r1, #4]
 8005a0a:	6800      	ldr	r0, [r0, #0]
 8005a0c:	f7ff ff04 	bl	8005818 <TIM_TI1_ConfigInputStage>
      TIM_ITRx_SetConfig(htim->Instance, TIM_CLOCKSOURCE_TI1);
 8005a10:	2150      	movs	r1, #80	; 0x50
 8005a12:	6820      	ldr	r0, [r4, #0]
 8005a14:	f7ff ff25 	bl	8005862 <TIM_ITRx_SetConfig>
  HAL_StatusTypeDef status = HAL_OK;
 8005a18:	2000      	movs	r0, #0
      break;
 8005a1a:	e005      	b.n	8005a28 <HAL_TIM_ConfigClockSource+0x5a>
  switch (sClockSourceConfig->ClockSource)
 8005a1c:	2b20      	cmp	r3, #32
 8005a1e:	d00d      	beq.n	8005a3c <HAL_TIM_ConfigClockSource+0x6e>
 8005a20:	d909      	bls.n	8005a36 <HAL_TIM_ConfigClockSource+0x68>
 8005a22:	2b30      	cmp	r3, #48	; 0x30
 8005a24:	d00a      	beq.n	8005a3c <HAL_TIM_ConfigClockSource+0x6e>
      status = HAL_ERROR;
 8005a26:	2001      	movs	r0, #1
  htim->State = HAL_TIM_STATE_READY;
 8005a28:	2301      	movs	r3, #1
 8005a2a:	f884 303d 	strb.w	r3, [r4, #61]	; 0x3d
  __HAL_UNLOCK(htim);
 8005a2e:	2300      	movs	r3, #0
 8005a30:	f884 303c 	strb.w	r3, [r4, #60]	; 0x3c
}
 8005a34:	bd10      	pop	{r4, pc}
  switch (sClockSourceConfig->ClockSource)
 8005a36:	b10b      	cbz	r3, 8005a3c <HAL_TIM_ConfigClockSource+0x6e>
 8005a38:	2b10      	cmp	r3, #16
 8005a3a:	d105      	bne.n	8005a48 <HAL_TIM_ConfigClockSource+0x7a>
      TIM_ITRx_SetConfig(htim->Instance, sClockSourceConfig->ClockSource);
 8005a3c:	4619      	mov	r1, r3
 8005a3e:	6820      	ldr	r0, [r4, #0]
 8005a40:	f7ff ff0f 	bl	8005862 <TIM_ITRx_SetConfig>
  HAL_StatusTypeDef status = HAL_OK;
 8005a44:	2000      	movs	r0, #0
      break;
 8005a46:	e7ef      	b.n	8005a28 <HAL_TIM_ConfigClockSource+0x5a>
      status = HAL_ERROR;
 8005a48:	2001      	movs	r0, #1
 8005a4a:	e7ed      	b.n	8005a28 <HAL_TIM_ConfigClockSource+0x5a>
 8005a4c:	2001      	movs	r0, #1
 8005a4e:	e7eb      	b.n	8005a28 <HAL_TIM_ConfigClockSource+0x5a>
  switch (sClockSourceConfig->ClockSource)
 8005a50:	f5b3 5f80 	cmp.w	r3, #4096	; 0x1000
 8005a54:	d034      	beq.n	8005ac0 <HAL_TIM_ConfigClockSource+0xf2>
 8005a56:	f5b3 5f00 	cmp.w	r3, #8192	; 0x2000
 8005a5a:	d10c      	bne.n	8005a76 <HAL_TIM_ConfigClockSource+0xa8>
      TIM_ETR_SetConfig(htim->Instance,
 8005a5c:	68cb      	ldr	r3, [r1, #12]
 8005a5e:	684a      	ldr	r2, [r1, #4]
 8005a60:	6889      	ldr	r1, [r1, #8]
 8005a62:	6800      	ldr	r0, [r0, #0]
 8005a64:	f7ff ffa8 	bl	80059b8 <TIM_ETR_SetConfig>
      htim->Instance->SMCR |= TIM_SMCR_ECE;
 8005a68:	6822      	ldr	r2, [r4, #0]
 8005a6a:	6893      	ldr	r3, [r2, #8]
 8005a6c:	f443 4380 	orr.w	r3, r3, #16384	; 0x4000
 8005a70:	6093      	str	r3, [r2, #8]
  HAL_StatusTypeDef status = HAL_OK;
 8005a72:	2000      	movs	r0, #0
      break;
 8005a74:	e7d8      	b.n	8005a28 <HAL_TIM_ConfigClockSource+0x5a>
  switch (sClockSourceConfig->ClockSource)
 8005a76:	2b70      	cmp	r3, #112	; 0x70
 8005a78:	d124      	bne.n	8005ac4 <HAL_TIM_ConfigClockSource+0xf6>
      TIM_ETR_SetConfig(htim->Instance,
 8005a7a:	68cb      	ldr	r3, [r1, #12]
 8005a7c:	684a      	ldr	r2, [r1, #4]
 8005a7e:	6889      	ldr	r1, [r1, #8]
 8005a80:	6800      	ldr	r0, [r0, #0]
 8005a82:	f7ff ff99 	bl	80059b8 <TIM_ETR_SetConfig>
      tmpsmcr = htim->Instance->SMCR;
 8005a86:	6822      	ldr	r2, [r4, #0]
 8005a88:	6893      	ldr	r3, [r2, #8]
      tmpsmcr |= (TIM_SLAVEMODE_EXTERNAL1 | TIM_CLOCKSOURCE_ETRMODE1);
 8005a8a:	f043 0377 	orr.w	r3, r3, #119	; 0x77
      htim->Instance->SMCR = tmpsmcr;
 8005a8e:	6093      	str	r3, [r2, #8]
  HAL_StatusTypeDef status = HAL_OK;
 8005a90:	2000      	movs	r0, #0
      break;
 8005a92:	e7c9      	b.n	8005a28 <HAL_TIM_ConfigClockSource+0x5a>
      TIM_TI2_ConfigInputStage(htim->Instance,
 8005a94:	68ca      	ldr	r2, [r1, #12]
 8005a96:	6849      	ldr	r1, [r1, #4]
 8005a98:	6800      	ldr	r0, [r0, #0]
 8005a9a:	f7ff fecf 	bl	800583c <TIM_TI2_ConfigInputStage>
      TIM_ITRx_SetConfig(htim->Instance, TIM_CLOCKSOURCE_TI2);
 8005a9e:	2160      	movs	r1, #96	; 0x60
 8005aa0:	6820      	ldr	r0, [r4, #0]
 8005aa2:	f7ff fede 	bl	8005862 <TIM_ITRx_SetConfig>
  HAL_StatusTypeDef status = HAL_OK;
 8005aa6:	2000      	movs	r0, #0
      break;
 8005aa8:	e7be      	b.n	8005a28 <HAL_TIM_ConfigClockSource+0x5a>
      TIM_TI1_ConfigInputStage(htim->Instance,
 8005aaa:	68ca      	ldr	r2, [r1, #12]
 8005aac:	6849      	ldr	r1, [r1, #4]
 8005aae:	6800      	ldr	r0, [r0, #0]
 8005ab0:	f7ff feb2 	bl	8005818 <TIM_TI1_ConfigInputStage>
      TIM_ITRx_SetConfig(htim->Instance, TIM_CLOCKSOURCE_TI1ED);
 8005ab4:	2140      	movs	r1, #64	; 0x40
 8005ab6:	6820      	ldr	r0, [r4, #0]
 8005ab8:	f7ff fed3 	bl	8005862 <TIM_ITRx_SetConfig>
  HAL_StatusTypeDef status = HAL_OK;
 8005abc:	2000      	movs	r0, #0
      break;
 8005abe:	e7b3      	b.n	8005a28 <HAL_TIM_ConfigClockSource+0x5a>
  switch (sClockSourceConfig->ClockSource)
 8005ac0:	2000      	movs	r0, #0
 8005ac2:	e7b1      	b.n	8005a28 <HAL_TIM_ConfigClockSource+0x5a>
      status = HAL_ERROR;
 8005ac4:	2001      	movs	r0, #1
 8005ac6:	e7af      	b.n	8005a28 <HAL_TIM_ConfigClockSource+0x5a>
  __HAL_LOCK(htim);
 8005ac8:	2002      	movs	r0, #2
}
 8005aca:	4770      	bx	lr

08005acc <HAL_TIMEx_MasterConfigSynchronization>:
  assert_param(IS_TIM_MASTER_INSTANCE(htim->Instance));
  assert_param(IS_TIM_TRGO_SOURCE(sMasterConfig->MasterOutputTrigger));
  assert_param(IS_TIM_MSM_STATE(sMasterConfig->MasterSlaveMode));

  /* Check input state */
  __HAL_LOCK(htim);
 8005acc:	f890 303c 	ldrb.w	r3, [r0, #60]	; 0x3c
 8005ad0:	2b01      	cmp	r3, #1
 8005ad2:	d02b      	beq.n	8005b2c <HAL_TIMEx_MasterConfigSynchronization+0x60>
{
 8005ad4:	b430      	push	{r4, r5}
  __HAL_LOCK(htim);
 8005ad6:	2301      	movs	r3, #1
 8005ad8:	f880 303c 	strb.w	r3, [r0, #60]	; 0x3c

  /* Change the handler state */
  htim->State = HAL_TIM_STATE_BUSY;
 8005adc:	2302      	movs	r3, #2
 8005ade:	f880 303d 	strb.w	r3, [r0, #61]	; 0x3d

  /* Get the TIMx CR2 register value */
  tmpcr2 = htim->Instance->CR2;
 8005ae2:	6803      	ldr	r3, [r0, #0]
 8005ae4:	685c      	ldr	r4, [r3, #4]

  /* Get the TIMx SMCR register value */
  tmpsmcr = htim->Instance->SMCR;
 8005ae6:	689d      	ldr	r5, [r3, #8]

  /* Reset the MMS Bits */
  tmpcr2 &= ~TIM_CR2_MMS;
 8005ae8:	f024 0470 	bic.w	r4, r4, #112	; 0x70
  /* Select the TRGO source */
  tmpcr2 |=  sMasterConfig->MasterOutputTrigger;
 8005aec:	680a      	ldr	r2, [r1, #0]
 8005aee:	4322      	orrs	r2, r4

  /* Update TIMx CR2 */
  htim->Instance->CR2 = tmpcr2;
 8005af0:	605a      	str	r2, [r3, #4]

  if (IS_TIM_SLAVE_INSTANCE(htim->Instance))
 8005af2:	6803      	ldr	r3, [r0, #0]
 8005af4:	4a0e      	ldr	r2, [pc, #56]	; (8005b30 <HAL_TIMEx_MasterConfigSynchronization+0x64>)
 8005af6:	4293      	cmp	r3, r2
 8005af8:	d00a      	beq.n	8005b10 <HAL_TIMEx_MasterConfigSynchronization+0x44>
 8005afa:	f1b3 4f80 	cmp.w	r3, #1073741824	; 0x40000000
 8005afe:	d007      	beq.n	8005b10 <HAL_TIMEx_MasterConfigSynchronization+0x44>
 8005b00:	f5a2 3294 	sub.w	r2, r2, #75776	; 0x12800
 8005b04:	4293      	cmp	r3, r2
 8005b06:	d003      	beq.n	8005b10 <HAL_TIMEx_MasterConfigSynchronization+0x44>
 8005b08:	f502 6280 	add.w	r2, r2, #1024	; 0x400
 8005b0c:	4293      	cmp	r3, r2
 8005b0e:	d104      	bne.n	8005b1a <HAL_TIMEx_MasterConfigSynchronization+0x4e>
  {
    /* Reset the MSM Bit */
    tmpsmcr &= ~TIM_SMCR_MSM;
 8005b10:	f025 0580 	bic.w	r5, r5, #128	; 0x80
    /* Set master mode */
    tmpsmcr |= sMasterConfig->MasterSlaveMode;
 8005b14:	684a      	ldr	r2, [r1, #4]
 8005b16:	4315      	orrs	r5, r2

    /* Update TIMx SMCR */
    htim->Instance->SMCR = tmpsmcr;
 8005b18:	609d      	str	r5, [r3, #8]
  }

  /* Change the htim state */
  htim->State = HAL_TIM_STATE_READY;
 8005b1a:	2301      	movs	r3, #1
 8005b1c:	f880 303d 	strb.w	r3, [r0, #61]	; 0x3d

  __HAL_UNLOCK(htim);
 8005b20:	2300      	movs	r3, #0
 8005b22:	f880 303c 	strb.w	r3, [r0, #60]	; 0x3c

  return HAL_OK;
 8005b26:	4618      	mov	r0, r3
}
 8005b28:	bc30      	pop	{r4, r5}
 8005b2a:	4770      	bx	lr
  __HAL_LOCK(htim);
 8005b2c:	2002      	movs	r0, #2
}
 8005b2e:	4770      	bx	lr
 8005b30:	40012c00 	.word	0x40012c00

08005b34 <UART_EndRxTransfer>:
  * @retval None
  */
static void UART_EndRxTransfer(UART_HandleTypeDef *huart)
{
  /* Disable RXNE, PE and ERR (Frame error, noise error, overrun error) interrupts */
  ATOMIC_CLEAR_BIT(huart->Instance->CR1, (USART_CR1_RXNEIE | USART_CR1_PEIE));
 8005b34:	6802      	ldr	r2, [r0, #0]
 */
__STATIC_FORCEINLINE uint32_t __LDREXW(volatile uint32_t *addr)
{
    uint32_t result;

   __ASM volatile ("ldrex %0, %1" : "=r" (result) : "Q" (*addr) );
 8005b36:	f102 030c 	add.w	r3, r2, #12
 8005b3a:	e853 3f00 	ldrex	r3, [r3]
 8005b3e:	f423 7390 	bic.w	r3, r3, #288	; 0x120
 */
__STATIC_FORCEINLINE uint32_t __STREXW(uint32_t value, volatile uint32_t *addr)
{
   uint32_t result;

   __ASM volatile ("strex %0, %2, %1" : "=&r" (result), "=Q" (*addr) : "r" (value) );
 8005b42:	320c      	adds	r2, #12
 8005b44:	e842 3100 	strex	r1, r3, [r2]
 8005b48:	2900      	cmp	r1, #0
 8005b4a:	d1f3      	bne.n	8005b34 <UART_EndRxTransfer>
  ATOMIC_CLEAR_BIT(huart->Instance->CR3, USART_CR3_EIE);
 8005b4c:	6802      	ldr	r2, [r0, #0]
   __ASM volatile ("ldrex %0, %1" : "=r" (result) : "Q" (*addr) );
 8005b4e:	f102 0314 	add.w	r3, r2, #20
 8005b52:	e853 3f00 	ldrex	r3, [r3]
 8005b56:	f023 0301 	bic.w	r3, r3, #1
   __ASM volatile ("strex %0, %2, %1" : "=&r" (result), "=Q" (*addr) : "r" (value) );
 8005b5a:	3214      	adds	r2, #20
 8005b5c:	e842 3100 	strex	r1, r3, [r2]
 8005b60:	2900      	cmp	r1, #0
 8005b62:	d1f3      	bne.n	8005b4c <UART_EndRxTransfer+0x18>

  /* In case of reception waiting for IDLE event, disable also the IDLE IE interrupt source */
  if (huart->ReceptionType == HAL_UART_RECEPTION_TOIDLE)
 8005b64:	6b03      	ldr	r3, [r0, #48]	; 0x30
 8005b66:	2b01      	cmp	r3, #1
 8005b68:	d005      	beq.n	8005b76 <UART_EndRxTransfer+0x42>
  {
    ATOMIC_CLEAR_BIT(huart->Instance->CR1, USART_CR1_IDLEIE);
  }

  /* At end of Rx process, restore huart->RxState to Ready */
  huart->RxState = HAL_UART_STATE_READY;
 8005b6a:	2320      	movs	r3, #32
 8005b6c:	f880 3042 	strb.w	r3, [r0, #66]	; 0x42
  huart->ReceptionType = HAL_UART_RECEPTION_STANDARD;
 8005b70:	2300      	movs	r3, #0
 8005b72:	6303      	str	r3, [r0, #48]	; 0x30
}
 8005b74:	4770      	bx	lr
    ATOMIC_CLEAR_BIT(huart->Instance->CR1, USART_CR1_IDLEIE);
 8005b76:	6802      	ldr	r2, [r0, #0]
   __ASM volatile ("ldrex %0, %1" : "=r" (result) : "Q" (*addr) );
 8005b78:	f102 030c 	add.w	r3, r2, #12
 8005b7c:	e853 3f00 	ldrex	r3, [r3]
 8005b80:	f023 0310 	bic.w	r3, r3, #16
   __ASM volatile ("strex %0, %2, %1" : "=&r" (result), "=Q" (*addr) : "r" (value) );
 8005b84:	320c      	adds	r2, #12
 8005b86:	e842 3100 	strex	r1, r3, [r2]
 8005b8a:	2900      	cmp	r1, #0
 8005b8c:	d1f3      	bne.n	8005b76 <UART_EndRxTransfer+0x42>
 8005b8e:	e7ec      	b.n	8005b6a <UART_EndRxTransfer+0x36>

08005b90 <UART_Transmit_IT>:
static HAL_StatusTypeDef UART_Transmit_IT(UART_HandleTypeDef *huart)
{
  const uint16_t *tmp;

  /* Check that a Tx process is ongoing */
  if (huart->gState == HAL_UART_STATE_BUSY_TX)
 8005b90:	f890 3041 	ldrb.w	r3, [r0, #65]	; 0x41
 8005b94:	b2db      	uxtb	r3, r3
 8005b96:	2b21      	cmp	r3, #33	; 0x21
 8005b98:	d001      	beq.n	8005b9e <UART_Transmit_IT+0xe>
    }
    return HAL_OK;
  }
  else
  {
    return HAL_BUSY;
 8005b9a:	2002      	movs	r0, #2
  }
}
 8005b9c:	4770      	bx	lr
    if ((huart->Init.WordLength == UART_WORDLENGTH_9B) && (huart->Init.Parity == UART_PARITY_NONE))
 8005b9e:	6883      	ldr	r3, [r0, #8]
 8005ba0:	f5b3 5f80 	cmp.w	r3, #4096	; 0x1000
 8005ba4:	d017      	beq.n	8005bd6 <UART_Transmit_IT+0x46>
      huart->Instance->DR = (uint8_t)(*huart->pTxBuffPtr++ & (uint8_t)0x00FF);
 8005ba6:	6a03      	ldr	r3, [r0, #32]
 8005ba8:	1c5a      	adds	r2, r3, #1
 8005baa:	6202      	str	r2, [r0, #32]
 8005bac:	781a      	ldrb	r2, [r3, #0]
 8005bae:	6803      	ldr	r3, [r0, #0]
 8005bb0:	605a      	str	r2, [r3, #4]
    if (--huart->TxXferCount == 0U)
 8005bb2:	8cc3      	ldrh	r3, [r0, #38]	; 0x26
 8005bb4:	b29b      	uxth	r3, r3
 8005bb6:	3b01      	subs	r3, #1
 8005bb8:	b29b      	uxth	r3, r3
 8005bba:	84c3      	strh	r3, [r0, #38]	; 0x26
 8005bbc:	b94b      	cbnz	r3, 8005bd2 <UART_Transmit_IT+0x42>
      __HAL_UART_DISABLE_IT(huart, UART_IT_TXE);
 8005bbe:	6802      	ldr	r2, [r0, #0]
 8005bc0:	68d3      	ldr	r3, [r2, #12]
 8005bc2:	f023 0380 	bic.w	r3, r3, #128	; 0x80
 8005bc6:	60d3      	str	r3, [r2, #12]
      __HAL_UART_ENABLE_IT(huart, UART_IT_TC);
 8005bc8:	6802      	ldr	r2, [r0, #0]
 8005bca:	68d3      	ldr	r3, [r2, #12]
 8005bcc:	f043 0340 	orr.w	r3, r3, #64	; 0x40
 8005bd0:	60d3      	str	r3, [r2, #12]
    return HAL_OK;
 8005bd2:	2000      	movs	r0, #0
 8005bd4:	4770      	bx	lr
    if ((huart->Init.WordLength == UART_WORDLENGTH_9B) && (huart->Init.Parity == UART_PARITY_NONE))
 8005bd6:	6903      	ldr	r3, [r0, #16]
 8005bd8:	2b00      	cmp	r3, #0
 8005bda:	d1e4      	bne.n	8005ba6 <UART_Transmit_IT+0x16>
      tmp = (const uint16_t *) huart->pTxBuffPtr;
 8005bdc:	6a03      	ldr	r3, [r0, #32]
      huart->Instance->DR = (uint16_t)(*tmp & (uint16_t)0x01FF);
 8005bde:	881b      	ldrh	r3, [r3, #0]
 8005be0:	6802      	ldr	r2, [r0, #0]
 8005be2:	f3c3 0308 	ubfx	r3, r3, #0, #9
 8005be6:	6053      	str	r3, [r2, #4]
      huart->pTxBuffPtr += 2U;
 8005be8:	6a03      	ldr	r3, [r0, #32]
 8005bea:	3302      	adds	r3, #2
 8005bec:	6203      	str	r3, [r0, #32]
 8005bee:	e7e0      	b.n	8005bb2 <UART_Transmit_IT+0x22>

08005bf0 <UART_SetConfig>:
  * @param  huart  Pointer to a UART_HandleTypeDef structure that contains
  *                the configuration information for the specified UART module.
  * @retval None
  */
static void UART_SetConfig(UART_HandleTypeDef *huart)
{
 8005bf0:	b510      	push	{r4, lr}
 8005bf2:	4604      	mov	r4, r0
  assert_param(IS_UART_MODE(huart->Init.Mode));

  /*-------------------------- USART CR2 Configuration -----------------------*/
  /* Configure the UART Stop Bits: Set STOP[13:12] bits
     according to huart->Init.StopBits value */
  MODIFY_REG(huart->Instance->CR2, USART_CR2_STOP, huart->Init.StopBits);
 8005bf4:	6802      	ldr	r2, [r0, #0]
 8005bf6:	6913      	ldr	r3, [r2, #16]
 8005bf8:	f423 5340 	bic.w	r3, r3, #12288	; 0x3000
 8005bfc:	68c1      	ldr	r1, [r0, #12]
 8005bfe:	430b      	orrs	r3, r1
 8005c00:	6113      	str	r3, [r2, #16]
  tmpreg = (uint32_t)huart->Init.WordLength | huart->Init.Parity | huart->Init.Mode | huart->Init.OverSampling;
  MODIFY_REG(huart->Instance->CR1,
             (uint32_t)(USART_CR1_M | USART_CR1_PCE | USART_CR1_PS | USART_CR1_TE | USART_CR1_RE | USART_CR1_OVER8),
             tmpreg);
#else
  tmpreg = (uint32_t)huart->Init.WordLength | huart->Init.Parity | huart->Init.Mode;
 8005c02:	6883      	ldr	r3, [r0, #8]
 8005c04:	6902      	ldr	r2, [r0, #16]
 8005c06:	4313      	orrs	r3, r2
 8005c08:	6942      	ldr	r2, [r0, #20]
 8005c0a:	431a      	orrs	r2, r3
  MODIFY_REG(huart->Instance->CR1,
 8005c0c:	6801      	ldr	r1, [r0, #0]
 8005c0e:	68cb      	ldr	r3, [r1, #12]
 8005c10:	f423 53b0 	bic.w	r3, r3, #5632	; 0x1600
 8005c14:	f023 030c 	bic.w	r3, r3, #12
 8005c18:	4313      	orrs	r3, r2
 8005c1a:	60cb      	str	r3, [r1, #12]
             tmpreg);
#endif /* USART_CR1_OVER8 */

  /*-------------------------- USART CR3 Configuration -----------------------*/
  /* Configure the UART HFC: Set CTSE and RTSE bits according to huart->Init.HwFlowCtl value */
  MODIFY_REG(huart->Instance->CR3, (USART_CR3_RTSE | USART_CR3_CTSE), huart->Init.HwFlowCtl);
 8005c1c:	6802      	ldr	r2, [r0, #0]
 8005c1e:	6953      	ldr	r3, [r2, #20]
 8005c20:	f423 7340 	bic.w	r3, r3, #768	; 0x300
 8005c24:	6981      	ldr	r1, [r0, #24]
 8005c26:	430b      	orrs	r3, r1
 8005c28:	6153      	str	r3, [r2, #20]


  if(huart->Instance == USART1)
 8005c2a:	6802      	ldr	r2, [r0, #0]
 8005c2c:	4b12      	ldr	r3, [pc, #72]	; (8005c78 <UART_SetConfig+0x88>)
 8005c2e:	429a      	cmp	r2, r3
 8005c30:	d01f      	beq.n	8005c72 <UART_SetConfig+0x82>
  {
    pclk = HAL_RCC_GetPCLK2Freq();
  }
  else
  {
    pclk = HAL_RCC_GetPCLK1Freq();
 8005c32:	f7ff fd47 	bl	80056c4 <HAL_RCC_GetPCLK1Freq>
  else
  {
    huart->Instance->BRR = UART_BRR_SAMPLING16(pclk, huart->Init.BaudRate);
  }
#else
  huart->Instance->BRR = UART_BRR_SAMPLING16(pclk, huart->Init.BaudRate);
 8005c36:	eb00 0380 	add.w	r3, r0, r0, lsl #2
 8005c3a:	eb03 0383 	add.w	r3, r3, r3, lsl #2
 8005c3e:	6862      	ldr	r2, [r4, #4]
 8005c40:	0092      	lsls	r2, r2, #2
 8005c42:	fbb3 f2f2 	udiv	r2, r3, r2
 8005c46:	480d      	ldr	r0, [pc, #52]	; (8005c7c <UART_SetConfig+0x8c>)
 8005c48:	fba0 3102 	umull	r3, r1, r0, r2
 8005c4c:	0949      	lsrs	r1, r1, #5
 8005c4e:	2364      	movs	r3, #100	; 0x64
 8005c50:	fb03 2311 	mls	r3, r3, r1, r2
 8005c54:	011b      	lsls	r3, r3, #4
 8005c56:	3332      	adds	r3, #50	; 0x32
 8005c58:	fba0 2303 	umull	r2, r3, r0, r3
 8005c5c:	095b      	lsrs	r3, r3, #5
 8005c5e:	f003 02f0 	and.w	r2, r3, #240	; 0xf0
 8005c62:	eb02 1201 	add.w	r2, r2, r1, lsl #4
 8005c66:	f003 030f 	and.w	r3, r3, #15
 8005c6a:	6821      	ldr	r1, [r4, #0]
 8005c6c:	4413      	add	r3, r2
 8005c6e:	608b      	str	r3, [r1, #8]
#endif /* USART_CR1_OVER8 */
}
 8005c70:	bd10      	pop	{r4, pc}
    pclk = HAL_RCC_GetPCLK2Freq();
 8005c72:	f7ff fd37 	bl	80056e4 <HAL_RCC_GetPCLK2Freq>
 8005c76:	e7de      	b.n	8005c36 <UART_SetConfig+0x46>
 8005c78:	40013800 	.word	0x40013800
 8005c7c:	51eb851f 	.word	0x51eb851f

08005c80 <UART_WaitOnFlagUntilTimeout>:
{
 8005c80:	e92d 43f0 	stmdb	sp!, {r4, r5, r6, r7, r8, r9, lr}
 8005c84:	b083      	sub	sp, #12
 8005c86:	4605      	mov	r5, r0
 8005c88:	460e      	mov	r6, r1
 8005c8a:	4617      	mov	r7, r2
 8005c8c:	4699      	mov	r9, r3
 8005c8e:	f8dd 8028 	ldr.w	r8, [sp, #40]	; 0x28
  while ((__HAL_UART_GET_FLAG(huart, Flag) ? SET : RESET) == Status)
 8005c92:	682c      	ldr	r4, [r5, #0]
 8005c94:	6824      	ldr	r4, [r4, #0]
 8005c96:	ea36 0304 	bics.w	r3, r6, r4
 8005c9a:	bf0c      	ite	eq
 8005c9c:	2401      	moveq	r4, #1
 8005c9e:	2400      	movne	r4, #0
 8005ca0:	42bc      	cmp	r4, r7
 8005ca2:	d128      	bne.n	8005cf6 <UART_WaitOnFlagUntilTimeout+0x76>
    if (Timeout != HAL_MAX_DELAY)
 8005ca4:	f1b8 3fff 	cmp.w	r8, #4294967295
 8005ca8:	d0f3      	beq.n	8005c92 <UART_WaitOnFlagUntilTimeout+0x12>
      if (((HAL_GetTick() - Tickstart) > Timeout) || (Timeout == 0U))
 8005caa:	f7fd faef 	bl	800328c <HAL_GetTick>
 8005cae:	eba0 0009 	sub.w	r0, r0, r9
 8005cb2:	4540      	cmp	r0, r8
 8005cb4:	d823      	bhi.n	8005cfe <UART_WaitOnFlagUntilTimeout+0x7e>
 8005cb6:	f1b8 0f00 	cmp.w	r8, #0
 8005cba:	d022      	beq.n	8005d02 <UART_WaitOnFlagUntilTimeout+0x82>
      if ((READ_BIT(huart->Instance->CR1, USART_CR1_RE) != 0U) && (Flag != UART_FLAG_TXE) && (Flag != UART_FLAG_TC))
 8005cbc:	682b      	ldr	r3, [r5, #0]
 8005cbe:	68da      	ldr	r2, [r3, #12]
 8005cc0:	f012 0f04 	tst.w	r2, #4
 8005cc4:	d0e5      	beq.n	8005c92 <UART_WaitOnFlagUntilTimeout+0x12>
 8005cc6:	2e80      	cmp	r6, #128	; 0x80
 8005cc8:	d0e3      	beq.n	8005c92 <UART_WaitOnFlagUntilTimeout+0x12>
 8005cca:	2e40      	cmp	r6, #64	; 0x40
 8005ccc:	d0e1      	beq.n	8005c92 <UART_WaitOnFlagUntilTimeout+0x12>
        if (__HAL_UART_GET_FLAG(huart, UART_FLAG_ORE) == SET)
 8005cce:	681a      	ldr	r2, [r3, #0]
 8005cd0:	f012 0f08 	tst.w	r2, #8
 8005cd4:	d0dd      	beq.n	8005c92 <UART_WaitOnFlagUntilTimeout+0x12>
          __HAL_UART_CLEAR_OREFLAG(huart);
 8005cd6:	2400      	movs	r4, #0
 8005cd8:	9401      	str	r4, [sp, #4]
 8005cda:	681a      	ldr	r2, [r3, #0]
 8005cdc:	9201      	str	r2, [sp, #4]
 8005cde:	685b      	ldr	r3, [r3, #4]
 8005ce0:	9301      	str	r3, [sp, #4]
 8005ce2:	9b01      	ldr	r3, [sp, #4]
          UART_EndRxTransfer(huart);
 8005ce4:	4628      	mov	r0, r5
 8005ce6:	f7ff ff25 	bl	8005b34 <UART_EndRxTransfer>
          huart->ErrorCode = HAL_UART_ERROR_ORE;
 8005cea:	2308      	movs	r3, #8
 8005cec:	646b      	str	r3, [r5, #68]	; 0x44
          __HAL_UNLOCK(huart);
 8005cee:	f885 4040 	strb.w	r4, [r5, #64]	; 0x40
          return HAL_ERROR;
 8005cf2:	2001      	movs	r0, #1
 8005cf4:	e000      	b.n	8005cf8 <UART_WaitOnFlagUntilTimeout+0x78>
  return HAL_OK;
 8005cf6:	2000      	movs	r0, #0
}
 8005cf8:	b003      	add	sp, #12
 8005cfa:	e8bd 83f0 	ldmia.w	sp!, {r4, r5, r6, r7, r8, r9, pc}
        return HAL_TIMEOUT;
 8005cfe:	2003      	movs	r0, #3
 8005d00:	e7fa      	b.n	8005cf8 <UART_WaitOnFlagUntilTimeout+0x78>
 8005d02:	2003      	movs	r0, #3
 8005d04:	e7f8      	b.n	8005cf8 <UART_WaitOnFlagUntilTimeout+0x78>

08005d06 <HAL_UART_Init>:
  if (huart == NULL)
 8005d06:	b360      	cbz	r0, 8005d62 <HAL_UART_Init+0x5c>
{
 8005d08:	b510      	push	{r4, lr}
 8005d0a:	4604      	mov	r4, r0
  if (huart->gState == HAL_UART_STATE_RESET)
 8005d0c:	f890 3041 	ldrb.w	r3, [r0, #65]	; 0x41
 8005d10:	b313      	cbz	r3, 8005d58 <HAL_UART_Init+0x52>
  huart->gState = HAL_UART_STATE_BUSY;
 8005d12:	2324      	movs	r3, #36	; 0x24
 8005d14:	f884 3041 	strb.w	r3, [r4, #65]	; 0x41
  __HAL_UART_DISABLE(huart);
 8005d18:	6822      	ldr	r2, [r4, #0]
 8005d1a:	68d3      	ldr	r3, [r2, #12]
 8005d1c:	f423 5300 	bic.w	r3, r3, #8192	; 0x2000
 8005d20:	60d3      	str	r3, [r2, #12]
  UART_SetConfig(huart);
 8005d22:	4620      	mov	r0, r4
 8005d24:	f7ff ff64 	bl	8005bf0 <UART_SetConfig>
  CLEAR_BIT(huart->Instance->CR2, (USART_CR2_LINEN | USART_CR2_CLKEN));
 8005d28:	6822      	ldr	r2, [r4, #0]
 8005d2a:	6913      	ldr	r3, [r2, #16]
 8005d2c:	f423 4390 	bic.w	r3, r3, #18432	; 0x4800
 8005d30:	6113      	str	r3, [r2, #16]
  CLEAR_BIT(huart->Instance->CR3, (USART_CR3_SCEN | USART_CR3_HDSEL | USART_CR3_IREN));
 8005d32:	6822      	ldr	r2, [r4, #0]
 8005d34:	6953      	ldr	r3, [r2, #20]
 8005d36:	f023 032a 	bic.w	r3, r3, #42	; 0x2a
 8005d3a:	6153      	str	r3, [r2, #20]
  __HAL_UART_ENABLE(huart);
 8005d3c:	6822      	ldr	r2, [r4, #0]
 8005d3e:	68d3      	ldr	r3, [r2, #12]
 8005d40:	f443 5300 	orr.w	r3, r3, #8192	; 0x2000
 8005d44:	60d3      	str	r3, [r2, #12]
  huart->ErrorCode = HAL_UART_ERROR_NONE;
 8005d46:	2000      	movs	r0, #0
 8005d48:	6460      	str	r0, [r4, #68]	; 0x44
  huart->gState = HAL_UART_STATE_READY;
 8005d4a:	2320      	movs	r3, #32
 8005d4c:	f884 3041 	strb.w	r3, [r4, #65]	; 0x41
  huart->RxState = HAL_UART_STATE_READY;
 8005d50:	f884 3042 	strb.w	r3, [r4, #66]	; 0x42
  huart->RxEventType = HAL_UART_RXEVENT_TC;
 8005d54:	6360      	str	r0, [r4, #52]	; 0x34
}
 8005d56:	bd10      	pop	{r4, pc}
    huart->Lock = HAL_UNLOCKED;
 8005d58:	f880 3040 	strb.w	r3, [r0, #64]	; 0x40
    HAL_UART_MspInit(huart);
 8005d5c:	f7fc fc1c 	bl	8002598 <HAL_UART_MspInit>
 8005d60:	e7d7      	b.n	8005d12 <HAL_UART_Init+0xc>
    return HAL_ERROR;
 8005d62:	2001      	movs	r0, #1
}
 8005d64:	4770      	bx	lr

08005d66 <HAL_UART_Transmit>:
{
 8005d66:	e92d 41f0 	stmdb	sp!, {r4, r5, r6, r7, r8, lr}
 8005d6a:	b082      	sub	sp, #8
 8005d6c:	461e      	mov	r6, r3
  if (huart->gState == HAL_UART_STATE_READY)
 8005d6e:	f890 3041 	ldrb.w	r3, [r0, #65]	; 0x41
 8005d72:	b2db      	uxtb	r3, r3
 8005d74:	2b20      	cmp	r3, #32
 8005d76:	d156      	bne.n	8005e26 <HAL_UART_Transmit+0xc0>
 8005d78:	4604      	mov	r4, r0
 8005d7a:	460d      	mov	r5, r1
 8005d7c:	4690      	mov	r8, r2
    if ((pData == NULL) || (Size == 0U))
 8005d7e:	2900      	cmp	r1, #0
 8005d80:	d055      	beq.n	8005e2e <HAL_UART_Transmit+0xc8>
 8005d82:	b90a      	cbnz	r2, 8005d88 <HAL_UART_Transmit+0x22>
      return  HAL_ERROR;
 8005d84:	2001      	movs	r0, #1
 8005d86:	e04f      	b.n	8005e28 <HAL_UART_Transmit+0xc2>
    huart->ErrorCode = HAL_UART_ERROR_NONE;
 8005d88:	2300      	movs	r3, #0
 8005d8a:	6443      	str	r3, [r0, #68]	; 0x44
    huart->gState = HAL_UART_STATE_BUSY_TX;
 8005d8c:	2321      	movs	r3, #33	; 0x21
 8005d8e:	f880 3041 	strb.w	r3, [r0, #65]	; 0x41
    tickstart = HAL_GetTick();
 8005d92:	f7fd fa7b 	bl	800328c <HAL_GetTick>
 8005d96:	4607      	mov	r7, r0
    huart->TxXferSize = Size;
 8005d98:	f8a4 8024 	strh.w	r8, [r4, #36]	; 0x24
    huart->TxXferCount = Size;
 8005d9c:	f8a4 8026 	strh.w	r8, [r4, #38]	; 0x26
    if ((huart->Init.WordLength == UART_WORDLENGTH_9B) && (huart->Init.Parity == UART_PARITY_NONE))
 8005da0:	68a3      	ldr	r3, [r4, #8]
 8005da2:	f5b3 5f80 	cmp.w	r3, #4096	; 0x1000
 8005da6:	d002      	beq.n	8005dae <HAL_UART_Transmit+0x48>
      pdata16bits = NULL;
 8005da8:	f04f 0800 	mov.w	r8, #0
 8005dac:	e014      	b.n	8005dd8 <HAL_UART_Transmit+0x72>
    if ((huart->Init.WordLength == UART_WORDLENGTH_9B) && (huart->Init.Parity == UART_PARITY_NONE))
 8005dae:	6923      	ldr	r3, [r4, #16]
 8005db0:	b32b      	cbz	r3, 8005dfe <HAL_UART_Transmit+0x98>
      pdata16bits = NULL;
 8005db2:	f04f 0800 	mov.w	r8, #0
 8005db6:	e00f      	b.n	8005dd8 <HAL_UART_Transmit+0x72>
        huart->gState = HAL_UART_STATE_READY;
 8005db8:	2320      	movs	r3, #32
 8005dba:	f884 3041 	strb.w	r3, [r4, #65]	; 0x41
        return HAL_TIMEOUT;
 8005dbe:	2003      	movs	r0, #3
 8005dc0:	e032      	b.n	8005e28 <HAL_UART_Transmit+0xc2>
        huart->Instance->DR = (uint16_t)(*pdata16bits & 0x01FFU);
 8005dc2:	f838 3b02 	ldrh.w	r3, [r8], #2
 8005dc6:	6822      	ldr	r2, [r4, #0]
 8005dc8:	f3c3 0308 	ubfx	r3, r3, #0, #9
 8005dcc:	6053      	str	r3, [r2, #4]
      huart->TxXferCount--;
 8005dce:	8ce2      	ldrh	r2, [r4, #38]	; 0x26
 8005dd0:	b292      	uxth	r2, r2
 8005dd2:	3a01      	subs	r2, #1
 8005dd4:	b292      	uxth	r2, r2
 8005dd6:	84e2      	strh	r2, [r4, #38]	; 0x26
    while (huart->TxXferCount > 0U)
 8005dd8:	8ce3      	ldrh	r3, [r4, #38]	; 0x26
 8005dda:	b29b      	uxth	r3, r3
 8005ddc:	b193      	cbz	r3, 8005e04 <HAL_UART_Transmit+0x9e>
      if (UART_WaitOnFlagUntilTimeout(huart, UART_FLAG_TXE, RESET, tickstart, Timeout) != HAL_OK)
 8005dde:	9600      	str	r6, [sp, #0]
 8005de0:	463b      	mov	r3, r7
 8005de2:	2200      	movs	r2, #0
 8005de4:	2180      	movs	r1, #128	; 0x80
 8005de6:	4620      	mov	r0, r4
 8005de8:	f7ff ff4a 	bl	8005c80 <UART_WaitOnFlagUntilTimeout>
 8005dec:	2800      	cmp	r0, #0
 8005dee:	d1e3      	bne.n	8005db8 <HAL_UART_Transmit+0x52>
      if (pdata8bits == NULL)
 8005df0:	2d00      	cmp	r5, #0
 8005df2:	d0e6      	beq.n	8005dc2 <HAL_UART_Transmit+0x5c>
        huart->Instance->DR = (uint8_t)(*pdata8bits & 0xFFU);
 8005df4:	f815 2b01 	ldrb.w	r2, [r5], #1
 8005df8:	6823      	ldr	r3, [r4, #0]
 8005dfa:	605a      	str	r2, [r3, #4]
        pdata8bits++;
 8005dfc:	e7e7      	b.n	8005dce <HAL_UART_Transmit+0x68>
      pdata16bits = (const uint16_t *) pData;
 8005dfe:	46a8      	mov	r8, r5
      pdata8bits  = NULL;
 8005e00:	2500      	movs	r5, #0
 8005e02:	e7e9      	b.n	8005dd8 <HAL_UART_Transmit+0x72>
    if (UART_WaitOnFlagUntilTimeout(huart, UART_FLAG_TC, RESET, tickstart, Timeout) != HAL_OK)
 8005e04:	9600      	str	r6, [sp, #0]
 8005e06:	463b      	mov	r3, r7
 8005e08:	2200      	movs	r2, #0
 8005e0a:	2140      	movs	r1, #64	; 0x40
 8005e0c:	4620      	mov	r0, r4
 8005e0e:	f7ff ff37 	bl	8005c80 <UART_WaitOnFlagUntilTimeout>
 8005e12:	b918      	cbnz	r0, 8005e1c <HAL_UART_Transmit+0xb6>
    huart->gState = HAL_UART_STATE_READY;
 8005e14:	2320      	movs	r3, #32
 8005e16:	f884 3041 	strb.w	r3, [r4, #65]	; 0x41
    return HAL_OK;
 8005e1a:	e005      	b.n	8005e28 <HAL_UART_Transmit+0xc2>
      huart->gState = HAL_UART_STATE_READY;
 8005e1c:	2320      	movs	r3, #32
 8005e1e:	f884 3041 	strb.w	r3, [r4, #65]	; 0x41
      return HAL_TIMEOUT;
 8005e22:	2003      	movs	r0, #3
 8005e24:	e000      	b.n	8005e28 <HAL_UART_Transmit+0xc2>
    return HAL_BUSY;
 8005e26:	2002      	movs	r0, #2
}
 8005e28:	b002      	add	sp, #8
 8005e2a:	e8bd 81f0 	ldmia.w	sp!, {r4, r5, r6, r7, r8, pc}
      return  HAL_ERROR;
 8005e2e:	2001      	movs	r0, #1
 8005e30:	e7fa      	b.n	8005e28 <HAL_UART_Transmit+0xc2>

08005e32 <HAL_UART_TxCpltCallback>:
}
 8005e32:	4770      	bx	lr

08005e34 <UART_EndTransmit_IT>:
{
 8005e34:	b508      	push	{r3, lr}
  __HAL_UART_DISABLE_IT(huart, UART_IT_TC);
 8005e36:	6801      	ldr	r1, [r0, #0]
 8005e38:	68ca      	ldr	r2, [r1, #12]
 8005e3a:	f022 0240 	bic.w	r2, r2, #64	; 0x40
 8005e3e:	60ca      	str	r2, [r1, #12]
  huart->gState = HAL_UART_STATE_READY;
 8005e40:	2220      	movs	r2, #32
 8005e42:	f880 2041 	strb.w	r2, [r0, #65]	; 0x41
  HAL_UART_TxCpltCallback(huart);
 8005e46:	f7ff fff4 	bl	8005e32 <HAL_UART_TxCpltCallback>
}
 8005e4a:	2000      	movs	r0, #0
 8005e4c:	bd08      	pop	{r3, pc}

08005e4e <UART_DMAAbortOnError>:
{
 8005e4e:	b508      	push	{r3, lr}
  UART_HandleTypeDef *huart = (UART_HandleTypeDef *)((DMA_HandleTypeDef *)hdma)->Parent;
 8005e50:	6a40      	ldr	r0, [r0, #36]	; 0x24
  huart->RxXferCount = 0x00U;
 8005e52:	2300      	movs	r3, #0
 8005e54:	85c3      	strh	r3, [r0, #46]	; 0x2e
  huart->TxXferCount = 0x00U;
 8005e56:	84c3      	strh	r3, [r0, #38]	; 0x26
  HAL_UART_ErrorCallback(huart);
 8005e58:	f7fb feea 	bl	8001c30 <HAL_UART_ErrorCallback>
}
 8005e5c:	bd08      	pop	{r3, pc}

08005e5e <HAL_UARTEx_RxEventCallback>:
}
 8005e5e:	4770      	bx	lr

08005e60 <UART_Receive_IT>:
  if (huart->RxState == HAL_UART_STATE_BUSY_RX)
 8005e60:	f890 3042 	ldrb.w	r3, [r0, #66]	; 0x42
 8005e64:	b2db      	uxtb	r3, r3
 8005e66:	2b22      	cmp	r3, #34	; 0x22
 8005e68:	d169      	bne.n	8005f3e <UART_Receive_IT+0xde>
    if ((huart->Init.WordLength == UART_WORDLENGTH_9B) && (huart->Init.Parity == UART_PARITY_NONE))
 8005e6a:	6883      	ldr	r3, [r0, #8]
 8005e6c:	f5b3 5f80 	cmp.w	r3, #4096	; 0x1000
 8005e70:	d04f      	beq.n	8005f12 <UART_Receive_IT+0xb2>
      pdata8bits = (uint8_t *) huart->pRxBuffPtr;
 8005e72:	6a82      	ldr	r2, [r0, #40]	; 0x28
      if ((huart->Init.WordLength == UART_WORDLENGTH_9B) || ((huart->Init.WordLength == UART_WORDLENGTH_8B) && (huart->Init.Parity == UART_PARITY_NONE)))
 8005e74:	f5b3 5f80 	cmp.w	r3, #4096	; 0x1000
 8005e78:	d004      	beq.n	8005e84 <UART_Receive_IT+0x24>
 8005e7a:	2b00      	cmp	r3, #0
 8005e7c:	d156      	bne.n	8005f2c <UART_Receive_IT+0xcc>
 8005e7e:	6903      	ldr	r3, [r0, #16]
 8005e80:	2b00      	cmp	r3, #0
 8005e82:	d153      	bne.n	8005f2c <UART_Receive_IT+0xcc>
        *pdata8bits = (uint8_t)(huart->Instance->DR & (uint8_t)0x00FF);
 8005e84:	6803      	ldr	r3, [r0, #0]
 8005e86:	685b      	ldr	r3, [r3, #4]
 8005e88:	7013      	strb	r3, [r2, #0]
      huart->pRxBuffPtr += 1U;
 8005e8a:	6a83      	ldr	r3, [r0, #40]	; 0x28
 8005e8c:	3301      	adds	r3, #1
 8005e8e:	6283      	str	r3, [r0, #40]	; 0x28
    if (--huart->RxXferCount == 0U)
 8005e90:	8dc3      	ldrh	r3, [r0, #46]	; 0x2e
 8005e92:	b29b      	uxth	r3, r3
 8005e94:	3b01      	subs	r3, #1
 8005e96:	b29b      	uxth	r3, r3
 8005e98:	85c3      	strh	r3, [r0, #46]	; 0x2e
 8005e9a:	2b00      	cmp	r3, #0
 8005e9c:	d151      	bne.n	8005f42 <UART_Receive_IT+0xe2>
{
 8005e9e:	b500      	push	{lr}
 8005ea0:	b083      	sub	sp, #12
      __HAL_UART_DISABLE_IT(huart, UART_IT_RXNE);
 8005ea2:	6802      	ldr	r2, [r0, #0]
 8005ea4:	68d3      	ldr	r3, [r2, #12]
 8005ea6:	f023 0320 	bic.w	r3, r3, #32
 8005eaa:	60d3      	str	r3, [r2, #12]
      __HAL_UART_DISABLE_IT(huart, UART_IT_PE);
 8005eac:	6802      	ldr	r2, [r0, #0]
 8005eae:	68d3      	ldr	r3, [r2, #12]
 8005eb0:	f423 7380 	bic.w	r3, r3, #256	; 0x100
 8005eb4:	60d3      	str	r3, [r2, #12]
      __HAL_UART_DISABLE_IT(huart, UART_IT_ERR);
 8005eb6:	6802      	ldr	r2, [r0, #0]
 8005eb8:	6953      	ldr	r3, [r2, #20]
 8005eba:	f023 0301 	bic.w	r3, r3, #1
 8005ebe:	6153      	str	r3, [r2, #20]
      huart->RxState = HAL_UART_STATE_READY;
 8005ec0:	2320      	movs	r3, #32
 8005ec2:	f880 3042 	strb.w	r3, [r0, #66]	; 0x42
      huart->RxEventType = HAL_UART_RXEVENT_TC;
 8005ec6:	2300      	movs	r3, #0
 8005ec8:	6343      	str	r3, [r0, #52]	; 0x34
      if (huart->ReceptionType == HAL_UART_RECEPTION_TOIDLE)
 8005eca:	6b03      	ldr	r3, [r0, #48]	; 0x30
 8005ecc:	2b01      	cmp	r3, #1
 8005ece:	d133      	bne.n	8005f38 <UART_Receive_IT+0xd8>
        huart->ReceptionType = HAL_UART_RECEPTION_STANDARD;
 8005ed0:	2300      	movs	r3, #0
 8005ed2:	6303      	str	r3, [r0, #48]	; 0x30
        ATOMIC_CLEAR_BIT(huart->Instance->CR1, USART_CR1_IDLEIE);
 8005ed4:	6802      	ldr	r2, [r0, #0]
   __ASM volatile ("ldrex %0, %1" : "=r" (result) : "Q" (*addr) );
 8005ed6:	f102 030c 	add.w	r3, r2, #12
 8005eda:	e853 3f00 	ldrex	r3, [r3]
 8005ede:	f023 0310 	bic.w	r3, r3, #16
   __ASM volatile ("strex %0, %2, %1" : "=&r" (result), "=Q" (*addr) : "r" (value) );
 8005ee2:	320c      	adds	r2, #12
 8005ee4:	e842 3100 	strex	r1, r3, [r2]
 8005ee8:	2900      	cmp	r1, #0
 8005eea:	d1f3      	bne.n	8005ed4 <UART_Receive_IT+0x74>
        if (__HAL_UART_GET_FLAG(huart, UART_FLAG_IDLE))
 8005eec:	6803      	ldr	r3, [r0, #0]
 8005eee:	681a      	ldr	r2, [r3, #0]
 8005ef0:	f012 0f10 	tst.w	r2, #16
 8005ef4:	d006      	beq.n	8005f04 <UART_Receive_IT+0xa4>
          __HAL_UART_CLEAR_IDLEFLAG(huart);
 8005ef6:	2200      	movs	r2, #0
 8005ef8:	9201      	str	r2, [sp, #4]
 8005efa:	681a      	ldr	r2, [r3, #0]
 8005efc:	9201      	str	r2, [sp, #4]
 8005efe:	685b      	ldr	r3, [r3, #4]
 8005f00:	9301      	str	r3, [sp, #4]
 8005f02:	9b01      	ldr	r3, [sp, #4]
        HAL_UARTEx_RxEventCallback(huart, huart->RxXferSize);
 8005f04:	8d81      	ldrh	r1, [r0, #44]	; 0x2c
 8005f06:	f7ff ffaa 	bl	8005e5e <HAL_UARTEx_RxEventCallback>
      return HAL_OK;
 8005f0a:	2000      	movs	r0, #0
}
 8005f0c:	b003      	add	sp, #12
 8005f0e:	f85d fb04 	ldr.w	pc, [sp], #4
    if ((huart->Init.WordLength == UART_WORDLENGTH_9B) && (huart->Init.Parity == UART_PARITY_NONE))
 8005f12:	6902      	ldr	r2, [r0, #16]
 8005f14:	2a00      	cmp	r2, #0
 8005f16:	d1ac      	bne.n	8005e72 <UART_Receive_IT+0x12>
      pdata16bits = (uint16_t *) huart->pRxBuffPtr;
 8005f18:	6a82      	ldr	r2, [r0, #40]	; 0x28
      *pdata16bits = (uint16_t)(huart->Instance->DR & (uint16_t)0x01FF);
 8005f1a:	6803      	ldr	r3, [r0, #0]
 8005f1c:	685b      	ldr	r3, [r3, #4]
 8005f1e:	f3c3 0308 	ubfx	r3, r3, #0, #9
 8005f22:	8013      	strh	r3, [r2, #0]
      huart->pRxBuffPtr += 2U;
 8005f24:	6a83      	ldr	r3, [r0, #40]	; 0x28
 8005f26:	3302      	adds	r3, #2
 8005f28:	6283      	str	r3, [r0, #40]	; 0x28
 8005f2a:	e7b1      	b.n	8005e90 <UART_Receive_IT+0x30>
        *pdata8bits = (uint8_t)(huart->Instance->DR & (uint8_t)0x007F);
 8005f2c:	6803      	ldr	r3, [r0, #0]
 8005f2e:	685b      	ldr	r3, [r3, #4]
 8005f30:	f003 037f 	and.w	r3, r3, #127	; 0x7f
 8005f34:	7013      	strb	r3, [r2, #0]
 8005f36:	e7a8      	b.n	8005e8a <UART_Receive_IT+0x2a>
        HAL_UART_RxCpltCallback(huart);
 8005f38:	f7fb fe68 	bl	8001c0c <HAL_UART_RxCpltCallback>
 8005f3c:	e7e5      	b.n	8005f0a <UART_Receive_IT+0xaa>
    return HAL_BUSY;
 8005f3e:	2002      	movs	r0, #2
 8005f40:	4770      	bx	lr
    return HAL_OK;
 8005f42:	2000      	movs	r0, #0
}
 8005f44:	4770      	bx	lr
	...

08005f48 <HAL_UART_IRQHandler>:
{
 8005f48:	b530      	push	{r4, r5, lr}
 8005f4a:	b083      	sub	sp, #12
 8005f4c:	4604      	mov	r4, r0
  uint32_t isrflags   = READ_REG(huart->Instance->SR);
 8005f4e:	6802      	ldr	r2, [r0, #0]
 8005f50:	6813      	ldr	r3, [r2, #0]
  uint32_t cr1its     = READ_REG(huart->Instance->CR1);
 8005f52:	68d0      	ldr	r0, [r2, #12]
  uint32_t cr3its     = READ_REG(huart->Instance->CR3);
 8005f54:	6951      	ldr	r1, [r2, #20]
  if (errorflags == RESET)
 8005f56:	f013 050f 	ands.w	r5, r3, #15
 8005f5a:	d105      	bne.n	8005f68 <HAL_UART_IRQHandler+0x20>
    if (((isrflags & USART_SR_RXNE) != RESET) && ((cr1its & USART_CR1_RXNEIE) != RESET))
 8005f5c:	f013 0f20 	tst.w	r3, #32
 8005f60:	d002      	beq.n	8005f68 <HAL_UART_IRQHandler+0x20>
 8005f62:	f010 0f20 	tst.w	r0, #32
 8005f66:	d119      	bne.n	8005f9c <HAL_UART_IRQHandler+0x54>
  if ((errorflags != RESET) && (((cr3its & USART_CR3_EIE) != RESET)
 8005f68:	b12d      	cbz	r5, 8005f76 <HAL_UART_IRQHandler+0x2e>
 8005f6a:	f011 0101 	ands.w	r1, r1, #1
 8005f6e:	d119      	bne.n	8005fa4 <HAL_UART_IRQHandler+0x5c>
                                || ((cr1its & (USART_CR1_RXNEIE | USART_CR1_PEIE)) != RESET)))
 8005f70:	f410 7f90 	tst.w	r0, #288	; 0x120
 8005f74:	d116      	bne.n	8005fa4 <HAL_UART_IRQHandler+0x5c>
  if ((huart->ReceptionType == HAL_UART_RECEPTION_TOIDLE)
 8005f76:	6b21      	ldr	r1, [r4, #48]	; 0x30
 8005f78:	2901      	cmp	r1, #1
 8005f7a:	d07d      	beq.n	8006078 <HAL_UART_IRQHandler+0x130>
  if (((isrflags & USART_SR_TXE) != RESET) && ((cr1its & USART_CR1_TXEIE) != RESET))
 8005f7c:	f013 0f80 	tst.w	r3, #128	; 0x80
 8005f80:	d003      	beq.n	8005f8a <HAL_UART_IRQHandler+0x42>
 8005f82:	f010 0f80 	tst.w	r0, #128	; 0x80
 8005f86:	f040 8118 	bne.w	80061ba <HAL_UART_IRQHandler+0x272>
  if (((isrflags & USART_SR_TC) != RESET) && ((cr1its & USART_CR1_TCIE) != RESET))
 8005f8a:	f013 0f40 	tst.w	r3, #64	; 0x40
 8005f8e:	d003      	beq.n	8005f98 <HAL_UART_IRQHandler+0x50>
 8005f90:	f010 0f40 	tst.w	r0, #64	; 0x40
 8005f94:	f040 8115 	bne.w	80061c2 <HAL_UART_IRQHandler+0x27a>
}
 8005f98:	b003      	add	sp, #12
 8005f9a:	bd30      	pop	{r4, r5, pc}
      UART_Receive_IT(huart);
 8005f9c:	4620      	mov	r0, r4
 8005f9e:	f7ff ff5f 	bl	8005e60 <UART_Receive_IT>
      return;
 8005fa2:	e7f9      	b.n	8005f98 <HAL_UART_IRQHandler+0x50>
    if (((isrflags & USART_SR_PE) != RESET) && ((cr1its & USART_CR1_PEIE) != RESET))
 8005fa4:	f013 0f01 	tst.w	r3, #1
 8005fa8:	d006      	beq.n	8005fb8 <HAL_UART_IRQHandler+0x70>
 8005faa:	f410 7f80 	tst.w	r0, #256	; 0x100
 8005fae:	d003      	beq.n	8005fb8 <HAL_UART_IRQHandler+0x70>
      huart->ErrorCode |= HAL_UART_ERROR_PE;
 8005fb0:	6c62      	ldr	r2, [r4, #68]	; 0x44
 8005fb2:	f042 0201 	orr.w	r2, r2, #1
 8005fb6:	6462      	str	r2, [r4, #68]	; 0x44
    if (((isrflags & USART_SR_NE) != RESET) && ((cr3its & USART_CR3_EIE) != RESET))
 8005fb8:	f013 0f04 	tst.w	r3, #4
 8005fbc:	d004      	beq.n	8005fc8 <HAL_UART_IRQHandler+0x80>
 8005fbe:	b119      	cbz	r1, 8005fc8 <HAL_UART_IRQHandler+0x80>
      huart->ErrorCode |= HAL_UART_ERROR_NE;
 8005fc0:	6c62      	ldr	r2, [r4, #68]	; 0x44
 8005fc2:	f042 0202 	orr.w	r2, r2, #2
 8005fc6:	6462      	str	r2, [r4, #68]	; 0x44
    if (((isrflags & USART_SR_FE) != RESET) && ((cr3its & USART_CR3_EIE) != RESET))
 8005fc8:	f013 0f02 	tst.w	r3, #2
 8005fcc:	d004      	beq.n	8005fd8 <HAL_UART_IRQHandler+0x90>
 8005fce:	b119      	cbz	r1, 8005fd8 <HAL_UART_IRQHandler+0x90>
      huart->ErrorCode |= HAL_UART_ERROR_FE;
 8005fd0:	6c62      	ldr	r2, [r4, #68]	; 0x44
 8005fd2:	f042 0204 	orr.w	r2, r2, #4
 8005fd6:	6462      	str	r2, [r4, #68]	; 0x44
    if (((isrflags & USART_SR_ORE) != RESET) && (((cr1its & USART_CR1_RXNEIE) != RESET)
 8005fd8:	f013 0f08 	tst.w	r3, #8
 8005fdc:	d007      	beq.n	8005fee <HAL_UART_IRQHandler+0xa6>
 8005fde:	f010 0f20 	tst.w	r0, #32
 8005fe2:	d100      	bne.n	8005fe6 <HAL_UART_IRQHandler+0x9e>
                                                 || ((cr3its & USART_CR3_EIE) != RESET)))
 8005fe4:	b119      	cbz	r1, 8005fee <HAL_UART_IRQHandler+0xa6>
      huart->ErrorCode |= HAL_UART_ERROR_ORE;
 8005fe6:	6c62      	ldr	r2, [r4, #68]	; 0x44
 8005fe8:	f042 0208 	orr.w	r2, r2, #8
 8005fec:	6462      	str	r2, [r4, #68]	; 0x44
    if (huart->ErrorCode != HAL_UART_ERROR_NONE)
 8005fee:	6c62      	ldr	r2, [r4, #68]	; 0x44
 8005ff0:	2a00      	cmp	r2, #0
 8005ff2:	d0d1      	beq.n	8005f98 <HAL_UART_IRQHandler+0x50>
      if (((isrflags & USART_SR_RXNE) != RESET) && ((cr1its & USART_CR1_RXNEIE) != RESET))
 8005ff4:	f013 0f20 	tst.w	r3, #32
 8005ff8:	d002      	beq.n	8006000 <HAL_UART_IRQHandler+0xb8>
 8005ffa:	f010 0f20 	tst.w	r0, #32
 8005ffe:	d129      	bne.n	8006054 <HAL_UART_IRQHandler+0x10c>
      dmarequest = HAL_IS_BIT_SET(huart->Instance->CR3, USART_CR3_DMAR);
 8006000:	6823      	ldr	r3, [r4, #0]
 8006002:	695b      	ldr	r3, [r3, #20]
 8006004:	f003 0340 	and.w	r3, r3, #64	; 0x40
      if (((huart->ErrorCode & HAL_UART_ERROR_ORE) != RESET) || dmarequest)
 8006008:	6c62      	ldr	r2, [r4, #68]	; 0x44
 800600a:	f012 0f08 	tst.w	r2, #8
 800600e:	d100      	bne.n	8006012 <HAL_UART_IRQHandler+0xca>
 8006010:	b363      	cbz	r3, 800606c <HAL_UART_IRQHandler+0x124>
        UART_EndRxTransfer(huart);
 8006012:	4620      	mov	r0, r4
 8006014:	f7ff fd8e 	bl	8005b34 <UART_EndRxTransfer>
        if (HAL_IS_BIT_SET(huart->Instance->CR3, USART_CR3_DMAR))
 8006018:	6823      	ldr	r3, [r4, #0]
 800601a:	695b      	ldr	r3, [r3, #20]
 800601c:	f013 0f40 	tst.w	r3, #64	; 0x40
 8006020:	d020      	beq.n	8006064 <HAL_UART_IRQHandler+0x11c>
          ATOMIC_CLEAR_BIT(huart->Instance->CR3, USART_CR3_DMAR);
 8006022:	6822      	ldr	r2, [r4, #0]
   __ASM volatile ("ldrex %0, %1" : "=r" (result) : "Q" (*addr) );
 8006024:	f102 0314 	add.w	r3, r2, #20
 8006028:	e853 3f00 	ldrex	r3, [r3]
 800602c:	f023 0340 	bic.w	r3, r3, #64	; 0x40
   __ASM volatile ("strex %0, %2, %1" : "=&r" (result), "=Q" (*addr) : "r" (value) );
 8006030:	3214      	adds	r2, #20
 8006032:	e842 3100 	strex	r1, r3, [r2]
 8006036:	2900      	cmp	r1, #0
 8006038:	d1f3      	bne.n	8006022 <HAL_UART_IRQHandler+0xda>
          if (huart->hdmarx != NULL)
 800603a:	6be3      	ldr	r3, [r4, #60]	; 0x3c
 800603c:	b173      	cbz	r3, 800605c <HAL_UART_IRQHandler+0x114>
            huart->hdmarx->XferAbortCallback = UART_DMAAbortOnError;
 800603e:	4a63      	ldr	r2, [pc, #396]	; (80061cc <HAL_UART_IRQHandler+0x284>)
 8006040:	635a      	str	r2, [r3, #52]	; 0x34
            if (HAL_DMA_Abort_IT(huart->hdmarx) != HAL_OK)
 8006042:	6be0      	ldr	r0, [r4, #60]	; 0x3c
 8006044:	f7fd fcb4 	bl	80039b0 <HAL_DMA_Abort_IT>
 8006048:	2800      	cmp	r0, #0
 800604a:	d0a5      	beq.n	8005f98 <HAL_UART_IRQHandler+0x50>
              huart->hdmarx->XferAbortCallback(huart->hdmarx);
 800604c:	6be0      	ldr	r0, [r4, #60]	; 0x3c
 800604e:	6b43      	ldr	r3, [r0, #52]	; 0x34
 8006050:	4798      	blx	r3
 8006052:	e7a1      	b.n	8005f98 <HAL_UART_IRQHandler+0x50>
        UART_Receive_IT(huart);
 8006054:	4620      	mov	r0, r4
 8006056:	f7ff ff03 	bl	8005e60 <UART_Receive_IT>
 800605a:	e7d1      	b.n	8006000 <HAL_UART_IRQHandler+0xb8>
            HAL_UART_ErrorCallback(huart);
 800605c:	4620      	mov	r0, r4
 800605e:	f7fb fde7 	bl	8001c30 <HAL_UART_ErrorCallback>
 8006062:	e799      	b.n	8005f98 <HAL_UART_IRQHandler+0x50>
          HAL_UART_ErrorCallback(huart);
 8006064:	4620      	mov	r0, r4
 8006066:	f7fb fde3 	bl	8001c30 <HAL_UART_ErrorCallback>
 800606a:	e795      	b.n	8005f98 <HAL_UART_IRQHandler+0x50>
        HAL_UART_ErrorCallback(huart);
 800606c:	4620      	mov	r0, r4
 800606e:	f7fb fddf 	bl	8001c30 <HAL_UART_ErrorCallback>
        huart->ErrorCode = HAL_UART_ERROR_NONE;
 8006072:	2300      	movs	r3, #0
 8006074:	6463      	str	r3, [r4, #68]	; 0x44
    return;
 8006076:	e78f      	b.n	8005f98 <HAL_UART_IRQHandler+0x50>
      && ((isrflags & USART_SR_IDLE) != 0U)
 8006078:	f013 0f10 	tst.w	r3, #16
 800607c:	f43f af7e 	beq.w	8005f7c <HAL_UART_IRQHandler+0x34>
      && ((cr1its & USART_SR_IDLE) != 0U))
 8006080:	f010 0f10 	tst.w	r0, #16
 8006084:	f43f af7a 	beq.w	8005f7c <HAL_UART_IRQHandler+0x34>
    __HAL_UART_CLEAR_IDLEFLAG(huart);
 8006088:	2300      	movs	r3, #0
 800608a:	9301      	str	r3, [sp, #4]
 800608c:	6813      	ldr	r3, [r2, #0]
 800608e:	9301      	str	r3, [sp, #4]
 8006090:	6853      	ldr	r3, [r2, #4]
 8006092:	9301      	str	r3, [sp, #4]
 8006094:	9b01      	ldr	r3, [sp, #4]
    if (HAL_IS_BIT_SET(huart->Instance->CR3, USART_CR3_DMAR))
 8006096:	6953      	ldr	r3, [r2, #20]
 8006098:	f013 0f40 	tst.w	r3, #64	; 0x40
 800609c:	d051      	beq.n	8006142 <HAL_UART_IRQHandler+0x1fa>
      uint16_t nb_remaining_rx_data = (uint16_t) __HAL_DMA_GET_COUNTER(huart->hdmarx);
 800609e:	6be2      	ldr	r2, [r4, #60]	; 0x3c
 80060a0:	6813      	ldr	r3, [r2, #0]
 80060a2:	685b      	ldr	r3, [r3, #4]
 80060a4:	b29b      	uxth	r3, r3
      if ((nb_remaining_rx_data > 0U)
 80060a6:	2b00      	cmp	r3, #0
 80060a8:	f43f af76 	beq.w	8005f98 <HAL_UART_IRQHandler+0x50>
          && (nb_remaining_rx_data < huart->RxXferSize))
 80060ac:	8da1      	ldrh	r1, [r4, #44]	; 0x2c
 80060ae:	4299      	cmp	r1, r3
 80060b0:	f67f af72 	bls.w	8005f98 <HAL_UART_IRQHandler+0x50>
        huart->RxXferCount = nb_remaining_rx_data;
 80060b4:	85e3      	strh	r3, [r4, #46]	; 0x2e
        if (huart->hdmarx->Init.Mode != DMA_CIRCULAR)
 80060b6:	6993      	ldr	r3, [r2, #24]
 80060b8:	2b20      	cmp	r3, #32
 80060ba:	d037      	beq.n	800612c <HAL_UART_IRQHandler+0x1e4>
          ATOMIC_CLEAR_BIT(huart->Instance->CR1, USART_CR1_PEIE);
 80060bc:	6822      	ldr	r2, [r4, #0]
   __ASM volatile ("ldrex %0, %1" : "=r" (result) : "Q" (*addr) );
 80060be:	f102 030c 	add.w	r3, r2, #12
 80060c2:	e853 3f00 	ldrex	r3, [r3]
 80060c6:	f423 7380 	bic.w	r3, r3, #256	; 0x100
   __ASM volatile ("strex %0, %2, %1" : "=&r" (result), "=Q" (*addr) : "r" (value) );
 80060ca:	320c      	adds	r2, #12
 80060cc:	e842 3100 	strex	r1, r3, [r2]
 80060d0:	2900      	cmp	r1, #0
 80060d2:	d1f3      	bne.n	80060bc <HAL_UART_IRQHandler+0x174>
          ATOMIC_CLEAR_BIT(huart->Instance->CR3, USART_CR3_EIE);
 80060d4:	6822      	ldr	r2, [r4, #0]
   __ASM volatile ("ldrex %0, %1" : "=r" (result) : "Q" (*addr) );
 80060d6:	f102 0314 	add.w	r3, r2, #20
 80060da:	e853 3f00 	ldrex	r3, [r3]
 80060de:	f023 0301 	bic.w	r3, r3, #1
   __ASM volatile ("strex %0, %2, %1" : "=&r" (result), "=Q" (*addr) : "r" (value) );
 80060e2:	3214      	adds	r2, #20
 80060e4:	e842 3100 	strex	r1, r3, [r2]
 80060e8:	2900      	cmp	r1, #0
 80060ea:	d1f3      	bne.n	80060d4 <HAL_UART_IRQHandler+0x18c>
          ATOMIC_CLEAR_BIT(huart->Instance->CR3, USART_CR3_DMAR);
 80060ec:	6822      	ldr	r2, [r4, #0]
   __ASM volatile ("ldrex %0, %1" : "=r" (result) : "Q" (*addr) );
 80060ee:	f102 0314 	add.w	r3, r2, #20
 80060f2:	e853 3f00 	ldrex	r3, [r3]
 80060f6:	f023 0340 	bic.w	r3, r3, #64	; 0x40
   __ASM volatile ("strex %0, %2, %1" : "=&r" (result), "=Q" (*addr) : "r" (value) );
 80060fa:	3214      	adds	r2, #20
 80060fc:	e842 3100 	strex	r1, r3, [r2]
 8006100:	2900      	cmp	r1, #0
 8006102:	d1f3      	bne.n	80060ec <HAL_UART_IRQHandler+0x1a4>
          huart->RxState = HAL_UART_STATE_READY;
 8006104:	2320      	movs	r3, #32
 8006106:	f884 3042 	strb.w	r3, [r4, #66]	; 0x42
          huart->ReceptionType = HAL_UART_RECEPTION_STANDARD;
 800610a:	2300      	movs	r3, #0
 800610c:	6323      	str	r3, [r4, #48]	; 0x30
          ATOMIC_CLEAR_BIT(huart->Instance->CR1, USART_CR1_IDLEIE);
 800610e:	6822      	ldr	r2, [r4, #0]
   __ASM volatile ("ldrex %0, %1" : "=r" (result) : "Q" (*addr) );
 8006110:	f102 030c 	add.w	r3, r2, #12
 8006114:	e853 3f00 	ldrex	r3, [r3]
 8006118:	f023 0310 	bic.w	r3, r3, #16
   __ASM volatile ("strex %0, %2, %1" : "=&r" (result), "=Q" (*addr) : "r" (value) );
 800611c:	320c      	adds	r2, #12
 800611e:	e842 3100 	strex	r1, r3, [r2]
 8006122:	2900      	cmp	r1, #0
 8006124:	d1f3      	bne.n	800610e <HAL_UART_IRQHandler+0x1c6>
          (void)HAL_DMA_Abort(huart->hdmarx);
 8006126:	6be0      	ldr	r0, [r4, #60]	; 0x3c
 8006128:	f7fd fc1f 	bl	800396a <HAL_DMA_Abort>
        huart->RxEventType = HAL_UART_RXEVENT_IDLE;
 800612c:	2302      	movs	r3, #2
 800612e:	6363      	str	r3, [r4, #52]	; 0x34
        HAL_UARTEx_RxEventCallback(huart, (huart->RxXferSize - huart->RxXferCount));
 8006130:	8da1      	ldrh	r1, [r4, #44]	; 0x2c
 8006132:	8de3      	ldrh	r3, [r4, #46]	; 0x2e
 8006134:	b29b      	uxth	r3, r3
 8006136:	1ac9      	subs	r1, r1, r3
 8006138:	b289      	uxth	r1, r1
 800613a:	4620      	mov	r0, r4
 800613c:	f7ff fe8f 	bl	8005e5e <HAL_UARTEx_RxEventCallback>
      return;
 8006140:	e72a      	b.n	8005f98 <HAL_UART_IRQHandler+0x50>
      uint16_t nb_rx_data = huart->RxXferSize - huart->RxXferCount;
 8006142:	8da1      	ldrh	r1, [r4, #44]	; 0x2c
 8006144:	8de3      	ldrh	r3, [r4, #46]	; 0x2e
 8006146:	b29b      	uxth	r3, r3
 8006148:	1ac9      	subs	r1, r1, r3
 800614a:	b289      	uxth	r1, r1
      if ((huart->RxXferCount > 0U)
 800614c:	8de3      	ldrh	r3, [r4, #46]	; 0x2e
 800614e:	b29b      	uxth	r3, r3
 8006150:	2b00      	cmp	r3, #0
 8006152:	f43f af21 	beq.w	8005f98 <HAL_UART_IRQHandler+0x50>
          && (nb_rx_data > 0U))
 8006156:	2900      	cmp	r1, #0
 8006158:	f43f af1e 	beq.w	8005f98 <HAL_UART_IRQHandler+0x50>
        ATOMIC_CLEAR_BIT(huart->Instance->CR1, (USART_CR1_RXNEIE | USART_CR1_PEIE));
 800615c:	6822      	ldr	r2, [r4, #0]
   __ASM volatile ("ldrex %0, %1" : "=r" (result) : "Q" (*addr) );
 800615e:	f102 030c 	add.w	r3, r2, #12
 8006162:	e853 3f00 	ldrex	r3, [r3]
 8006166:	f423 7390 	bic.w	r3, r3, #288	; 0x120
   __ASM volatile ("strex %0, %2, %1" : "=&r" (result), "=Q" (*addr) : "r" (value) );
 800616a:	320c      	adds	r2, #12
 800616c:	e842 3000 	strex	r0, r3, [r2]
 8006170:	2800      	cmp	r0, #0
 8006172:	d1f3      	bne.n	800615c <HAL_UART_IRQHandler+0x214>
        ATOMIC_CLEAR_BIT(huart->Instance->CR3, USART_CR3_EIE);
 8006174:	6822      	ldr	r2, [r4, #0]
   __ASM volatile ("ldrex %0, %1" : "=r" (result) : "Q" (*addr) );
 8006176:	f102 0314 	add.w	r3, r2, #20
 800617a:	e853 3f00 	ldrex	r3, [r3]
 800617e:	f023 0301 	bic.w	r3, r3, #1
   __ASM volatile ("strex %0, %2, %1" : "=&r" (result), "=Q" (*addr) : "r" (value) );
 8006182:	3214      	adds	r2, #20
 8006184:	e842 3000 	strex	r0, r3, [r2]
 8006188:	2800      	cmp	r0, #0
 800618a:	d1f3      	bne.n	8006174 <HAL_UART_IRQHandler+0x22c>
        huart->RxState = HAL_UART_STATE_READY;
 800618c:	2320      	movs	r3, #32
 800618e:	f884 3042 	strb.w	r3, [r4, #66]	; 0x42
        huart->ReceptionType = HAL_UART_RECEPTION_STANDARD;
 8006192:	2300      	movs	r3, #0
 8006194:	6323      	str	r3, [r4, #48]	; 0x30
        ATOMIC_CLEAR_BIT(huart->Instance->CR1, USART_CR1_IDLEIE);
 8006196:	6822      	ldr	r2, [r4, #0]
   __ASM volatile ("ldrex %0, %1" : "=r" (result) : "Q" (*addr) );
 8006198:	f102 030c 	add.w	r3, r2, #12
 800619c:	e853 3f00 	ldrex	r3, [r3]
 80061a0:	f023 0310 	bic.w	r3, r3, #16
   __ASM volatile ("strex %0, %2, %1" : "=&r" (result), "=Q" (*addr) : "r" (value) );
 80061a4:	320c      	adds	r2, #12
 80061a6:	e842 3000 	strex	r0, r3, [r2]
 80061aa:	2800      	cmp	r0, #0
 80061ac:	d1f3      	bne.n	8006196 <HAL_UART_IRQHandler+0x24e>
        huart->RxEventType = HAL_UART_RXEVENT_IDLE;
 80061ae:	2302      	movs	r3, #2
 80061b0:	6363      	str	r3, [r4, #52]	; 0x34
        HAL_UARTEx_RxEventCallback(huart, nb_rx_data);
 80061b2:	4620      	mov	r0, r4
 80061b4:	f7ff fe53 	bl	8005e5e <HAL_UARTEx_RxEventCallback>
      return;
 80061b8:	e6ee      	b.n	8005f98 <HAL_UART_IRQHandler+0x50>
    UART_Transmit_IT(huart);
 80061ba:	4620      	mov	r0, r4
 80061bc:	f7ff fce8 	bl	8005b90 <UART_Transmit_IT>
    return;
 80061c0:	e6ea      	b.n	8005f98 <HAL_UART_IRQHandler+0x50>
    UART_EndTransmit_IT(huart);
 80061c2:	4620      	mov	r0, r4
 80061c4:	f7ff fe36 	bl	8005e34 <UART_EndTransmit_IT>
    return;
 80061c8:	e6e6      	b.n	8005f98 <HAL_UART_IRQHandler+0x50>
 80061ca:	bf00      	nop
 80061cc:	08005e4f 	.word	0x08005e4f

080061d0 <UART_Start_Receive_IT>:
  huart->pRxBuffPtr = pData;
 80061d0:	6281      	str	r1, [r0, #40]	; 0x28
  huart->RxXferSize = Size;
 80061d2:	8582      	strh	r2, [r0, #44]	; 0x2c
  huart->RxXferCount = Size;
 80061d4:	85c2      	strh	r2, [r0, #46]	; 0x2e
  huart->ErrorCode = HAL_UART_ERROR_NONE;
 80061d6:	2300      	movs	r3, #0
 80061d8:	6443      	str	r3, [r0, #68]	; 0x44
  huart->RxState = HAL_UART_STATE_BUSY_RX;
 80061da:	2322      	movs	r3, #34	; 0x22
 80061dc:	f880 3042 	strb.w	r3, [r0, #66]	; 0x42
  if (huart->Init.Parity != UART_PARITY_NONE)
 80061e0:	6903      	ldr	r3, [r0, #16]
 80061e2:	b123      	cbz	r3, 80061ee <UART_Start_Receive_IT+0x1e>
    __HAL_UART_ENABLE_IT(huart, UART_IT_PE);
 80061e4:	6802      	ldr	r2, [r0, #0]
 80061e6:	68d3      	ldr	r3, [r2, #12]
 80061e8:	f443 7380 	orr.w	r3, r3, #256	; 0x100
 80061ec:	60d3      	str	r3, [r2, #12]
  __HAL_UART_ENABLE_IT(huart, UART_IT_ERR);
 80061ee:	6802      	ldr	r2, [r0, #0]
 80061f0:	6953      	ldr	r3, [r2, #20]
 80061f2:	f043 0301 	orr.w	r3, r3, #1
 80061f6:	6153      	str	r3, [r2, #20]
  __HAL_UART_ENABLE_IT(huart, UART_IT_RXNE);
 80061f8:	6802      	ldr	r2, [r0, #0]
 80061fa:	68d3      	ldr	r3, [r2, #12]
 80061fc:	f043 0320 	orr.w	r3, r3, #32
 8006200:	60d3      	str	r3, [r2, #12]
}
 8006202:	2000      	movs	r0, #0
 8006204:	4770      	bx	lr

08006206 <HAL_UART_Receive_IT>:
{
 8006206:	b508      	push	{r3, lr}
  if (huart->RxState == HAL_UART_STATE_READY)
 8006208:	f890 3042 	ldrb.w	r3, [r0, #66]	; 0x42
 800620c:	b2db      	uxtb	r3, r3
 800620e:	2b20      	cmp	r3, #32
 8006210:	d108      	bne.n	8006224 <HAL_UART_Receive_IT+0x1e>
    if ((pData == NULL) || (Size == 0U))
 8006212:	b149      	cbz	r1, 8006228 <HAL_UART_Receive_IT+0x22>
 8006214:	b90a      	cbnz	r2, 800621a <HAL_UART_Receive_IT+0x14>
      return HAL_ERROR;
 8006216:	2001      	movs	r0, #1
}
 8006218:	bd08      	pop	{r3, pc}
    huart->ReceptionType = HAL_UART_RECEPTION_STANDARD;
 800621a:	2300      	movs	r3, #0
 800621c:	6303      	str	r3, [r0, #48]	; 0x30
    return (UART_Start_Receive_IT(huart, pData, Size));
 800621e:	f7ff ffd7 	bl	80061d0 <UART_Start_Receive_IT>
 8006222:	e7f9      	b.n	8006218 <HAL_UART_Receive_IT+0x12>
    return HAL_BUSY;
 8006224:	2002      	movs	r0, #2
 8006226:	e7f7      	b.n	8006218 <HAL_UART_Receive_IT+0x12>
      return HAL_ERROR;
 8006228:	2001      	movs	r0, #1
 800622a:	e7f5      	b.n	8006218 <HAL_UART_Receive_IT+0x12>

0800622c <USB_CoreInit>:
  * @param  cfg pointer to a USB_CfgTypeDef structure that contains
  *         the configuration information for the specified USBx peripheral.
  * @retval HAL status
  */
HAL_StatusTypeDef USB_CoreInit(USB_TypeDef *USBx, USB_CfgTypeDef cfg)
{
 800622c:	b084      	sub	sp, #16
 800622e:	a804      	add	r0, sp, #16
 8006230:	e900 000e 	stmdb	r0, {r1, r2, r3}
              only by USB OTG FS peripheral.
            - This function is added to ensure compatibility across platforms.
   */

  return HAL_OK;
}
 8006234:	2000      	movs	r0, #0
 8006236:	b004      	add	sp, #16
 8006238:	4770      	bx	lr

0800623a <USB_EnableGlobalInt>:
  *         Enables the controller's Global Int in the AHB Config reg
  * @param  USBx Selected device
  * @retval HAL status
  */
HAL_StatusTypeDef USB_EnableGlobalInt(USB_TypeDef *USBx)
{
 800623a:	4603      	mov	r3, r0
  uint32_t winterruptmask;

  /* Clear pending interrupts */
  USBx->ISTR = 0U;
 800623c:	2000      	movs	r0, #0
 800623e:	f8a3 0044 	strh.w	r0, [r3, #68]	; 0x44
                   USB_CNTR_SUSPM | USB_CNTR_ERRM |
                   USB_CNTR_SOFM | USB_CNTR_ESOFM |
                   USB_CNTR_RESETM;

  /* Set interrupt mask */
  USBx->CNTR = (uint16_t)winterruptmask;
 8006242:	f44f 423f 	mov.w	r2, #48896	; 0xbf00
 8006246:	f8a3 2040 	strh.w	r2, [r3, #64]	; 0x40

  return HAL_OK;
}
 800624a:	4770      	bx	lr

0800624c <USB_DisableGlobalInt>:
                   USB_CNTR_SUSPM | USB_CNTR_ERRM |
                   USB_CNTR_SOFM | USB_CNTR_ESOFM |
                   USB_CNTR_RESETM;

  /* Clear interrupt mask */
  USBx->CNTR &= (uint16_t)(~winterruptmask);
 800624c:	f8b0 3040 	ldrh.w	r3, [r0, #64]	; 0x40
 8006250:	f423 537c 	bic.w	r3, r3, #16128	; 0x3f00
 8006254:	045b      	lsls	r3, r3, #17
 8006256:	0c5b      	lsrs	r3, r3, #17
 8006258:	f8a0 3040 	strh.w	r3, [r0, #64]	; 0x40

  return HAL_OK;
}
 800625c:	2000      	movs	r0, #0
 800625e:	4770      	bx	lr

08006260 <USB_SetCurrentMode>:
  /* NOTE : - This function is not required by USB Device FS peripheral, it is used
              only by USB OTG FS peripheral.
            - This function is added to ensure compatibility across platforms.
   */
  return HAL_OK;
}
 8006260:	2000      	movs	r0, #0
 8006262:	4770      	bx	lr

08006264 <USB_DevInit>:
  * @param  cfg  pointer to a USB_CfgTypeDef structure that contains
  *         the configuration information for the specified USBx peripheral.
  * @retval HAL status
  */
HAL_StatusTypeDef USB_DevInit(USB_TypeDef *USBx, USB_CfgTypeDef cfg)
{
 8006264:	b410      	push	{r4}
 8006266:	b085      	sub	sp, #20
 8006268:	4604      	mov	r4, r0
 800626a:	a804      	add	r0, sp, #16
 800626c:	e900 000e 	stmdb	r0, {r1, r2, r3}
  /* Prevent unused argument(s) compilation warning */
  UNUSED(cfg);

  /* Init Device */
  /* CNTR_FRES = 1 */
  USBx->CNTR = (uint16_t)USB_CNTR_FRES;
 8006270:	2301      	movs	r3, #1
 8006272:	f8a4 3040 	strh.w	r3, [r4, #64]	; 0x40

  /* CNTR_FRES = 0 */
  USBx->CNTR = 0U;
 8006276:	2000      	movs	r0, #0
 8006278:	f8a4 0040 	strh.w	r0, [r4, #64]	; 0x40

  /* Clear pending interrupts */
  USBx->ISTR = 0U;
 800627c:	f8a4 0044 	strh.w	r0, [r4, #68]	; 0x44

  /*Set Btable Address*/
  USBx->BTABLE = BTABLE_ADDRESS;
 8006280:	f8a4 0050 	strh.w	r0, [r4, #80]	; 0x50

  return HAL_OK;
}
 8006284:	b005      	add	sp, #20
 8006286:	bc10      	pop	{r4}
 8006288:	4770      	bx	lr

0800628a <USB_ActivateEndpoint>:
  * @param  USBx Selected device
  * @param  ep pointer to endpoint structure
  * @retval HAL status
  */
HAL_StatusTypeDef USB_ActivateEndpoint(USB_TypeDef *USBx, USB_EPTypeDef *ep)
{
 800628a:	b470      	push	{r4, r5, r6}
 800628c:	4603      	mov	r3, r0
  HAL_StatusTypeDef ret = HAL_OK;
  uint16_t wEpRegVal;

  wEpRegVal = PCD_GET_ENDPOINT(USBx, ep->num) & USB_EP_T_MASK;
 800628e:	780c      	ldrb	r4, [r1, #0]
 8006290:	f830 2024 	ldrh.w	r2, [r0, r4, lsl #2]
 8006294:	b292      	uxth	r2, r2
 8006296:	f422 42ec 	bic.w	r2, r2, #30208	; 0x7600
 800629a:	f022 0270 	bic.w	r2, r2, #112	; 0x70
 800629e:	b292      	uxth	r2, r2

  /* initialize Endpoint */
  switch (ep->type)
 80062a0:	78c8      	ldrb	r0, [r1, #3]
 80062a2:	2803      	cmp	r0, #3
 80062a4:	d85a      	bhi.n	800635c <USB_ActivateEndpoint+0xd2>
 80062a6:	e8df f000 	tbb	[pc, r0]
 80062aa:	554e      	.short	0x554e
 80062ac:	5102      	.short	0x5102
 80062ae:	2000      	movs	r0, #0
    default:
      ret = HAL_ERROR;
      break;
  }

  PCD_SET_ENDPOINT(USBx, ep->num, (wEpRegVal | USB_EP_CTR_RX | USB_EP_CTR_TX));
 80062b0:	f248 0580 	movw	r5, #32896	; 0x8080
 80062b4:	432a      	orrs	r2, r5
 80062b6:	f823 2024 	strh.w	r2, [r3, r4, lsl #2]

  PCD_SET_EP_ADDRESS(USBx, ep->num, ep->num);
 80062ba:	780c      	ldrb	r4, [r1, #0]
 80062bc:	f833 2024 	ldrh.w	r2, [r3, r4, lsl #2]
 80062c0:	b292      	uxth	r2, r2
 80062c2:	f422 42e0 	bic.w	r2, r2, #28672	; 0x7000
 80062c6:	f022 0270 	bic.w	r2, r2, #112	; 0x70
 80062ca:	4322      	orrs	r2, r4
 80062cc:	432a      	orrs	r2, r5
 80062ce:	f823 2024 	strh.w	r2, [r3, r4, lsl #2]

  if (ep->doublebuffer == 0U)
 80062d2:	7b0a      	ldrb	r2, [r1, #12]
 80062d4:	2a00      	cmp	r2, #0
 80062d6:	f040 80cb 	bne.w	8006470 <USB_ActivateEndpoint+0x1e6>
  {
    if (ep->is_in != 0U)
 80062da:	784a      	ldrb	r2, [r1, #1]
 80062dc:	2a00      	cmp	r2, #0
 80062de:	d04e      	beq.n	800637e <USB_ActivateEndpoint+0xf4>
    {
      /*Set the endpoint Transmit buffer address */
      PCD_SET_EP_TX_ADDRESS(USBx, ep->num, ep->pmaadress);
 80062e0:	f8b3 2050 	ldrh.w	r2, [r3, #80]	; 0x50
 80062e4:	b292      	uxth	r2, r2
 80062e6:	441a      	add	r2, r3
 80062e8:	780c      	ldrb	r4, [r1, #0]
 80062ea:	eb02 1204 	add.w	r2, r2, r4, lsl #4
 80062ee:	88cc      	ldrh	r4, [r1, #6]
 80062f0:	0864      	lsrs	r4, r4, #1
 80062f2:	0064      	lsls	r4, r4, #1
 80062f4:	f8a2 4400 	strh.w	r4, [r2, #1024]	; 0x400
      PCD_CLEAR_TX_DTOG(USBx, ep->num);
 80062f8:	780c      	ldrb	r4, [r1, #0]
 80062fa:	f833 2024 	ldrh.w	r2, [r3, r4, lsl #2]
 80062fe:	f012 0f40 	tst.w	r2, #64	; 0x40
 8006302:	d00c      	beq.n	800631e <USB_ActivateEndpoint+0x94>
 8006304:	f833 2024 	ldrh.w	r2, [r3, r4, lsl #2]
 8006308:	b292      	uxth	r2, r2
 800630a:	f422 42e0 	bic.w	r2, r2, #28672	; 0x7000
 800630e:	f022 0270 	bic.w	r2, r2, #112	; 0x70
 8006312:	f442 4200 	orr.w	r2, r2, #32768	; 0x8000
 8006316:	f042 02c0 	orr.w	r2, r2, #192	; 0xc0
 800631a:	f823 2024 	strh.w	r2, [r3, r4, lsl #2]

      if (ep->type != EP_TYPE_ISOC)
 800631e:	78ca      	ldrb	r2, [r1, #3]
 8006320:	2a01      	cmp	r2, #1
 8006322:	d01d      	beq.n	8006360 <USB_ActivateEndpoint+0xd6>
      {
        /* Configure NAK status for the Endpoint */
        PCD_SET_EP_TX_STATUS(USBx, ep->num, USB_EP_TX_NAK);
 8006324:	7809      	ldrb	r1, [r1, #0]
 8006326:	f833 2021 	ldrh.w	r2, [r3, r1, lsl #2]
 800632a:	b292      	uxth	r2, r2
 800632c:	f422 42e0 	bic.w	r2, r2, #28672	; 0x7000
 8006330:	f022 0240 	bic.w	r2, r2, #64	; 0x40
 8006334:	f082 0220 	eor.w	r2, r2, #32
 8006338:	f442 4200 	orr.w	r2, r2, #32768	; 0x8000
 800633c:	f042 0280 	orr.w	r2, r2, #128	; 0x80
 8006340:	f823 2021 	strh.w	r2, [r3, r1, lsl #2]
 8006344:	e100      	b.n	8006548 <USB_ActivateEndpoint+0x2be>
      wEpRegVal |= USB_EP_CONTROL;
 8006346:	f442 7200 	orr.w	r2, r2, #512	; 0x200
      break;
 800634a:	e7b1      	b.n	80062b0 <USB_ActivateEndpoint+0x26>
      wEpRegVal |= USB_EP_INTERRUPT;
 800634c:	f442 62c0 	orr.w	r2, r2, #1536	; 0x600
  HAL_StatusTypeDef ret = HAL_OK;
 8006350:	2000      	movs	r0, #0
      break;
 8006352:	e7ad      	b.n	80062b0 <USB_ActivateEndpoint+0x26>
      wEpRegVal |= USB_EP_ISOCHRONOUS;
 8006354:	f442 6280 	orr.w	r2, r2, #1024	; 0x400
  HAL_StatusTypeDef ret = HAL_OK;
 8006358:	2000      	movs	r0, #0
      break;
 800635a:	e7a9      	b.n	80062b0 <USB_ActivateEndpoint+0x26>
      ret = HAL_ERROR;
 800635c:	2001      	movs	r0, #1
 800635e:	e7a7      	b.n	80062b0 <USB_ActivateEndpoint+0x26>
      }
      else
      {
        /* Configure TX Endpoint to disabled state */
        PCD_SET_EP_TX_STATUS(USBx, ep->num, USB_EP_TX_DIS);
 8006360:	7809      	ldrb	r1, [r1, #0]
 8006362:	f833 2021 	ldrh.w	r2, [r3, r1, lsl #2]
 8006366:	b292      	uxth	r2, r2
 8006368:	f422 42e0 	bic.w	r2, r2, #28672	; 0x7000
 800636c:	f022 0240 	bic.w	r2, r2, #64	; 0x40
 8006370:	f442 4200 	orr.w	r2, r2, #32768	; 0x8000
 8006374:	f042 0280 	orr.w	r2, r2, #128	; 0x80
 8006378:	f823 2021 	strh.w	r2, [r3, r1, lsl #2]
 800637c:	e0e4      	b.n	8006548 <USB_ActivateEndpoint+0x2be>
      }
    }
    else
    {
      /* Set the endpoint Receive buffer address */
      PCD_SET_EP_RX_ADDRESS(USBx, ep->num, ep->pmaadress);
 800637e:	f8b3 2050 	ldrh.w	r2, [r3, #80]	; 0x50
 8006382:	b292      	uxth	r2, r2
 8006384:	441a      	add	r2, r3
 8006386:	780c      	ldrb	r4, [r1, #0]
 8006388:	eb02 1204 	add.w	r2, r2, r4, lsl #4
 800638c:	88cc      	ldrh	r4, [r1, #6]
 800638e:	0864      	lsrs	r4, r4, #1
 8006390:	0064      	lsls	r4, r4, #1
 8006392:	f8a2 4408 	strh.w	r4, [r2, #1032]	; 0x408

      /* Set the endpoint Receive buffer counter */
      PCD_SET_EP_RX_CNT(USBx, ep->num, ep->maxpacket);
 8006396:	f8b3 2050 	ldrh.w	r2, [r3, #80]	; 0x50
 800639a:	b292      	uxth	r2, r2
 800639c:	441a      	add	r2, r3
 800639e:	780c      	ldrb	r4, [r1, #0]
 80063a0:	eb02 1204 	add.w	r2, r2, r4, lsl #4
 80063a4:	f8b2 440c 	ldrh.w	r4, [r2, #1036]	; 0x40c
 80063a8:	f3c4 0409 	ubfx	r4, r4, #0, #10
 80063ac:	f8a2 440c 	strh.w	r4, [r2, #1036]	; 0x40c
 80063b0:	690d      	ldr	r5, [r1, #16]
 80063b2:	2d3e      	cmp	r5, #62	; 0x3e
 80063b4:	d933      	bls.n	800641e <USB_ActivateEndpoint+0x194>
 80063b6:	096e      	lsrs	r6, r5, #5
 80063b8:	f015 0f1f 	tst.w	r5, #31
 80063bc:	d100      	bne.n	80063c0 <USB_ActivateEndpoint+0x136>
 80063be:	3e01      	subs	r6, #1
 80063c0:	f8b2 440c 	ldrh.w	r4, [r2, #1036]	; 0x40c
 80063c4:	b2a4      	uxth	r4, r4
 80063c6:	02b6      	lsls	r6, r6, #10
 80063c8:	b2b6      	uxth	r6, r6
 80063ca:	4334      	orrs	r4, r6
 80063cc:	f444 4400 	orr.w	r4, r4, #32768	; 0x8000
 80063d0:	f8a2 440c 	strh.w	r4, [r2, #1036]	; 0x40c
      PCD_CLEAR_RX_DTOG(USBx, ep->num);
 80063d4:	780c      	ldrb	r4, [r1, #0]
 80063d6:	f833 2024 	ldrh.w	r2, [r3, r4, lsl #2]
 80063da:	f412 4f80 	tst.w	r2, #16384	; 0x4000
 80063de:	d00c      	beq.n	80063fa <USB_ActivateEndpoint+0x170>
 80063e0:	f833 2024 	ldrh.w	r2, [r3, r4, lsl #2]
 80063e4:	b292      	uxth	r2, r2
 80063e6:	f422 42e0 	bic.w	r2, r2, #28672	; 0x7000
 80063ea:	f022 0270 	bic.w	r2, r2, #112	; 0x70
 80063ee:	f442 4240 	orr.w	r2, r2, #49152	; 0xc000
 80063f2:	f042 0280 	orr.w	r2, r2, #128	; 0x80
 80063f6:	f823 2024 	strh.w	r2, [r3, r4, lsl #2]

      if (ep->num == 0U)
 80063fa:	7809      	ldrb	r1, [r1, #0]
 80063fc:	bb41      	cbnz	r1, 8006450 <USB_ActivateEndpoint+0x1c6>
      {
        /* Configure VALID status for EP0 */
        PCD_SET_EP_RX_STATUS(USBx, ep->num, USB_EP_RX_VALID);
 80063fe:	f833 2021 	ldrh.w	r2, [r3, r1, lsl #2]
 8006402:	b292      	uxth	r2, r2
 8006404:	f422 4280 	bic.w	r2, r2, #16384	; 0x4000
 8006408:	f022 0270 	bic.w	r2, r2, #112	; 0x70
 800640c:	f482 5240 	eor.w	r2, r2, #12288	; 0x3000
 8006410:	f442 4200 	orr.w	r2, r2, #32768	; 0x8000
 8006414:	f042 0280 	orr.w	r2, r2, #128	; 0x80
 8006418:	f823 2021 	strh.w	r2, [r3, r1, lsl #2]
 800641c:	e094      	b.n	8006548 <USB_ActivateEndpoint+0x2be>
      PCD_SET_EP_RX_CNT(USBx, ep->num, ep->maxpacket);
 800641e:	b94d      	cbnz	r5, 8006434 <USB_ActivateEndpoint+0x1aa>
 8006420:	f8b2 440c 	ldrh.w	r4, [r2, #1036]	; 0x40c
 8006424:	ea6f 4444 	mvn.w	r4, r4, lsl #17
 8006428:	ea6f 4454 	mvn.w	r4, r4, lsr #17
 800642c:	b2a4      	uxth	r4, r4
 800642e:	f8a2 440c 	strh.w	r4, [r2, #1036]	; 0x40c
 8006432:	e7cf      	b.n	80063d4 <USB_ActivateEndpoint+0x14a>
 8006434:	086c      	lsrs	r4, r5, #1
 8006436:	f015 0f01 	tst.w	r5, #1
 800643a:	d000      	beq.n	800643e <USB_ActivateEndpoint+0x1b4>
 800643c:	3401      	adds	r4, #1
 800643e:	f8b2 540c 	ldrh.w	r5, [r2, #1036]	; 0x40c
 8006442:	b2ad      	uxth	r5, r5
 8006444:	02a4      	lsls	r4, r4, #10
 8006446:	b2a4      	uxth	r4, r4
 8006448:	432c      	orrs	r4, r5
 800644a:	f8a2 440c 	strh.w	r4, [r2, #1036]	; 0x40c
 800644e:	e7c1      	b.n	80063d4 <USB_ActivateEndpoint+0x14a>
      }
      else
      {
        /* Configure NAK status for OUT Endpoint */
        PCD_SET_EP_RX_STATUS(USBx, ep->num, USB_EP_RX_NAK);
 8006450:	f833 2021 	ldrh.w	r2, [r3, r1, lsl #2]
 8006454:	b292      	uxth	r2, r2
 8006456:	f422 4280 	bic.w	r2, r2, #16384	; 0x4000
 800645a:	f022 0270 	bic.w	r2, r2, #112	; 0x70
 800645e:	f482 5200 	eor.w	r2, r2, #8192	; 0x2000
 8006462:	f442 4200 	orr.w	r2, r2, #32768	; 0x8000
 8006466:	f042 0280 	orr.w	r2, r2, #128	; 0x80
 800646a:	f823 2021 	strh.w	r2, [r3, r1, lsl #2]
 800646e:	e06b      	b.n	8006548 <USB_ActivateEndpoint+0x2be>
  }
#if (USE_USB_DOUBLE_BUFFER == 1U)
  /* Double Buffer */
  else
  {
    if (ep->type == EP_TYPE_BULK)
 8006470:	78ca      	ldrb	r2, [r1, #3]
 8006472:	2a02      	cmp	r2, #2
 8006474:	d06a      	beq.n	800654c <USB_ActivateEndpoint+0x2c2>
      PCD_SET_BULK_EP_DBUF(USBx, ep->num);
    }
    else
    {
      /* Set the ISOC endpoint in double buffer mode */
      PCD_CLEAR_EP_KIND(USBx, ep->num);
 8006476:	780c      	ldrb	r4, [r1, #0]
 8006478:	f833 2024 	ldrh.w	r2, [r3, r4, lsl #2]
 800647c:	b292      	uxth	r2, r2
 800647e:	f422 42e2 	bic.w	r2, r2, #28928	; 0x7100
 8006482:	f022 0270 	bic.w	r2, r2, #112	; 0x70
 8006486:	f442 4200 	orr.w	r2, r2, #32768	; 0x8000
 800648a:	f042 0280 	orr.w	r2, r2, #128	; 0x80
 800648e:	f823 2024 	strh.w	r2, [r3, r4, lsl #2]
    }

    /* Set buffer address for double buffered mode */
    PCD_SET_EP_DBUF_ADDR(USBx, ep->num, ep->pmaaddr0, ep->pmaaddr1);
 8006492:	f8b3 2050 	ldrh.w	r2, [r3, #80]	; 0x50
 8006496:	b292      	uxth	r2, r2
 8006498:	441a      	add	r2, r3
 800649a:	780c      	ldrb	r4, [r1, #0]
 800649c:	eb02 1204 	add.w	r2, r2, r4, lsl #4
 80064a0:	890c      	ldrh	r4, [r1, #8]
 80064a2:	0864      	lsrs	r4, r4, #1
 80064a4:	0064      	lsls	r4, r4, #1
 80064a6:	f8a2 4400 	strh.w	r4, [r2, #1024]	; 0x400
 80064aa:	f8b3 2050 	ldrh.w	r2, [r3, #80]	; 0x50
 80064ae:	b292      	uxth	r2, r2
 80064b0:	441a      	add	r2, r3
 80064b2:	780c      	ldrb	r4, [r1, #0]
 80064b4:	eb02 1204 	add.w	r2, r2, r4, lsl #4
 80064b8:	894c      	ldrh	r4, [r1, #10]
 80064ba:	0864      	lsrs	r4, r4, #1
 80064bc:	0064      	lsls	r4, r4, #1
 80064be:	f8a2 4408 	strh.w	r4, [r2, #1032]	; 0x408

    if (ep->is_in == 0U)
 80064c2:	784a      	ldrb	r2, [r1, #1]
 80064c4:	2a00      	cmp	r2, #0
 80064c6:	d150      	bne.n	800656a <USB_ActivateEndpoint+0x2e0>
    {
      /* Clear the data toggle bits for the endpoint IN/OUT */
      PCD_CLEAR_RX_DTOG(USBx, ep->num);
 80064c8:	780c      	ldrb	r4, [r1, #0]
 80064ca:	f833 2024 	ldrh.w	r2, [r3, r4, lsl #2]
 80064ce:	f412 4f80 	tst.w	r2, #16384	; 0x4000
 80064d2:	d00c      	beq.n	80064ee <USB_ActivateEndpoint+0x264>
 80064d4:	f833 2024 	ldrh.w	r2, [r3, r4, lsl #2]
 80064d8:	b292      	uxth	r2, r2
 80064da:	f422 42e0 	bic.w	r2, r2, #28672	; 0x7000
 80064de:	f022 0270 	bic.w	r2, r2, #112	; 0x70
 80064e2:	f442 4240 	orr.w	r2, r2, #49152	; 0xc000
 80064e6:	f042 0280 	orr.w	r2, r2, #128	; 0x80
 80064ea:	f823 2024 	strh.w	r2, [r3, r4, lsl #2]
      PCD_CLEAR_TX_DTOG(USBx, ep->num);
 80064ee:	780c      	ldrb	r4, [r1, #0]
 80064f0:	f833 2024 	ldrh.w	r2, [r3, r4, lsl #2]
 80064f4:	f012 0f40 	tst.w	r2, #64	; 0x40
 80064f8:	d00c      	beq.n	8006514 <USB_ActivateEndpoint+0x28a>
 80064fa:	f833 2024 	ldrh.w	r2, [r3, r4, lsl #2]
 80064fe:	b292      	uxth	r2, r2
 8006500:	f422 42e0 	bic.w	r2, r2, #28672	; 0x7000
 8006504:	f022 0270 	bic.w	r2, r2, #112	; 0x70
 8006508:	f442 4200 	orr.w	r2, r2, #32768	; 0x8000
 800650c:	f042 02c0 	orr.w	r2, r2, #192	; 0xc0
 8006510:	f823 2024 	strh.w	r2, [r3, r4, lsl #2]

      PCD_SET_EP_RX_STATUS(USBx, ep->num, USB_EP_RX_VALID);
 8006514:	780d      	ldrb	r5, [r1, #0]
 8006516:	f833 2025 	ldrh.w	r2, [r3, r5, lsl #2]
 800651a:	b292      	uxth	r2, r2
 800651c:	f422 4280 	bic.w	r2, r2, #16384	; 0x4000
 8006520:	f022 0270 	bic.w	r2, r2, #112	; 0x70
 8006524:	f482 5240 	eor.w	r2, r2, #12288	; 0x3000
 8006528:	f248 0480 	movw	r4, #32896	; 0x8080
 800652c:	4322      	orrs	r2, r4
 800652e:	f823 2025 	strh.w	r2, [r3, r5, lsl #2]
      PCD_SET_EP_TX_STATUS(USBx, ep->num, USB_EP_TX_DIS);
 8006532:	7809      	ldrb	r1, [r1, #0]
 8006534:	f833 2021 	ldrh.w	r2, [r3, r1, lsl #2]
 8006538:	b292      	uxth	r2, r2
 800653a:	f422 42e0 	bic.w	r2, r2, #28672	; 0x7000
 800653e:	f022 0240 	bic.w	r2, r2, #64	; 0x40
 8006542:	4322      	orrs	r2, r4
 8006544:	f823 2021 	strh.w	r2, [r3, r1, lsl #2]
    }
  }
#endif /* (USE_USB_DOUBLE_BUFFER == 1U) */

  return ret;
}
 8006548:	bc70      	pop	{r4, r5, r6}
 800654a:	4770      	bx	lr
      PCD_SET_BULK_EP_DBUF(USBx, ep->num);
 800654c:	780c      	ldrb	r4, [r1, #0]
 800654e:	f833 2024 	ldrh.w	r2, [r3, r4, lsl #2]
 8006552:	b292      	uxth	r2, r2
 8006554:	f422 42e0 	bic.w	r2, r2, #28672	; 0x7000
 8006558:	f022 0270 	bic.w	r2, r2, #112	; 0x70
 800655c:	f442 4201 	orr.w	r2, r2, #33024	; 0x8100
 8006560:	f042 0280 	orr.w	r2, r2, #128	; 0x80
 8006564:	f823 2024 	strh.w	r2, [r3, r4, lsl #2]
 8006568:	e793      	b.n	8006492 <USB_ActivateEndpoint+0x208>
      PCD_CLEAR_RX_DTOG(USBx, ep->num);
 800656a:	780c      	ldrb	r4, [r1, #0]
 800656c:	f833 2024 	ldrh.w	r2, [r3, r4, lsl #2]
 8006570:	f412 4f80 	tst.w	r2, #16384	; 0x4000
 8006574:	d00c      	beq.n	8006590 <USB_ActivateEndpoint+0x306>
 8006576:	f833 2024 	ldrh.w	r2, [r3, r4, lsl #2]
 800657a:	b292      	uxth	r2, r2
 800657c:	f422 42e0 	bic.w	r2, r2, #28672	; 0x7000
 8006580:	f022 0270 	bic.w	r2, r2, #112	; 0x70
 8006584:	f442 4240 	orr.w	r2, r2, #49152	; 0xc000
 8006588:	f042 0280 	orr.w	r2, r2, #128	; 0x80
 800658c:	f823 2024 	strh.w	r2, [r3, r4, lsl #2]
      PCD_CLEAR_TX_DTOG(USBx, ep->num);
 8006590:	780c      	ldrb	r4, [r1, #0]
 8006592:	f833 2024 	ldrh.w	r2, [r3, r4, lsl #2]
 8006596:	f012 0f40 	tst.w	r2, #64	; 0x40
 800659a:	d00c      	beq.n	80065b6 <USB_ActivateEndpoint+0x32c>
 800659c:	f833 2024 	ldrh.w	r2, [r3, r4, lsl #2]
 80065a0:	b292      	uxth	r2, r2
 80065a2:	f422 42e0 	bic.w	r2, r2, #28672	; 0x7000
 80065a6:	f022 0270 	bic.w	r2, r2, #112	; 0x70
 80065aa:	f442 4200 	orr.w	r2, r2, #32768	; 0x8000
 80065ae:	f042 02c0 	orr.w	r2, r2, #192	; 0xc0
 80065b2:	f823 2024 	strh.w	r2, [r3, r4, lsl #2]
      if (ep->type != EP_TYPE_ISOC)
 80065b6:	78ca      	ldrb	r2, [r1, #3]
 80065b8:	2a01      	cmp	r2, #1
 80065ba:	d01e      	beq.n	80065fa <USB_ActivateEndpoint+0x370>
        PCD_SET_EP_TX_STATUS(USBx, ep->num, USB_EP_TX_NAK);
 80065bc:	780c      	ldrb	r4, [r1, #0]
 80065be:	f833 2024 	ldrh.w	r2, [r3, r4, lsl #2]
 80065c2:	b292      	uxth	r2, r2
 80065c4:	f422 42e0 	bic.w	r2, r2, #28672	; 0x7000
 80065c8:	f022 0240 	bic.w	r2, r2, #64	; 0x40
 80065cc:	f082 0220 	eor.w	r2, r2, #32
 80065d0:	f442 4200 	orr.w	r2, r2, #32768	; 0x8000
 80065d4:	f042 0280 	orr.w	r2, r2, #128	; 0x80
 80065d8:	f823 2024 	strh.w	r2, [r3, r4, lsl #2]
      PCD_SET_EP_RX_STATUS(USBx, ep->num, USB_EP_RX_DIS);
 80065dc:	7809      	ldrb	r1, [r1, #0]
 80065de:	f833 2021 	ldrh.w	r2, [r3, r1, lsl #2]
 80065e2:	b292      	uxth	r2, r2
 80065e4:	f422 4280 	bic.w	r2, r2, #16384	; 0x4000
 80065e8:	f022 0270 	bic.w	r2, r2, #112	; 0x70
 80065ec:	f442 4200 	orr.w	r2, r2, #32768	; 0x8000
 80065f0:	f042 0280 	orr.w	r2, r2, #128	; 0x80
 80065f4:	f823 2021 	strh.w	r2, [r3, r1, lsl #2]
 80065f8:	e7a6      	b.n	8006548 <USB_ActivateEndpoint+0x2be>
        PCD_SET_EP_TX_STATUS(USBx, ep->num, USB_EP_TX_DIS);
 80065fa:	780c      	ldrb	r4, [r1, #0]
 80065fc:	f833 2024 	ldrh.w	r2, [r3, r4, lsl #2]
 8006600:	b292      	uxth	r2, r2
 8006602:	f422 42e0 	bic.w	r2, r2, #28672	; 0x7000
 8006606:	f022 0240 	bic.w	r2, r2, #64	; 0x40
 800660a:	f442 4200 	orr.w	r2, r2, #32768	; 0x8000
 800660e:	f042 0280 	orr.w	r2, r2, #128	; 0x80
 8006612:	f823 2024 	strh.w	r2, [r3, r4, lsl #2]
 8006616:	e7e1      	b.n	80065dc <USB_ActivateEndpoint+0x352>

08006618 <USB_DeactivateEndpoint>:
  * @param  ep pointer to endpoint structure
  * @retval HAL status
  */
HAL_StatusTypeDef USB_DeactivateEndpoint(USB_TypeDef *USBx, USB_EPTypeDef *ep)
{
  if (ep->doublebuffer == 0U)
 8006618:	7b0b      	ldrb	r3, [r1, #12]
 800661a:	2b00      	cmp	r3, #0
 800661c:	d146      	bne.n	80066ac <USB_DeactivateEndpoint+0x94>
  {
    if (ep->is_in != 0U)
 800661e:	784b      	ldrb	r3, [r1, #1]
 8006620:	b313      	cbz	r3, 8006668 <USB_DeactivateEndpoint+0x50>
    {
      PCD_CLEAR_TX_DTOG(USBx, ep->num);
 8006622:	780a      	ldrb	r2, [r1, #0]
 8006624:	f830 3022 	ldrh.w	r3, [r0, r2, lsl #2]
 8006628:	f013 0f40 	tst.w	r3, #64	; 0x40
 800662c:	d00c      	beq.n	8006648 <USB_DeactivateEndpoint+0x30>
 800662e:	f830 3022 	ldrh.w	r3, [r0, r2, lsl #2]
 8006632:	b29b      	uxth	r3, r3
 8006634:	f423 43e0 	bic.w	r3, r3, #28672	; 0x7000
 8006638:	f023 0370 	bic.w	r3, r3, #112	; 0x70
 800663c:	f443 4300 	orr.w	r3, r3, #32768	; 0x8000
 8006640:	f043 03c0 	orr.w	r3, r3, #192	; 0xc0
 8006644:	f820 3022 	strh.w	r3, [r0, r2, lsl #2]

      /* Configure DISABLE status for the Endpoint */
      PCD_SET_EP_TX_STATUS(USBx, ep->num, USB_EP_TX_DIS);
 8006648:	780a      	ldrb	r2, [r1, #0]
 800664a:	f830 3022 	ldrh.w	r3, [r0, r2, lsl #2]
 800664e:	b29b      	uxth	r3, r3
 8006650:	f423 43e0 	bic.w	r3, r3, #28672	; 0x7000
 8006654:	f023 0340 	bic.w	r3, r3, #64	; 0x40
 8006658:	f443 4300 	orr.w	r3, r3, #32768	; 0x8000
 800665c:	f043 0380 	orr.w	r3, r3, #128	; 0x80
 8006660:	f820 3022 	strh.w	r3, [r0, r2, lsl #2]
    }
  }
#endif /* (USE_USB_DOUBLE_BUFFER == 1U) */

  return HAL_OK;
}
 8006664:	2000      	movs	r0, #0
 8006666:	4770      	bx	lr
      PCD_CLEAR_RX_DTOG(USBx, ep->num);
 8006668:	780a      	ldrb	r2, [r1, #0]
 800666a:	f830 3022 	ldrh.w	r3, [r0, r2, lsl #2]
 800666e:	f413 4f80 	tst.w	r3, #16384	; 0x4000
 8006672:	d00c      	beq.n	800668e <USB_DeactivateEndpoint+0x76>
 8006674:	f830 3022 	ldrh.w	r3, [r0, r2, lsl #2]
 8006678:	b29b      	uxth	r3, r3
 800667a:	f423 43e0 	bic.w	r3, r3, #28672	; 0x7000
 800667e:	f023 0370 	bic.w	r3, r3, #112	; 0x70
 8006682:	f443 4340 	orr.w	r3, r3, #49152	; 0xc000
 8006686:	f043 0380 	orr.w	r3, r3, #128	; 0x80
 800668a:	f820 3022 	strh.w	r3, [r0, r2, lsl #2]
      PCD_SET_EP_RX_STATUS(USBx, ep->num, USB_EP_RX_DIS);
 800668e:	780a      	ldrb	r2, [r1, #0]
 8006690:	f830 3022 	ldrh.w	r3, [r0, r2, lsl #2]
 8006694:	b29b      	uxth	r3, r3
 8006696:	f423 4380 	bic.w	r3, r3, #16384	; 0x4000
 800669a:	f023 0370 	bic.w	r3, r3, #112	; 0x70
 800669e:	f443 4300 	orr.w	r3, r3, #32768	; 0x8000
 80066a2:	f043 0380 	orr.w	r3, r3, #128	; 0x80
 80066a6:	f820 3022 	strh.w	r3, [r0, r2, lsl #2]
 80066aa:	e7db      	b.n	8006664 <USB_DeactivateEndpoint+0x4c>
{
 80066ac:	b410      	push	{r4}
    if (ep->is_in == 0U)
 80066ae:	784b      	ldrb	r3, [r1, #1]
 80066b0:	2b00      	cmp	r3, #0
 80066b2:	d14e      	bne.n	8006752 <USB_DeactivateEndpoint+0x13a>
      PCD_CLEAR_RX_DTOG(USBx, ep->num);
 80066b4:	780a      	ldrb	r2, [r1, #0]
 80066b6:	f830 3022 	ldrh.w	r3, [r0, r2, lsl #2]
 80066ba:	f413 4f80 	tst.w	r3, #16384	; 0x4000
 80066be:	d00c      	beq.n	80066da <USB_DeactivateEndpoint+0xc2>
 80066c0:	f830 3022 	ldrh.w	r3, [r0, r2, lsl #2]
 80066c4:	b29b      	uxth	r3, r3
 80066c6:	f423 43e0 	bic.w	r3, r3, #28672	; 0x7000
 80066ca:	f023 0370 	bic.w	r3, r3, #112	; 0x70
 80066ce:	f443 4340 	orr.w	r3, r3, #49152	; 0xc000
 80066d2:	f043 0380 	orr.w	r3, r3, #128	; 0x80
 80066d6:	f820 3022 	strh.w	r3, [r0, r2, lsl #2]
      PCD_CLEAR_TX_DTOG(USBx, ep->num);
 80066da:	780a      	ldrb	r2, [r1, #0]
 80066dc:	f830 3022 	ldrh.w	r3, [r0, r2, lsl #2]
 80066e0:	f013 0f40 	tst.w	r3, #64	; 0x40
 80066e4:	d00c      	beq.n	8006700 <USB_DeactivateEndpoint+0xe8>
 80066e6:	f830 3022 	ldrh.w	r3, [r0, r2, lsl #2]
 80066ea:	b29b      	uxth	r3, r3
 80066ec:	f423 43e0 	bic.w	r3, r3, #28672	; 0x7000
 80066f0:	f023 0370 	bic.w	r3, r3, #112	; 0x70
 80066f4:	f443 4300 	orr.w	r3, r3, #32768	; 0x8000
 80066f8:	f043 03c0 	orr.w	r3, r3, #192	; 0xc0
 80066fc:	f820 3022 	strh.w	r3, [r0, r2, lsl #2]
      PCD_TX_DTOG(USBx, ep->num);
 8006700:	780a      	ldrb	r2, [r1, #0]
 8006702:	f830 3022 	ldrh.w	r3, [r0, r2, lsl #2]
 8006706:	b29b      	uxth	r3, r3
 8006708:	f423 43e0 	bic.w	r3, r3, #28672	; 0x7000
 800670c:	f023 0370 	bic.w	r3, r3, #112	; 0x70
 8006710:	f443 4300 	orr.w	r3, r3, #32768	; 0x8000
 8006714:	f043 03c0 	orr.w	r3, r3, #192	; 0xc0
 8006718:	f820 3022 	strh.w	r3, [r0, r2, lsl #2]
      PCD_SET_EP_RX_STATUS(USBx, ep->num, USB_EP_RX_DIS);
 800671c:	780b      	ldrb	r3, [r1, #0]
 800671e:	f830 2023 	ldrh.w	r2, [r0, r3, lsl #2]
 8006722:	b292      	uxth	r2, r2
 8006724:	f422 4280 	bic.w	r2, r2, #16384	; 0x4000
 8006728:	f022 0270 	bic.w	r2, r2, #112	; 0x70
 800672c:	f248 0480 	movw	r4, #32896	; 0x8080
 8006730:	4322      	orrs	r2, r4
 8006732:	f820 2023 	strh.w	r2, [r0, r3, lsl #2]
      PCD_SET_EP_TX_STATUS(USBx, ep->num, USB_EP_TX_DIS);
 8006736:	780a      	ldrb	r2, [r1, #0]
 8006738:	f830 3022 	ldrh.w	r3, [r0, r2, lsl #2]
 800673c:	b29b      	uxth	r3, r3
 800673e:	f423 43e0 	bic.w	r3, r3, #28672	; 0x7000
 8006742:	f023 0340 	bic.w	r3, r3, #64	; 0x40
 8006746:	4323      	orrs	r3, r4
 8006748:	f820 3022 	strh.w	r3, [r0, r2, lsl #2]
}
 800674c:	2000      	movs	r0, #0
 800674e:	bc10      	pop	{r4}
 8006750:	4770      	bx	lr
      PCD_CLEAR_RX_DTOG(USBx, ep->num);
 8006752:	780a      	ldrb	r2, [r1, #0]
 8006754:	f830 3022 	ldrh.w	r3, [r0, r2, lsl #2]
 8006758:	f413 4f80 	tst.w	r3, #16384	; 0x4000
 800675c:	d00c      	beq.n	8006778 <USB_DeactivateEndpoint+0x160>
 800675e:	f830 3022 	ldrh.w	r3, [r0, r2, lsl #2]
 8006762:	b29b      	uxth	r3, r3
 8006764:	f423 43e0 	bic.w	r3, r3, #28672	; 0x7000
 8006768:	f023 0370 	bic.w	r3, r3, #112	; 0x70
 800676c:	f443 4340 	orr.w	r3, r3, #49152	; 0xc000
 8006770:	f043 0380 	orr.w	r3, r3, #128	; 0x80
 8006774:	f820 3022 	strh.w	r3, [r0, r2, lsl #2]
      PCD_CLEAR_TX_DTOG(USBx, ep->num);
 8006778:	780a      	ldrb	r2, [r1, #0]
 800677a:	f830 3022 	ldrh.w	r3, [r0, r2, lsl #2]
 800677e:	f013 0f40 	tst.w	r3, #64	; 0x40
 8006782:	d00c      	beq.n	800679e <USB_DeactivateEndpoint+0x186>
 8006784:	f830 3022 	ldrh.w	r3, [r0, r2, lsl #2]
 8006788:	b29b      	uxth	r3, r3
 800678a:	f423 43e0 	bic.w	r3, r3, #28672	; 0x7000
 800678e:	f023 0370 	bic.w	r3, r3, #112	; 0x70
 8006792:	f443 4300 	orr.w	r3, r3, #32768	; 0x8000
 8006796:	f043 03c0 	orr.w	r3, r3, #192	; 0xc0
 800679a:	f820 3022 	strh.w	r3, [r0, r2, lsl #2]
      PCD_RX_DTOG(USBx, ep->num);
 800679e:	780a      	ldrb	r2, [r1, #0]
 80067a0:	f830 3022 	ldrh.w	r3, [r0, r2, lsl #2]
 80067a4:	b29b      	uxth	r3, r3
 80067a6:	f423 43e0 	bic.w	r3, r3, #28672	; 0x7000
 80067aa:	f023 0370 	bic.w	r3, r3, #112	; 0x70
 80067ae:	f443 4340 	orr.w	r3, r3, #49152	; 0xc000
 80067b2:	f043 0380 	orr.w	r3, r3, #128	; 0x80
 80067b6:	f820 3022 	strh.w	r3, [r0, r2, lsl #2]
      PCD_SET_EP_TX_STATUS(USBx, ep->num, USB_EP_TX_DIS);
 80067ba:	780b      	ldrb	r3, [r1, #0]
 80067bc:	f830 2023 	ldrh.w	r2, [r0, r3, lsl #2]
 80067c0:	b292      	uxth	r2, r2
 80067c2:	f422 42e0 	bic.w	r2, r2, #28672	; 0x7000
 80067c6:	f022 0240 	bic.w	r2, r2, #64	; 0x40
 80067ca:	f248 0480 	movw	r4, #32896	; 0x8080
 80067ce:	4322      	orrs	r2, r4
 80067d0:	f820 2023 	strh.w	r2, [r0, r3, lsl #2]
      PCD_SET_EP_RX_STATUS(USBx, ep->num, USB_EP_RX_DIS);
 80067d4:	780a      	ldrb	r2, [r1, #0]
 80067d6:	f830 3022 	ldrh.w	r3, [r0, r2, lsl #2]
 80067da:	b29b      	uxth	r3, r3
 80067dc:	f423 4380 	bic.w	r3, r3, #16384	; 0x4000
 80067e0:	f023 0370 	bic.w	r3, r3, #112	; 0x70
 80067e4:	4323      	orrs	r3, r4
 80067e6:	f820 3022 	strh.w	r3, [r0, r2, lsl #2]
 80067ea:	e7af      	b.n	800674c <USB_DeactivateEndpoint+0x134>

080067ec <USB_EPSetStall>:
  * @param  ep pointer to endpoint structure
  * @retval HAL status
  */
HAL_StatusTypeDef USB_EPSetStall(USB_TypeDef *USBx, USB_EPTypeDef *ep)
{
  if (ep->is_in != 0U)
 80067ec:	784b      	ldrb	r3, [r1, #1]
 80067ee:	b18b      	cbz	r3, 8006814 <USB_EPSetStall+0x28>
  {
    PCD_SET_EP_TX_STATUS(USBx, ep->num, USB_EP_TX_STALL);
 80067f0:	780a      	ldrb	r2, [r1, #0]
 80067f2:	f830 3022 	ldrh.w	r3, [r0, r2, lsl #2]
 80067f6:	b29b      	uxth	r3, r3
 80067f8:	f423 43e0 	bic.w	r3, r3, #28672	; 0x7000
 80067fc:	f023 0340 	bic.w	r3, r3, #64	; 0x40
 8006800:	f083 0310 	eor.w	r3, r3, #16
 8006804:	f443 4300 	orr.w	r3, r3, #32768	; 0x8000
 8006808:	f043 0380 	orr.w	r3, r3, #128	; 0x80
 800680c:	f820 3022 	strh.w	r3, [r0, r2, lsl #2]
  {
    PCD_SET_EP_RX_STATUS(USBx, ep->num, USB_EP_RX_STALL);
  }

  return HAL_OK;
}
 8006810:	2000      	movs	r0, #0
 8006812:	4770      	bx	lr
    PCD_SET_EP_RX_STATUS(USBx, ep->num, USB_EP_RX_STALL);
 8006814:	780a      	ldrb	r2, [r1, #0]
 8006816:	f830 3022 	ldrh.w	r3, [r0, r2, lsl #2]
 800681a:	b29b      	uxth	r3, r3
 800681c:	f423 4380 	bic.w	r3, r3, #16384	; 0x4000
 8006820:	f023 0370 	bic.w	r3, r3, #112	; 0x70
 8006824:	f483 5380 	eor.w	r3, r3, #4096	; 0x1000
 8006828:	f443 4300 	orr.w	r3, r3, #32768	; 0x8000
 800682c:	f043 0380 	orr.w	r3, r3, #128	; 0x80
 8006830:	f820 3022 	strh.w	r3, [r0, r2, lsl #2]
 8006834:	e7ec      	b.n	8006810 <USB_EPSetStall+0x24>

08006836 <USB_EPClearStall>:
  * @param  ep pointer to endpoint structure
  * @retval HAL status
  */
HAL_StatusTypeDef USB_EPClearStall(USB_TypeDef *USBx, USB_EPTypeDef *ep)
{
  if (ep->doublebuffer == 0U)
 8006836:	7b0b      	ldrb	r3, [r1, #12]
 8006838:	2b00      	cmp	r3, #0
 800683a:	d14b      	bne.n	80068d4 <USB_EPClearStall+0x9e>
  {
    if (ep->is_in != 0U)
 800683c:	784b      	ldrb	r3, [r1, #1]
 800683e:	b333      	cbz	r3, 800688e <USB_EPClearStall+0x58>
    {
      PCD_CLEAR_TX_DTOG(USBx, ep->num);
 8006840:	780a      	ldrb	r2, [r1, #0]
 8006842:	f830 3022 	ldrh.w	r3, [r0, r2, lsl #2]
 8006846:	f013 0f40 	tst.w	r3, #64	; 0x40
 800684a:	d00c      	beq.n	8006866 <USB_EPClearStall+0x30>
 800684c:	f830 3022 	ldrh.w	r3, [r0, r2, lsl #2]
 8006850:	b29b      	uxth	r3, r3
 8006852:	f423 43e0 	bic.w	r3, r3, #28672	; 0x7000
 8006856:	f023 0370 	bic.w	r3, r3, #112	; 0x70
 800685a:	f443 4300 	orr.w	r3, r3, #32768	; 0x8000
 800685e:	f043 03c0 	orr.w	r3, r3, #192	; 0xc0
 8006862:	f820 3022 	strh.w	r3, [r0, r2, lsl #2]

      if (ep->type != EP_TYPE_ISOC)
 8006866:	78cb      	ldrb	r3, [r1, #3]
 8006868:	2b01      	cmp	r3, #1
 800686a:	d033      	beq.n	80068d4 <USB_EPClearStall+0x9e>
      {
        /* Configure NAK status for the Endpoint */
        PCD_SET_EP_TX_STATUS(USBx, ep->num, USB_EP_TX_NAK);
 800686c:	780a      	ldrb	r2, [r1, #0]
 800686e:	f830 3022 	ldrh.w	r3, [r0, r2, lsl #2]
 8006872:	b29b      	uxth	r3, r3
 8006874:	f423 43e0 	bic.w	r3, r3, #28672	; 0x7000
 8006878:	f023 0340 	bic.w	r3, r3, #64	; 0x40
 800687c:	f083 0320 	eor.w	r3, r3, #32
 8006880:	f443 4300 	orr.w	r3, r3, #32768	; 0x8000
 8006884:	f043 0380 	orr.w	r3, r3, #128	; 0x80
 8006888:	f820 3022 	strh.w	r3, [r0, r2, lsl #2]
 800688c:	e022      	b.n	80068d4 <USB_EPClearStall+0x9e>
      }
    }
    else
    {
      PCD_CLEAR_RX_DTOG(USBx, ep->num);
 800688e:	780a      	ldrb	r2, [r1, #0]
 8006890:	f830 3022 	ldrh.w	r3, [r0, r2, lsl #2]
 8006894:	f413 4f80 	tst.w	r3, #16384	; 0x4000
 8006898:	d00c      	beq.n	80068b4 <USB_EPClearStall+0x7e>
 800689a:	f830 3022 	ldrh.w	r3, [r0, r2, lsl #2]
 800689e:	b29b      	uxth	r3, r3
 80068a0:	f423 43e0 	bic.w	r3, r3, #28672	; 0x7000
 80068a4:	f023 0370 	bic.w	r3, r3, #112	; 0x70
 80068a8:	f443 4340 	orr.w	r3, r3, #49152	; 0xc000
 80068ac:	f043 0380 	orr.w	r3, r3, #128	; 0x80
 80068b0:	f820 3022 	strh.w	r3, [r0, r2, lsl #2]

      /* Configure VALID status for the Endpoint */
      PCD_SET_EP_RX_STATUS(USBx, ep->num, USB_EP_RX_VALID);
 80068b4:	780a      	ldrb	r2, [r1, #0]
 80068b6:	f830 3022 	ldrh.w	r3, [r0, r2, lsl #2]
 80068ba:	b29b      	uxth	r3, r3
 80068bc:	f423 4380 	bic.w	r3, r3, #16384	; 0x4000
 80068c0:	f023 0370 	bic.w	r3, r3, #112	; 0x70
 80068c4:	f483 5340 	eor.w	r3, r3, #12288	; 0x3000
 80068c8:	f443 4300 	orr.w	r3, r3, #32768	; 0x8000
 80068cc:	f043 0380 	orr.w	r3, r3, #128	; 0x80
 80068d0:	f820 3022 	strh.w	r3, [r0, r2, lsl #2]
    }
  }

  return HAL_OK;
}
 80068d4:	2000      	movs	r0, #0
 80068d6:	4770      	bx	lr

080068d8 <USB_SetDevAddress>:
  *          This parameter can be a value from 0 to 255
  * @retval HAL status
  */
HAL_StatusTypeDef  USB_SetDevAddress(USB_TypeDef *USBx, uint8_t address)
{
  if (address == 0U)
 80068d8:	b911      	cbnz	r1, 80068e0 <USB_SetDevAddress+0x8>
  {
    /* set device address and enable function */
    USBx->DADDR = (uint16_t)USB_DADDR_EF;
 80068da:	2380      	movs	r3, #128	; 0x80
 80068dc:	f8a0 304c 	strh.w	r3, [r0, #76]	; 0x4c
  }

  return HAL_OK;
}
 80068e0:	2000      	movs	r0, #0
 80068e2:	4770      	bx	lr

080068e4 <USB_DevConnect>:
              only by USB OTG FS peripheral.
            - This function is added to ensure compatibility across platforms.
   */

  return HAL_OK;
}
 80068e4:	2000      	movs	r0, #0
 80068e6:	4770      	bx	lr

080068e8 <USB_DevDisconnect>:
              only by USB OTG FS peripheral.
            - This function is added to ensure compatibility across platforms.
   */

  return HAL_OK;
}
 80068e8:	2000      	movs	r0, #0
 80068ea:	4770      	bx	lr

080068ec <USB_ReadInterrupts>:
  */
uint32_t USB_ReadInterrupts(USB_TypeDef const *USBx)
{
  uint32_t tmpreg;

  tmpreg = USBx->ISTR;
 80068ec:	f8b0 0044 	ldrh.w	r0, [r0, #68]	; 0x44
  return tmpreg;
}
 80068f0:	b280      	uxth	r0, r0
 80068f2:	4770      	bx	lr

080068f4 <USB_EP0_OutStart>:
  /* NOTE : - This function is not required by USB Device FS peripheral, it is used
              only by USB OTG FS peripheral.
            - This function is added to ensure compatibility across platforms.
   */
  return HAL_OK;
}
 80068f4:	2000      	movs	r0, #0
 80068f6:	4770      	bx	lr

080068f8 <USB_WritePMA>:
  * @param   wPMABufAddr address into PMA.
  * @param   wNBytes no. of bytes to be copied.
  * @retval None
  */
void USB_WritePMA(USB_TypeDef const *USBx, uint8_t *pbUsrBuf, uint16_t wPMABufAddr, uint16_t wNBytes)
{
 80068f8:	b410      	push	{r4}
  uint32_t n = ((uint32_t)wNBytes + 1U) >> 1;
 80068fa:	1c5c      	adds	r4, r3, #1
 80068fc:	0864      	lsrs	r4, r4, #1
  uint32_t count;
  uint16_t WrVal;
  __IO uint16_t *pdwVal;
  uint8_t *pBuf = pbUsrBuf;

  pdwVal = (__IO uint16_t *)(BaseAddr + 0x400U + ((uint32_t)wPMABufAddr * PMA_ACCESS));
 80068fe:	eb00 0242 	add.w	r2, r0, r2, lsl #1
 8006902:	f502 6280 	add.w	r2, r2, #1024	; 0x400

  for (count = n; count != 0U; count--)
 8006906:	b144      	cbz	r4, 800691a <USB_WritePMA+0x22>
  {
    WrVal = pBuf[0];
 8006908:	780b      	ldrb	r3, [r1, #0]
    WrVal |= (uint16_t)pBuf[1] << 8;
 800690a:	7848      	ldrb	r0, [r1, #1]
 800690c:	ea43 2300 	orr.w	r3, r3, r0, lsl #8
    *pdwVal = (WrVal & 0xFFFFU);
 8006910:	f822 3b04 	strh.w	r3, [r2], #4
#if PMA_ACCESS > 1U
    pdwVal++;
#endif /* PMA_ACCESS */

    pBuf++;
    pBuf++;
 8006914:	3102      	adds	r1, #2
  for (count = n; count != 0U; count--)
 8006916:	3c01      	subs	r4, #1
 8006918:	e7f5      	b.n	8006906 <USB_WritePMA+0xe>
  }
}
 800691a:	bc10      	pop	{r4}
 800691c:	4770      	bx	lr

0800691e <USB_EPStartXfer>:
{
 800691e:	b570      	push	{r4, r5, r6, lr}
 8006920:	4605      	mov	r5, r0
 8006922:	460c      	mov	r4, r1
  if (ep->is_in == 1U)
 8006924:	784a      	ldrb	r2, [r1, #1]
 8006926:	2a01      	cmp	r2, #1
 8006928:	d03b      	beq.n	80069a2 <USB_EPStartXfer+0x84>
    if (ep->doublebuffer == 0U)
 800692a:	7b0b      	ldrb	r3, [r1, #12]
 800692c:	2b00      	cmp	r3, #0
 800692e:	f040 82a6 	bne.w	8006e7e <USB_EPStartXfer+0x560>
      if (ep->xfer_len > ep->maxpacket)
 8006932:	698b      	ldr	r3, [r1, #24]
 8006934:	690a      	ldr	r2, [r1, #16]
 8006936:	4293      	cmp	r3, r2
 8006938:	f240 8284 	bls.w	8006e44 <USB_EPStartXfer+0x526>
        ep->xfer_len -= len;
 800693c:	1a9b      	subs	r3, r3, r2
 800693e:	618b      	str	r3, [r1, #24]
      PCD_SET_EP_RX_CNT(USBx, ep->num, len);
 8006940:	f8b5 3050 	ldrh.w	r3, [r5, #80]	; 0x50
 8006944:	b29b      	uxth	r3, r3
 8006946:	442b      	add	r3, r5
 8006948:	7821      	ldrb	r1, [r4, #0]
 800694a:	eb03 1301 	add.w	r3, r3, r1, lsl #4
 800694e:	f8b3 140c 	ldrh.w	r1, [r3, #1036]	; 0x40c
 8006952:	f3c1 0109 	ubfx	r1, r1, #0, #10
 8006956:	f8a3 140c 	strh.w	r1, [r3, #1036]	; 0x40c
 800695a:	2a3e      	cmp	r2, #62	; 0x3e
 800695c:	f240 8276 	bls.w	8006e4c <USB_EPStartXfer+0x52e>
 8006960:	0951      	lsrs	r1, r2, #5
 8006962:	f012 0f1f 	tst.w	r2, #31
 8006966:	d100      	bne.n	800696a <USB_EPStartXfer+0x4c>
 8006968:	3901      	subs	r1, #1
 800696a:	f8b3 240c 	ldrh.w	r2, [r3, #1036]	; 0x40c
 800696e:	b292      	uxth	r2, r2
 8006970:	0289      	lsls	r1, r1, #10
 8006972:	b289      	uxth	r1, r1
 8006974:	430a      	orrs	r2, r1
 8006976:	f442 4200 	orr.w	r2, r2, #32768	; 0x8000
 800697a:	f8a3 240c 	strh.w	r2, [r3, #1036]	; 0x40c
    PCD_SET_EP_RX_STATUS(USBx, ep->num, USB_EP_RX_VALID);
 800697e:	7822      	ldrb	r2, [r4, #0]
 8006980:	f835 3022 	ldrh.w	r3, [r5, r2, lsl #2]
 8006984:	b29b      	uxth	r3, r3
 8006986:	f423 4380 	bic.w	r3, r3, #16384	; 0x4000
 800698a:	f023 0370 	bic.w	r3, r3, #112	; 0x70
 800698e:	f483 5340 	eor.w	r3, r3, #12288	; 0x3000
 8006992:	f443 4300 	orr.w	r3, r3, #32768	; 0x8000
 8006996:	f043 0380 	orr.w	r3, r3, #128	; 0x80
 800699a:	f825 3022 	strh.w	r3, [r5, r2, lsl #2]
  return HAL_OK;
 800699e:	2000      	movs	r0, #0
}
 80069a0:	bd70      	pop	{r4, r5, r6, pc}
    if (ep->xfer_len > ep->maxpacket)
 80069a2:	698e      	ldr	r6, [r1, #24]
 80069a4:	6909      	ldr	r1, [r1, #16]
 80069a6:	428e      	cmp	r6, r1
 80069a8:	d900      	bls.n	80069ac <USB_EPStartXfer+0x8e>
      len = ep->maxpacket;
 80069aa:	460e      	mov	r6, r1
    if (ep->doublebuffer == 0U)
 80069ac:	7b23      	ldrb	r3, [r4, #12]
 80069ae:	b373      	cbz	r3, 8006a0e <USB_EPStartXfer+0xf0>
      if (ep->type == EP_TYPE_BULK)
 80069b0:	78e3      	ldrb	r3, [r4, #3]
 80069b2:	2b02      	cmp	r3, #2
 80069b4:	d04d      	beq.n	8006a52 <USB_EPStartXfer+0x134>
        ep->xfer_len_db -= len;
 80069b6:	6a23      	ldr	r3, [r4, #32]
 80069b8:	1b9b      	subs	r3, r3, r6
 80069ba:	6223      	str	r3, [r4, #32]
        if ((PCD_GET_ENDPOINT(USBx, ep->num) & USB_EP_DTOG_TX) != 0U)
 80069bc:	7821      	ldrb	r1, [r4, #0]
 80069be:	f835 3021 	ldrh.w	r3, [r5, r1, lsl #2]
 80069c2:	f013 0f40 	tst.w	r3, #64	; 0x40
 80069c6:	f000 81f5 	beq.w	8006db4 <USB_EPStartXfer+0x496>
          PCD_SET_EP_DBUF1_CNT(USBx, ep->num, ep->is_in, len);
 80069ca:	2a00      	cmp	r2, #0
 80069cc:	f040 81e2 	bne.w	8006d94 <USB_EPStartXfer+0x476>
 80069d0:	f8b5 3050 	ldrh.w	r3, [r5, #80]	; 0x50
 80069d4:	b29b      	uxth	r3, r3
 80069d6:	442b      	add	r3, r5
 80069d8:	eb03 1301 	add.w	r3, r3, r1, lsl #4
 80069dc:	f8b3 240c 	ldrh.w	r2, [r3, #1036]	; 0x40c
 80069e0:	f3c2 0209 	ubfx	r2, r2, #0, #10
 80069e4:	f8a3 240c 	strh.w	r2, [r3, #1036]	; 0x40c
 80069e8:	2e3e      	cmp	r6, #62	; 0x3e
 80069ea:	f240 81ba 	bls.w	8006d62 <USB_EPStartXfer+0x444>
 80069ee:	0971      	lsrs	r1, r6, #5
 80069f0:	f016 0f1f 	tst.w	r6, #31
 80069f4:	d100      	bne.n	80069f8 <USB_EPStartXfer+0xda>
 80069f6:	3901      	subs	r1, #1
 80069f8:	f8b3 240c 	ldrh.w	r2, [r3, #1036]	; 0x40c
 80069fc:	b292      	uxth	r2, r2
 80069fe:	0289      	lsls	r1, r1, #10
 8006a00:	b289      	uxth	r1, r1
 8006a02:	430a      	orrs	r2, r1
 8006a04:	f442 4200 	orr.w	r2, r2, #32768	; 0x8000
 8006a08:	f8a3 240c 	strh.w	r2, [r3, #1036]	; 0x40c
 8006a0c:	e1cb      	b.n	8006da6 <USB_EPStartXfer+0x488>
      USB_WritePMA(USBx, ep->xfer_buff, ep->pmaadress, (uint16_t)len);
 8006a0e:	b2b6      	uxth	r6, r6
 8006a10:	4633      	mov	r3, r6
 8006a12:	88e2      	ldrh	r2, [r4, #6]
 8006a14:	6961      	ldr	r1, [r4, #20]
 8006a16:	4628      	mov	r0, r5
 8006a18:	f7ff ff6e 	bl	80068f8 <USB_WritePMA>
      PCD_SET_EP_TX_CNT(USBx, ep->num, len);
 8006a1c:	f8b5 3050 	ldrh.w	r3, [r5, #80]	; 0x50
 8006a20:	b29b      	uxth	r3, r3
 8006a22:	442b      	add	r3, r5
 8006a24:	7822      	ldrb	r2, [r4, #0]
 8006a26:	eb03 1302 	add.w	r3, r3, r2, lsl #4
 8006a2a:	f8a3 6404 	strh.w	r6, [r3, #1028]	; 0x404
    PCD_SET_EP_TX_STATUS(USBx, ep->num, USB_EP_TX_VALID);
 8006a2e:	7822      	ldrb	r2, [r4, #0]
 8006a30:	f835 3022 	ldrh.w	r3, [r5, r2, lsl #2]
 8006a34:	b29b      	uxth	r3, r3
 8006a36:	f423 43e0 	bic.w	r3, r3, #28672	; 0x7000
 8006a3a:	f023 0340 	bic.w	r3, r3, #64	; 0x40
 8006a3e:	f083 0330 	eor.w	r3, r3, #48	; 0x30
 8006a42:	f443 4300 	orr.w	r3, r3, #32768	; 0x8000
 8006a46:	f043 0380 	orr.w	r3, r3, #128	; 0x80
 8006a4a:	f825 3022 	strh.w	r3, [r5, r2, lsl #2]
  return HAL_OK;
 8006a4e:	2000      	movs	r0, #0
 8006a50:	e7a6      	b.n	80069a0 <USB_EPStartXfer+0x82>
        if (ep->xfer_len_db > ep->maxpacket)
 8006a52:	6a23      	ldr	r3, [r4, #32]
 8006a54:	4299      	cmp	r1, r3
 8006a56:	f080 8166 	bcs.w	8006d26 <USB_EPStartXfer+0x408>
          PCD_SET_BULK_EP_DBUF(USBx, ep->num);
 8006a5a:	7822      	ldrb	r2, [r4, #0]
 8006a5c:	f835 3022 	ldrh.w	r3, [r5, r2, lsl #2]
 8006a60:	b29b      	uxth	r3, r3
 8006a62:	f423 43e0 	bic.w	r3, r3, #28672	; 0x7000
 8006a66:	f023 0370 	bic.w	r3, r3, #112	; 0x70
 8006a6a:	f443 4301 	orr.w	r3, r3, #33024	; 0x8100
 8006a6e:	f043 0380 	orr.w	r3, r3, #128	; 0x80
 8006a72:	f825 3022 	strh.w	r3, [r5, r2, lsl #2]
          ep->xfer_len_db -= len;
 8006a76:	6a23      	ldr	r3, [r4, #32]
 8006a78:	1b9b      	subs	r3, r3, r6
 8006a7a:	6223      	str	r3, [r4, #32]
          if ((PCD_GET_ENDPOINT(USBx, ep->num) & USB_EP_DTOG_TX) != 0U)
 8006a7c:	7822      	ldrb	r2, [r4, #0]
 8006a7e:	f835 3022 	ldrh.w	r3, [r5, r2, lsl #2]
 8006a82:	f013 0f40 	tst.w	r3, #64	; 0x40
 8006a86:	f000 80a7 	beq.w	8006bd8 <USB_EPStartXfer+0x2ba>
            PCD_SET_EP_DBUF1_CNT(USBx, ep->num, ep->is_in, len);
 8006a8a:	7863      	ldrb	r3, [r4, #1]
 8006a8c:	bbb3      	cbnz	r3, 8006afc <USB_EPStartXfer+0x1de>
 8006a8e:	f8b5 3050 	ldrh.w	r3, [r5, #80]	; 0x50
 8006a92:	b29b      	uxth	r3, r3
 8006a94:	442b      	add	r3, r5
 8006a96:	eb03 1302 	add.w	r3, r3, r2, lsl #4
 8006a9a:	f8b3 240c 	ldrh.w	r2, [r3, #1036]	; 0x40c
 8006a9e:	f3c2 0209 	ubfx	r2, r2, #0, #10
 8006aa2:	f8a3 240c 	strh.w	r2, [r3, #1036]	; 0x40c
 8006aa6:	2e3e      	cmp	r6, #62	; 0x3e
 8006aa8:	d90f      	bls.n	8006aca <USB_EPStartXfer+0x1ac>
 8006aaa:	0971      	lsrs	r1, r6, #5
 8006aac:	f016 0f1f 	tst.w	r6, #31
 8006ab0:	d100      	bne.n	8006ab4 <USB_EPStartXfer+0x196>
 8006ab2:	3901      	subs	r1, #1
 8006ab4:	f8b3 240c 	ldrh.w	r2, [r3, #1036]	; 0x40c
 8006ab8:	b292      	uxth	r2, r2
 8006aba:	0289      	lsls	r1, r1, #10
 8006abc:	b289      	uxth	r1, r1
 8006abe:	430a      	orrs	r2, r1
 8006ac0:	f442 4200 	orr.w	r2, r2, #32768	; 0x8000
 8006ac4:	f8a3 240c 	strh.w	r2, [r3, #1036]	; 0x40c
 8006ac8:	e01a      	b.n	8006b00 <USB_EPStartXfer+0x1e2>
 8006aca:	b94e      	cbnz	r6, 8006ae0 <USB_EPStartXfer+0x1c2>
 8006acc:	f8b3 240c 	ldrh.w	r2, [r3, #1036]	; 0x40c
 8006ad0:	ea6f 4242 	mvn.w	r2, r2, lsl #17
 8006ad4:	ea6f 4252 	mvn.w	r2, r2, lsr #17
 8006ad8:	b292      	uxth	r2, r2
 8006ada:	f8a3 240c 	strh.w	r2, [r3, #1036]	; 0x40c
 8006ade:	e00f      	b.n	8006b00 <USB_EPStartXfer+0x1e2>
 8006ae0:	0872      	lsrs	r2, r6, #1
 8006ae2:	f016 0f01 	tst.w	r6, #1
 8006ae6:	d000      	beq.n	8006aea <USB_EPStartXfer+0x1cc>
 8006ae8:	3201      	adds	r2, #1
 8006aea:	f8b3 140c 	ldrh.w	r1, [r3, #1036]	; 0x40c
 8006aee:	b289      	uxth	r1, r1
 8006af0:	0292      	lsls	r2, r2, #10
 8006af2:	b292      	uxth	r2, r2
 8006af4:	430a      	orrs	r2, r1
 8006af6:	f8a3 240c 	strh.w	r2, [r3, #1036]	; 0x40c
 8006afa:	e001      	b.n	8006b00 <USB_EPStartXfer+0x1e2>
 8006afc:	2b01      	cmp	r3, #1
 8006afe:	d030      	beq.n	8006b62 <USB_EPStartXfer+0x244>
            USB_WritePMA(USBx, ep->xfer_buff, pmabuffer, (uint16_t)len);
 8006b00:	b2b3      	uxth	r3, r6
 8006b02:	8962      	ldrh	r2, [r4, #10]
 8006b04:	6961      	ldr	r1, [r4, #20]
 8006b06:	4628      	mov	r0, r5
 8006b08:	f7ff fef6 	bl	80068f8 <USB_WritePMA>
            ep->xfer_buff += len;
 8006b0c:	6963      	ldr	r3, [r4, #20]
 8006b0e:	4433      	add	r3, r6
 8006b10:	6163      	str	r3, [r4, #20]
            if (ep->xfer_len_db > ep->maxpacket)
 8006b12:	6a23      	ldr	r3, [r4, #32]
 8006b14:	6922      	ldr	r2, [r4, #16]
 8006b16:	4293      	cmp	r3, r2
 8006b18:	d92d      	bls.n	8006b76 <USB_EPStartXfer+0x258>
              ep->xfer_len_db -= len;
 8006b1a:	1b9b      	subs	r3, r3, r6
 8006b1c:	6223      	str	r3, [r4, #32]
            PCD_SET_EP_DBUF0_CNT(USBx, ep->num, ep->is_in, len);
 8006b1e:	7863      	ldrb	r3, [r4, #1]
 8006b20:	2b00      	cmp	r3, #0
 8006b22:	d145      	bne.n	8006bb0 <USB_EPStartXfer+0x292>
 8006b24:	f8b5 3050 	ldrh.w	r3, [r5, #80]	; 0x50
 8006b28:	b29b      	uxth	r3, r3
 8006b2a:	442b      	add	r3, r5
 8006b2c:	7822      	ldrb	r2, [r4, #0]
 8006b2e:	eb03 1302 	add.w	r3, r3, r2, lsl #4
 8006b32:	f8b3 2404 	ldrh.w	r2, [r3, #1028]	; 0x404
 8006b36:	f3c2 0209 	ubfx	r2, r2, #0, #10
 8006b3a:	f8a3 2404 	strh.w	r2, [r3, #1028]	; 0x404
 8006b3e:	2e3e      	cmp	r6, #62	; 0x3e
 8006b40:	d91d      	bls.n	8006b7e <USB_EPStartXfer+0x260>
 8006b42:	0971      	lsrs	r1, r6, #5
 8006b44:	f016 0f1f 	tst.w	r6, #31
 8006b48:	d100      	bne.n	8006b4c <USB_EPStartXfer+0x22e>
 8006b4a:	3901      	subs	r1, #1
 8006b4c:	f8b3 2404 	ldrh.w	r2, [r3, #1028]	; 0x404
 8006b50:	b292      	uxth	r2, r2
 8006b52:	0289      	lsls	r1, r1, #10
 8006b54:	b289      	uxth	r1, r1
 8006b56:	430a      	orrs	r2, r1
 8006b58:	f442 4200 	orr.w	r2, r2, #32768	; 0x8000
 8006b5c:	f8a3 2404 	strh.w	r2, [r3, #1028]	; 0x404
 8006b60:	e028      	b.n	8006bb4 <USB_EPStartXfer+0x296>
            PCD_SET_EP_DBUF1_CNT(USBx, ep->num, ep->is_in, len);
 8006b62:	f8b5 3050 	ldrh.w	r3, [r5, #80]	; 0x50
 8006b66:	b29b      	uxth	r3, r3
 8006b68:	442b      	add	r3, r5
 8006b6a:	eb03 1302 	add.w	r3, r3, r2, lsl #4
 8006b6e:	b2b2      	uxth	r2, r6
 8006b70:	f8a3 240c 	strh.w	r2, [r3, #1036]	; 0x40c
 8006b74:	e7c4      	b.n	8006b00 <USB_EPStartXfer+0x1e2>
              ep->xfer_len_db = 0U;
 8006b76:	2200      	movs	r2, #0
 8006b78:	6222      	str	r2, [r4, #32]
              len = ep->xfer_len_db;
 8006b7a:	461e      	mov	r6, r3
 8006b7c:	e7cf      	b.n	8006b1e <USB_EPStartXfer+0x200>
            PCD_SET_EP_DBUF0_CNT(USBx, ep->num, ep->is_in, len);
 8006b7e:	b94e      	cbnz	r6, 8006b94 <USB_EPStartXfer+0x276>
 8006b80:	f8b3 2404 	ldrh.w	r2, [r3, #1028]	; 0x404
 8006b84:	ea6f 4242 	mvn.w	r2, r2, lsl #17
 8006b88:	ea6f 4252 	mvn.w	r2, r2, lsr #17
 8006b8c:	b292      	uxth	r2, r2
 8006b8e:	f8a3 2404 	strh.w	r2, [r3, #1028]	; 0x404
 8006b92:	e00f      	b.n	8006bb4 <USB_EPStartXfer+0x296>
 8006b94:	0872      	lsrs	r2, r6, #1
 8006b96:	f016 0f01 	tst.w	r6, #1
 8006b9a:	d000      	beq.n	8006b9e <USB_EPStartXfer+0x280>
 8006b9c:	3201      	adds	r2, #1
 8006b9e:	f8b3 1404 	ldrh.w	r1, [r3, #1028]	; 0x404
 8006ba2:	b289      	uxth	r1, r1
 8006ba4:	0292      	lsls	r2, r2, #10
 8006ba6:	b292      	uxth	r2, r2
 8006ba8:	430a      	orrs	r2, r1
 8006baa:	f8a3 2404 	strh.w	r2, [r3, #1028]	; 0x404
 8006bae:	e001      	b.n	8006bb4 <USB_EPStartXfer+0x296>
 8006bb0:	2b01      	cmp	r3, #1
 8006bb2:	d006      	beq.n	8006bc2 <USB_EPStartXfer+0x2a4>
            USB_WritePMA(USBx, ep->xfer_buff, pmabuffer, (uint16_t)len);
 8006bb4:	b2b3      	uxth	r3, r6
 8006bb6:	8922      	ldrh	r2, [r4, #8]
 8006bb8:	6961      	ldr	r1, [r4, #20]
 8006bba:	4628      	mov	r0, r5
 8006bbc:	f7ff fe9c 	bl	80068f8 <USB_WritePMA>
 8006bc0:	e735      	b.n	8006a2e <USB_EPStartXfer+0x110>
            PCD_SET_EP_DBUF0_CNT(USBx, ep->num, ep->is_in, len);
 8006bc2:	f8b5 3050 	ldrh.w	r3, [r5, #80]	; 0x50
 8006bc6:	b29b      	uxth	r3, r3
 8006bc8:	442b      	add	r3, r5
 8006bca:	7822      	ldrb	r2, [r4, #0]
 8006bcc:	eb03 1302 	add.w	r3, r3, r2, lsl #4
 8006bd0:	b2b2      	uxth	r2, r6
 8006bd2:	f8a3 2404 	strh.w	r2, [r3, #1028]	; 0x404
 8006bd6:	e7ed      	b.n	8006bb4 <USB_EPStartXfer+0x296>
            PCD_SET_EP_DBUF0_CNT(USBx, ep->num, ep->is_in, len);
 8006bd8:	7863      	ldrb	r3, [r4, #1]
 8006bda:	bbb3      	cbnz	r3, 8006c4a <USB_EPStartXfer+0x32c>
 8006bdc:	f8b5 3050 	ldrh.w	r3, [r5, #80]	; 0x50
 8006be0:	b29b      	uxth	r3, r3
 8006be2:	442b      	add	r3, r5
 8006be4:	eb03 1302 	add.w	r3, r3, r2, lsl #4
 8006be8:	f8b3 2404 	ldrh.w	r2, [r3, #1028]	; 0x404
 8006bec:	f3c2 0209 	ubfx	r2, r2, #0, #10
 8006bf0:	f8a3 2404 	strh.w	r2, [r3, #1028]	; 0x404
 8006bf4:	2e3e      	cmp	r6, #62	; 0x3e
 8006bf6:	d90f      	bls.n	8006c18 <USB_EPStartXfer+0x2fa>
 8006bf8:	0971      	lsrs	r1, r6, #5
 8006bfa:	f016 0f1f 	tst.w	r6, #31
 8006bfe:	d100      	bne.n	8006c02 <USB_EPStartXfer+0x2e4>
 8006c00:	3901      	subs	r1, #1
 8006c02:	f8b3 2404 	ldrh.w	r2, [r3, #1028]	; 0x404
 8006c06:	b292      	uxth	r2, r2
 8006c08:	0289      	lsls	r1, r1, #10
 8006c0a:	b289      	uxth	r1, r1
 8006c0c:	430a      	orrs	r2, r1
 8006c0e:	f442 4200 	orr.w	r2, r2, #32768	; 0x8000
 8006c12:	f8a3 2404 	strh.w	r2, [r3, #1028]	; 0x404
 8006c16:	e01a      	b.n	8006c4e <USB_EPStartXfer+0x330>
 8006c18:	b94e      	cbnz	r6, 8006c2e <USB_EPStartXfer+0x310>
 8006c1a:	f8b3 2404 	ldrh.w	r2, [r3, #1028]	; 0x404
 8006c1e:	ea6f 4242 	mvn.w	r2, r2, lsl #17
 8006c22:	ea6f 4252 	mvn.w	r2, r2, lsr #17
 8006c26:	b292      	uxth	r2, r2
 8006c28:	f8a3 2404 	strh.w	r2, [r3, #1028]	; 0x404
 8006c2c:	e00f      	b.n	8006c4e <USB_EPStartXfer+0x330>
 8006c2e:	0872      	lsrs	r2, r6, #1
 8006c30:	f016 0f01 	tst.w	r6, #1
 8006c34:	d000      	beq.n	8006c38 <USB_EPStartXfer+0x31a>
 8006c36:	3201      	adds	r2, #1
 8006c38:	f8b3 1404 	ldrh.w	r1, [r3, #1028]	; 0x404
 8006c3c:	b289      	uxth	r1, r1
 8006c3e:	0292      	lsls	r2, r2, #10
 8006c40:	b292      	uxth	r2, r2
 8006c42:	430a      	orrs	r2, r1
 8006c44:	f8a3 2404 	strh.w	r2, [r3, #1028]	; 0x404
 8006c48:	e001      	b.n	8006c4e <USB_EPStartXfer+0x330>
 8006c4a:	2b01      	cmp	r3, #1
 8006c4c:	d030      	beq.n	8006cb0 <USB_EPStartXfer+0x392>
            USB_WritePMA(USBx, ep->xfer_buff, pmabuffer, (uint16_t)len);
 8006c4e:	b2b3      	uxth	r3, r6
 8006c50:	8922      	ldrh	r2, [r4, #8]
 8006c52:	6961      	ldr	r1, [r4, #20]
 8006c54:	4628      	mov	r0, r5
 8006c56:	f7ff fe4f 	bl	80068f8 <USB_WritePMA>
            ep->xfer_buff += len;
 8006c5a:	6963      	ldr	r3, [r4, #20]
 8006c5c:	4433      	add	r3, r6
 8006c5e:	6163      	str	r3, [r4, #20]
            if (ep->xfer_len_db > ep->maxpacket)
 8006c60:	6a23      	ldr	r3, [r4, #32]
 8006c62:	6922      	ldr	r2, [r4, #16]
 8006c64:	4293      	cmp	r3, r2
 8006c66:	d92d      	bls.n	8006cc4 <USB_EPStartXfer+0x3a6>
              ep->xfer_len_db -= len;
 8006c68:	1b9b      	subs	r3, r3, r6
 8006c6a:	6223      	str	r3, [r4, #32]
            PCD_SET_EP_DBUF1_CNT(USBx, ep->num, ep->is_in, len);
 8006c6c:	7863      	ldrb	r3, [r4, #1]
 8006c6e:	2b00      	cmp	r3, #0
 8006c70:	d145      	bne.n	8006cfe <USB_EPStartXfer+0x3e0>
 8006c72:	f8b5 3050 	ldrh.w	r3, [r5, #80]	; 0x50
 8006c76:	b29b      	uxth	r3, r3
 8006c78:	442b      	add	r3, r5
 8006c7a:	7822      	ldrb	r2, [r4, #0]
 8006c7c:	eb03 1302 	add.w	r3, r3, r2, lsl #4
 8006c80:	f8b3 240c 	ldrh.w	r2, [r3, #1036]	; 0x40c
 8006c84:	f3c2 0209 	ubfx	r2, r2, #0, #10
 8006c88:	f8a3 240c 	strh.w	r2, [r3, #1036]	; 0x40c
 8006c8c:	2e3e      	cmp	r6, #62	; 0x3e
 8006c8e:	d91d      	bls.n	8006ccc <USB_EPStartXfer+0x3ae>
 8006c90:	0971      	lsrs	r1, r6, #5
 8006c92:	f016 0f1f 	tst.w	r6, #31
 8006c96:	d100      	bne.n	8006c9a <USB_EPStartXfer+0x37c>
 8006c98:	3901      	subs	r1, #1
 8006c9a:	f8b3 240c 	ldrh.w	r2, [r3, #1036]	; 0x40c
 8006c9e:	b292      	uxth	r2, r2
 8006ca0:	0289      	lsls	r1, r1, #10
 8006ca2:	b289      	uxth	r1, r1
 8006ca4:	430a      	orrs	r2, r1
 8006ca6:	f442 4200 	orr.w	r2, r2, #32768	; 0x8000
 8006caa:	f8a3 240c 	strh.w	r2, [r3, #1036]	; 0x40c
 8006cae:	e028      	b.n	8006d02 <USB_EPStartXfer+0x3e4>
            PCD_SET_EP_DBUF0_CNT(USBx, ep->num, ep->is_in, len);
 8006cb0:	f8b5 3050 	ldrh.w	r3, [r5, #80]	; 0x50
 8006cb4:	b29b      	uxth	r3, r3
 8006cb6:	442b      	add	r3, r5
 8006cb8:	eb03 1302 	add.w	r3, r3, r2, lsl #4
 8006cbc:	b2b2      	uxth	r2, r6
 8006cbe:	f8a3 2404 	strh.w	r2, [r3, #1028]	; 0x404
 8006cc2:	e7c4      	b.n	8006c4e <USB_EPStartXfer+0x330>
              ep->xfer_len_db = 0U;
 8006cc4:	2200      	movs	r2, #0
 8006cc6:	6222      	str	r2, [r4, #32]
              len = ep->xfer_len_db;
 8006cc8:	461e      	mov	r6, r3
 8006cca:	e7cf      	b.n	8006c6c <USB_EPStartXfer+0x34e>
            PCD_SET_EP_DBUF1_CNT(USBx, ep->num, ep->is_in, len);
 8006ccc:	b94e      	cbnz	r6, 8006ce2 <USB_EPStartXfer+0x3c4>
 8006cce:	f8b3 240c 	ldrh.w	r2, [r3, #1036]	; 0x40c
 8006cd2:	ea6f 4242 	mvn.w	r2, r2, lsl #17
 8006cd6:	ea6f 4252 	mvn.w	r2, r2, lsr #17
 8006cda:	b292      	uxth	r2, r2
 8006cdc:	f8a3 240c 	strh.w	r2, [r3, #1036]	; 0x40c
 8006ce0:	e00f      	b.n	8006d02 <USB_EPStartXfer+0x3e4>
 8006ce2:	0872      	lsrs	r2, r6, #1
 8006ce4:	f016 0f01 	tst.w	r6, #1
 8006ce8:	d000      	beq.n	8006cec <USB_EPStartXfer+0x3ce>
 8006cea:	3201      	adds	r2, #1
 8006cec:	f8b3 140c 	ldrh.w	r1, [r3, #1036]	; 0x40c
 8006cf0:	b289      	uxth	r1, r1
 8006cf2:	0292      	lsls	r2, r2, #10
 8006cf4:	b292      	uxth	r2, r2
 8006cf6:	430a      	orrs	r2, r1
 8006cf8:	f8a3 240c 	strh.w	r2, [r3, #1036]	; 0x40c
 8006cfc:	e001      	b.n	8006d02 <USB_EPStartXfer+0x3e4>
 8006cfe:	2b01      	cmp	r3, #1
 8006d00:	d006      	beq.n	8006d10 <USB_EPStartXfer+0x3f2>
            USB_WritePMA(USBx, ep->xfer_buff, pmabuffer, (uint16_t)len);
 8006d02:	b2b3      	uxth	r3, r6
 8006d04:	8962      	ldrh	r2, [r4, #10]
 8006d06:	6961      	ldr	r1, [r4, #20]
 8006d08:	4628      	mov	r0, r5
 8006d0a:	f7ff fdf5 	bl	80068f8 <USB_WritePMA>
 8006d0e:	e68e      	b.n	8006a2e <USB_EPStartXfer+0x110>
            PCD_SET_EP_DBUF1_CNT(USBx, ep->num, ep->is_in, len);
 8006d10:	f8b5 3050 	ldrh.w	r3, [r5, #80]	; 0x50
 8006d14:	b29b      	uxth	r3, r3
 8006d16:	442b      	add	r3, r5
 8006d18:	7822      	ldrb	r2, [r4, #0]
 8006d1a:	eb03 1302 	add.w	r3, r3, r2, lsl #4
 8006d1e:	b2b2      	uxth	r2, r6
 8006d20:	f8a3 240c 	strh.w	r2, [r3, #1036]	; 0x40c
 8006d24:	e7ed      	b.n	8006d02 <USB_EPStartXfer+0x3e4>
          PCD_CLEAR_BULK_EP_DBUF(USBx, ep->num);
 8006d26:	7821      	ldrb	r1, [r4, #0]
 8006d28:	f835 2021 	ldrh.w	r2, [r5, r1, lsl #2]
 8006d2c:	b292      	uxth	r2, r2
 8006d2e:	f422 42e2 	bic.w	r2, r2, #28928	; 0x7100
 8006d32:	f022 0270 	bic.w	r2, r2, #112	; 0x70
 8006d36:	f442 4200 	orr.w	r2, r2, #32768	; 0x8000
 8006d3a:	f042 0280 	orr.w	r2, r2, #128	; 0x80
 8006d3e:	f825 2021 	strh.w	r2, [r5, r1, lsl #2]
          PCD_SET_EP_TX_CNT(USBx, ep->num, len);
 8006d42:	f8b5 2050 	ldrh.w	r2, [r5, #80]	; 0x50
 8006d46:	b292      	uxth	r2, r2
 8006d48:	442a      	add	r2, r5
 8006d4a:	7821      	ldrb	r1, [r4, #0]
 8006d4c:	eb02 1201 	add.w	r2, r2, r1, lsl #4
 8006d50:	b29b      	uxth	r3, r3
 8006d52:	f8a2 3404 	strh.w	r3, [r2, #1028]	; 0x404
          USB_WritePMA(USBx, ep->xfer_buff, pmabuffer, (uint16_t)len);
 8006d56:	8922      	ldrh	r2, [r4, #8]
 8006d58:	6961      	ldr	r1, [r4, #20]
 8006d5a:	4628      	mov	r0, r5
 8006d5c:	f7ff fdcc 	bl	80068f8 <USB_WritePMA>
 8006d60:	e665      	b.n	8006a2e <USB_EPStartXfer+0x110>
          PCD_SET_EP_DBUF1_CNT(USBx, ep->num, ep->is_in, len);
 8006d62:	b94e      	cbnz	r6, 8006d78 <USB_EPStartXfer+0x45a>
 8006d64:	f8b3 240c 	ldrh.w	r2, [r3, #1036]	; 0x40c
 8006d68:	ea6f 4242 	mvn.w	r2, r2, lsl #17
 8006d6c:	ea6f 4252 	mvn.w	r2, r2, lsr #17
 8006d70:	b292      	uxth	r2, r2
 8006d72:	f8a3 240c 	strh.w	r2, [r3, #1036]	; 0x40c
 8006d76:	e016      	b.n	8006da6 <USB_EPStartXfer+0x488>
 8006d78:	0872      	lsrs	r2, r6, #1
 8006d7a:	f016 0f01 	tst.w	r6, #1
 8006d7e:	d000      	beq.n	8006d82 <USB_EPStartXfer+0x464>
 8006d80:	3201      	adds	r2, #1
 8006d82:	f8b3 140c 	ldrh.w	r1, [r3, #1036]	; 0x40c
 8006d86:	b289      	uxth	r1, r1
 8006d88:	0292      	lsls	r2, r2, #10
 8006d8a:	b292      	uxth	r2, r2
 8006d8c:	430a      	orrs	r2, r1
 8006d8e:	f8a3 240c 	strh.w	r2, [r3, #1036]	; 0x40c
 8006d92:	e008      	b.n	8006da6 <USB_EPStartXfer+0x488>
 8006d94:	f8b5 3050 	ldrh.w	r3, [r5, #80]	; 0x50
 8006d98:	b29b      	uxth	r3, r3
 8006d9a:	442b      	add	r3, r5
 8006d9c:	eb03 1301 	add.w	r3, r3, r1, lsl #4
 8006da0:	b2b2      	uxth	r2, r6
 8006da2:	f8a3 240c 	strh.w	r2, [r3, #1036]	; 0x40c
          USB_WritePMA(USBx, ep->xfer_buff, pmabuffer, (uint16_t)len);
 8006da6:	b2b3      	uxth	r3, r6
 8006da8:	8962      	ldrh	r2, [r4, #10]
 8006daa:	6961      	ldr	r1, [r4, #20]
 8006dac:	4628      	mov	r0, r5
 8006dae:	f7ff fda3 	bl	80068f8 <USB_WritePMA>
 8006db2:	e63c      	b.n	8006a2e <USB_EPStartXfer+0x110>
          PCD_SET_EP_DBUF0_CNT(USBx, ep->num, ep->is_in, len);
 8006db4:	bbb2      	cbnz	r2, 8006e24 <USB_EPStartXfer+0x506>
 8006db6:	f8b5 3050 	ldrh.w	r3, [r5, #80]	; 0x50
 8006dba:	b29b      	uxth	r3, r3
 8006dbc:	442b      	add	r3, r5
 8006dbe:	eb03 1301 	add.w	r3, r3, r1, lsl #4
 8006dc2:	f8b3 2404 	ldrh.w	r2, [r3, #1028]	; 0x404
 8006dc6:	f3c2 0209 	ubfx	r2, r2, #0, #10
 8006dca:	f8a3 2404 	strh.w	r2, [r3, #1028]	; 0x404
 8006dce:	2e3e      	cmp	r6, #62	; 0x3e
 8006dd0:	d90f      	bls.n	8006df2 <USB_EPStartXfer+0x4d4>
 8006dd2:	0971      	lsrs	r1, r6, #5
 8006dd4:	f016 0f1f 	tst.w	r6, #31
 8006dd8:	d100      	bne.n	8006ddc <USB_EPStartXfer+0x4be>
 8006dda:	3901      	subs	r1, #1
 8006ddc:	f8b3 2404 	ldrh.w	r2, [r3, #1028]	; 0x404
 8006de0:	b292      	uxth	r2, r2
 8006de2:	0289      	lsls	r1, r1, #10
 8006de4:	b289      	uxth	r1, r1
 8006de6:	430a      	orrs	r2, r1
 8006de8:	f442 4200 	orr.w	r2, r2, #32768	; 0x8000
 8006dec:	f8a3 2404 	strh.w	r2, [r3, #1028]	; 0x404
 8006df0:	e021      	b.n	8006e36 <USB_EPStartXfer+0x518>
 8006df2:	b94e      	cbnz	r6, 8006e08 <USB_EPStartXfer+0x4ea>
 8006df4:	f8b3 2404 	ldrh.w	r2, [r3, #1028]	; 0x404
 8006df8:	ea6f 4242 	mvn.w	r2, r2, lsl #17
 8006dfc:	ea6f 4252 	mvn.w	r2, r2, lsr #17
 8006e00:	b292      	uxth	r2, r2
 8006e02:	f8a3 2404 	strh.w	r2, [r3, #1028]	; 0x404
 8006e06:	e016      	b.n	8006e36 <USB_EPStartXfer+0x518>
 8006e08:	0872      	lsrs	r2, r6, #1
 8006e0a:	f016 0f01 	tst.w	r6, #1
 8006e0e:	d000      	beq.n	8006e12 <USB_EPStartXfer+0x4f4>
 8006e10:	3201      	adds	r2, #1
 8006e12:	f8b3 1404 	ldrh.w	r1, [r3, #1028]	; 0x404
 8006e16:	b289      	uxth	r1, r1
 8006e18:	0292      	lsls	r2, r2, #10
 8006e1a:	b292      	uxth	r2, r2
 8006e1c:	430a      	orrs	r2, r1
 8006e1e:	f8a3 2404 	strh.w	r2, [r3, #1028]	; 0x404
 8006e22:	e008      	b.n	8006e36 <USB_EPStartXfer+0x518>
 8006e24:	f8b5 3050 	ldrh.w	r3, [r5, #80]	; 0x50
 8006e28:	b29b      	uxth	r3, r3
 8006e2a:	442b      	add	r3, r5
 8006e2c:	eb03 1301 	add.w	r3, r3, r1, lsl #4
 8006e30:	b2b2      	uxth	r2, r6
 8006e32:	f8a3 2404 	strh.w	r2, [r3, #1028]	; 0x404
          USB_WritePMA(USBx, ep->xfer_buff, pmabuffer, (uint16_t)len);
 8006e36:	b2b3      	uxth	r3, r6
 8006e38:	8922      	ldrh	r2, [r4, #8]
 8006e3a:	6961      	ldr	r1, [r4, #20]
 8006e3c:	4628      	mov	r0, r5
 8006e3e:	f7ff fd5b 	bl	80068f8 <USB_WritePMA>
 8006e42:	e5f4      	b.n	8006a2e <USB_EPStartXfer+0x110>
        ep->xfer_len = 0U;
 8006e44:	2200      	movs	r2, #0
 8006e46:	618a      	str	r2, [r1, #24]
        len = ep->xfer_len;
 8006e48:	461a      	mov	r2, r3
 8006e4a:	e579      	b.n	8006940 <USB_EPStartXfer+0x22>
      PCD_SET_EP_RX_CNT(USBx, ep->num, len);
 8006e4c:	b94a      	cbnz	r2, 8006e62 <USB_EPStartXfer+0x544>
 8006e4e:	f8b3 240c 	ldrh.w	r2, [r3, #1036]	; 0x40c
 8006e52:	ea6f 4242 	mvn.w	r2, r2, lsl #17
 8006e56:	ea6f 4252 	mvn.w	r2, r2, lsr #17
 8006e5a:	b292      	uxth	r2, r2
 8006e5c:	f8a3 240c 	strh.w	r2, [r3, #1036]	; 0x40c
 8006e60:	e58d      	b.n	800697e <USB_EPStartXfer+0x60>
 8006e62:	0851      	lsrs	r1, r2, #1
 8006e64:	f012 0f01 	tst.w	r2, #1
 8006e68:	d000      	beq.n	8006e6c <USB_EPStartXfer+0x54e>
 8006e6a:	3101      	adds	r1, #1
 8006e6c:	f8b3 240c 	ldrh.w	r2, [r3, #1036]	; 0x40c
 8006e70:	b292      	uxth	r2, r2
 8006e72:	0289      	lsls	r1, r1, #10
 8006e74:	b289      	uxth	r1, r1
 8006e76:	4311      	orrs	r1, r2
 8006e78:	f8a3 140c 	strh.w	r1, [r3, #1036]	; 0x40c
 8006e7c:	e57f      	b.n	800697e <USB_EPStartXfer+0x60>
      if (ep->type == EP_TYPE_BULK)
 8006e7e:	78cb      	ldrb	r3, [r1, #3]
 8006e80:	2b02      	cmp	r3, #2
 8006e82:	d04d      	beq.n	8006f20 <USB_EPStartXfer+0x602>
      else if (ep->type == EP_TYPE_ISOC)
 8006e84:	2b01      	cmp	r3, #1
 8006e86:	f040 812f 	bne.w	80070e8 <USB_EPStartXfer+0x7ca>
        if (ep->xfer_len > ep->maxpacket)
 8006e8a:	6989      	ldr	r1, [r1, #24]
 8006e8c:	6923      	ldr	r3, [r4, #16]
 8006e8e:	4299      	cmp	r1, r3
 8006e90:	f240 80e6 	bls.w	8007060 <USB_EPStartXfer+0x742>
          ep->xfer_len -= len;
 8006e94:	1ac9      	subs	r1, r1, r3
 8006e96:	61a1      	str	r1, [r4, #24]
        PCD_SET_EP_DBUF_CNT(USBx, ep->num, ep->is_in, len);
 8006e98:	b9f2      	cbnz	r2, 8006ed8 <USB_EPStartXfer+0x5ba>
 8006e9a:	f8b5 2050 	ldrh.w	r2, [r5, #80]	; 0x50
 8006e9e:	b292      	uxth	r2, r2
 8006ea0:	442a      	add	r2, r5
 8006ea2:	7821      	ldrb	r1, [r4, #0]
 8006ea4:	eb02 1201 	add.w	r2, r2, r1, lsl #4
 8006ea8:	f8b2 1404 	ldrh.w	r1, [r2, #1028]	; 0x404
 8006eac:	f3c1 0109 	ubfx	r1, r1, #0, #10
 8006eb0:	f8a2 1404 	strh.w	r1, [r2, #1028]	; 0x404
 8006eb4:	2b3e      	cmp	r3, #62	; 0x3e
 8006eb6:	f240 80d7 	bls.w	8007068 <USB_EPStartXfer+0x74a>
 8006eba:	0958      	lsrs	r0, r3, #5
 8006ebc:	f013 0f1f 	tst.w	r3, #31
 8006ec0:	d100      	bne.n	8006ec4 <USB_EPStartXfer+0x5a6>
 8006ec2:	3801      	subs	r0, #1
 8006ec4:	f8b2 1404 	ldrh.w	r1, [r2, #1028]	; 0x404
 8006ec8:	b289      	uxth	r1, r1
 8006eca:	0280      	lsls	r0, r0, #10
 8006ecc:	b280      	uxth	r0, r0
 8006ece:	4301      	orrs	r1, r0
 8006ed0:	f441 4100 	orr.w	r1, r1, #32768	; 0x8000
 8006ed4:	f8a2 1404 	strh.w	r1, [r2, #1028]	; 0x404
 8006ed8:	7862      	ldrb	r2, [r4, #1]
 8006eda:	2a00      	cmp	r2, #0
 8006edc:	f040 80f6 	bne.w	80070cc <USB_EPStartXfer+0x7ae>
 8006ee0:	f8b5 2050 	ldrh.w	r2, [r5, #80]	; 0x50
 8006ee4:	b292      	uxth	r2, r2
 8006ee6:	442a      	add	r2, r5
 8006ee8:	7821      	ldrb	r1, [r4, #0]
 8006eea:	eb02 1201 	add.w	r2, r2, r1, lsl #4
 8006eee:	f8b2 140c 	ldrh.w	r1, [r2, #1036]	; 0x40c
 8006ef2:	f3c1 0109 	ubfx	r1, r1, #0, #10
 8006ef6:	f8a2 140c 	strh.w	r1, [r2, #1036]	; 0x40c
 8006efa:	2b3e      	cmp	r3, #62	; 0x3e
 8006efc:	f240 80cd 	bls.w	800709a <USB_EPStartXfer+0x77c>
 8006f00:	0959      	lsrs	r1, r3, #5
 8006f02:	f013 0f1f 	tst.w	r3, #31
 8006f06:	d100      	bne.n	8006f0a <USB_EPStartXfer+0x5ec>
 8006f08:	3901      	subs	r1, #1
 8006f0a:	f8b2 340c 	ldrh.w	r3, [r2, #1036]	; 0x40c
 8006f0e:	b29b      	uxth	r3, r3
 8006f10:	0289      	lsls	r1, r1, #10
 8006f12:	b289      	uxth	r1, r1
 8006f14:	430b      	orrs	r3, r1
 8006f16:	f443 4300 	orr.w	r3, r3, #32768	; 0x8000
 8006f1a:	f8a2 340c 	strh.w	r3, [r2, #1036]	; 0x40c
 8006f1e:	e52e      	b.n	800697e <USB_EPStartXfer+0x60>
        PCD_SET_EP_DBUF_CNT(USBx, ep->num, ep->is_in, ep->maxpacket);
 8006f20:	b9f2      	cbnz	r2, 8006f60 <USB_EPStartXfer+0x642>
 8006f22:	f8b0 3050 	ldrh.w	r3, [r0, #80]	; 0x50
 8006f26:	b29b      	uxth	r3, r3
 8006f28:	4403      	add	r3, r0
 8006f2a:	780a      	ldrb	r2, [r1, #0]
 8006f2c:	eb03 1302 	add.w	r3, r3, r2, lsl #4
 8006f30:	f8b3 2404 	ldrh.w	r2, [r3, #1028]	; 0x404
 8006f34:	f3c2 0209 	ubfx	r2, r2, #0, #10
 8006f38:	f8a3 2404 	strh.w	r2, [r3, #1028]	; 0x404
 8006f3c:	690a      	ldr	r2, [r1, #16]
 8006f3e:	2a3e      	cmp	r2, #62	; 0x3e
 8006f40:	d931      	bls.n	8006fa6 <USB_EPStartXfer+0x688>
 8006f42:	0951      	lsrs	r1, r2, #5
 8006f44:	f012 0f1f 	tst.w	r2, #31
 8006f48:	d100      	bne.n	8006f4c <USB_EPStartXfer+0x62e>
 8006f4a:	3901      	subs	r1, #1
 8006f4c:	f8b3 2404 	ldrh.w	r2, [r3, #1028]	; 0x404
 8006f50:	b292      	uxth	r2, r2
 8006f52:	0289      	lsls	r1, r1, #10
 8006f54:	b289      	uxth	r1, r1
 8006f56:	430a      	orrs	r2, r1
 8006f58:	f442 4200 	orr.w	r2, r2, #32768	; 0x8000
 8006f5c:	f8a3 2404 	strh.w	r2, [r3, #1028]	; 0x404
 8006f60:	7863      	ldrb	r3, [r4, #1]
 8006f62:	2b00      	cmp	r3, #0
 8006f64:	d151      	bne.n	800700a <USB_EPStartXfer+0x6ec>
 8006f66:	f8b5 3050 	ldrh.w	r3, [r5, #80]	; 0x50
 8006f6a:	b29b      	uxth	r3, r3
 8006f6c:	442b      	add	r3, r5
 8006f6e:	7822      	ldrb	r2, [r4, #0]
 8006f70:	eb03 1302 	add.w	r3, r3, r2, lsl #4
 8006f74:	f8b3 240c 	ldrh.w	r2, [r3, #1036]	; 0x40c
 8006f78:	f3c2 0209 	ubfx	r2, r2, #0, #10
 8006f7c:	f8a3 240c 	strh.w	r2, [r3, #1036]	; 0x40c
 8006f80:	6922      	ldr	r2, [r4, #16]
 8006f82:	2a3e      	cmp	r2, #62	; 0x3e
 8006f84:	d928      	bls.n	8006fd8 <USB_EPStartXfer+0x6ba>
 8006f86:	0951      	lsrs	r1, r2, #5
 8006f88:	f012 0f1f 	tst.w	r2, #31
 8006f8c:	d100      	bne.n	8006f90 <USB_EPStartXfer+0x672>
 8006f8e:	3901      	subs	r1, #1
 8006f90:	f8b3 240c 	ldrh.w	r2, [r3, #1036]	; 0x40c
 8006f94:	b292      	uxth	r2, r2
 8006f96:	0289      	lsls	r1, r1, #10
 8006f98:	b289      	uxth	r1, r1
 8006f9a:	430a      	orrs	r2, r1
 8006f9c:	f442 4200 	orr.w	r2, r2, #32768	; 0x8000
 8006fa0:	f8a3 240c 	strh.w	r2, [r3, #1036]	; 0x40c
 8006fa4:	e033      	b.n	800700e <USB_EPStartXfer+0x6f0>
 8006fa6:	b94a      	cbnz	r2, 8006fbc <USB_EPStartXfer+0x69e>
 8006fa8:	f8b3 2404 	ldrh.w	r2, [r3, #1028]	; 0x404
 8006fac:	ea6f 4242 	mvn.w	r2, r2, lsl #17
 8006fb0:	ea6f 4252 	mvn.w	r2, r2, lsr #17
 8006fb4:	b292      	uxth	r2, r2
 8006fb6:	f8a3 2404 	strh.w	r2, [r3, #1028]	; 0x404
 8006fba:	e7d1      	b.n	8006f60 <USB_EPStartXfer+0x642>
 8006fbc:	0851      	lsrs	r1, r2, #1
 8006fbe:	f012 0f01 	tst.w	r2, #1
 8006fc2:	d000      	beq.n	8006fc6 <USB_EPStartXfer+0x6a8>
 8006fc4:	3101      	adds	r1, #1
 8006fc6:	f8b3 2404 	ldrh.w	r2, [r3, #1028]	; 0x404
 8006fca:	b290      	uxth	r0, r2
 8006fcc:	028a      	lsls	r2, r1, #10
 8006fce:	b292      	uxth	r2, r2
 8006fd0:	4302      	orrs	r2, r0
 8006fd2:	f8a3 2404 	strh.w	r2, [r3, #1028]	; 0x404
 8006fd6:	e7c3      	b.n	8006f60 <USB_EPStartXfer+0x642>
 8006fd8:	b94a      	cbnz	r2, 8006fee <USB_EPStartXfer+0x6d0>
 8006fda:	f8b3 240c 	ldrh.w	r2, [r3, #1036]	; 0x40c
 8006fde:	ea6f 4242 	mvn.w	r2, r2, lsl #17
 8006fe2:	ea6f 4252 	mvn.w	r2, r2, lsr #17
 8006fe6:	b292      	uxth	r2, r2
 8006fe8:	f8a3 240c 	strh.w	r2, [r3, #1036]	; 0x40c
 8006fec:	e00f      	b.n	800700e <USB_EPStartXfer+0x6f0>
 8006fee:	0851      	lsrs	r1, r2, #1
 8006ff0:	f012 0f01 	tst.w	r2, #1
 8006ff4:	d000      	beq.n	8006ff8 <USB_EPStartXfer+0x6da>
 8006ff6:	3101      	adds	r1, #1
 8006ff8:	f8b3 240c 	ldrh.w	r2, [r3, #1036]	; 0x40c
 8006ffc:	b290      	uxth	r0, r2
 8006ffe:	028a      	lsls	r2, r1, #10
 8007000:	b292      	uxth	r2, r2
 8007002:	4302      	orrs	r2, r0
 8007004:	f8a3 240c 	strh.w	r2, [r3, #1036]	; 0x40c
 8007008:	e001      	b.n	800700e <USB_EPStartXfer+0x6f0>
 800700a:	2b01      	cmp	r3, #1
 800700c:	d01d      	beq.n	800704a <USB_EPStartXfer+0x72c>
        if (ep->xfer_count != 0U)
 800700e:	69e3      	ldr	r3, [r4, #28]
 8007010:	2b00      	cmp	r3, #0
 8007012:	f43f acb4 	beq.w	800697e <USB_EPStartXfer+0x60>
          wEPVal = PCD_GET_ENDPOINT(USBx, ep->num);
 8007016:	7822      	ldrb	r2, [r4, #0]
 8007018:	f835 1022 	ldrh.w	r1, [r5, r2, lsl #2]
          if ((((wEPVal & USB_EP_DTOG_RX) != 0U) && ((wEPVal & USB_EP_DTOG_TX) != 0U)) ||
 800701c:	f244 0340 	movw	r3, #16448	; 0x4040
 8007020:	ea03 0001 	and.w	r0, r3, r1
 8007024:	438b      	bics	r3, r1
 8007026:	d002      	beq.n	800702e <USB_EPStartXfer+0x710>
 8007028:	2800      	cmp	r0, #0
 800702a:	f47f aca8 	bne.w	800697e <USB_EPStartXfer+0x60>
            PCD_FREE_USER_BUFFER(USBx, ep->num, 0U);
 800702e:	f835 3022 	ldrh.w	r3, [r5, r2, lsl #2]
 8007032:	b29b      	uxth	r3, r3
 8007034:	f423 43e0 	bic.w	r3, r3, #28672	; 0x7000
 8007038:	f023 0370 	bic.w	r3, r3, #112	; 0x70
 800703c:	f443 4300 	orr.w	r3, r3, #32768	; 0x8000
 8007040:	f043 03c0 	orr.w	r3, r3, #192	; 0xc0
 8007044:	f825 3022 	strh.w	r3, [r5, r2, lsl #2]
 8007048:	e499      	b.n	800697e <USB_EPStartXfer+0x60>
        PCD_SET_EP_DBUF_CNT(USBx, ep->num, ep->is_in, ep->maxpacket);
 800704a:	f8b5 3050 	ldrh.w	r3, [r5, #80]	; 0x50
 800704e:	b29b      	uxth	r3, r3
 8007050:	442b      	add	r3, r5
 8007052:	7822      	ldrb	r2, [r4, #0]
 8007054:	eb03 1302 	add.w	r3, r3, r2, lsl #4
 8007058:	8a22      	ldrh	r2, [r4, #16]
 800705a:	f8a3 240c 	strh.w	r2, [r3, #1036]	; 0x40c
 800705e:	e7d6      	b.n	800700e <USB_EPStartXfer+0x6f0>
          ep->xfer_len = 0U;
 8007060:	2300      	movs	r3, #0
 8007062:	61a3      	str	r3, [r4, #24]
          len = ep->xfer_len;
 8007064:	460b      	mov	r3, r1
 8007066:	e717      	b.n	8006e98 <USB_EPStartXfer+0x57a>
        PCD_SET_EP_DBUF_CNT(USBx, ep->num, ep->is_in, len);
 8007068:	b94b      	cbnz	r3, 800707e <USB_EPStartXfer+0x760>
 800706a:	f8b2 1404 	ldrh.w	r1, [r2, #1028]	; 0x404
 800706e:	ea6f 4141 	mvn.w	r1, r1, lsl #17
 8007072:	ea6f 4151 	mvn.w	r1, r1, lsr #17
 8007076:	b289      	uxth	r1, r1
 8007078:	f8a2 1404 	strh.w	r1, [r2, #1028]	; 0x404
 800707c:	e72c      	b.n	8006ed8 <USB_EPStartXfer+0x5ba>
 800707e:	0859      	lsrs	r1, r3, #1
 8007080:	f013 0f01 	tst.w	r3, #1
 8007084:	d000      	beq.n	8007088 <USB_EPStartXfer+0x76a>
 8007086:	3101      	adds	r1, #1
 8007088:	f8b2 0404 	ldrh.w	r0, [r2, #1028]	; 0x404
 800708c:	b280      	uxth	r0, r0
 800708e:	0289      	lsls	r1, r1, #10
 8007090:	b289      	uxth	r1, r1
 8007092:	4301      	orrs	r1, r0
 8007094:	f8a2 1404 	strh.w	r1, [r2, #1028]	; 0x404
 8007098:	e71e      	b.n	8006ed8 <USB_EPStartXfer+0x5ba>
 800709a:	b94b      	cbnz	r3, 80070b0 <USB_EPStartXfer+0x792>
 800709c:	f8b2 340c 	ldrh.w	r3, [r2, #1036]	; 0x40c
 80070a0:	ea6f 4343 	mvn.w	r3, r3, lsl #17
 80070a4:	ea6f 4353 	mvn.w	r3, r3, lsr #17
 80070a8:	b29b      	uxth	r3, r3
 80070aa:	f8a2 340c 	strh.w	r3, [r2, #1036]	; 0x40c
 80070ae:	e466      	b.n	800697e <USB_EPStartXfer+0x60>
 80070b0:	0859      	lsrs	r1, r3, #1
 80070b2:	f013 0f01 	tst.w	r3, #1
 80070b6:	d000      	beq.n	80070ba <USB_EPStartXfer+0x79c>
 80070b8:	3101      	adds	r1, #1
 80070ba:	f8b2 340c 	ldrh.w	r3, [r2, #1036]	; 0x40c
 80070be:	b298      	uxth	r0, r3
 80070c0:	028b      	lsls	r3, r1, #10
 80070c2:	b29b      	uxth	r3, r3
 80070c4:	4303      	orrs	r3, r0
 80070c6:	f8a2 340c 	strh.w	r3, [r2, #1036]	; 0x40c
 80070ca:	e458      	b.n	800697e <USB_EPStartXfer+0x60>
 80070cc:	2a01      	cmp	r2, #1
 80070ce:	f47f ac56 	bne.w	800697e <USB_EPStartXfer+0x60>
 80070d2:	f8b5 2050 	ldrh.w	r2, [r5, #80]	; 0x50
 80070d6:	b292      	uxth	r2, r2
 80070d8:	442a      	add	r2, r5
 80070da:	7821      	ldrb	r1, [r4, #0]
 80070dc:	eb02 1201 	add.w	r2, r2, r1, lsl #4
 80070e0:	b29b      	uxth	r3, r3
 80070e2:	f8a2 340c 	strh.w	r3, [r2, #1036]	; 0x40c
 80070e6:	e44a      	b.n	800697e <USB_EPStartXfer+0x60>
        return HAL_ERROR;
 80070e8:	2001      	movs	r0, #1
 80070ea:	e459      	b.n	80069a0 <USB_EPStartXfer+0x82>

080070ec <USB_ReadPMA>:
  * @param   wPMABufAddr address into PMA.
  * @param   wNBytes no. of bytes to be copied.
  * @retval None
  */
void USB_ReadPMA(USB_TypeDef const *USBx, uint8_t *pbUsrBuf, uint16_t wPMABufAddr, uint16_t wNBytes)
{
 80070ec:	b410      	push	{r4}
  uint32_t n = (uint32_t)wNBytes >> 1;
 80070ee:	085c      	lsrs	r4, r3, #1
  uint32_t count;
  uint32_t RdVal;
  __IO uint16_t *pdwVal;
  uint8_t *pBuf = pbUsrBuf;

  pdwVal = (__IO uint16_t *)(BaseAddr + 0x400U + ((uint32_t)wPMABufAddr * PMA_ACCESS));
 80070f0:	eb00 0042 	add.w	r0, r0, r2, lsl #1
 80070f4:	f500 6080 	add.w	r0, r0, #1024	; 0x400

  for (count = n; count != 0U; count--)
 80070f8:	b144      	cbz	r4, 800710c <USB_ReadPMA+0x20>
  {
    RdVal = *(__IO uint16_t *)pdwVal;
 80070fa:	f830 2b04 	ldrh.w	r2, [r0], #4
    pdwVal++;
    *pBuf = (uint8_t)((RdVal >> 0) & 0xFFU);
 80070fe:	700a      	strb	r2, [r1, #0]
    pBuf++;
    *pBuf = (uint8_t)((RdVal >> 8) & 0xFFU);
 8007100:	f3c2 2207 	ubfx	r2, r2, #8, #8
 8007104:	704a      	strb	r2, [r1, #1]
    pBuf++;
 8007106:	3102      	adds	r1, #2
  for (count = n; count != 0U; count--)
 8007108:	3c01      	subs	r4, #1
 800710a:	e7f5      	b.n	80070f8 <USB_ReadPMA+0xc>
#if PMA_ACCESS > 1U
    pdwVal++;
#endif /* PMA_ACCESS */
  }

  if ((wNBytes % 2U) != 0U)
 800710c:	f013 0f01 	tst.w	r3, #1
 8007110:	d001      	beq.n	8007116 <USB_ReadPMA+0x2a>
  {
    RdVal = *pdwVal;
 8007112:	8803      	ldrh	r3, [r0, #0]
    *pBuf = (uint8_t)((RdVal >> 0) & 0xFFU);
 8007114:	700b      	strb	r3, [r1, #0]
  }
}
 8007116:	bc10      	pop	{r4}
 8007118:	4770      	bx	lr
	...

0800711c <USBD_HID_GetFSCfgDesc>:
  * @param  length : pointer data length
  * @retval pointer to descriptor buffer
  */
static uint8_t  *USBD_HID_GetFSCfgDesc(uint16_t *length)
{
  *length = sizeof(USBD_HID_CfgFSDesc);
 800711c:	2322      	movs	r3, #34	; 0x22
 800711e:	8003      	strh	r3, [r0, #0]
  return USBD_HID_CfgFSDesc;
}
 8007120:	4800      	ldr	r0, [pc, #0]	; (8007124 <USBD_HID_GetFSCfgDesc+0x8>)
 8007122:	4770      	bx	lr
 8007124:	200002b0 	.word	0x200002b0

08007128 <USBD_HID_GetHSCfgDesc>:
  * @param  length : pointer data length
  * @retval pointer to descriptor buffer
  */
static uint8_t  *USBD_HID_GetHSCfgDesc(uint16_t *length)
{
  *length = sizeof(USBD_HID_CfgHSDesc);
 8007128:	2322      	movs	r3, #34	; 0x22
 800712a:	8003      	strh	r3, [r0, #0]
  return USBD_HID_CfgHSDesc;
}
 800712c:	4800      	ldr	r0, [pc, #0]	; (8007130 <USBD_HID_GetHSCfgDesc+0x8>)
 800712e:	4770      	bx	lr
 8007130:	200002d4 	.word	0x200002d4

08007134 <USBD_HID_GetOtherSpeedCfgDesc>:
  * @param  length : pointer data length
  * @retval pointer to descriptor buffer
  */
static uint8_t  *USBD_HID_GetOtherSpeedCfgDesc(uint16_t *length)
{
  *length = sizeof(USBD_HID_OtherSpeedCfgDesc);
 8007134:	2322      	movs	r3, #34	; 0x22
 8007136:	8003      	strh	r3, [r0, #0]
  return USBD_HID_OtherSpeedCfgDesc;
}
 8007138:	4800      	ldr	r0, [pc, #0]	; (800713c <USBD_HID_GetOtherSpeedCfgDesc+0x8>)
 800713a:	4770      	bx	lr
 800713c:	20000310 	.word	0x20000310

08007140 <USBD_HID_DataIn>:
                                uint8_t epnum)
{

  /* Ensure that the FIFO is empty before a new transfer, this condition could
  be caused by  a new transfer before the end of the previous transfer */
  g_HID_report_modified = 0;
 8007140:	2300      	movs	r3, #0
 8007142:	4a03      	ldr	r2, [pc, #12]	; (8007150 <USBD_HID_DataIn+0x10>)
 8007144:	7013      	strb	r3, [r2, #0]
  ((USBD_HID_HandleTypeDef *)pdev->pHID)->state = HID_IDLE;
 8007146:	f8d0 22c8 	ldr.w	r2, [r0, #712]	; 0x2c8
 800714a:	7313      	strb	r3, [r2, #12]
  return USBD_OK;
}
 800714c:	4618      	mov	r0, r3
 800714e:	4770      	bx	lr
 8007150:	20001baa 	.word	0x20001baa

08007154 <USBD_HID_GetDeviceQualifierDesc>:
* @param  length : pointer data length
* @retval pointer to descriptor buffer
*/
static uint8_t  *USBD_HID_GetDeviceQualifierDesc(uint16_t *length)
{
  *length = sizeof(USBD_HID_DeviceQualifierDesc);
 8007154:	230a      	movs	r3, #10
 8007156:	8003      	strh	r3, [r0, #0]
  return USBD_HID_DeviceQualifierDesc;
}
 8007158:	4800      	ldr	r0, [pc, #0]	; (800715c <USBD_HID_GetDeviceQualifierDesc+0x8>)
 800715a:	4770      	bx	lr
 800715c:	20000304 	.word	0x20000304

08007160 <USBD_HID_Setup>:
{
 8007160:	b570      	push	{r4, r5, r6, lr}
 8007162:	b082      	sub	sp, #8
  USBD_HID_HandleTypeDef *hhid = (USBD_HID_HandleTypeDef *)(pdev->pHID);
 8007164:	f8d0 52c8 	ldr.w	r5, [r0, #712]	; 0x2c8
  uint16_t status_info = 0U;
 8007168:	2300      	movs	r3, #0
 800716a:	f8ad 3006 	strh.w	r3, [sp, #6]
  switch (req->bmRequest & USB_REQ_TYPE_MASK)
 800716e:	780c      	ldrb	r4, [r1, #0]
 8007170:	f014 0460 	ands.w	r4, r4, #96	; 0x60
 8007174:	d025      	beq.n	80071c2 <USBD_HID_Setup+0x62>
 8007176:	2c20      	cmp	r4, #32
 8007178:	d172      	bne.n	8007260 <USBD_HID_Setup+0x100>
      switch (req->bRequest)
 800717a:	784b      	ldrb	r3, [r1, #1]
 800717c:	3b02      	subs	r3, #2
 800717e:	2b09      	cmp	r3, #9
 8007180:	d81b      	bhi.n	80071ba <USBD_HID_Setup+0x5a>
 8007182:	e8df f003 	tbb	[pc, r3]
 8007186:	0914      	.short	0x0914
 8007188:	1a1a1a1a 	.word	0x1a1a1a1a
 800718c:	050f1a1a 	.word	0x050f1a1a
          hhid->Protocol = (uint8_t)(req->wValue);
 8007190:	788b      	ldrb	r3, [r1, #2]
 8007192:	602b      	str	r3, [r5, #0]
  USBD_StatusTypeDef ret = USBD_OK;
 8007194:	2400      	movs	r4, #0
          break;
 8007196:	e066      	b.n	8007266 <USBD_HID_Setup+0x106>
          USBD_CtlSendData(pdev, (uint8_t *)(void *)&hhid->Protocol, 1U);
 8007198:	2201      	movs	r2, #1
 800719a:	4629      	mov	r1, r5
 800719c:	f000 fd2b 	bl	8007bf6 <USBD_CtlSendData>
  USBD_StatusTypeDef ret = USBD_OK;
 80071a0:	2400      	movs	r4, #0
          break;
 80071a2:	e060      	b.n	8007266 <USBD_HID_Setup+0x106>
          hhid->IdleState = (uint8_t)(req->wValue >> 8);
 80071a4:	884b      	ldrh	r3, [r1, #2]
 80071a6:	0a1b      	lsrs	r3, r3, #8
 80071a8:	606b      	str	r3, [r5, #4]
  USBD_StatusTypeDef ret = USBD_OK;
 80071aa:	2400      	movs	r4, #0
          break;
 80071ac:	e05b      	b.n	8007266 <USBD_HID_Setup+0x106>
          USBD_CtlSendData(pdev, (uint8_t *)(void *)&hhid->IdleState, 1U);
 80071ae:	2201      	movs	r2, #1
 80071b0:	1d29      	adds	r1, r5, #4
 80071b2:	f000 fd20 	bl	8007bf6 <USBD_CtlSendData>
  USBD_StatusTypeDef ret = USBD_OK;
 80071b6:	2400      	movs	r4, #0
          break;
 80071b8:	e055      	b.n	8007266 <USBD_HID_Setup+0x106>
          USBD_CtlError(pdev, req);
 80071ba:	f000 fa11 	bl	80075e0 <USBD_CtlError>
          ret = USBD_FAIL;
 80071be:	2402      	movs	r4, #2
          break;
 80071c0:	e051      	b.n	8007266 <USBD_HID_Setup+0x106>
      switch (req->bRequest)
 80071c2:	784e      	ldrb	r6, [r1, #1]
 80071c4:	2e0b      	cmp	r6, #11
 80071c6:	d847      	bhi.n	8007258 <USBD_HID_Setup+0xf8>
 80071c8:	e8df f006 	tbb	[pc, r6]
 80071cc:	46464606 	.word	0x46464606
 80071d0:	46154646 	.word	0x46154646
 80071d4:	3b2d4646 	.word	0x3b2d4646
          if (pdev->dev_state == USBD_STATE_CONFIGURED)
 80071d8:	f890 329c 	ldrb.w	r3, [r0, #668]	; 0x29c
 80071dc:	2b03      	cmp	r3, #3
 80071de:	d003      	beq.n	80071e8 <USBD_HID_Setup+0x88>
            USBD_CtlError(pdev, req);
 80071e0:	f000 f9fe 	bl	80075e0 <USBD_CtlError>
            ret = USBD_FAIL;
 80071e4:	2402      	movs	r4, #2
 80071e6:	e03e      	b.n	8007266 <USBD_HID_Setup+0x106>
            USBD_CtlSendData(pdev, (uint8_t *)(void *)&status_info, 2U);
 80071e8:	2202      	movs	r2, #2
 80071ea:	f10d 0106 	add.w	r1, sp, #6
 80071ee:	f000 fd02 	bl	8007bf6 <USBD_CtlSendData>
  USBD_StatusTypeDef ret = USBD_OK;
 80071f2:	4634      	mov	r4, r6
 80071f4:	e037      	b.n	8007266 <USBD_HID_Setup+0x106>
          if (req->wValue >> 8 == HID_REPORT_DESC)
 80071f6:	884b      	ldrh	r3, [r1, #2]
 80071f8:	0a1b      	lsrs	r3, r3, #8
 80071fa:	2b22      	cmp	r3, #34	; 0x22
 80071fc:	d009      	beq.n	8007212 <USBD_HID_Setup+0xb2>
          else if (req->wValue >> 8 == HID_DESCRIPTOR_TYPE)
 80071fe:	2b21      	cmp	r3, #33	; 0x21
 8007200:	d10d      	bne.n	800721e <USBD_HID_Setup+0xbe>
            len = MIN(USB_HID_DESC_SIZ, req->wLength);
 8007202:	88ca      	ldrh	r2, [r1, #6]
 8007204:	2a09      	cmp	r2, #9
 8007206:	bf28      	it	cs
 8007208:	2209      	movcs	r2, #9
            pbuf = USBD_HID_Desc;
 800720a:	4918      	ldr	r1, [pc, #96]	; (800726c <USBD_HID_Setup+0x10c>)
          USBD_CtlSendData(pdev, pbuf, len);
 800720c:	f000 fcf3 	bl	8007bf6 <USBD_CtlSendData>
          break;
 8007210:	e029      	b.n	8007266 <USBD_HID_Setup+0x106>
            len = MIN(HID_KEYBOARD_REPORT_DESC_SIZE, req->wLength);
 8007212:	88ca      	ldrh	r2, [r1, #6]
 8007214:	2a3f      	cmp	r2, #63	; 0x3f
 8007216:	bf28      	it	cs
 8007218:	223f      	movcs	r2, #63	; 0x3f
            pbuf = HID_KEYBOARD_ReportDesc;
 800721a:	4915      	ldr	r1, [pc, #84]	; (8007270 <USBD_HID_Setup+0x110>)
 800721c:	e7f6      	b.n	800720c <USBD_HID_Setup+0xac>
            USBD_CtlError(pdev, req);
 800721e:	f000 f9df 	bl	80075e0 <USBD_CtlError>
            ret = USBD_FAIL;
 8007222:	2402      	movs	r4, #2
            break;
 8007224:	e01f      	b.n	8007266 <USBD_HID_Setup+0x106>
          if (pdev->dev_state == USBD_STATE_CONFIGURED)
 8007226:	f890 329c 	ldrb.w	r3, [r0, #668]	; 0x29c
 800722a:	2b03      	cmp	r3, #3
 800722c:	d003      	beq.n	8007236 <USBD_HID_Setup+0xd6>
            USBD_CtlError(pdev, req);
 800722e:	f000 f9d7 	bl	80075e0 <USBD_CtlError>
            ret = USBD_FAIL;
 8007232:	2402      	movs	r4, #2
 8007234:	e017      	b.n	8007266 <USBD_HID_Setup+0x106>
            USBD_CtlSendData(pdev, (uint8_t *)(void *)&hhid->AltSetting, 1U);
 8007236:	2201      	movs	r2, #1
 8007238:	f105 0108 	add.w	r1, r5, #8
 800723c:	f000 fcdb 	bl	8007bf6 <USBD_CtlSendData>
 8007240:	e011      	b.n	8007266 <USBD_HID_Setup+0x106>
          if (pdev->dev_state == USBD_STATE_CONFIGURED)
 8007242:	f890 329c 	ldrb.w	r3, [r0, #668]	; 0x29c
 8007246:	2b03      	cmp	r3, #3
 8007248:	d102      	bne.n	8007250 <USBD_HID_Setup+0xf0>
            hhid->AltSetting = (uint8_t)(req->wValue);
 800724a:	788b      	ldrb	r3, [r1, #2]
 800724c:	60ab      	str	r3, [r5, #8]
 800724e:	e00a      	b.n	8007266 <USBD_HID_Setup+0x106>
            USBD_CtlError(pdev, req);
 8007250:	f000 f9c6 	bl	80075e0 <USBD_CtlError>
            ret = USBD_FAIL;
 8007254:	2402      	movs	r4, #2
 8007256:	e006      	b.n	8007266 <USBD_HID_Setup+0x106>
          USBD_CtlError(pdev, req);
 8007258:	f000 f9c2 	bl	80075e0 <USBD_CtlError>
          ret = USBD_FAIL;
 800725c:	2402      	movs	r4, #2
          break;
 800725e:	e002      	b.n	8007266 <USBD_HID_Setup+0x106>
      USBD_CtlError(pdev, req);
 8007260:	f000 f9be 	bl	80075e0 <USBD_CtlError>
      ret = USBD_FAIL;
 8007264:	2402      	movs	r4, #2
}
 8007266:	4620      	mov	r0, r4
 8007268:	b002      	add	sp, #8
 800726a:	bd70      	pop	{r4, r5, r6, pc}
 800726c:	200002f8 	.word	0x200002f8
 8007270:	20000238 	.word	0x20000238

08007274 <USBD_HID_DeInit>:
{
 8007274:	b510      	push	{r4, lr}
 8007276:	4604      	mov	r4, r0
  USBD_LL_CloseEP(pdev, HID_EPIN_ADDR);
 8007278:	2181      	movs	r1, #129	; 0x81
 800727a:	f000 ffa8 	bl	80081ce <USBD_LL_CloseEP>
  pdev->ep_in[HID_EPIN_ADDR & 0xFU].is_used = 0U;
 800727e:	2300      	movs	r3, #0
 8007280:	62e3      	str	r3, [r4, #44]	; 0x2c
  if (pdev->pClassData != NULL)
 8007282:	f8d4 32b8 	ldr.w	r3, [r4, #696]	; 0x2b8
 8007286:	b113      	cbz	r3, 800728e <USBD_HID_DeInit+0x1a>
    pdev->pClassData = NULL;
 8007288:	2300      	movs	r3, #0
 800728a:	f8c4 32b8 	str.w	r3, [r4, #696]	; 0x2b8
}
 800728e:	2000      	movs	r0, #0
 8007290:	bd10      	pop	{r4, pc}

08007292 <USBD_HID_Init>:
{
 8007292:	b510      	push	{r4, lr}
 8007294:	4604      	mov	r4, r0
  USBD_LL_OpenEP(pdev, HID_EPIN_ADDR, USBD_EP_TYPE_INTR, HID_EPIN_SIZE);
 8007296:	2340      	movs	r3, #64	; 0x40
 8007298:	2203      	movs	r2, #3
 800729a:	2181      	movs	r1, #129	; 0x81
 800729c:	f000 ff8c 	bl	80081b8 <USBD_LL_OpenEP>
  pdev->ep_in[HID_EPIN_ADDR & 0xFU].is_used = 1U;
 80072a0:	2301      	movs	r3, #1
 80072a2:	62e3      	str	r3, [r4, #44]	; 0x2c
  ((USBD_HID_HandleTypeDef *)(pdev->pHID))->state = HID_IDLE;
 80072a4:	f8d4 32c8 	ldr.w	r3, [r4, #712]	; 0x2c8
 80072a8:	2000      	movs	r0, #0
 80072aa:	7318      	strb	r0, [r3, #12]
}
 80072ac:	bd10      	pop	{r4, pc}

080072ae <USBD_HID_SendReport>:
{
 80072ae:	b510      	push	{r4, lr}
  USBD_HID_HandleTypeDef     *hhid = (USBD_HID_HandleTypeDef *)pdev->pHID;
 80072b0:	f8d0 42c8 	ldr.w	r4, [r0, #712]	; 0x2c8
  if (pdev->dev_state == USBD_STATE_CONFIGURED)
 80072b4:	f890 329c 	ldrb.w	r3, [r0, #668]	; 0x29c
 80072b8:	2b03      	cmp	r3, #3
 80072ba:	d001      	beq.n	80072c0 <USBD_HID_SendReport+0x12>
}
 80072bc:	2000      	movs	r0, #0
 80072be:	bd10      	pop	{r4, pc}
    if (hhid->state == HID_IDLE)
 80072c0:	7b23      	ldrb	r3, [r4, #12]
 80072c2:	2b00      	cmp	r3, #0
 80072c4:	d1fa      	bne.n	80072bc <USBD_HID_SendReport+0xe>
      hhid->state = HID_BUSY;
 80072c6:	2301      	movs	r3, #1
 80072c8:	7323      	strb	r3, [r4, #12]
      USBD_LL_Transmit(pdev,
 80072ca:	4613      	mov	r3, r2
 80072cc:	460a      	mov	r2, r1
 80072ce:	2181      	movs	r1, #129	; 0x81
 80072d0:	f000 ffb3 	bl	800823a <USBD_LL_Transmit>
 80072d4:	e7f2      	b.n	80072bc <USBD_HID_SendReport+0xe>

080072d6 <USBD_Init>:
*/
USBD_StatusTypeDef USBD_Init(USBD_HandleTypeDef *pdev,
                             USBD_DescriptorsTypeDef *pdesc, uint8_t id)
{
  /* Check whether the USB Host handle is valid */
  if (pdev == NULL)
 80072d6:	b198      	cbz	r0, 8007300 <USBD_Init+0x2a>
{
 80072d8:	b508      	push	{r3, lr}
 80072da:	4603      	mov	r3, r0
#endif
    return USBD_FAIL;
  }

  /* Unlink previous class*/
  if (pdev->pClass != NULL)
 80072dc:	f8d0 02b4 	ldr.w	r0, [r0, #692]	; 0x2b4
 80072e0:	b110      	cbz	r0, 80072e8 <USBD_Init+0x12>
  {
    pdev->pClass = NULL;
 80072e2:	2000      	movs	r0, #0
 80072e4:	f8c3 02b4 	str.w	r0, [r3, #692]	; 0x2b4
  }

  /* Assign USBD Descriptors */
  if (pdesc != NULL)
 80072e8:	b109      	cbz	r1, 80072ee <USBD_Init+0x18>
  {
    pdev->pDesc = pdesc;
 80072ea:	f8c3 12b0 	str.w	r1, [r3, #688]	; 0x2b0
  }

  /* Set Device initial State */
  pdev->dev_state = USBD_STATE_DEFAULT;
 80072ee:	2101      	movs	r1, #1
 80072f0:	f883 129c 	strb.w	r1, [r3, #668]	; 0x29c
  pdev->id = id;
 80072f4:	701a      	strb	r2, [r3, #0]
  /* Initialize low level driver */
  USBD_LL_Init(pdev);
 80072f6:	4618      	mov	r0, r3
 80072f8:	f000 ff0c 	bl	8008114 <USBD_LL_Init>

  return USBD_OK;
 80072fc:	2000      	movs	r0, #0
}
 80072fe:	bd08      	pop	{r3, pc}
    return USBD_FAIL;
 8007300:	2002      	movs	r0, #2
}
 8007302:	4770      	bx	lr

08007304 <USBD_RegisterClass>:
  * @retval USBD Status
  */
USBD_StatusTypeDef  USBD_RegisterClass(USBD_HandleTypeDef *pdev, USBD_ClassTypeDef *pclass)
{
  USBD_StatusTypeDef status = USBD_OK;
  if (pclass != NULL)
 8007304:	b119      	cbz	r1, 800730e <USBD_RegisterClass+0xa>
  {
    /* link the class to the USB Device handle */
    pdev->pClass = pclass;
 8007306:	f8c0 12b4 	str.w	r1, [r0, #692]	; 0x2b4
    status = USBD_OK;
 800730a:	2000      	movs	r0, #0
 800730c:	4770      	bx	lr
  else
  {
#if (USBD_DEBUG_LEVEL > 1U)
    USBD_ErrLog("Invalid Class handle");
#endif
    status = USBD_FAIL;
 800730e:	2002      	movs	r0, #2
  }

  return status;
}
 8007310:	4770      	bx	lr

08007312 <USBD_Start>:
  *         Start the USB Device Core.
  * @param  pdev: Device Handle
  * @retval USBD Status
  */
USBD_StatusTypeDef  USBD_Start(USBD_HandleTypeDef *pdev)
{
 8007312:	b508      	push	{r3, lr}
  /* Start the low level driver  */
  USBD_LL_Start(pdev);
 8007314:	f000 ff48 	bl	80081a8 <USBD_LL_Start>

  return USBD_OK;
}
 8007318:	2000      	movs	r0, #0
 800731a:	bd08      	pop	{r3, pc}

0800731c <USBD_SetClassConfig>:
* @param  cfgidx: configuration index
* @retval status
*/

USBD_StatusTypeDef USBD_SetClassConfig(USBD_HandleTypeDef  *pdev, uint8_t cfgidx)
{
 800731c:	b508      	push	{r3, lr}
  USBD_StatusTypeDef ret = USBD_FAIL;

  if (pdev->pClass != NULL)
 800731e:	f8d0 32b4 	ldr.w	r3, [r0, #692]	; 0x2b4
 8007322:	b12b      	cbz	r3, 8007330 <USBD_SetClassConfig+0x14>
  {
    /* Set configuration  and Start the Class*/
    if (pdev->pClass->Init(pdev, cfgidx) == 0U)
 8007324:	681b      	ldr	r3, [r3, #0]
 8007326:	4798      	blx	r3
 8007328:	b900      	cbnz	r0, 800732c <USBD_SetClassConfig+0x10>
      ret = USBD_OK;
    }
  }

  return ret;
}
 800732a:	bd08      	pop	{r3, pc}
  USBD_StatusTypeDef ret = USBD_FAIL;
 800732c:	2002      	movs	r0, #2
 800732e:	e7fc      	b.n	800732a <USBD_SetClassConfig+0xe>
 8007330:	2002      	movs	r0, #2
 8007332:	e7fa      	b.n	800732a <USBD_SetClassConfig+0xe>

08007334 <USBD_ClrClassConfig>:
* @param  pdev: device instance
* @param  cfgidx: configuration index
* @retval status: USBD_StatusTypeDef
*/
USBD_StatusTypeDef USBD_ClrClassConfig(USBD_HandleTypeDef  *pdev, uint8_t cfgidx)
{
 8007334:	b508      	push	{r3, lr}
  /* Clear configuration  and De-initialize the Class process*/
  pdev->pClass->DeInit(pdev, cfgidx);
 8007336:	f8d0 32b4 	ldr.w	r3, [r0, #692]	; 0x2b4
 800733a:	685b      	ldr	r3, [r3, #4]
 800733c:	4798      	blx	r3

  return USBD_OK;
}
 800733e:	2000      	movs	r0, #0
 8007340:	bd08      	pop	{r3, pc}

08007342 <USBD_LL_SetupStage>:
*         Handle the setup stage
* @param  pdev: device instance
* @retval status
*/
USBD_StatusTypeDef USBD_LL_SetupStage(USBD_HandleTypeDef *pdev, uint8_t *psetup)
{
 8007342:	b538      	push	{r3, r4, r5, lr}
 8007344:	4604      	mov	r4, r0
  USBD_ParseSetupRequest(&pdev->request, psetup);
 8007346:	f500 752a 	add.w	r5, r0, #680	; 0x2a8
 800734a:	4628      	mov	r0, r5
 800734c:	f000 f934 	bl	80075b8 <USBD_ParseSetupRequest>

  pdev->ep0_state = USBD_EP0_SETUP;
 8007350:	2301      	movs	r3, #1
 8007352:	f8c4 3294 	str.w	r3, [r4, #660]	; 0x294

  pdev->ep0_data_len = pdev->request.wLength;
 8007356:	f8b4 32ae 	ldrh.w	r3, [r4, #686]	; 0x2ae
 800735a:	f8c4 3298 	str.w	r3, [r4, #664]	; 0x298

  switch (pdev->request.bmRequest & 0x1FU)
 800735e:	f894 12a8 	ldrb.w	r1, [r4, #680]	; 0x2a8
 8007362:	f001 031f 	and.w	r3, r1, #31
 8007366:	2b01      	cmp	r3, #1
 8007368:	d00e      	beq.n	8007388 <USBD_LL_SetupStage+0x46>
 800736a:	2b02      	cmp	r3, #2
 800736c:	d011      	beq.n	8007392 <USBD_LL_SetupStage+0x50>
 800736e:	b12b      	cbz	r3, 800737c <USBD_LL_SetupStage+0x3a>
    case USB_REQ_RECIPIENT_ENDPOINT:
      USBD_StdEPReq(pdev, &pdev->request);
      break;

    default:
      USBD_LL_StallEP(pdev, (pdev->request.bmRequest & 0x80U));
 8007370:	f001 0180 	and.w	r1, r1, #128	; 0x80
 8007374:	4620      	mov	r0, r4
 8007376:	f000 ff32 	bl	80081de <USBD_LL_StallEP>
      break;
 800737a:	e003      	b.n	8007384 <USBD_LL_SetupStage+0x42>
      USBD_StdDevReq(pdev, &pdev->request);
 800737c:	4629      	mov	r1, r5
 800737e:	4620      	mov	r0, r4
 8007380:	f000 fac8 	bl	8007914 <USBD_StdDevReq>
  }

  return USBD_OK;
}
 8007384:	2000      	movs	r0, #0
 8007386:	bd38      	pop	{r3, r4, r5, pc}
      USBD_StdItfReq(pdev, &pdev->request);
 8007388:	4629      	mov	r1, r5
 800738a:	4620      	mov	r0, r4
 800738c:	f000 faf6 	bl	800797c <USBD_StdItfReq>
      break;
 8007390:	e7f8      	b.n	8007384 <USBD_LL_SetupStage+0x42>
      USBD_StdEPReq(pdev, &pdev->request);
 8007392:	4629      	mov	r1, r5
 8007394:	4620      	mov	r0, r4
 8007396:	f000 fb21 	bl	80079dc <USBD_StdEPReq>
      break;
 800739a:	e7f3      	b.n	8007384 <USBD_LL_SetupStage+0x42>

0800739c <USBD_LL_DataOutStage>:
* @param  epnum: endpoint index
* @retval status
*/
USBD_StatusTypeDef USBD_LL_DataOutStage(USBD_HandleTypeDef *pdev,
                                        uint8_t epnum, uint8_t *pdata)
{
 800739c:	b538      	push	{r3, r4, r5, lr}
 800739e:	4604      	mov	r4, r0
  USBD_EndpointTypeDef *pep;

  if (epnum == 0U)
 80073a0:	460d      	mov	r5, r1
 80073a2:	bb91      	cbnz	r1, 800740a <USBD_LL_DataOutStage+0x6e>
 80073a4:	4613      	mov	r3, r2
  {
    pep = &pdev->ep_out[0];

    if (pdev->ep0_state == USBD_EP0_DATA_OUT)
 80073a6:	f8d0 2294 	ldr.w	r2, [r0, #660]	; 0x294
 80073aa:	2a03      	cmp	r2, #3
 80073ac:	d003      	beq.n	80073b6 <USBD_LL_DataOutStage+0x1a>
        USBD_CtlSendStatus(pdev);
      }
    }
    else
    {
      if (pdev->ep0_state == USBD_EP0_STATUS_OUT)
 80073ae:	2a05      	cmp	r2, #5
 80073b0:	d024      	beq.n	80073fc <USBD_LL_DataOutStage+0x60>
  {
    /* should never be in this condition */
    return USBD_FAIL;
  }

  return USBD_OK;
 80073b2:	4608      	mov	r0, r1
 80073b4:	e033      	b.n	800741e <USBD_LL_DataOutStage+0x82>
      if (pep->rem_length > pep->maxpacket)
 80073b6:	f8d0 1160 	ldr.w	r1, [r0, #352]	; 0x160
 80073ba:	f8d0 2164 	ldr.w	r2, [r0, #356]	; 0x164
 80073be:	4291      	cmp	r1, r2
 80073c0:	d90d      	bls.n	80073de <USBD_LL_DataOutStage+0x42>
        pep->rem_length -= pep->maxpacket;
 80073c2:	1a89      	subs	r1, r1, r2
 80073c4:	f8c0 1160 	str.w	r1, [r0, #352]	; 0x160
        USBD_CtlContinueRx(pdev, pdata,
 80073c8:	428a      	cmp	r2, r1
 80073ca:	d906      	bls.n	80073da <USBD_LL_DataOutStage+0x3e>
 80073cc:	b28a      	uxth	r2, r1
 80073ce:	4619      	mov	r1, r3
 80073d0:	4620      	mov	r0, r4
 80073d2:	f000 fc34 	bl	8007c3e <USBD_CtlContinueRx>
  return USBD_OK;
 80073d6:	4628      	mov	r0, r5
 80073d8:	e021      	b.n	800741e <USBD_LL_DataOutStage+0x82>
        USBD_CtlContinueRx(pdev, pdata,
 80073da:	b292      	uxth	r2, r2
 80073dc:	e7f7      	b.n	80073ce <USBD_LL_DataOutStage+0x32>
        if ((pdev->pClass->EP0_RxReady != NULL) &&
 80073de:	f8d0 32b4 	ldr.w	r3, [r0, #692]	; 0x2b4
 80073e2:	691b      	ldr	r3, [r3, #16]
 80073e4:	b11b      	cbz	r3, 80073ee <USBD_LL_DataOutStage+0x52>
            (pdev->dev_state == USBD_STATE_CONFIGURED))
 80073e6:	f890 229c 	ldrb.w	r2, [r0, #668]	; 0x29c
        if ((pdev->pClass->EP0_RxReady != NULL) &&
 80073ea:	2a03      	cmp	r2, #3
 80073ec:	d004      	beq.n	80073f8 <USBD_LL_DataOutStage+0x5c>
        USBD_CtlSendStatus(pdev);
 80073ee:	4620      	mov	r0, r4
 80073f0:	f000 fc2d 	bl	8007c4e <USBD_CtlSendStatus>
  return USBD_OK;
 80073f4:	4628      	mov	r0, r5
 80073f6:	e012      	b.n	800741e <USBD_LL_DataOutStage+0x82>
          pdev->pClass->EP0_RxReady(pdev);
 80073f8:	4798      	blx	r3
 80073fa:	e7f8      	b.n	80073ee <USBD_LL_DataOutStage+0x52>
        pdev->ep0_state = USBD_EP0_IDLE;
 80073fc:	2100      	movs	r1, #0
 80073fe:	f8c0 1294 	str.w	r1, [r0, #660]	; 0x294
        USBD_LL_StallEP(pdev, 0U);
 8007402:	f000 feec 	bl	80081de <USBD_LL_StallEP>
  return USBD_OK;
 8007406:	4628      	mov	r0, r5
 8007408:	e009      	b.n	800741e <USBD_LL_DataOutStage+0x82>
  else if ((pdev->pClass->DataOut != NULL) &&
 800740a:	f8d0 32b4 	ldr.w	r3, [r0, #692]	; 0x2b4
 800740e:	699b      	ldr	r3, [r3, #24]
 8007410:	b133      	cbz	r3, 8007420 <USBD_LL_DataOutStage+0x84>
           (pdev->dev_state == USBD_STATE_CONFIGURED))
 8007412:	f890 229c 	ldrb.w	r2, [r0, #668]	; 0x29c
  else if ((pdev->pClass->DataOut != NULL) &&
 8007416:	2a03      	cmp	r2, #3
 8007418:	d104      	bne.n	8007424 <USBD_LL_DataOutStage+0x88>
    pdev->pClass->DataOut(pdev, epnum);
 800741a:	4798      	blx	r3
  return USBD_OK;
 800741c:	2000      	movs	r0, #0
}
 800741e:	bd38      	pop	{r3, r4, r5, pc}
    return USBD_FAIL;
 8007420:	2002      	movs	r0, #2
 8007422:	e7fc      	b.n	800741e <USBD_LL_DataOutStage+0x82>
 8007424:	2002      	movs	r0, #2
 8007426:	e7fa      	b.n	800741e <USBD_LL_DataOutStage+0x82>

08007428 <USBD_LL_DataInStage>:
* @param  epnum: endpoint index
* @retval status
*/
USBD_StatusTypeDef USBD_LL_DataInStage(USBD_HandleTypeDef *pdev,
                                       uint8_t epnum, uint8_t *pdata)
{
 8007428:	b538      	push	{r3, r4, r5, lr}
 800742a:	4604      	mov	r4, r0
  USBD_EndpointTypeDef *pep;

  if (epnum == 0U)
 800742c:	460d      	mov	r5, r1
 800742e:	2900      	cmp	r1, #0
 8007430:	d153      	bne.n	80074da <USBD_LL_DataInStage+0xb2>
 8007432:	4613      	mov	r3, r2
  {
    pep = &pdev->ep_in[0];

    if (pdev->ep0_state == USBD_EP0_DATA_IN)
 8007434:	f8d0 2294 	ldr.w	r2, [r0, #660]	; 0x294
 8007438:	2a02      	cmp	r2, #2
 800743a:	d00c      	beq.n	8007456 <USBD_LL_DataInStage+0x2e>
        }
      }
    }
    else
    {
      if ((pdev->ep0_state == USBD_EP0_STATUS_IN) ||
 800743c:	2a04      	cmp	r2, #4
 800743e:	d000      	beq.n	8007442 <USBD_LL_DataInStage+0x1a>
 8007440:	b91a      	cbnz	r2, 800744a <USBD_LL_DataInStage+0x22>
          (pdev->ep0_state == USBD_EP0_IDLE))
      {
        USBD_LL_StallEP(pdev, 0x80U);
 8007442:	2180      	movs	r1, #128	; 0x80
 8007444:	4620      	mov	r0, r4
 8007446:	f000 feca 	bl	80081de <USBD_LL_StallEP>
      }
    }

    if (pdev->dev_test_mode == 1U)
 800744a:	f894 32a0 	ldrb.w	r3, [r4, #672]	; 0x2a0
 800744e:	2b01      	cmp	r3, #1
 8007450:	d03e      	beq.n	80074d0 <USBD_LL_DataInStage+0xa8>
  {
    /* should never be in this condition */
    return USBD_FAIL;
  }

  return USBD_OK;
 8007452:	4628      	mov	r0, r5
}
 8007454:	bd38      	pop	{r3, r4, r5, pc}
      if (pep->rem_length > pep->maxpacket)
 8007456:	6a01      	ldr	r1, [r0, #32]
 8007458:	6a42      	ldr	r2, [r0, #36]	; 0x24
 800745a:	4291      	cmp	r1, r2
 800745c:	d81b      	bhi.n	8007496 <USBD_LL_DataInStage+0x6e>
        if ((pep->total_length % pep->maxpacket == 0U) &&
 800745e:	69c1      	ldr	r1, [r0, #28]
 8007460:	fbb1 f3f2 	udiv	r3, r1, r2
 8007464:	fb02 1313 	mls	r3, r2, r3, r1
 8007468:	b92b      	cbnz	r3, 8007476 <USBD_LL_DataInStage+0x4e>
 800746a:	428a      	cmp	r2, r1
 800746c:	d803      	bhi.n	8007476 <USBD_LL_DataInStage+0x4e>
            (pep->total_length < pdev->ep0_data_len))
 800746e:	f8d0 3298 	ldr.w	r3, [r0, #664]	; 0x298
            (pep->total_length >= pep->maxpacket) &&
 8007472:	4299      	cmp	r1, r3
 8007474:	d31c      	bcc.n	80074b0 <USBD_LL_DataInStage+0x88>
          if ((pdev->pClass->EP0_TxSent != NULL) &&
 8007476:	f8d4 32b4 	ldr.w	r3, [r4, #692]	; 0x2b4
 800747a:	68db      	ldr	r3, [r3, #12]
 800747c:	b11b      	cbz	r3, 8007486 <USBD_LL_DataInStage+0x5e>
              (pdev->dev_state == USBD_STATE_CONFIGURED))
 800747e:	f894 229c 	ldrb.w	r2, [r4, #668]	; 0x29c
          if ((pdev->pClass->EP0_TxSent != NULL) &&
 8007482:	2a03      	cmp	r2, #3
 8007484:	d021      	beq.n	80074ca <USBD_LL_DataInStage+0xa2>
          USBD_LL_StallEP(pdev, 0x80U);
 8007486:	2180      	movs	r1, #128	; 0x80
 8007488:	4620      	mov	r0, r4
 800748a:	f000 fea8 	bl	80081de <USBD_LL_StallEP>
          USBD_CtlReceiveStatus(pdev);
 800748e:	4620      	mov	r0, r4
 8007490:	f000 fbe8 	bl	8007c64 <USBD_CtlReceiveStatus>
 8007494:	e7d9      	b.n	800744a <USBD_LL_DataInStage+0x22>
        pep->rem_length -= pep->maxpacket;
 8007496:	1a8a      	subs	r2, r1, r2
 8007498:	6202      	str	r2, [r0, #32]
        USBD_CtlContinueSendData(pdev, pdata, (uint16_t)pep->rem_length);
 800749a:	b292      	uxth	r2, r2
 800749c:	4619      	mov	r1, r3
 800749e:	f000 fbb7 	bl	8007c10 <USBD_CtlContinueSendData>
        USBD_LL_PrepareReceive(pdev, 0U, NULL, 0U);
 80074a2:	2300      	movs	r3, #0
 80074a4:	461a      	mov	r2, r3
 80074a6:	4619      	mov	r1, r3
 80074a8:	4620      	mov	r0, r4
 80074aa:	f000 fece 	bl	800824a <USBD_LL_PrepareReceive>
 80074ae:	e7cc      	b.n	800744a <USBD_LL_DataInStage+0x22>
          USBD_CtlContinueSendData(pdev, NULL, 0U);
 80074b0:	2200      	movs	r2, #0
 80074b2:	4611      	mov	r1, r2
 80074b4:	f000 fbac 	bl	8007c10 <USBD_CtlContinueSendData>
          pdev->ep0_data_len = 0U;
 80074b8:	2100      	movs	r1, #0
 80074ba:	f8c4 1298 	str.w	r1, [r4, #664]	; 0x298
          USBD_LL_PrepareReceive(pdev, 0U, NULL, 0U);
 80074be:	460b      	mov	r3, r1
 80074c0:	460a      	mov	r2, r1
 80074c2:	4620      	mov	r0, r4
 80074c4:	f000 fec1 	bl	800824a <USBD_LL_PrepareReceive>
 80074c8:	e7bf      	b.n	800744a <USBD_LL_DataInStage+0x22>
            pdev->pClass->EP0_TxSent(pdev);
 80074ca:	4620      	mov	r0, r4
 80074cc:	4798      	blx	r3
 80074ce:	e7da      	b.n	8007486 <USBD_LL_DataInStage+0x5e>
      pdev->dev_test_mode = 0U;
 80074d0:	2300      	movs	r3, #0
 80074d2:	f884 32a0 	strb.w	r3, [r4, #672]	; 0x2a0
  return USBD_OK;
 80074d6:	4628      	mov	r0, r5
 80074d8:	e7bc      	b.n	8007454 <USBD_LL_DataInStage+0x2c>
  else if ((pdev->pClass->DataIn != NULL) &&
 80074da:	f8d0 32b4 	ldr.w	r3, [r0, #692]	; 0x2b4
 80074de:	695b      	ldr	r3, [r3, #20]
 80074e0:	b133      	cbz	r3, 80074f0 <USBD_LL_DataInStage+0xc8>
           (pdev->dev_state == USBD_STATE_CONFIGURED))
 80074e2:	f890 229c 	ldrb.w	r2, [r0, #668]	; 0x29c
  else if ((pdev->pClass->DataIn != NULL) &&
 80074e6:	2a03      	cmp	r2, #3
 80074e8:	d104      	bne.n	80074f4 <USBD_LL_DataInStage+0xcc>
    pdev->pClass->DataIn(pdev, epnum);
 80074ea:	4798      	blx	r3
  return USBD_OK;
 80074ec:	2000      	movs	r0, #0
    pdev->pClass->DataIn(pdev, epnum);
 80074ee:	e7b1      	b.n	8007454 <USBD_LL_DataInStage+0x2c>
    return USBD_FAIL;
 80074f0:	2002      	movs	r0, #2
 80074f2:	e7af      	b.n	8007454 <USBD_LL_DataInStage+0x2c>
 80074f4:	2002      	movs	r0, #2
 80074f6:	e7ad      	b.n	8007454 <USBD_LL_DataInStage+0x2c>

080074f8 <USBD_LL_Reset>:
* @param  pdev: device instance
* @retval status
*/

USBD_StatusTypeDef USBD_LL_Reset(USBD_HandleTypeDef *pdev)
{
 80074f8:	b570      	push	{r4, r5, r6, lr}
 80074fa:	4604      	mov	r4, r0
  /* Open EP0 OUT */
  USBD_LL_OpenEP(pdev, 0x00U, USBD_EP_TYPE_CTRL, USB_MAX_EP0_SIZE);
 80074fc:	2340      	movs	r3, #64	; 0x40
 80074fe:	2200      	movs	r2, #0
 8007500:	4611      	mov	r1, r2
 8007502:	f000 fe59 	bl	80081b8 <USBD_LL_OpenEP>
  pdev->ep_out[0x00U & 0xFU].is_used = 1U;
 8007506:	2501      	movs	r5, #1
 8007508:	f8c4 5158 	str.w	r5, [r4, #344]	; 0x158

  pdev->ep_out[0].maxpacket = USB_MAX_EP0_SIZE;
 800750c:	2640      	movs	r6, #64	; 0x40
 800750e:	f8c4 6164 	str.w	r6, [r4, #356]	; 0x164

  /* Open EP0 IN */
  USBD_LL_OpenEP(pdev, 0x80U, USBD_EP_TYPE_CTRL, USB_MAX_EP0_SIZE);
 8007512:	4633      	mov	r3, r6
 8007514:	2200      	movs	r2, #0
 8007516:	2180      	movs	r1, #128	; 0x80
 8007518:	4620      	mov	r0, r4
 800751a:	f000 fe4d 	bl	80081b8 <USBD_LL_OpenEP>
  pdev->ep_in[0x80U & 0xFU].is_used = 1U;
 800751e:	61a5      	str	r5, [r4, #24]

  pdev->ep_in[0].maxpacket = USB_MAX_EP0_SIZE;
 8007520:	6266      	str	r6, [r4, #36]	; 0x24

  /* Upon Reset call user call back */
  pdev->dev_state = USBD_STATE_DEFAULT;
 8007522:	f884 529c 	strb.w	r5, [r4, #668]	; 0x29c
  pdev->ep0_state = USBD_EP0_IDLE;
 8007526:	2300      	movs	r3, #0
 8007528:	f8c4 3294 	str.w	r3, [r4, #660]	; 0x294
  pdev->dev_config = 0U;
 800752c:	6063      	str	r3, [r4, #4]
  pdev->dev_remote_wakeup = 0U;
 800752e:	f8c4 32a4 	str.w	r3, [r4, #676]	; 0x2a4

  if (pdev->pClassData)
 8007532:	f8d4 32b8 	ldr.w	r3, [r4, #696]	; 0x2b8
 8007536:	b12b      	cbz	r3, 8007544 <USBD_LL_Reset+0x4c>
  {
    pdev->pClass->DeInit(pdev, (uint8_t)pdev->dev_config);
 8007538:	f8d4 32b4 	ldr.w	r3, [r4, #692]	; 0x2b4
 800753c:	685b      	ldr	r3, [r3, #4]
 800753e:	2100      	movs	r1, #0
 8007540:	4620      	mov	r0, r4
 8007542:	4798      	blx	r3
  }

  return USBD_OK;
}
 8007544:	2000      	movs	r0, #0
 8007546:	bd70      	pop	{r4, r5, r6, pc}

08007548 <USBD_LL_SetSpeed>:
* @retval status
*/
USBD_StatusTypeDef USBD_LL_SetSpeed(USBD_HandleTypeDef *pdev,
                                    USBD_SpeedTypeDef speed)
{
  pdev->dev_speed = speed;
 8007548:	7401      	strb	r1, [r0, #16]

  return USBD_OK;
}
 800754a:	2000      	movs	r0, #0
 800754c:	4770      	bx	lr

0800754e <USBD_LL_Suspend>:
* @retval status
*/

USBD_StatusTypeDef USBD_LL_Suspend(USBD_HandleTypeDef *pdev)
{
  pdev->dev_old_state =  pdev->dev_state;
 800754e:	f890 329c 	ldrb.w	r3, [r0, #668]	; 0x29c
 8007552:	f880 329d 	strb.w	r3, [r0, #669]	; 0x29d
  pdev->dev_state  = USBD_STATE_SUSPENDED;
 8007556:	2304      	movs	r3, #4
 8007558:	f880 329c 	strb.w	r3, [r0, #668]	; 0x29c

  return USBD_OK;
}
 800755c:	2000      	movs	r0, #0
 800755e:	4770      	bx	lr

08007560 <USBD_LL_Resume>:
* @retval status
*/

USBD_StatusTypeDef USBD_LL_Resume(USBD_HandleTypeDef *pdev)
{
  if (pdev->dev_state == USBD_STATE_SUSPENDED)
 8007560:	f890 329c 	ldrb.w	r3, [r0, #668]	; 0x29c
 8007564:	2b04      	cmp	r3, #4
 8007566:	d001      	beq.n	800756c <USBD_LL_Resume+0xc>
  {
    pdev->dev_state = pdev->dev_old_state;
  }

  return USBD_OK;
}
 8007568:	2000      	movs	r0, #0
 800756a:	4770      	bx	lr
    pdev->dev_state = pdev->dev_old_state;
 800756c:	f890 329d 	ldrb.w	r3, [r0, #669]	; 0x29d
 8007570:	f880 329c 	strb.w	r3, [r0, #668]	; 0x29c
 8007574:	e7f8      	b.n	8007568 <USBD_LL_Resume+0x8>

08007576 <USBD_LL_SOF>:
* @param  pdev: device instance
* @retval status
*/

USBD_StatusTypeDef USBD_LL_SOF(USBD_HandleTypeDef *pdev)
{
 8007576:	b508      	push	{r3, lr}
  if (pdev->dev_state == USBD_STATE_CONFIGURED)
 8007578:	f890 329c 	ldrb.w	r3, [r0, #668]	; 0x29c
 800757c:	2b03      	cmp	r3, #3
 800757e:	d001      	beq.n	8007584 <USBD_LL_SOF+0xe>
      pdev->pClass->SOF(pdev);
    }
  }

  return USBD_OK;
}
 8007580:	2000      	movs	r0, #0
 8007582:	bd08      	pop	{r3, pc}
    if (pdev->pClass->SOF != NULL)
 8007584:	f8d0 32b4 	ldr.w	r3, [r0, #692]	; 0x2b4
 8007588:	69db      	ldr	r3, [r3, #28]
 800758a:	2b00      	cmp	r3, #0
 800758c:	d0f8      	beq.n	8007580 <USBD_LL_SOF+0xa>
      pdev->pClass->SOF(pdev);
 800758e:	4798      	blx	r3
 8007590:	e7f6      	b.n	8007580 <USBD_LL_SOF+0xa>

08007592 <USBD_GetLen>:
  *         return the string length
   * @param  buf : pointer to the ascii string buffer
  * @retval string length
  */
static uint8_t USBD_GetLen(uint8_t *buf)
{
 8007592:	4603      	mov	r3, r0
  uint8_t  len = 0U;
 8007594:	2000      	movs	r0, #0

  while (*buf != '\0')
 8007596:	781a      	ldrb	r2, [r3, #0]
 8007598:	b11a      	cbz	r2, 80075a2 <USBD_GetLen+0x10>
  {
    len++;
 800759a:	3001      	adds	r0, #1
 800759c:	b2c0      	uxtb	r0, r0
    buf++;
 800759e:	3301      	adds	r3, #1
 80075a0:	e7f9      	b.n	8007596 <USBD_GetLen+0x4>
  }

  return len;
}
 80075a2:	4770      	bx	lr

080075a4 <USBD_SetFeature>:
{
 80075a4:	b508      	push	{r3, lr}
  if (req->wValue == USB_FEATURE_REMOTE_WAKEUP)
 80075a6:	884b      	ldrh	r3, [r1, #2]
 80075a8:	2b01      	cmp	r3, #1
 80075aa:	d000      	beq.n	80075ae <USBD_SetFeature+0xa>
}
 80075ac:	bd08      	pop	{r3, pc}
    pdev->dev_remote_wakeup = 1U;
 80075ae:	f8c0 32a4 	str.w	r3, [r0, #676]	; 0x2a4
    USBD_CtlSendStatus(pdev);
 80075b2:	f000 fb4c 	bl	8007c4e <USBD_CtlSendStatus>
}
 80075b6:	e7f9      	b.n	80075ac <USBD_SetFeature+0x8>

080075b8 <USBD_ParseSetupRequest>:
  req->bmRequest = *(uint8_t *)(pdata);
 80075b8:	780b      	ldrb	r3, [r1, #0]
 80075ba:	7003      	strb	r3, [r0, #0]
  req->bRequest = *(uint8_t *)(pdata + 1U);
 80075bc:	784b      	ldrb	r3, [r1, #1]
 80075be:	7043      	strb	r3, [r0, #1]
  req->wValue = SWAPBYTE(pdata + 2U);
 80075c0:	788b      	ldrb	r3, [r1, #2]
 80075c2:	78ca      	ldrb	r2, [r1, #3]
 80075c4:	eb03 2302 	add.w	r3, r3, r2, lsl #8
 80075c8:	8043      	strh	r3, [r0, #2]
  req->wIndex = SWAPBYTE(pdata + 4U);
 80075ca:	790b      	ldrb	r3, [r1, #4]
 80075cc:	794a      	ldrb	r2, [r1, #5]
 80075ce:	eb03 2302 	add.w	r3, r3, r2, lsl #8
 80075d2:	8083      	strh	r3, [r0, #4]
  req->wLength = SWAPBYTE(pdata + 6U);
 80075d4:	798b      	ldrb	r3, [r1, #6]
 80075d6:	79ca      	ldrb	r2, [r1, #7]
 80075d8:	eb03 2302 	add.w	r3, r3, r2, lsl #8
 80075dc:	80c3      	strh	r3, [r0, #6]
}
 80075de:	4770      	bx	lr

080075e0 <USBD_CtlError>:
{
 80075e0:	b510      	push	{r4, lr}
 80075e2:	4604      	mov	r4, r0
  USBD_LL_StallEP(pdev, 0x80U);
 80075e4:	2180      	movs	r1, #128	; 0x80
 80075e6:	f000 fdfa 	bl	80081de <USBD_LL_StallEP>
  USBD_LL_StallEP(pdev, 0U);
 80075ea:	2100      	movs	r1, #0
 80075ec:	4620      	mov	r0, r4
 80075ee:	f000 fdf6 	bl	80081de <USBD_LL_StallEP>
}
 80075f2:	bd10      	pop	{r4, pc}

080075f4 <USBD_GetDescriptor>:
{
 80075f4:	b530      	push	{r4, r5, lr}
 80075f6:	b083      	sub	sp, #12
 80075f8:	4605      	mov	r5, r0
 80075fa:	460c      	mov	r4, r1
  uint16_t len = 0U;
 80075fc:	2300      	movs	r3, #0
 80075fe:	f8ad 3006 	strh.w	r3, [sp, #6]
  switch (req->wValue >> 8)
 8007602:	884a      	ldrh	r2, [r1, #2]
 8007604:	0a13      	lsrs	r3, r2, #8
 8007606:	3b01      	subs	r3, #1
 8007608:	2b06      	cmp	r3, #6
 800760a:	f200 80a4 	bhi.w	8007756 <USBD_GetDescriptor+0x162>
 800760e:	e8df f003 	tbb	[pc, r3]
 8007612:	1804      	.short	0x1804
 8007614:	86a2a22c 	.word	0x86a2a22c
 8007618:	93          	.byte	0x93
 8007619:	00          	.byte	0x00
      pbuf = pdev->pDesc->GetDeviceDescriptor(pdev->dev_speed, &len);
 800761a:	f8d0 32b0 	ldr.w	r3, [r0, #688]	; 0x2b0
 800761e:	681b      	ldr	r3, [r3, #0]
 8007620:	f10d 0106 	add.w	r1, sp, #6
 8007624:	7c00      	ldrb	r0, [r0, #16]
 8007626:	4798      	blx	r3
    if ((len != 0U) && (req->wLength != 0U))
 8007628:	f8bd 2006 	ldrh.w	r2, [sp, #6]
 800762c:	b11a      	cbz	r2, 8007636 <USBD_GetDescriptor+0x42>
 800762e:	88e3      	ldrh	r3, [r4, #6]
 8007630:	2b00      	cmp	r3, #0
 8007632:	f040 8094 	bne.w	800775e <USBD_GetDescriptor+0x16a>
    if (req->wLength == 0U)
 8007636:	88e3      	ldrh	r3, [r4, #6]
 8007638:	2b00      	cmp	r3, #0
 800763a:	f000 809a 	beq.w	8007772 <USBD_GetDescriptor+0x17e>
}
 800763e:	b003      	add	sp, #12
 8007640:	bd30      	pop	{r4, r5, pc}
      if (pdev->dev_speed == USBD_SPEED_HIGH)
 8007642:	7c03      	ldrb	r3, [r0, #16]
 8007644:	b943      	cbnz	r3, 8007658 <USBD_GetDescriptor+0x64>
        pbuf = pdev->pClass->GetHSConfigDescriptor(&len);
 8007646:	f8d0 32b4 	ldr.w	r3, [r0, #692]	; 0x2b4
 800764a:	6a9b      	ldr	r3, [r3, #40]	; 0x28
 800764c:	f10d 0006 	add.w	r0, sp, #6
 8007650:	4798      	blx	r3
        pbuf[1] = USB_DESC_TYPE_CONFIGURATION;
 8007652:	2302      	movs	r3, #2
 8007654:	7043      	strb	r3, [r0, #1]
  if (err != 0U)
 8007656:	e7e7      	b.n	8007628 <USBD_GetDescriptor+0x34>
        pbuf = pdev->pClass->GetFSConfigDescriptor(&len);
 8007658:	f8d0 32b4 	ldr.w	r3, [r0, #692]	; 0x2b4
 800765c:	6adb      	ldr	r3, [r3, #44]	; 0x2c
 800765e:	f10d 0006 	add.w	r0, sp, #6
 8007662:	4798      	blx	r3
        pbuf[1] = USB_DESC_TYPE_CONFIGURATION;
 8007664:	2302      	movs	r3, #2
 8007666:	7043      	strb	r3, [r0, #1]
  if (err != 0U)
 8007668:	e7de      	b.n	8007628 <USBD_GetDescriptor+0x34>
      switch ((uint8_t)(req->wValue))
 800766a:	b2d2      	uxtb	r2, r2
 800766c:	2a05      	cmp	r2, #5
 800766e:	d852      	bhi.n	8007716 <USBD_GetDescriptor+0x122>
 8007670:	e8df f002 	tbb	[pc, r2]
 8007674:	2a1d1003 	.word	0x2a1d1003
 8007678:	4437      	.short	0x4437
          if (pdev->pDesc->GetLangIDStrDescriptor != NULL)
 800767a:	f8d0 32b0 	ldr.w	r3, [r0, #688]	; 0x2b0
 800767e:	685b      	ldr	r3, [r3, #4]
 8007680:	b123      	cbz	r3, 800768c <USBD_GetDescriptor+0x98>
            pbuf = pdev->pDesc->GetLangIDStrDescriptor(pdev->dev_speed, &len);
 8007682:	f10d 0106 	add.w	r1, sp, #6
 8007686:	7c00      	ldrb	r0, [r0, #16]
 8007688:	4798      	blx	r3
  if (err != 0U)
 800768a:	e7cd      	b.n	8007628 <USBD_GetDescriptor+0x34>
            USBD_CtlError(pdev, req);
 800768c:	4621      	mov	r1, r4
 800768e:	f7ff ffa7 	bl	80075e0 <USBD_CtlError>
  if (err != 0U)
 8007692:	e7d4      	b.n	800763e <USBD_GetDescriptor+0x4a>
          if (pdev->pDesc->GetManufacturerStrDescriptor != NULL)
 8007694:	f8d0 32b0 	ldr.w	r3, [r0, #688]	; 0x2b0
 8007698:	689b      	ldr	r3, [r3, #8]
 800769a:	b123      	cbz	r3, 80076a6 <USBD_GetDescriptor+0xb2>
            pbuf = pdev->pDesc->GetManufacturerStrDescriptor(pdev->dev_speed, &len);
 800769c:	f10d 0106 	add.w	r1, sp, #6
 80076a0:	7c00      	ldrb	r0, [r0, #16]
 80076a2:	4798      	blx	r3
  if (err != 0U)
 80076a4:	e7c0      	b.n	8007628 <USBD_GetDescriptor+0x34>
            USBD_CtlError(pdev, req);
 80076a6:	4621      	mov	r1, r4
 80076a8:	f7ff ff9a 	bl	80075e0 <USBD_CtlError>
  if (err != 0U)
 80076ac:	e7c7      	b.n	800763e <USBD_GetDescriptor+0x4a>
          if (pdev->pDesc->GetProductStrDescriptor != NULL)
 80076ae:	f8d0 32b0 	ldr.w	r3, [r0, #688]	; 0x2b0
 80076b2:	68db      	ldr	r3, [r3, #12]
 80076b4:	b123      	cbz	r3, 80076c0 <USBD_GetDescriptor+0xcc>
            pbuf = pdev->pDesc->GetProductStrDescriptor(pdev->dev_speed, &len);
 80076b6:	f10d 0106 	add.w	r1, sp, #6
 80076ba:	7c00      	ldrb	r0, [r0, #16]
 80076bc:	4798      	blx	r3
  if (err != 0U)
 80076be:	e7b3      	b.n	8007628 <USBD_GetDescriptor+0x34>
            USBD_CtlError(pdev, req);
 80076c0:	4621      	mov	r1, r4
 80076c2:	f7ff ff8d 	bl	80075e0 <USBD_CtlError>
  if (err != 0U)
 80076c6:	e7ba      	b.n	800763e <USBD_GetDescriptor+0x4a>
          if (pdev->pDesc->GetSerialStrDescriptor != NULL)
 80076c8:	f8d0 32b0 	ldr.w	r3, [r0, #688]	; 0x2b0
 80076cc:	691b      	ldr	r3, [r3, #16]
 80076ce:	b123      	cbz	r3, 80076da <USBD_GetDescriptor+0xe6>
            pbuf = pdev->pDesc->GetSerialStrDescriptor(pdev->dev_speed, &len);
 80076d0:	f10d 0106 	add.w	r1, sp, #6
 80076d4:	7c00      	ldrb	r0, [r0, #16]
 80076d6:	4798      	blx	r3
  if (err != 0U)
 80076d8:	e7a6      	b.n	8007628 <USBD_GetDescriptor+0x34>
            USBD_CtlError(pdev, req);
 80076da:	4621      	mov	r1, r4
 80076dc:	f7ff ff80 	bl	80075e0 <USBD_CtlError>
  if (err != 0U)
 80076e0:	e7ad      	b.n	800763e <USBD_GetDescriptor+0x4a>
          if (pdev->pDesc->GetConfigurationStrDescriptor != NULL)
 80076e2:	f8d0 32b0 	ldr.w	r3, [r0, #688]	; 0x2b0
 80076e6:	695b      	ldr	r3, [r3, #20]
 80076e8:	b123      	cbz	r3, 80076f4 <USBD_GetDescriptor+0x100>
            pbuf = pdev->pDesc->GetConfigurationStrDescriptor(pdev->dev_speed, &len);
 80076ea:	f10d 0106 	add.w	r1, sp, #6
 80076ee:	7c00      	ldrb	r0, [r0, #16]
 80076f0:	4798      	blx	r3
  if (err != 0U)
 80076f2:	e799      	b.n	8007628 <USBD_GetDescriptor+0x34>
            USBD_CtlError(pdev, req);
 80076f4:	4621      	mov	r1, r4
 80076f6:	f7ff ff73 	bl	80075e0 <USBD_CtlError>
  if (err != 0U)
 80076fa:	e7a0      	b.n	800763e <USBD_GetDescriptor+0x4a>
          if (pdev->pDesc->GetInterfaceStrDescriptor != NULL)
 80076fc:	f8d0 32b0 	ldr.w	r3, [r0, #688]	; 0x2b0
 8007700:	699b      	ldr	r3, [r3, #24]
 8007702:	b123      	cbz	r3, 800770e <USBD_GetDescriptor+0x11a>
            pbuf = pdev->pDesc->GetInterfaceStrDescriptor(pdev->dev_speed, &len);
 8007704:	f10d 0106 	add.w	r1, sp, #6
 8007708:	7c00      	ldrb	r0, [r0, #16]
 800770a:	4798      	blx	r3
  if (err != 0U)
 800770c:	e78c      	b.n	8007628 <USBD_GetDescriptor+0x34>
            USBD_CtlError(pdev, req);
 800770e:	4621      	mov	r1, r4
 8007710:	f7ff ff66 	bl	80075e0 <USBD_CtlError>
  if (err != 0U)
 8007714:	e793      	b.n	800763e <USBD_GetDescriptor+0x4a>
          USBD_CtlError(pdev, req);
 8007716:	4621      	mov	r1, r4
 8007718:	f7ff ff62 	bl	80075e0 <USBD_CtlError>
  if (err != 0U)
 800771c:	e78f      	b.n	800763e <USBD_GetDescriptor+0x4a>
      if (pdev->dev_speed == USBD_SPEED_HIGH)
 800771e:	7c03      	ldrb	r3, [r0, #16]
 8007720:	b933      	cbnz	r3, 8007730 <USBD_GetDescriptor+0x13c>
        pbuf = pdev->pClass->GetDeviceQualifierDescriptor(&len);
 8007722:	f8d0 32b4 	ldr.w	r3, [r0, #692]	; 0x2b4
 8007726:	6b5b      	ldr	r3, [r3, #52]	; 0x34
 8007728:	f10d 0006 	add.w	r0, sp, #6
 800772c:	4798      	blx	r3
  if (err != 0U)
 800772e:	e77b      	b.n	8007628 <USBD_GetDescriptor+0x34>
        USBD_CtlError(pdev, req);
 8007730:	4621      	mov	r1, r4
 8007732:	f7ff ff55 	bl	80075e0 <USBD_CtlError>
  if (err != 0U)
 8007736:	e782      	b.n	800763e <USBD_GetDescriptor+0x4a>
      if (pdev->dev_speed == USBD_SPEED_HIGH)
 8007738:	7c03      	ldrb	r3, [r0, #16]
 800773a:	b943      	cbnz	r3, 800774e <USBD_GetDescriptor+0x15a>
        pbuf = pdev->pClass->GetOtherSpeedConfigDescriptor(&len);
 800773c:	f8d0 32b4 	ldr.w	r3, [r0, #692]	; 0x2b4
 8007740:	6b1b      	ldr	r3, [r3, #48]	; 0x30
 8007742:	f10d 0006 	add.w	r0, sp, #6
 8007746:	4798      	blx	r3
        pbuf[1] = USB_DESC_TYPE_OTHER_SPEED_CONFIGURATION;
 8007748:	2307      	movs	r3, #7
 800774a:	7043      	strb	r3, [r0, #1]
  if (err != 0U)
 800774c:	e76c      	b.n	8007628 <USBD_GetDescriptor+0x34>
        USBD_CtlError(pdev, req);
 800774e:	4621      	mov	r1, r4
 8007750:	f7ff ff46 	bl	80075e0 <USBD_CtlError>
  if (err != 0U)
 8007754:	e773      	b.n	800763e <USBD_GetDescriptor+0x4a>
      USBD_CtlError(pdev, req);
 8007756:	4621      	mov	r1, r4
 8007758:	f7ff ff42 	bl	80075e0 <USBD_CtlError>
    return;
 800775c:	e76f      	b.n	800763e <USBD_GetDescriptor+0x4a>
      len = MIN(len, req->wLength);
 800775e:	429a      	cmp	r2, r3
 8007760:	bf28      	it	cs
 8007762:	461a      	movcs	r2, r3
 8007764:	f8ad 2006 	strh.w	r2, [sp, #6]
      (void)USBD_CtlSendData(pdev, pbuf, len);
 8007768:	4601      	mov	r1, r0
 800776a:	4628      	mov	r0, r5
 800776c:	f000 fa43 	bl	8007bf6 <USBD_CtlSendData>
 8007770:	e761      	b.n	8007636 <USBD_GetDescriptor+0x42>
      (void)USBD_CtlSendStatus(pdev);
 8007772:	4628      	mov	r0, r5
 8007774:	f000 fa6b 	bl	8007c4e <USBD_CtlSendStatus>
 8007778:	e761      	b.n	800763e <USBD_GetDescriptor+0x4a>

0800777a <USBD_SetAddress>:
{
 800777a:	b538      	push	{r3, r4, r5, lr}
 800777c:	4604      	mov	r4, r0
  if ((req->wIndex == 0U) && (req->wLength == 0U) && (req->wValue < 128U))
 800777e:	888b      	ldrh	r3, [r1, #4]
 8007780:	b9f3      	cbnz	r3, 80077c0 <USBD_SetAddress+0x46>
 8007782:	88cb      	ldrh	r3, [r1, #6]
 8007784:	b9e3      	cbnz	r3, 80077c0 <USBD_SetAddress+0x46>
 8007786:	884b      	ldrh	r3, [r1, #2]
 8007788:	2b7f      	cmp	r3, #127	; 0x7f
 800778a:	d819      	bhi.n	80077c0 <USBD_SetAddress+0x46>
    dev_addr = (uint8_t)(req->wValue) & 0x7FU;
 800778c:	f003 057f 	and.w	r5, r3, #127	; 0x7f
    if (pdev->dev_state == USBD_STATE_CONFIGURED)
 8007790:	f890 329c 	ldrb.w	r3, [r0, #668]	; 0x29c
 8007794:	2b03      	cmp	r3, #3
 8007796:	d00c      	beq.n	80077b2 <USBD_SetAddress+0x38>
      pdev->dev_address = dev_addr;
 8007798:	f880 529e 	strb.w	r5, [r0, #670]	; 0x29e
      USBD_LL_SetUSBAddress(pdev, dev_addr);
 800779c:	4629      	mov	r1, r5
 800779e:	f000 fd44 	bl	800822a <USBD_LL_SetUSBAddress>
      USBD_CtlSendStatus(pdev);
 80077a2:	4620      	mov	r0, r4
 80077a4:	f000 fa53 	bl	8007c4e <USBD_CtlSendStatus>
      if (dev_addr != 0U)
 80077a8:	b135      	cbz	r5, 80077b8 <USBD_SetAddress+0x3e>
        pdev->dev_state = USBD_STATE_ADDRESSED;
 80077aa:	2302      	movs	r3, #2
 80077ac:	f884 329c 	strb.w	r3, [r4, #668]	; 0x29c
 80077b0:	e009      	b.n	80077c6 <USBD_SetAddress+0x4c>
      USBD_CtlError(pdev, req);
 80077b2:	f7ff ff15 	bl	80075e0 <USBD_CtlError>
 80077b6:	e006      	b.n	80077c6 <USBD_SetAddress+0x4c>
        pdev->dev_state = USBD_STATE_DEFAULT;
 80077b8:	2301      	movs	r3, #1
 80077ba:	f884 329c 	strb.w	r3, [r4, #668]	; 0x29c
 80077be:	e002      	b.n	80077c6 <USBD_SetAddress+0x4c>
    USBD_CtlError(pdev, req);
 80077c0:	4620      	mov	r0, r4
 80077c2:	f7ff ff0d 	bl	80075e0 <USBD_CtlError>
}
 80077c6:	bd38      	pop	{r3, r4, r5, pc}

080077c8 <USBD_SetConfig>:
{
 80077c8:	b538      	push	{r3, r4, r5, lr}
 80077ca:	4604      	mov	r4, r0
 80077cc:	460d      	mov	r5, r1
  cfgidx = (uint8_t)(req->wValue);
 80077ce:	7889      	ldrb	r1, [r1, #2]
 80077d0:	4b28      	ldr	r3, [pc, #160]	; (8007874 <USBD_SetConfig+0xac>)
 80077d2:	7019      	strb	r1, [r3, #0]
  if (cfgidx > USBD_MAX_NUM_CONFIGURATION)
 80077d4:	2901      	cmp	r1, #1
 80077d6:	d80e      	bhi.n	80077f6 <USBD_SetConfig+0x2e>
    switch (pdev->dev_state)
 80077d8:	f890 329c 	ldrb.w	r3, [r0, #668]	; 0x29c
 80077dc:	2b02      	cmp	r3, #2
 80077de:	d00e      	beq.n	80077fe <USBD_SetConfig+0x36>
 80077e0:	2b03      	cmp	r3, #3
 80077e2:	d021      	beq.n	8007828 <USBD_SetConfig+0x60>
        USBD_CtlError(pdev, req);
 80077e4:	4629      	mov	r1, r5
 80077e6:	f7ff fefb 	bl	80075e0 <USBD_CtlError>
        USBD_ClrClassConfig(pdev, cfgidx);
 80077ea:	4b22      	ldr	r3, [pc, #136]	; (8007874 <USBD_SetConfig+0xac>)
 80077ec:	7819      	ldrb	r1, [r3, #0]
 80077ee:	4620      	mov	r0, r4
 80077f0:	f7ff fda0 	bl	8007334 <USBD_ClrClassConfig>
        break;
 80077f4:	e002      	b.n	80077fc <USBD_SetConfig+0x34>
    USBD_CtlError(pdev, req);
 80077f6:	4629      	mov	r1, r5
 80077f8:	f7ff fef2 	bl	80075e0 <USBD_CtlError>
}
 80077fc:	bd38      	pop	{r3, r4, r5, pc}
        if (cfgidx)
 80077fe:	b181      	cbz	r1, 8007822 <USBD_SetConfig+0x5a>
          pdev->dev_config = cfgidx;
 8007800:	6041      	str	r1, [r0, #4]
          pdev->dev_state = USBD_STATE_CONFIGURED;
 8007802:	2303      	movs	r3, #3
 8007804:	f880 329c 	strb.w	r3, [r0, #668]	; 0x29c
          if (USBD_SetClassConfig(pdev, cfgidx) == USBD_FAIL)
 8007808:	f7ff fd88 	bl	800731c <USBD_SetClassConfig>
 800780c:	2802      	cmp	r0, #2
 800780e:	d003      	beq.n	8007818 <USBD_SetConfig+0x50>
          USBD_CtlSendStatus(pdev);
 8007810:	4620      	mov	r0, r4
 8007812:	f000 fa1c 	bl	8007c4e <USBD_CtlSendStatus>
 8007816:	e7f1      	b.n	80077fc <USBD_SetConfig+0x34>
            USBD_CtlError(pdev, req);
 8007818:	4629      	mov	r1, r5
 800781a:	4620      	mov	r0, r4
 800781c:	f7ff fee0 	bl	80075e0 <USBD_CtlError>
            return;
 8007820:	e7ec      	b.n	80077fc <USBD_SetConfig+0x34>
          USBD_CtlSendStatus(pdev);
 8007822:	f000 fa14 	bl	8007c4e <USBD_CtlSendStatus>
 8007826:	e7e9      	b.n	80077fc <USBD_SetConfig+0x34>
        if (cfgidx == 0U)
 8007828:	b189      	cbz	r1, 800784e <USBD_SetConfig+0x86>
        else if (cfgidx != pdev->dev_config)
 800782a:	6843      	ldr	r3, [r0, #4]
 800782c:	4299      	cmp	r1, r3
 800782e:	d01d      	beq.n	800786c <USBD_SetConfig+0xa4>
          USBD_ClrClassConfig(pdev, (uint8_t)pdev->dev_config);
 8007830:	b2d9      	uxtb	r1, r3
 8007832:	f7ff fd7f 	bl	8007334 <USBD_ClrClassConfig>
          pdev->dev_config = cfgidx;
 8007836:	4b0f      	ldr	r3, [pc, #60]	; (8007874 <USBD_SetConfig+0xac>)
 8007838:	7819      	ldrb	r1, [r3, #0]
 800783a:	6061      	str	r1, [r4, #4]
          if (USBD_SetClassConfig(pdev, cfgidx) == USBD_FAIL)
 800783c:	4620      	mov	r0, r4
 800783e:	f7ff fd6d 	bl	800731c <USBD_SetClassConfig>
 8007842:	2802      	cmp	r0, #2
 8007844:	d00d      	beq.n	8007862 <USBD_SetConfig+0x9a>
          USBD_CtlSendStatus(pdev);
 8007846:	4620      	mov	r0, r4
 8007848:	f000 fa01 	bl	8007c4e <USBD_CtlSendStatus>
 800784c:	e7d6      	b.n	80077fc <USBD_SetConfig+0x34>
          pdev->dev_state = USBD_STATE_ADDRESSED;
 800784e:	2302      	movs	r3, #2
 8007850:	f880 329c 	strb.w	r3, [r0, #668]	; 0x29c
          pdev->dev_config = cfgidx;
 8007854:	6041      	str	r1, [r0, #4]
          USBD_ClrClassConfig(pdev, cfgidx);
 8007856:	f7ff fd6d 	bl	8007334 <USBD_ClrClassConfig>
          USBD_CtlSendStatus(pdev);
 800785a:	4620      	mov	r0, r4
 800785c:	f000 f9f7 	bl	8007c4e <USBD_CtlSendStatus>
 8007860:	e7cc      	b.n	80077fc <USBD_SetConfig+0x34>
            USBD_CtlError(pdev, req);
 8007862:	4629      	mov	r1, r5
 8007864:	4620      	mov	r0, r4
 8007866:	f7ff febb 	bl	80075e0 <USBD_CtlError>
            return;
 800786a:	e7c7      	b.n	80077fc <USBD_SetConfig+0x34>
          USBD_CtlSendStatus(pdev);
 800786c:	f000 f9ef 	bl	8007c4e <USBD_CtlSendStatus>
 8007870:	e7c4      	b.n	80077fc <USBD_SetConfig+0x34>
 8007872:	bf00      	nop
 8007874:	20001dac 	.word	0x20001dac

08007878 <USBD_GetConfig>:
{
 8007878:	b508      	push	{r3, lr}
  if (req->wLength != 1U)
 800787a:	88cb      	ldrh	r3, [r1, #6]
 800787c:	2b01      	cmp	r3, #1
 800787e:	d10a      	bne.n	8007896 <USBD_GetConfig+0x1e>
    switch (pdev->dev_state)
 8007880:	f890 329c 	ldrb.w	r3, [r0, #668]	; 0x29c
 8007884:	2b02      	cmp	r3, #2
 8007886:	d909      	bls.n	800789c <USBD_GetConfig+0x24>
 8007888:	2b03      	cmp	r3, #3
 800788a:	d109      	bne.n	80078a0 <USBD_GetConfig+0x28>
        USBD_CtlSendData(pdev, (uint8_t *)(void *)&pdev->dev_config, 1U);
 800788c:	2201      	movs	r2, #1
 800788e:	1d01      	adds	r1, r0, #4
 8007890:	f000 f9b1 	bl	8007bf6 <USBD_CtlSendData>
        break;
 8007894:	e001      	b.n	800789a <USBD_GetConfig+0x22>
    USBD_CtlError(pdev, req);
 8007896:	f7ff fea3 	bl	80075e0 <USBD_CtlError>
}
 800789a:	bd08      	pop	{r3, pc}
    switch (pdev->dev_state)
 800789c:	b25b      	sxtb	r3, r3
 800789e:	b913      	cbnz	r3, 80078a6 <USBD_GetConfig+0x2e>
        USBD_CtlError(pdev, req);
 80078a0:	f7ff fe9e 	bl	80075e0 <USBD_CtlError>
}
 80078a4:	e7f9      	b.n	800789a <USBD_GetConfig+0x22>
        pdev->dev_default_config = 0U;
 80078a6:	4601      	mov	r1, r0
 80078a8:	2300      	movs	r3, #0
 80078aa:	f841 3f08 	str.w	r3, [r1, #8]!
        USBD_CtlSendData(pdev, (uint8_t *)(void *)&pdev->dev_default_config, 1U);
 80078ae:	2201      	movs	r2, #1
 80078b0:	f000 f9a1 	bl	8007bf6 <USBD_CtlSendData>
        break;
 80078b4:	e7f1      	b.n	800789a <USBD_GetConfig+0x22>

080078b6 <USBD_GetStatus>:
{
 80078b6:	b508      	push	{r3, lr}
  switch (pdev->dev_state)
 80078b8:	f890 329c 	ldrb.w	r3, [r0, #668]	; 0x29c
 80078bc:	3b01      	subs	r3, #1
 80078be:	2b02      	cmp	r3, #2
 80078c0:	d812      	bhi.n	80078e8 <USBD_GetStatus+0x32>
      if (req->wLength != 0x2U)
 80078c2:	88cb      	ldrh	r3, [r1, #6]
 80078c4:	2b02      	cmp	r3, #2
 80078c6:	d10c      	bne.n	80078e2 <USBD_GetStatus+0x2c>
      pdev->dev_config_status = 0U;
 80078c8:	2300      	movs	r3, #0
 80078ca:	60c3      	str	r3, [r0, #12]
      if (pdev->dev_remote_wakeup)
 80078cc:	f8d0 32a4 	ldr.w	r3, [r0, #676]	; 0x2a4
 80078d0:	b10b      	cbz	r3, 80078d6 <USBD_GetStatus+0x20>
        pdev->dev_config_status |= USB_CONFIG_REMOTE_WAKEUP;
 80078d2:	2302      	movs	r3, #2
 80078d4:	60c3      	str	r3, [r0, #12]
      USBD_CtlSendData(pdev, (uint8_t *)(void *)&pdev->dev_config_status, 2U);
 80078d6:	2202      	movs	r2, #2
 80078d8:	f100 010c 	add.w	r1, r0, #12
 80078dc:	f000 f98b 	bl	8007bf6 <USBD_CtlSendData>
}
 80078e0:	bd08      	pop	{r3, pc}
        USBD_CtlError(pdev, req);
 80078e2:	f7ff fe7d 	bl	80075e0 <USBD_CtlError>
        break;
 80078e6:	e7fb      	b.n	80078e0 <USBD_GetStatus+0x2a>
      USBD_CtlError(pdev, req);
 80078e8:	f7ff fe7a 	bl	80075e0 <USBD_CtlError>
}
 80078ec:	e7f8      	b.n	80078e0 <USBD_GetStatus+0x2a>

080078ee <USBD_ClrFeature>:
{
 80078ee:	b508      	push	{r3, lr}
  switch (pdev->dev_state)
 80078f0:	f890 329c 	ldrb.w	r3, [r0, #668]	; 0x29c
 80078f4:	3b01      	subs	r3, #1
 80078f6:	2b02      	cmp	r3, #2
 80078f8:	d809      	bhi.n	800790e <USBD_ClrFeature+0x20>
      if (req->wValue == USB_FEATURE_REMOTE_WAKEUP)
 80078fa:	884b      	ldrh	r3, [r1, #2]
 80078fc:	2b01      	cmp	r3, #1
 80078fe:	d000      	beq.n	8007902 <USBD_ClrFeature+0x14>
}
 8007900:	bd08      	pop	{r3, pc}
        pdev->dev_remote_wakeup = 0U;
 8007902:	2300      	movs	r3, #0
 8007904:	f8c0 32a4 	str.w	r3, [r0, #676]	; 0x2a4
        USBD_CtlSendStatus(pdev);
 8007908:	f000 f9a1 	bl	8007c4e <USBD_CtlSendStatus>
 800790c:	e7f8      	b.n	8007900 <USBD_ClrFeature+0x12>
      USBD_CtlError(pdev, req);
 800790e:	f7ff fe67 	bl	80075e0 <USBD_CtlError>
}
 8007912:	e7f5      	b.n	8007900 <USBD_ClrFeature+0x12>

08007914 <USBD_StdDevReq>:
{
 8007914:	b508      	push	{r3, lr}
  switch (req->bmRequest & USB_REQ_TYPE_MASK)
 8007916:	780b      	ldrb	r3, [r1, #0]
 8007918:	f003 0360 	and.w	r3, r3, #96	; 0x60
 800791c:	2b20      	cmp	r3, #32
 800791e:	d005      	beq.n	800792c <USBD_StdDevReq+0x18>
 8007920:	2b40      	cmp	r3, #64	; 0x40
 8007922:	d003      	beq.n	800792c <USBD_StdDevReq+0x18>
 8007924:	b143      	cbz	r3, 8007938 <USBD_StdDevReq+0x24>
      USBD_CtlError(pdev, req);
 8007926:	f7ff fe5b 	bl	80075e0 <USBD_CtlError>
      break;
 800792a:	e003      	b.n	8007934 <USBD_StdDevReq+0x20>
      pdev->pClass->Setup(pdev, req);
 800792c:	f8d0 32b4 	ldr.w	r3, [r0, #692]	; 0x2b4
 8007930:	689b      	ldr	r3, [r3, #8]
 8007932:	4798      	blx	r3
}
 8007934:	2000      	movs	r0, #0
 8007936:	bd08      	pop	{r3, pc}
      switch (req->bRequest)
 8007938:	784b      	ldrb	r3, [r1, #1]
 800793a:	2b09      	cmp	r3, #9
 800793c:	d81b      	bhi.n	8007976 <USBD_StdDevReq+0x62>
 800793e:	e8df f003 	tbb	[pc, r3]
 8007942:	1711      	.short	0x1711
 8007944:	081a141a 	.word	0x081a141a
 8007948:	0b0e1a05 	.word	0x0b0e1a05
          USBD_GetDescriptor(pdev, req);
 800794c:	f7ff fe52 	bl	80075f4 <USBD_GetDescriptor>
          break;
 8007950:	e7f0      	b.n	8007934 <USBD_StdDevReq+0x20>
          USBD_SetAddress(pdev, req);
 8007952:	f7ff ff12 	bl	800777a <USBD_SetAddress>
          break;
 8007956:	e7ed      	b.n	8007934 <USBD_StdDevReq+0x20>
          USBD_SetConfig(pdev, req);
 8007958:	f7ff ff36 	bl	80077c8 <USBD_SetConfig>
          break;
 800795c:	e7ea      	b.n	8007934 <USBD_StdDevReq+0x20>
          USBD_GetConfig(pdev, req);
 800795e:	f7ff ff8b 	bl	8007878 <USBD_GetConfig>
          break;
 8007962:	e7e7      	b.n	8007934 <USBD_StdDevReq+0x20>
          USBD_GetStatus(pdev, req);
 8007964:	f7ff ffa7 	bl	80078b6 <USBD_GetStatus>
          break;
 8007968:	e7e4      	b.n	8007934 <USBD_StdDevReq+0x20>
          USBD_SetFeature(pdev, req);
 800796a:	f7ff fe1b 	bl	80075a4 <USBD_SetFeature>
          break;
 800796e:	e7e1      	b.n	8007934 <USBD_StdDevReq+0x20>
          USBD_ClrFeature(pdev, req);
 8007970:	f7ff ffbd 	bl	80078ee <USBD_ClrFeature>
          break;
 8007974:	e7de      	b.n	8007934 <USBD_StdDevReq+0x20>
          USBD_CtlError(pdev, req);
 8007976:	f7ff fe33 	bl	80075e0 <USBD_CtlError>
          break;
 800797a:	e7db      	b.n	8007934 <USBD_StdDevReq+0x20>

0800797c <USBD_StdItfReq>:
{
 800797c:	b538      	push	{r3, r4, r5, lr}
 800797e:	4605      	mov	r5, r0
 8007980:	460c      	mov	r4, r1
  switch (req->bmRequest & USB_REQ_TYPE_MASK)
 8007982:	780b      	ldrb	r3, [r1, #0]
 8007984:	f003 0360 	and.w	r3, r3, #96	; 0x60
 8007988:	2b20      	cmp	r3, #32
 800798a:	d006      	beq.n	800799a <USBD_StdItfReq+0x1e>
 800798c:	2b40      	cmp	r3, #64	; 0x40
 800798e:	d004      	beq.n	800799a <USBD_StdItfReq+0x1e>
 8007990:	b11b      	cbz	r3, 800799a <USBD_StdItfReq+0x1e>
      USBD_CtlError(pdev, req);
 8007992:	f7ff fe25 	bl	80075e0 <USBD_CtlError>
}
 8007996:	2000      	movs	r0, #0
 8007998:	bd38      	pop	{r3, r4, r5, pc}
      switch (pdev->dev_state)
 800799a:	f895 329c 	ldrb.w	r3, [r5, #668]	; 0x29c
 800799e:	3b01      	subs	r3, #1
 80079a0:	2b02      	cmp	r3, #2
 80079a2:	d816      	bhi.n	80079d2 <USBD_StdItfReq+0x56>
          if (LOBYTE(req->wIndex) <= USBD_MAX_NUM_INTERFACES)
 80079a4:	7923      	ldrb	r3, [r4, #4]
 80079a6:	2b03      	cmp	r3, #3
 80079a8:	d80e      	bhi.n	80079c8 <USBD_StdItfReq+0x4c>
            ret = (USBD_StatusTypeDef)pdev->pClass->Setup(pdev, req);
 80079aa:	f8d5 32b4 	ldr.w	r3, [r5, #692]	; 0x2b4
 80079ae:	689b      	ldr	r3, [r3, #8]
 80079b0:	4621      	mov	r1, r4
 80079b2:	4628      	mov	r0, r5
 80079b4:	4798      	blx	r3
            if ((req->wLength == 0U) && (ret == USBD_OK))
 80079b6:	88e3      	ldrh	r3, [r4, #6]
 80079b8:	2b00      	cmp	r3, #0
 80079ba:	d1ec      	bne.n	8007996 <USBD_StdItfReq+0x1a>
 80079bc:	2800      	cmp	r0, #0
 80079be:	d1ea      	bne.n	8007996 <USBD_StdItfReq+0x1a>
              USBD_CtlSendStatus(pdev);
 80079c0:	4628      	mov	r0, r5
 80079c2:	f000 f944 	bl	8007c4e <USBD_CtlSendStatus>
 80079c6:	e7e6      	b.n	8007996 <USBD_StdItfReq+0x1a>
            USBD_CtlError(pdev, req);
 80079c8:	4621      	mov	r1, r4
 80079ca:	4628      	mov	r0, r5
 80079cc:	f7ff fe08 	bl	80075e0 <USBD_CtlError>
 80079d0:	e7e1      	b.n	8007996 <USBD_StdItfReq+0x1a>
          USBD_CtlError(pdev, req);
 80079d2:	4621      	mov	r1, r4
 80079d4:	4628      	mov	r0, r5
 80079d6:	f7ff fe03 	bl	80075e0 <USBD_CtlError>
          break;
 80079da:	e7dc      	b.n	8007996 <USBD_StdItfReq+0x1a>

080079dc <USBD_StdEPReq>:
{
 80079dc:	b570      	push	{r4, r5, r6, lr}
 80079de:	4605      	mov	r5, r0
  ep_addr  = LOBYTE(req->wIndex);
 80079e0:	888b      	ldrh	r3, [r1, #4]
  switch (req->bmRequest & USB_REQ_TYPE_MASK)
 80079e2:	780c      	ldrb	r4, [r1, #0]
 80079e4:	f004 0460 	and.w	r4, r4, #96	; 0x60
 80079e8:	2c20      	cmp	r4, #32
 80079ea:	d007      	beq.n	80079fc <USBD_StdEPReq+0x20>
 80079ec:	b2da      	uxtb	r2, r3
 80079ee:	2c40      	cmp	r4, #64	; 0x40
 80079f0:	d004      	beq.n	80079fc <USBD_StdEPReq+0x20>
 80079f2:	b15c      	cbz	r4, 8007a0c <USBD_StdEPReq+0x30>
      USBD_CtlError(pdev, req);
 80079f4:	f7ff fdf4 	bl	80075e0 <USBD_CtlError>
  return ret;
 80079f8:	2400      	movs	r4, #0
      break;
 80079fa:	e005      	b.n	8007a08 <USBD_StdEPReq+0x2c>
      pdev->pClass->Setup(pdev, req);
 80079fc:	f8d5 32b4 	ldr.w	r3, [r5, #692]	; 0x2b4
 8007a00:	689b      	ldr	r3, [r3, #8]
 8007a02:	4628      	mov	r0, r5
 8007a04:	4798      	blx	r3
  return ret;
 8007a06:	2400      	movs	r4, #0
}
 8007a08:	4620      	mov	r0, r4
 8007a0a:	bd70      	pop	{r4, r5, r6, pc}
      if ((req->bmRequest & 0x60U) == 0x20U)
 8007a0c:	2c20      	cmp	r4, #32
 8007a0e:	d009      	beq.n	8007a24 <USBD_StdEPReq+0x48>
      switch (req->bRequest)
 8007a10:	784e      	ldrb	r6, [r1, #1]
 8007a12:	2e01      	cmp	r6, #1
 8007a14:	d033      	beq.n	8007a7e <USBD_StdEPReq+0xa2>
 8007a16:	2e03      	cmp	r6, #3
 8007a18:	d00a      	beq.n	8007a30 <USBD_StdEPReq+0x54>
 8007a1a:	2e00      	cmp	r6, #0
 8007a1c:	d055      	beq.n	8007aca <USBD_StdEPReq+0xee>
          USBD_CtlError(pdev, req);
 8007a1e:	f7ff fddf 	bl	80075e0 <USBD_CtlError>
          break;
 8007a22:	e7f1      	b.n	8007a08 <USBD_StdEPReq+0x2c>
        ret = (USBD_StatusTypeDef)pdev->pClass->Setup(pdev, req);
 8007a24:	f8d0 32b4 	ldr.w	r3, [r0, #692]	; 0x2b4
 8007a28:	689b      	ldr	r3, [r3, #8]
 8007a2a:	4798      	blx	r3
 8007a2c:	4604      	mov	r4, r0
        return ret;
 8007a2e:	e7eb      	b.n	8007a08 <USBD_StdEPReq+0x2c>
          switch (pdev->dev_state)
 8007a30:	f890 329c 	ldrb.w	r3, [r0, #668]	; 0x29c
 8007a34:	2b02      	cmp	r3, #2
 8007a36:	d004      	beq.n	8007a42 <USBD_StdEPReq+0x66>
 8007a38:	2b03      	cmp	r3, #3
 8007a3a:	d011      	beq.n	8007a60 <USBD_StdEPReq+0x84>
              USBD_CtlError(pdev, req);
 8007a3c:	f7ff fdd0 	bl	80075e0 <USBD_CtlError>
              break;
 8007a40:	e7e2      	b.n	8007a08 <USBD_StdEPReq+0x2c>
              if ((ep_addr != 0x00U) && (ep_addr != 0x80U))
 8007a42:	b10a      	cbz	r2, 8007a48 <USBD_StdEPReq+0x6c>
 8007a44:	2a80      	cmp	r2, #128	; 0x80
 8007a46:	d103      	bne.n	8007a50 <USBD_StdEPReq+0x74>
                USBD_CtlError(pdev, req);
 8007a48:	4628      	mov	r0, r5
 8007a4a:	f7ff fdc9 	bl	80075e0 <USBD_CtlError>
 8007a4e:	e7db      	b.n	8007a08 <USBD_StdEPReq+0x2c>
                USBD_LL_StallEP(pdev, ep_addr);
 8007a50:	4611      	mov	r1, r2
 8007a52:	f000 fbc4 	bl	80081de <USBD_LL_StallEP>
                USBD_LL_StallEP(pdev, 0x80U);
 8007a56:	2180      	movs	r1, #128	; 0x80
 8007a58:	4628      	mov	r0, r5
 8007a5a:	f000 fbc0 	bl	80081de <USBD_LL_StallEP>
 8007a5e:	e7d3      	b.n	8007a08 <USBD_StdEPReq+0x2c>
              if (req->wValue == USB_FEATURE_EP_HALT)
 8007a60:	884b      	ldrh	r3, [r1, #2]
 8007a62:	b923      	cbnz	r3, 8007a6e <USBD_StdEPReq+0x92>
                if ((ep_addr != 0x00U) &&
 8007a64:	b11a      	cbz	r2, 8007a6e <USBD_StdEPReq+0x92>
 8007a66:	2a80      	cmp	r2, #128	; 0x80
 8007a68:	d001      	beq.n	8007a6e <USBD_StdEPReq+0x92>
                    (ep_addr != 0x80U) && (req->wLength == 0x00U))
 8007a6a:	88cb      	ldrh	r3, [r1, #6]
 8007a6c:	b11b      	cbz	r3, 8007a76 <USBD_StdEPReq+0x9a>
              USBD_CtlSendStatus(pdev);
 8007a6e:	4628      	mov	r0, r5
 8007a70:	f000 f8ed 	bl	8007c4e <USBD_CtlSendStatus>
              break;
 8007a74:	e7c8      	b.n	8007a08 <USBD_StdEPReq+0x2c>
                  USBD_LL_StallEP(pdev, ep_addr);
 8007a76:	4611      	mov	r1, r2
 8007a78:	f000 fbb1 	bl	80081de <USBD_LL_StallEP>
 8007a7c:	e7f7      	b.n	8007a6e <USBD_StdEPReq+0x92>
          switch (pdev->dev_state)
 8007a7e:	f890 329c 	ldrb.w	r3, [r0, #668]	; 0x29c
 8007a82:	2b02      	cmp	r3, #2
 8007a84:	d004      	beq.n	8007a90 <USBD_StdEPReq+0xb4>
 8007a86:	2b03      	cmp	r3, #3
 8007a88:	d011      	beq.n	8007aae <USBD_StdEPReq+0xd2>
              USBD_CtlError(pdev, req);
 8007a8a:	f7ff fda9 	bl	80075e0 <USBD_CtlError>
              break;
 8007a8e:	e7bb      	b.n	8007a08 <USBD_StdEPReq+0x2c>
              if ((ep_addr != 0x00U) && (ep_addr != 0x80U))
 8007a90:	b10a      	cbz	r2, 8007a96 <USBD_StdEPReq+0xba>
 8007a92:	2a80      	cmp	r2, #128	; 0x80
 8007a94:	d103      	bne.n	8007a9e <USBD_StdEPReq+0xc2>
                USBD_CtlError(pdev, req);
 8007a96:	4628      	mov	r0, r5
 8007a98:	f7ff fda2 	bl	80075e0 <USBD_CtlError>
 8007a9c:	e7b4      	b.n	8007a08 <USBD_StdEPReq+0x2c>
                USBD_LL_StallEP(pdev, ep_addr);
 8007a9e:	4611      	mov	r1, r2
 8007aa0:	f000 fb9d 	bl	80081de <USBD_LL_StallEP>
                USBD_LL_StallEP(pdev, 0x80U);
 8007aa4:	2180      	movs	r1, #128	; 0x80
 8007aa6:	4628      	mov	r0, r5
 8007aa8:	f000 fb99 	bl	80081de <USBD_LL_StallEP>
 8007aac:	e7ac      	b.n	8007a08 <USBD_StdEPReq+0x2c>
              if (req->wValue == USB_FEATURE_EP_HALT)
 8007aae:	884b      	ldrh	r3, [r1, #2]
 8007ab0:	2b00      	cmp	r3, #0
 8007ab2:	d1a9      	bne.n	8007a08 <USBD_StdEPReq+0x2c>
                if ((ep_addr & 0x7FU) != 0x00U)
 8007ab4:	f012 0f7f 	tst.w	r2, #127	; 0x7f
 8007ab8:	d103      	bne.n	8007ac2 <USBD_StdEPReq+0xe6>
                USBD_CtlSendStatus(pdev);
 8007aba:	4628      	mov	r0, r5
 8007abc:	f000 f8c7 	bl	8007c4e <USBD_CtlSendStatus>
 8007ac0:	e7a2      	b.n	8007a08 <USBD_StdEPReq+0x2c>
                  USBD_LL_ClearStallEP(pdev, ep_addr);
 8007ac2:	4611      	mov	r1, r2
 8007ac4:	f000 fb93 	bl	80081ee <USBD_LL_ClearStallEP>
 8007ac8:	e7f7      	b.n	8007aba <USBD_StdEPReq+0xde>
          switch (pdev->dev_state)
 8007aca:	f890 029c 	ldrb.w	r0, [r0, #668]	; 0x29c
 8007ace:	2802      	cmp	r0, #2
 8007ad0:	d006      	beq.n	8007ae0 <USBD_StdEPReq+0x104>
 8007ad2:	2803      	cmp	r0, #3
 8007ad4:	d029      	beq.n	8007b2a <USBD_StdEPReq+0x14e>
              USBD_CtlError(pdev, req);
 8007ad6:	4628      	mov	r0, r5
 8007ad8:	f7ff fd82 	bl	80075e0 <USBD_CtlError>
  return ret;
 8007adc:	4634      	mov	r4, r6
              break;
 8007ade:	e793      	b.n	8007a08 <USBD_StdEPReq+0x2c>
              if ((ep_addr != 0x00U) && (ep_addr != 0x80U))
 8007ae0:	b10a      	cbz	r2, 8007ae6 <USBD_StdEPReq+0x10a>
 8007ae2:	2a80      	cmp	r2, #128	; 0x80
 8007ae4:	d113      	bne.n	8007b0e <USBD_StdEPReq+0x132>
              pep = ((ep_addr & 0x80U) == 0x80U) ? &pdev->ep_in[ep_addr & 0x7FU] : \
 8007ae6:	f013 0f80 	tst.w	r3, #128	; 0x80
 8007aea:	d115      	bne.n	8007b18 <USBD_StdEPReq+0x13c>
                    &pdev->ep_out[ep_addr & 0x7FU];
 8007aec:	f002 027f 	and.w	r2, r2, #127	; 0x7f
              pep = ((ep_addr & 0x80U) == 0x80U) ? &pdev->ep_in[ep_addr & 0x7FU] : \
 8007af0:	eb02 0282 	add.w	r2, r2, r2, lsl #2
 8007af4:	0091      	lsls	r1, r2, #2
 8007af6:	f501 71a8 	add.w	r1, r1, #336	; 0x150
 8007afa:	4429      	add	r1, r5
 8007afc:	3104      	adds	r1, #4
              pep->status = 0x0000U;
 8007afe:	2300      	movs	r3, #0
 8007b00:	600b      	str	r3, [r1, #0]
              USBD_CtlSendData(pdev, (uint8_t *)(void *)&pep->status, 2U);
 8007b02:	2202      	movs	r2, #2
 8007b04:	4628      	mov	r0, r5
 8007b06:	f000 f876 	bl	8007bf6 <USBD_CtlSendData>
  return ret;
 8007b0a:	4634      	mov	r4, r6
              break;
 8007b0c:	e77c      	b.n	8007a08 <USBD_StdEPReq+0x2c>
                USBD_CtlError(pdev, req);
 8007b0e:	4628      	mov	r0, r5
 8007b10:	f7ff fd66 	bl	80075e0 <USBD_CtlError>
  return ret;
 8007b14:	4634      	mov	r4, r6
                break;
 8007b16:	e777      	b.n	8007a08 <USBD_StdEPReq+0x2c>
              pep = ((ep_addr & 0x80U) == 0x80U) ? &pdev->ep_in[ep_addr & 0x7FU] : \
 8007b18:	f002 027f 	and.w	r2, r2, #127	; 0x7f
 8007b1c:	eb02 0282 	add.w	r2, r2, r2, lsl #2
 8007b20:	0091      	lsls	r1, r2, #2
 8007b22:	3110      	adds	r1, #16
 8007b24:	4429      	add	r1, r5
 8007b26:	3104      	adds	r1, #4
 8007b28:	e7e9      	b.n	8007afe <USBD_StdEPReq+0x122>
              if ((ep_addr & 0x80U) == 0x80U)
 8007b2a:	b25b      	sxtb	r3, r3
 8007b2c:	2b00      	cmp	r3, #0
 8007b2e:	db1f      	blt.n	8007b70 <USBD_StdEPReq+0x194>
                if (pdev->ep_out[ep_addr & 0xFU].is_used == 0U)
 8007b30:	f002 000f 	and.w	r0, r2, #15
 8007b34:	eb00 0080 	add.w	r0, r0, r0, lsl #2
 8007b38:	eb05 0080 	add.w	r0, r5, r0, lsl #2
 8007b3c:	f8d0 0158 	ldr.w	r0, [r0, #344]	; 0x158
 8007b40:	b320      	cbz	r0, 8007b8c <USBD_StdEPReq+0x1b0>
              pep = ((ep_addr & 0x80U) == 0x80U) ? &pdev->ep_in[ep_addr & 0x7FU] : \
 8007b42:	2b00      	cmp	r3, #0
 8007b44:	db27      	blt.n	8007b96 <USBD_StdEPReq+0x1ba>
                    &pdev->ep_out[ep_addr & 0x7FU];
 8007b46:	f002 037f 	and.w	r3, r2, #127	; 0x7f
              pep = ((ep_addr & 0x80U) == 0x80U) ? &pdev->ep_in[ep_addr & 0x7FU] : \
 8007b4a:	eb03 0383 	add.w	r3, r3, r3, lsl #2
 8007b4e:	009c      	lsls	r4, r3, #2
 8007b50:	f504 74a8 	add.w	r4, r4, #336	; 0x150
 8007b54:	442c      	add	r4, r5
 8007b56:	3404      	adds	r4, #4
              if ((ep_addr == 0x00U) || (ep_addr == 0x80U))
 8007b58:	b10a      	cbz	r2, 8007b5e <USBD_StdEPReq+0x182>
 8007b5a:	2a80      	cmp	r2, #128	; 0x80
 8007b5c:	d124      	bne.n	8007ba8 <USBD_StdEPReq+0x1cc>
                pep->status = 0x0000U;
 8007b5e:	2300      	movs	r3, #0
 8007b60:	6023      	str	r3, [r4, #0]
              USBD_CtlSendData(pdev, (uint8_t *)(void *)&pep->status, 2U);
 8007b62:	2202      	movs	r2, #2
 8007b64:	4621      	mov	r1, r4
 8007b66:	4628      	mov	r0, r5
 8007b68:	f000 f845 	bl	8007bf6 <USBD_CtlSendData>
  return ret;
 8007b6c:	4634      	mov	r4, r6
              break;
 8007b6e:	e74b      	b.n	8007a08 <USBD_StdEPReq+0x2c>
                if (pdev->ep_in[ep_addr & 0xFU].is_used == 0U)
 8007b70:	f002 000f 	and.w	r0, r2, #15
 8007b74:	eb00 0080 	add.w	r0, r0, r0, lsl #2
 8007b78:	eb05 0080 	add.w	r0, r5, r0, lsl #2
 8007b7c:	6980      	ldr	r0, [r0, #24]
 8007b7e:	2800      	cmp	r0, #0
 8007b80:	d1df      	bne.n	8007b42 <USBD_StdEPReq+0x166>
                  USBD_CtlError(pdev, req);
 8007b82:	4628      	mov	r0, r5
 8007b84:	f7ff fd2c 	bl	80075e0 <USBD_CtlError>
  return ret;
 8007b88:	4634      	mov	r4, r6
                  break;
 8007b8a:	e73d      	b.n	8007a08 <USBD_StdEPReq+0x2c>
                  USBD_CtlError(pdev, req);
 8007b8c:	4628      	mov	r0, r5
 8007b8e:	f7ff fd27 	bl	80075e0 <USBD_CtlError>
  return ret;
 8007b92:	4634      	mov	r4, r6
                  break;
 8007b94:	e738      	b.n	8007a08 <USBD_StdEPReq+0x2c>
              pep = ((ep_addr & 0x80U) == 0x80U) ? &pdev->ep_in[ep_addr & 0x7FU] : \
 8007b96:	f002 037f 	and.w	r3, r2, #127	; 0x7f
 8007b9a:	eb03 0383 	add.w	r3, r3, r3, lsl #2
 8007b9e:	009c      	lsls	r4, r3, #2
 8007ba0:	3410      	adds	r4, #16
 8007ba2:	442c      	add	r4, r5
 8007ba4:	3404      	adds	r4, #4
 8007ba6:	e7d7      	b.n	8007b58 <USBD_StdEPReq+0x17c>
              else if (USBD_LL_IsStallEP(pdev, ep_addr))
 8007ba8:	4611      	mov	r1, r2
 8007baa:	4628      	mov	r0, r5
 8007bac:	f000 fb27 	bl	80081fe <USBD_LL_IsStallEP>
 8007bb0:	b110      	cbz	r0, 8007bb8 <USBD_StdEPReq+0x1dc>
                pep->status = 0x0001U;
 8007bb2:	2301      	movs	r3, #1
 8007bb4:	6023      	str	r3, [r4, #0]
 8007bb6:	e7d4      	b.n	8007b62 <USBD_StdEPReq+0x186>
                pep->status = 0x0000U;
 8007bb8:	2300      	movs	r3, #0
 8007bba:	6023      	str	r3, [r4, #0]
 8007bbc:	e7d1      	b.n	8007b62 <USBD_StdEPReq+0x186>

08007bbe <USBD_GetString>:
  if (desc != NULL)
 8007bbe:	b1c8      	cbz	r0, 8007bf4 <USBD_GetString+0x36>
{
 8007bc0:	b570      	push	{r4, r5, r6, lr}
 8007bc2:	460d      	mov	r5, r1
 8007bc4:	4616      	mov	r6, r2
 8007bc6:	4604      	mov	r4, r0
    *len = (uint16_t)USBD_GetLen(desc) * 2U + 2U;
 8007bc8:	f7ff fce3 	bl	8007592 <USBD_GetLen>
 8007bcc:	3001      	adds	r0, #1
 8007bce:	0040      	lsls	r0, r0, #1
 8007bd0:	8030      	strh	r0, [r6, #0]
    unicode[idx++] = *(uint8_t *)(void *)len;
 8007bd2:	7028      	strb	r0, [r5, #0]
    unicode[idx++] = USB_DESC_TYPE_STRING;
 8007bd4:	2303      	movs	r3, #3
 8007bd6:	706b      	strb	r3, [r5, #1]
 8007bd8:	2302      	movs	r3, #2
    while (*desc != '\0')
 8007bda:	e007      	b.n	8007bec <USBD_GetString+0x2e>
      unicode[idx++] = *desc++;
 8007bdc:	3401      	adds	r4, #1
 8007bde:	1c5a      	adds	r2, r3, #1
 8007be0:	b2d2      	uxtb	r2, r2
 8007be2:	54e8      	strb	r0, [r5, r3]
      unicode[idx++] =  0U;
 8007be4:	3302      	adds	r3, #2
 8007be6:	b2db      	uxtb	r3, r3
 8007be8:	2100      	movs	r1, #0
 8007bea:	54a9      	strb	r1, [r5, r2]
    while (*desc != '\0')
 8007bec:	7820      	ldrb	r0, [r4, #0]
 8007bee:	2800      	cmp	r0, #0
 8007bf0:	d1f4      	bne.n	8007bdc <USBD_GetString+0x1e>
}
 8007bf2:	bd70      	pop	{r4, r5, r6, pc}
 8007bf4:	4770      	bx	lr

08007bf6 <USBD_CtlSendData>:
* @param  len: length of data to be sent
* @retval status
*/
USBD_StatusTypeDef USBD_CtlSendData(USBD_HandleTypeDef *pdev,
                                    uint8_t *pbuf, uint16_t len)
{
 8007bf6:	b510      	push	{r4, lr}
 8007bf8:	4613      	mov	r3, r2
  /* Set EP0 State */
  pdev->ep0_state = USBD_EP0_DATA_IN;
 8007bfa:	2202      	movs	r2, #2
 8007bfc:	f8c0 2294 	str.w	r2, [r0, #660]	; 0x294
  pdev->ep_in[0].total_length = len;
 8007c00:	61c3      	str	r3, [r0, #28]
  pdev->ep_in[0].rem_length   = len;
 8007c02:	6203      	str	r3, [r0, #32]

  /* Start the transfer */
  USBD_LL_Transmit(pdev, 0x00U, pbuf, len);
 8007c04:	460a      	mov	r2, r1
 8007c06:	2100      	movs	r1, #0
 8007c08:	f000 fb17 	bl	800823a <USBD_LL_Transmit>

  return USBD_OK;
}
 8007c0c:	2000      	movs	r0, #0
 8007c0e:	bd10      	pop	{r4, pc}

08007c10 <USBD_CtlContinueSendData>:
* @param  len: length of data to be sent
* @retval status
*/
USBD_StatusTypeDef USBD_CtlContinueSendData(USBD_HandleTypeDef *pdev,
                                            uint8_t *pbuf, uint16_t len)
{
 8007c10:	b508      	push	{r3, lr}
 8007c12:	4613      	mov	r3, r2
  /* Start the next transfer */
  USBD_LL_Transmit(pdev, 0x00U, pbuf, len);
 8007c14:	460a      	mov	r2, r1
 8007c16:	2100      	movs	r1, #0
 8007c18:	f000 fb0f 	bl	800823a <USBD_LL_Transmit>

  return USBD_OK;
}
 8007c1c:	2000      	movs	r0, #0
 8007c1e:	bd08      	pop	{r3, pc}

08007c20 <USBD_CtlPrepareRx>:
* @param  len: length of data to be received
* @retval status
*/
USBD_StatusTypeDef USBD_CtlPrepareRx(USBD_HandleTypeDef *pdev,
                                     uint8_t *pbuf, uint16_t len)
{
 8007c20:	b510      	push	{r4, lr}
 8007c22:	4613      	mov	r3, r2
  /* Set EP0 State */
  pdev->ep0_state = USBD_EP0_DATA_OUT;
 8007c24:	2203      	movs	r2, #3
 8007c26:	f8c0 2294 	str.w	r2, [r0, #660]	; 0x294
  pdev->ep_out[0].total_length = len;
 8007c2a:	f8c0 315c 	str.w	r3, [r0, #348]	; 0x15c
  pdev->ep_out[0].rem_length   = len;
 8007c2e:	f8c0 3160 	str.w	r3, [r0, #352]	; 0x160

  /* Start the transfer */
  USBD_LL_PrepareReceive(pdev, 0U, pbuf, len);
 8007c32:	460a      	mov	r2, r1
 8007c34:	2100      	movs	r1, #0
 8007c36:	f000 fb08 	bl	800824a <USBD_LL_PrepareReceive>

  return USBD_OK;
}
 8007c3a:	2000      	movs	r0, #0
 8007c3c:	bd10      	pop	{r4, pc}

08007c3e <USBD_CtlContinueRx>:
* @param  len: length of data to be received
* @retval status
*/
USBD_StatusTypeDef USBD_CtlContinueRx(USBD_HandleTypeDef *pdev,
                                      uint8_t *pbuf, uint16_t len)
{
 8007c3e:	b508      	push	{r3, lr}
 8007c40:	4613      	mov	r3, r2
  USBD_LL_PrepareReceive(pdev, 0U, pbuf, len);
 8007c42:	460a      	mov	r2, r1
 8007c44:	2100      	movs	r1, #0
 8007c46:	f000 fb00 	bl	800824a <USBD_LL_PrepareReceive>

  return USBD_OK;
}
 8007c4a:	2000      	movs	r0, #0
 8007c4c:	bd08      	pop	{r3, pc}

08007c4e <USBD_CtlSendStatus>:
*         send zero lzngth packet on the ctl pipe
* @param  pdev: device instance
* @retval status
*/
USBD_StatusTypeDef USBD_CtlSendStatus(USBD_HandleTypeDef *pdev)
{
 8007c4e:	b508      	push	{r3, lr}
  /* Set EP0 State */
  pdev->ep0_state = USBD_EP0_STATUS_IN;
 8007c50:	2304      	movs	r3, #4
 8007c52:	f8c0 3294 	str.w	r3, [r0, #660]	; 0x294

  /* Start the transfer */
  USBD_LL_Transmit(pdev, 0x00U, NULL, 0U);
 8007c56:	2300      	movs	r3, #0
 8007c58:	461a      	mov	r2, r3
 8007c5a:	4619      	mov	r1, r3
 8007c5c:	f000 faed 	bl	800823a <USBD_LL_Transmit>

  return USBD_OK;
}
 8007c60:	2000      	movs	r0, #0
 8007c62:	bd08      	pop	{r3, pc}

08007c64 <USBD_CtlReceiveStatus>:
*         receive zero lzngth packet on the ctl pipe
* @param  pdev: device instance
* @retval status
*/
USBD_StatusTypeDef USBD_CtlReceiveStatus(USBD_HandleTypeDef *pdev)
{
 8007c64:	b508      	push	{r3, lr}
  /* Set EP0 State */
  pdev->ep0_state = USBD_EP0_STATUS_OUT;
 8007c66:	2305      	movs	r3, #5
 8007c68:	f8c0 3294 	str.w	r3, [r0, #660]	; 0x294

  /* Start the transfer */
  USBD_LL_PrepareReceive(pdev, 0U, NULL, 0U);
 8007c6c:	2300      	movs	r3, #0
 8007c6e:	461a      	mov	r2, r3
 8007c70:	4619      	mov	r1, r3
 8007c72:	f000 faea 	bl	800824a <USBD_LL_PrepareReceive>

  return USBD_OK;
}
 8007c76:	2000      	movs	r0, #0
 8007c78:	bd08      	pop	{r3, pc}
	...

08007c7c <MX_USB_DEVICE_Init>:
/**
  * Init USB device Library, add supported class and start the library
  * @retval None
  */
void MX_USB_DEVICE_Init(void)
{
 8007c7c:	b508      	push	{r3, lr}
  /* USER CODE BEGIN USB_DEVICE_Init_PreTreatment */
	if(g_USB_device_type == DEVICE_TYPE_KEYBOARD_CDC_COMPOSITE)
 8007c7e:	4b1c      	ldr	r3, [pc, #112]	; (8007cf0 <MX_USB_DEVICE_Init+0x74>)
 8007c80:	781b      	ldrb	r3, [r3, #0]
 8007c82:	b133      	cbz	r3, 8007c92 <MX_USB_DEVICE_Init+0x16>
	  {
		Error_Handler();
	  }

	}
	else if(g_USB_device_type == DEVICE_TYPE_DRUMCONTROLLER)
 8007c84:	2b01      	cmp	r3, #1
 8007c86:	d01e      	beq.n	8007cc6 <MX_USB_DEVICE_Init+0x4a>
		  {
			Error_Handler();
		  }

	}
	if (USBD_Start(&hUsbDeviceFS) != USBD_OK)
 8007c88:	481a      	ldr	r0, [pc, #104]	; (8007cf4 <MX_USB_DEVICE_Init+0x78>)
 8007c8a:	f7ff fb42 	bl	8007312 <USBD_Start>
 8007c8e:	bb60      	cbnz	r0, 8007cea <MX_USB_DEVICE_Init+0x6e>
	}

  /* USER CODE BEGIN USB_DEVICE_Init_PostTreatment */
  /* CDC interface already initialized by USBD_CDC_RegisterInterface */
  /* USER CODE END USB_DEVICE_Init_PostTreatment */
}
 8007c90:	bd08      	pop	{r3, pc}
	  if (USBD_Init(&hUsbDeviceFS, &FS_Composite_Desc, DEVICE_FS) != USBD_OK)
 8007c92:	2200      	movs	r2, #0
 8007c94:	4918      	ldr	r1, [pc, #96]	; (8007cf8 <MX_USB_DEVICE_Init+0x7c>)
 8007c96:	4817      	ldr	r0, [pc, #92]	; (8007cf4 <MX_USB_DEVICE_Init+0x78>)
 8007c98:	f7ff fb1d 	bl	80072d6 <USBD_Init>
 8007c9c:	b968      	cbnz	r0, 8007cba <MX_USB_DEVICE_Init+0x3e>
	  if (USBD_RegisterClass(&hUsbDeviceFS, &USBD_COMPOSITE) != USBD_OK)
 8007c9e:	4917      	ldr	r1, [pc, #92]	; (8007cfc <MX_USB_DEVICE_Init+0x80>)
 8007ca0:	4814      	ldr	r0, [pc, #80]	; (8007cf4 <MX_USB_DEVICE_Init+0x78>)
 8007ca2:	f7ff fb2f 	bl	8007304 <USBD_RegisterClass>
 8007ca6:	b958      	cbnz	r0, 8007cc0 <MX_USB_DEVICE_Init+0x44>
	  if (USBD_CDC_RegisterInterface(&hUsbDeviceFS, &USBD_CDC_Interface_fops_FS) != USBD_OK)
 8007ca8:	4915      	ldr	r1, [pc, #84]	; (8007d00 <MX_USB_DEVICE_Init+0x84>)
 8007caa:	4812      	ldr	r0, [pc, #72]	; (8007cf4 <MX_USB_DEVICE_Init+0x78>)
 8007cac:	f000 f96e 	bl	8007f8c <USBD_CDC_RegisterInterface>
 8007cb0:	2800      	cmp	r0, #0
 8007cb2:	d0e9      	beq.n	8007c88 <MX_USB_DEVICE_Init+0xc>
		Error_Handler();
 8007cb4:	f7f8 fe74 	bl	80009a0 <Error_Handler>
 8007cb8:	e7e6      	b.n	8007c88 <MX_USB_DEVICE_Init+0xc>
		Error_Handler();
 8007cba:	f7f8 fe71 	bl	80009a0 <Error_Handler>
 8007cbe:	e7ee      	b.n	8007c9e <MX_USB_DEVICE_Init+0x22>
		Error_Handler();
 8007cc0:	f7f8 fe6e 	bl	80009a0 <Error_Handler>
 8007cc4:	e7f0      	b.n	8007ca8 <MX_USB_DEVICE_Init+0x2c>
		  if (USBD_Init(&hUsbDeviceFS, &FS_DRUMCONTROLLER_Desc, DEVICE_FS) != USBD_OK)
 8007cc6:	2200      	movs	r2, #0
 8007cc8:	490e      	ldr	r1, [pc, #56]	; (8007d04 <MX_USB_DEVICE_Init+0x88>)
 8007cca:	480a      	ldr	r0, [pc, #40]	; (8007cf4 <MX_USB_DEVICE_Init+0x78>)
 8007ccc:	f7ff fb03 	bl	80072d6 <USBD_Init>
 8007cd0:	b940      	cbnz	r0, 8007ce4 <MX_USB_DEVICE_Init+0x68>
		  if (USBD_RegisterClass(&hUsbDeviceFS, &USBD_DRUMCONTROLLER) != USBD_OK)
 8007cd2:	490d      	ldr	r1, [pc, #52]	; (8007d08 <MX_USB_DEVICE_Init+0x8c>)
 8007cd4:	4807      	ldr	r0, [pc, #28]	; (8007cf4 <MX_USB_DEVICE_Init+0x78>)
 8007cd6:	f7ff fb15 	bl	8007304 <USBD_RegisterClass>
 8007cda:	2800      	cmp	r0, #0
 8007cdc:	d0d4      	beq.n	8007c88 <MX_USB_DEVICE_Init+0xc>
			Error_Handler();
 8007cde:	f7f8 fe5f 	bl	80009a0 <Error_Handler>
 8007ce2:	e7d1      	b.n	8007c88 <MX_USB_DEVICE_Init+0xc>
			Error_Handler();
 8007ce4:	f7f8 fe5c 	bl	80009a0 <Error_Handler>
 8007ce8:	e7f3      	b.n	8007cd2 <MX_USB_DEVICE_Init+0x56>
		Error_Handler();
 8007cea:	f7f8 fe59 	bl	80009a0 <Error_Handler>
}
 8007cee:	e7cf      	b.n	8007c90 <MX_USB_DEVICE_Init+0x14>
 8007cf0:	20001ba9 	.word	0x20001ba9
 8007cf4:	200027a8 	.word	0x200027a8
 8007cf8:	2000001c 	.word	0x2000001c
 8007cfc:	200000d8 	.word	0x200000d8
 8007d00:	2000000c 	.word	0x2000000c
 8007d04:	20000110 	.word	0x20000110
 8007d08:	20000184 	.word	0x20000184

08007d0c <USBD_CDC_EP0_RxReady>:
  *         Handle EP0 Rx Ready event
  * @param  pdev: device instance
  * @retval status
  */
static uint8_t  USBD_CDC_EP0_RxReady(USBD_HandleTypeDef *pdev)
{
 8007d0c:	b510      	push	{r4, lr}
  USBD_CDC_HandleTypeDef   *hcdc = (USBD_CDC_HandleTypeDef *) pdev->pCDC;
 8007d0e:	f8d0 42c4 	ldr.w	r4, [r0, #708]	; 0x2c4

  if ((pdev->pUserData != NULL) && (hcdc->CmdOpCode != 0xFFU))
 8007d12:	f8d0 32bc 	ldr.w	r3, [r0, #700]	; 0x2bc
 8007d16:	b15b      	cbz	r3, 8007d30 <USBD_CDC_EP0_RxReady+0x24>
 8007d18:	f894 0200 	ldrb.w	r0, [r4, #512]	; 0x200
 8007d1c:	28ff      	cmp	r0, #255	; 0xff
 8007d1e:	d007      	beq.n	8007d30 <USBD_CDC_EP0_RxReady+0x24>
  {
    ((USBD_CDC_ItfTypeDef *)pdev->pUserData)->Control(hcdc->CmdOpCode,
 8007d20:	689b      	ldr	r3, [r3, #8]
 8007d22:	f894 2201 	ldrb.w	r2, [r4, #513]	; 0x201
 8007d26:	4621      	mov	r1, r4
 8007d28:	4798      	blx	r3
                                                      (uint8_t *)(void *)hcdc->data,
                                                      (uint16_t)hcdc->CmdLength);
    hcdc->CmdOpCode = 0xFFU;
 8007d2a:	23ff      	movs	r3, #255	; 0xff
 8007d2c:	f884 3200 	strb.w	r3, [r4, #512]	; 0x200

  }
  return USBD_OK;
}
 8007d30:	2000      	movs	r0, #0
 8007d32:	bd10      	pop	{r4, pc}

08007d34 <USBD_CDC_GetFSCfgDesc>:
  * @param  length : pointer data length
  * @retval pointer to descriptor buffer
  */
static uint8_t  *USBD_CDC_GetFSCfgDesc(uint16_t *length)
{
  *length = sizeof(USBD_CDC_CfgFSDesc);
 8007d34:	2343      	movs	r3, #67	; 0x43
 8007d36:	8003      	strh	r3, [r0, #0]
  return USBD_CDC_CfgFSDesc;
}
 8007d38:	4800      	ldr	r0, [pc, #0]	; (8007d3c <USBD_CDC_GetFSCfgDesc+0x8>)
 8007d3a:	4770      	bx	lr
 8007d3c:	2000036c 	.word	0x2000036c

08007d40 <USBD_CDC_GetHSCfgDesc>:
  * @param  length : pointer data length
  * @retval pointer to descriptor buffer
  */
static uint8_t  *USBD_CDC_GetHSCfgDesc(uint16_t *length)
{
  *length = sizeof(USBD_CDC_CfgHSDesc);
 8007d40:	2343      	movs	r3, #67	; 0x43
 8007d42:	8003      	strh	r3, [r0, #0]
  return USBD_CDC_CfgHSDesc;
}
 8007d44:	4800      	ldr	r0, [pc, #0]	; (8007d48 <USBD_CDC_GetHSCfgDesc+0x8>)
 8007d46:	4770      	bx	lr
 8007d48:	200003b0 	.word	0x200003b0

08007d4c <USBD_CDC_GetOtherSpeedCfgDesc>:
  * @param  length : pointer data length
  * @retval pointer to descriptor buffer
  */
static uint8_t  *USBD_CDC_GetOtherSpeedCfgDesc(uint16_t *length)
{
  *length = sizeof(USBD_CDC_OtherSpeedCfgDesc);
 8007d4c:	2343      	movs	r3, #67	; 0x43
 8007d4e:	8003      	strh	r3, [r0, #0]
  return USBD_CDC_OtherSpeedCfgDesc;
}
 8007d50:	4800      	ldr	r0, [pc, #0]	; (8007d54 <USBD_CDC_GetOtherSpeedCfgDesc+0x8>)
 8007d52:	4770      	bx	lr
 8007d54:	20000400 	.word	0x20000400

08007d58 <USBD_CDC_GetDeviceQualifierDescriptor>:
* @param  length : pointer data length
* @retval pointer to descriptor buffer
*/
uint8_t  *USBD_CDC_GetDeviceQualifierDescriptor(uint16_t *length)
{
  *length = sizeof(USBD_CDC_DeviceQualifierDesc);
 8007d58:	230a      	movs	r3, #10
 8007d5a:	8003      	strh	r3, [r0, #0]
  return USBD_CDC_DeviceQualifierDesc;
}
 8007d5c:	4800      	ldr	r0, [pc, #0]	; (8007d60 <USBD_CDC_GetDeviceQualifierDescriptor+0x8>)
 8007d5e:	4770      	bx	lr
 8007d60:	200003f4 	.word	0x200003f4

08007d64 <USBD_CDC_DataOut>:
{
 8007d64:	b538      	push	{r3, r4, r5, lr}
 8007d66:	4604      	mov	r4, r0
  USBD_CDC_HandleTypeDef   *hcdc = (USBD_CDC_HandleTypeDef *) pdev->pCDC;
 8007d68:	f8d0 52c4 	ldr.w	r5, [r0, #708]	; 0x2c4
  hcdc->RxLength = USBD_LL_GetRxDataSize(pdev, epnum);
 8007d6c:	f000 fa75 	bl	800825a <USBD_LL_GetRxDataSize>
 8007d70:	f8c5 020c 	str.w	r0, [r5, #524]	; 0x20c
  if (pdev->pClassData != NULL)
 8007d74:	f8d4 32b8 	ldr.w	r3, [r4, #696]	; 0x2b8
 8007d78:	b14b      	cbz	r3, 8007d8e <USBD_CDC_DataOut+0x2a>
    ((USBD_CDC_ItfTypeDef *)pdev->pUserData)->Receive(hcdc->RxBuffer, &hcdc->RxLength);
 8007d7a:	f8d4 32bc 	ldr.w	r3, [r4, #700]	; 0x2bc
 8007d7e:	68db      	ldr	r3, [r3, #12]
 8007d80:	f505 7103 	add.w	r1, r5, #524	; 0x20c
 8007d84:	f8d5 0204 	ldr.w	r0, [r5, #516]	; 0x204
 8007d88:	4798      	blx	r3
    return USBD_OK;
 8007d8a:	2000      	movs	r0, #0
}
 8007d8c:	bd38      	pop	{r3, r4, r5, pc}
    return USBD_FAIL;
 8007d8e:	2002      	movs	r0, #2
 8007d90:	e7fc      	b.n	8007d8c <USBD_CDC_DataOut+0x28>

08007d92 <USBD_CDC_DataIn>:
{
 8007d92:	b538      	push	{r3, r4, r5, lr}
  USBD_CDC_HandleTypeDef *hcdc = (USBD_CDC_HandleTypeDef *)pdev->pCDC;
 8007d94:	f8d0 42c4 	ldr.w	r4, [r0, #708]	; 0x2c4
  PCD_HandleTypeDef *hpcd = pdev->pData;
 8007d98:	f8d0 22c0 	ldr.w	r2, [r0, #704]	; 0x2c0
  if (pdev->pClassData != NULL)
 8007d9c:	f8d0 32b8 	ldr.w	r3, [r0, #696]	; 0x2b8
 8007da0:	b1f3      	cbz	r3, 8007de0 <USBD_CDC_DataIn+0x4e>
    if ((pdev->ep_in[epnum].total_length > 0U) && ((pdev->ep_in[epnum].total_length % hpcd->IN_ep[epnum].maxpacket) == 0U))
 8007da2:	eb01 0381 	add.w	r3, r1, r1, lsl #2
 8007da6:	eb00 0383 	add.w	r3, r0, r3, lsl #2
 8007daa:	69db      	ldr	r3, [r3, #28]
 8007dac:	b14b      	cbz	r3, 8007dc2 <USBD_CDC_DataIn+0x30>
 8007dae:	eb01 0581 	add.w	r5, r1, r1, lsl #2
 8007db2:	eb02 02c5 	add.w	r2, r2, r5, lsl #3
 8007db6:	6a15      	ldr	r5, [r2, #32]
 8007db8:	fbb3 f2f5 	udiv	r2, r3, r5
 8007dbc:	fb05 3312 	mls	r3, r5, r2, r3
 8007dc0:	b123      	cbz	r3, 8007dcc <USBD_CDC_DataIn+0x3a>
      hcdc->TxState = 0U;
 8007dc2:	2300      	movs	r3, #0
 8007dc4:	f8c4 3214 	str.w	r3, [r4, #532]	; 0x214
    return USBD_OK;
 8007dc8:	2000      	movs	r0, #0
}
 8007dca:	bd38      	pop	{r3, r4, r5, pc}
      pdev->ep_in[epnum].total_length = 0U;
 8007dcc:	eb01 0381 	add.w	r3, r1, r1, lsl #2
 8007dd0:	eb00 0383 	add.w	r3, r0, r3, lsl #2
 8007dd4:	2200      	movs	r2, #0
 8007dd6:	61da      	str	r2, [r3, #28]
      USBD_LL_Transmit(pdev, epnum, NULL, 0U);
 8007dd8:	4613      	mov	r3, r2
 8007dda:	f000 fa2e 	bl	800823a <USBD_LL_Transmit>
 8007dde:	e7f3      	b.n	8007dc8 <USBD_CDC_DataIn+0x36>
    return USBD_FAIL;
 8007de0:	2002      	movs	r0, #2
 8007de2:	e7f2      	b.n	8007dca <USBD_CDC_DataIn+0x38>

08007de4 <USBD_CDC_Setup>:
{
 8007de4:	b5f0      	push	{r4, r5, r6, r7, lr}
 8007de6:	b083      	sub	sp, #12
 8007de8:	4606      	mov	r6, r0
 8007dea:	460c      	mov	r4, r1
  USBD_CDC_HandleTypeDef   *hcdc = (USBD_CDC_HandleTypeDef *) pdev->pCDC;
 8007dec:	f8d0 72c4 	ldr.w	r7, [r0, #708]	; 0x2c4
  uint8_t ifalt = 0U;
 8007df0:	2300      	movs	r3, #0
 8007df2:	f88d 3007 	strb.w	r3, [sp, #7]
  uint16_t status_info = 0U;
 8007df6:	f8ad 3004 	strh.w	r3, [sp, #4]
  switch (req->bmRequest & USB_REQ_TYPE_MASK)
 8007dfa:	780b      	ldrb	r3, [r1, #0]
 8007dfc:	f013 0560 	ands.w	r5, r3, #96	; 0x60
 8007e00:	d027      	beq.n	8007e52 <USBD_CDC_Setup+0x6e>
 8007e02:	2d20      	cmp	r5, #32
 8007e04:	d153      	bne.n	8007eae <USBD_CDC_Setup+0xca>
      if (req->wLength)
 8007e06:	88ca      	ldrh	r2, [r1, #6]
 8007e08:	b1da      	cbz	r2, 8007e42 <USBD_CDC_Setup+0x5e>
        if (req->bmRequest & 0x80U)
 8007e0a:	f013 0f80 	tst.w	r3, #128	; 0x80
 8007e0e:	d00c      	beq.n	8007e2a <USBD_CDC_Setup+0x46>
          ((USBD_CDC_ItfTypeDef *)pdev->pUserData)->Control(req->bRequest,
 8007e10:	f8d0 32bc 	ldr.w	r3, [r0, #700]	; 0x2bc
 8007e14:	689b      	ldr	r3, [r3, #8]
 8007e16:	4639      	mov	r1, r7
 8007e18:	7860      	ldrb	r0, [r4, #1]
 8007e1a:	4798      	blx	r3
          USBD_CtlSendData(pdev, (uint8_t *)(void *)hcdc->data, req->wLength);
 8007e1c:	88e2      	ldrh	r2, [r4, #6]
 8007e1e:	4639      	mov	r1, r7
 8007e20:	4630      	mov	r0, r6
 8007e22:	f7ff fee8 	bl	8007bf6 <USBD_CtlSendData>
  uint8_t ret = USBD_OK;
 8007e26:	2500      	movs	r5, #0
 8007e28:	e044      	b.n	8007eb4 <USBD_CDC_Setup+0xd0>
          hcdc->CmdOpCode = req->bRequest;
 8007e2a:	784b      	ldrb	r3, [r1, #1]
 8007e2c:	f887 3200 	strb.w	r3, [r7, #512]	; 0x200
          hcdc->CmdLength = (uint8_t)req->wLength;
 8007e30:	798b      	ldrb	r3, [r1, #6]
 8007e32:	f887 3201 	strb.w	r3, [r7, #513]	; 0x201
          USBD_CtlPrepareRx(pdev, (uint8_t *)(void *)hcdc->data, req->wLength);
 8007e36:	88ca      	ldrh	r2, [r1, #6]
 8007e38:	4639      	mov	r1, r7
 8007e3a:	f7ff fef1 	bl	8007c20 <USBD_CtlPrepareRx>
  uint8_t ret = USBD_OK;
 8007e3e:	2500      	movs	r5, #0
 8007e40:	e038      	b.n	8007eb4 <USBD_CDC_Setup+0xd0>
        ((USBD_CDC_ItfTypeDef *)pdev->pUserData)->Control(req->bRequest,
 8007e42:	f8d0 32bc 	ldr.w	r3, [r0, #700]	; 0x2bc
 8007e46:	689b      	ldr	r3, [r3, #8]
 8007e48:	2200      	movs	r2, #0
 8007e4a:	7848      	ldrb	r0, [r1, #1]
 8007e4c:	4798      	blx	r3
  uint8_t ret = USBD_OK;
 8007e4e:	2500      	movs	r5, #0
 8007e50:	e030      	b.n	8007eb4 <USBD_CDC_Setup+0xd0>
      switch (req->bRequest)
 8007e52:	784f      	ldrb	r7, [r1, #1]
 8007e54:	2f0a      	cmp	r7, #10
 8007e56:	d014      	beq.n	8007e82 <USBD_CDC_Setup+0x9e>
 8007e58:	2f0b      	cmp	r7, #11
 8007e5a:	d020      	beq.n	8007e9e <USBD_CDC_Setup+0xba>
 8007e5c:	b11f      	cbz	r7, 8007e66 <USBD_CDC_Setup+0x82>
          USBD_CtlError(pdev, req);
 8007e5e:	f7ff fbbf 	bl	80075e0 <USBD_CtlError>
          ret = USBD_FAIL;
 8007e62:	2502      	movs	r5, #2
          break;
 8007e64:	e026      	b.n	8007eb4 <USBD_CDC_Setup+0xd0>
          if (pdev->dev_state == USBD_STATE_CONFIGURED)
 8007e66:	f890 329c 	ldrb.w	r3, [r0, #668]	; 0x29c
 8007e6a:	2b03      	cmp	r3, #3
 8007e6c:	d003      	beq.n	8007e76 <USBD_CDC_Setup+0x92>
            USBD_CtlError(pdev, req);
 8007e6e:	f7ff fbb7 	bl	80075e0 <USBD_CtlError>
            ret = USBD_FAIL;
 8007e72:	2502      	movs	r5, #2
 8007e74:	e01e      	b.n	8007eb4 <USBD_CDC_Setup+0xd0>
            USBD_CtlSendData(pdev, (uint8_t *)(void *)&status_info, 2U);
 8007e76:	2202      	movs	r2, #2
 8007e78:	a901      	add	r1, sp, #4
 8007e7a:	f7ff febc 	bl	8007bf6 <USBD_CtlSendData>
  uint8_t ret = USBD_OK;
 8007e7e:	463d      	mov	r5, r7
 8007e80:	e018      	b.n	8007eb4 <USBD_CDC_Setup+0xd0>
          if (pdev->dev_state == USBD_STATE_CONFIGURED)
 8007e82:	f890 329c 	ldrb.w	r3, [r0, #668]	; 0x29c
 8007e86:	2b03      	cmp	r3, #3
 8007e88:	d003      	beq.n	8007e92 <USBD_CDC_Setup+0xae>
            USBD_CtlError(pdev, req);
 8007e8a:	f7ff fba9 	bl	80075e0 <USBD_CtlError>
            ret = USBD_FAIL;
 8007e8e:	2502      	movs	r5, #2
 8007e90:	e010      	b.n	8007eb4 <USBD_CDC_Setup+0xd0>
            USBD_CtlSendData(pdev, &ifalt, 1U);
 8007e92:	2201      	movs	r2, #1
 8007e94:	f10d 0107 	add.w	r1, sp, #7
 8007e98:	f7ff fead 	bl	8007bf6 <USBD_CtlSendData>
 8007e9c:	e00a      	b.n	8007eb4 <USBD_CDC_Setup+0xd0>
          if (pdev->dev_state != USBD_STATE_CONFIGURED)
 8007e9e:	f890 329c 	ldrb.w	r3, [r0, #668]	; 0x29c
 8007ea2:	2b03      	cmp	r3, #3
 8007ea4:	d006      	beq.n	8007eb4 <USBD_CDC_Setup+0xd0>
            USBD_CtlError(pdev, req);
 8007ea6:	f7ff fb9b 	bl	80075e0 <USBD_CtlError>
            ret = USBD_FAIL;
 8007eaa:	2502      	movs	r5, #2
 8007eac:	e002      	b.n	8007eb4 <USBD_CDC_Setup+0xd0>
      USBD_CtlError(pdev, req);
 8007eae:	f7ff fb97 	bl	80075e0 <USBD_CtlError>
      ret = USBD_FAIL;
 8007eb2:	2502      	movs	r5, #2
}
 8007eb4:	4628      	mov	r0, r5
 8007eb6:	b003      	add	sp, #12
 8007eb8:	bdf0      	pop	{r4, r5, r6, r7, pc}

08007eba <USBD_CDC_DeInit>:
{
 8007eba:	b538      	push	{r3, r4, r5, lr}
 8007ebc:	4604      	mov	r4, r0
  USBD_LL_CloseEP(pdev, CDC_IN_EP);
 8007ebe:	2182      	movs	r1, #130	; 0x82
 8007ec0:	f000 f985 	bl	80081ce <USBD_LL_CloseEP>
  pdev->ep_in[CDC_IN_EP & 0xFU].is_used = 0U;
 8007ec4:	2500      	movs	r5, #0
 8007ec6:	6425      	str	r5, [r4, #64]	; 0x40
  USBD_LL_CloseEP(pdev, CDC_OUT_EP);
 8007ec8:	2101      	movs	r1, #1
 8007eca:	4620      	mov	r0, r4
 8007ecc:	f000 f97f 	bl	80081ce <USBD_LL_CloseEP>
  pdev->ep_out[CDC_OUT_EP & 0xFU].is_used = 0U;
 8007ed0:	f8c4 516c 	str.w	r5, [r4, #364]	; 0x16c
  USBD_LL_CloseEP(pdev, CDC_CMD_EP);
 8007ed4:	2183      	movs	r1, #131	; 0x83
 8007ed6:	4620      	mov	r0, r4
 8007ed8:	f000 f979 	bl	80081ce <USBD_LL_CloseEP>
  pdev->ep_in[CDC_CMD_EP & 0xFU].is_used = 0U;
 8007edc:	6565      	str	r5, [r4, #84]	; 0x54
  if (pdev->pClassData != NULL)
 8007ede:	f8d4 32b8 	ldr.w	r3, [r4, #696]	; 0x2b8
 8007ee2:	b12b      	cbz	r3, 8007ef0 <USBD_CDC_DeInit+0x36>
	((USBD_CDC_ItfTypeDef*)pdev->pUserData)->DeInit();
 8007ee4:	f8d4 32bc 	ldr.w	r3, [r4, #700]	; 0x2bc
 8007ee8:	685b      	ldr	r3, [r3, #4]
 8007eea:	4798      	blx	r3
    pdev->pClassData = NULL;
 8007eec:	f8c4 52b8 	str.w	r5, [r4, #696]	; 0x2b8
}
 8007ef0:	2000      	movs	r0, #0
 8007ef2:	bd38      	pop	{r3, r4, r5, pc}

08007ef4 <USBD_CDC_Init>:
{
 8007ef4:	b538      	push	{r3, r4, r5, lr}
 8007ef6:	4604      	mov	r4, r0
  if (pdev->dev_speed == USBD_SPEED_HIGH)
 8007ef8:	7c03      	ldrb	r3, [r0, #16]
 8007efa:	bb7b      	cbnz	r3, 8007f5c <USBD_CDC_Init+0x68>
    USBD_LL_OpenEP(pdev, CDC_IN_EP, USBD_EP_TYPE_BULK,
 8007efc:	f44f 7300 	mov.w	r3, #512	; 0x200
 8007f00:	2202      	movs	r2, #2
 8007f02:	2182      	movs	r1, #130	; 0x82
 8007f04:	f000 f958 	bl	80081b8 <USBD_LL_OpenEP>
    pdev->ep_in[CDC_IN_EP & 0xFU].is_used = 1U;
 8007f08:	2501      	movs	r5, #1
 8007f0a:	6425      	str	r5, [r4, #64]	; 0x40
    USBD_LL_OpenEP(pdev, CDC_OUT_EP, USBD_EP_TYPE_BULK,
 8007f0c:	f44f 7300 	mov.w	r3, #512	; 0x200
 8007f10:	2202      	movs	r2, #2
 8007f12:	4629      	mov	r1, r5
 8007f14:	4620      	mov	r0, r4
 8007f16:	f000 f94f 	bl	80081b8 <USBD_LL_OpenEP>
    pdev->ep_out[CDC_OUT_EP & 0xFU].is_used = 1U;
 8007f1a:	f8c4 516c 	str.w	r5, [r4, #364]	; 0x16c
  USBD_LL_OpenEP(pdev, CDC_CMD_EP, USBD_EP_TYPE_INTR, CDC_CMD_PACKET_SIZE);
 8007f1e:	2308      	movs	r3, #8
 8007f20:	2203      	movs	r2, #3
 8007f22:	2183      	movs	r1, #131	; 0x83
 8007f24:	4620      	mov	r0, r4
 8007f26:	f000 f947 	bl	80081b8 <USBD_LL_OpenEP>
  pdev->ep_in[CDC_CMD_EP & 0xFU].is_used = 1U;
 8007f2a:	2301      	movs	r3, #1
 8007f2c:	6563      	str	r3, [r4, #84]	; 0x54
    hcdc = (USBD_CDC_HandleTypeDef *) (pdev->pCDC);
 8007f2e:	f8d4 52c4 	ldr.w	r5, [r4, #708]	; 0x2c4
    ((USBD_CDC_ItfTypeDef*)pdev->pUserData)->Init();
 8007f32:	f8d4 32bc 	ldr.w	r3, [r4, #700]	; 0x2bc
 8007f36:	681b      	ldr	r3, [r3, #0]
 8007f38:	4798      	blx	r3
    hcdc->TxState = 0U;
 8007f3a:	2300      	movs	r3, #0
 8007f3c:	f8c5 3214 	str.w	r3, [r5, #532]	; 0x214
    hcdc->RxState = 0U;
 8007f40:	f8c5 3218 	str.w	r3, [r5, #536]	; 0x218
    if (pdev->dev_speed == USBD_SPEED_HIGH)
 8007f44:	7c23      	ldrb	r3, [r4, #16]
 8007f46:	b9cb      	cbnz	r3, 8007f7c <USBD_CDC_Init+0x88>
      USBD_LL_PrepareReceive(pdev, CDC_OUT_EP, hcdc->RxBuffer,
 8007f48:	f44f 7300 	mov.w	r3, #512	; 0x200
 8007f4c:	f8d5 2204 	ldr.w	r2, [r5, #516]	; 0x204
 8007f50:	2101      	movs	r1, #1
 8007f52:	4620      	mov	r0, r4
 8007f54:	f000 f979 	bl	800824a <USBD_LL_PrepareReceive>
}
 8007f58:	2000      	movs	r0, #0
 8007f5a:	bd38      	pop	{r3, r4, r5, pc}
    USBD_LL_OpenEP(pdev, CDC_IN_EP, USBD_EP_TYPE_BULK,
 8007f5c:	2340      	movs	r3, #64	; 0x40
 8007f5e:	2202      	movs	r2, #2
 8007f60:	2182      	movs	r1, #130	; 0x82
 8007f62:	f000 f929 	bl	80081b8 <USBD_LL_OpenEP>
    pdev->ep_in[CDC_IN_EP & 0xFU].is_used = 1U;
 8007f66:	2501      	movs	r5, #1
 8007f68:	6425      	str	r5, [r4, #64]	; 0x40
    USBD_LL_OpenEP(pdev, CDC_OUT_EP, USBD_EP_TYPE_BULK,
 8007f6a:	2340      	movs	r3, #64	; 0x40
 8007f6c:	2202      	movs	r2, #2
 8007f6e:	4629      	mov	r1, r5
 8007f70:	4620      	mov	r0, r4
 8007f72:	f000 f921 	bl	80081b8 <USBD_LL_OpenEP>
    pdev->ep_out[CDC_OUT_EP & 0xFU].is_used = 1U;
 8007f76:	f8c4 516c 	str.w	r5, [r4, #364]	; 0x16c
 8007f7a:	e7d0      	b.n	8007f1e <USBD_CDC_Init+0x2a>
      USBD_LL_PrepareReceive(pdev, CDC_OUT_EP, hcdc->RxBuffer,
 8007f7c:	2340      	movs	r3, #64	; 0x40
 8007f7e:	f8d5 2204 	ldr.w	r2, [r5, #516]	; 0x204
 8007f82:	2101      	movs	r1, #1
 8007f84:	4620      	mov	r0, r4
 8007f86:	f000 f960 	bl	800824a <USBD_LL_PrepareReceive>
 8007f8a:	e7e5      	b.n	8007f58 <USBD_CDC_Init+0x64>

08007f8c <USBD_CDC_RegisterInterface>:
uint8_t  USBD_CDC_RegisterInterface(USBD_HandleTypeDef   *pdev,
                                    USBD_CDC_ItfTypeDef *fops)
{
  uint8_t  ret = USBD_FAIL;

  if (fops != NULL)
 8007f8c:	b119      	cbz	r1, 8007f96 <USBD_CDC_RegisterInterface+0xa>
  {
    pdev->pUserData = fops;
 8007f8e:	f8c0 12bc 	str.w	r1, [r0, #700]	; 0x2bc
    ret = USBD_OK;
 8007f92:	2000      	movs	r0, #0
 8007f94:	4770      	bx	lr
  uint8_t  ret = USBD_FAIL;
 8007f96:	2002      	movs	r0, #2
  }

  return ret;
}
 8007f98:	4770      	bx	lr

08007f9a <USBD_CDC_SetTxBuffer>:
  */
uint8_t  USBD_CDC_SetTxBuffer(USBD_HandleTypeDef   *pdev,
                              uint8_t  *pbuff,
                              uint16_t length)
{
  USBD_CDC_HandleTypeDef   *hcdc = (USBD_CDC_HandleTypeDef *) pdev->pCDC;
 8007f9a:	f8d0 32c4 	ldr.w	r3, [r0, #708]	; 0x2c4

  hcdc->TxBuffer = pbuff;
 8007f9e:	f8c3 1208 	str.w	r1, [r3, #520]	; 0x208
  hcdc->TxLength = length;
 8007fa2:	f8c3 2210 	str.w	r2, [r3, #528]	; 0x210

  return USBD_OK;
}
 8007fa6:	2000      	movs	r0, #0
 8007fa8:	4770      	bx	lr

08007faa <USBD_CDC_SetRxBuffer>:
  * @retval status
  */
uint8_t  USBD_CDC_SetRxBuffer(USBD_HandleTypeDef   *pdev,
                              uint8_t  *pbuff)
{
  USBD_CDC_HandleTypeDef   *hcdc = (USBD_CDC_HandleTypeDef *) pdev->pCDC;
 8007faa:	f8d0 32c4 	ldr.w	r3, [r0, #708]	; 0x2c4

  hcdc->RxBuffer = pbuff;
 8007fae:	f8c3 1204 	str.w	r1, [r3, #516]	; 0x204

  return USBD_OK;
}
 8007fb2:	2000      	movs	r0, #0
 8007fb4:	4770      	bx	lr

08007fb6 <USBD_CDC_TransmitPacket>:
  *         Transmit packet on IN endpoint
  * @param  pdev: device instance
  * @retval status
  */
uint8_t  USBD_CDC_TransmitPacket(USBD_HandleTypeDef *pdev)
{
 8007fb6:	b508      	push	{r3, lr}
  USBD_CDC_HandleTypeDef   *hcdc = (USBD_CDC_HandleTypeDef *) pdev->pCDC;
 8007fb8:	f8d0 22c4 	ldr.w	r2, [r0, #708]	; 0x2c4

  if (pdev->pClassData != NULL)
 8007fbc:	f8d0 32b8 	ldr.w	r3, [r0, #696]	; 0x2b8
 8007fc0:	b19b      	cbz	r3, 8007fea <USBD_CDC_TransmitPacket+0x34>
  {
    if (hcdc->TxState == 0U)
 8007fc2:	f8d2 3214 	ldr.w	r3, [r2, #532]	; 0x214
 8007fc6:	b10b      	cbz	r3, 8007fcc <USBD_CDC_TransmitPacket+0x16>

      return USBD_OK;
    }
    else
    {
      return USBD_BUSY;
 8007fc8:	2001      	movs	r0, #1
  }
  else
  {
    return USBD_FAIL;
  }
}
 8007fca:	bd08      	pop	{r3, pc}
      hcdc->TxState = 1U;
 8007fcc:	2301      	movs	r3, #1
 8007fce:	f8c2 3214 	str.w	r3, [r2, #532]	; 0x214
      pdev->ep_in[CDC_IN_EP & 0xFU].total_length = hcdc->TxLength;
 8007fd2:	f8d2 3210 	ldr.w	r3, [r2, #528]	; 0x210
 8007fd6:	6443      	str	r3, [r0, #68]	; 0x44
      USBD_LL_Transmit(pdev, CDC_IN_EP, hcdc->TxBuffer,
 8007fd8:	f8b2 3210 	ldrh.w	r3, [r2, #528]	; 0x210
 8007fdc:	f8d2 2208 	ldr.w	r2, [r2, #520]	; 0x208
 8007fe0:	2182      	movs	r1, #130	; 0x82
 8007fe2:	f000 f92a 	bl	800823a <USBD_LL_Transmit>
      return USBD_OK;
 8007fe6:	2000      	movs	r0, #0
 8007fe8:	e7ef      	b.n	8007fca <USBD_CDC_TransmitPacket+0x14>
    return USBD_FAIL;
 8007fea:	2002      	movs	r0, #2
 8007fec:	e7ed      	b.n	8007fca <USBD_CDC_TransmitPacket+0x14>

08007fee <USBD_CDC_ReceivePacket>:
  *         prepare OUT Endpoint for reception
  * @param  pdev: device instance
  * @retval status
  */
uint8_t  USBD_CDC_ReceivePacket(USBD_HandleTypeDef *pdev)
{
 8007fee:	b508      	push	{r3, lr}
  USBD_CDC_HandleTypeDef   *hcdc = (USBD_CDC_HandleTypeDef *) pdev->pCDC;
 8007ff0:	f8d0 22c4 	ldr.w	r2, [r0, #708]	; 0x2c4

  /* Suspend or Resume USB Out process */
  if (pdev->pClassData != NULL)
 8007ff4:	f8d0 32b8 	ldr.w	r3, [r0, #696]	; 0x2b8
 8007ff8:	b18b      	cbz	r3, 800801e <USBD_CDC_ReceivePacket+0x30>
  {
    if (pdev->dev_speed == USBD_SPEED_HIGH)
 8007ffa:	7c03      	ldrb	r3, [r0, #16]
 8007ffc:	b943      	cbnz	r3, 8008010 <USBD_CDC_ReceivePacket+0x22>
    {
      /* Prepare Out endpoint to receive next packet */
      USBD_LL_PrepareReceive(pdev,
 8007ffe:	f44f 7300 	mov.w	r3, #512	; 0x200
 8008002:	f8d2 2204 	ldr.w	r2, [r2, #516]	; 0x204
 8008006:	2101      	movs	r1, #1
 8008008:	f000 f91f 	bl	800824a <USBD_LL_PrepareReceive>
      USBD_LL_PrepareReceive(pdev,
                             CDC_OUT_EP,
                             hcdc->RxBuffer,
                             CDC_DATA_FS_OUT_PACKET_SIZE);
    }
    return USBD_OK;
 800800c:	2000      	movs	r0, #0
  }
  else
  {
    return USBD_FAIL;
  }
}
 800800e:	bd08      	pop	{r3, pc}
      USBD_LL_PrepareReceive(pdev,
 8008010:	2340      	movs	r3, #64	; 0x40
 8008012:	f8d2 2204 	ldr.w	r2, [r2, #516]	; 0x204
 8008016:	2101      	movs	r1, #1
 8008018:	f000 f917 	bl	800824a <USBD_LL_PrepareReceive>
 800801c:	e7f6      	b.n	800800c <USBD_CDC_ReceivePacket+0x1e>
    return USBD_FAIL;
 800801e:	2002      	movs	r0, #2
 8008020:	e7f5      	b.n	800800e <USBD_CDC_ReceivePacket+0x20>

08008022 <USBD_Get_USB_Status>:
  */
USBD_StatusTypeDef USBD_Get_USB_Status(HAL_StatusTypeDef hal_status)
{
  USBD_StatusTypeDef usb_status = USBD_OK;

  switch (hal_status)
 8008022:	2802      	cmp	r0, #2
 8008024:	d805      	bhi.n	8008032 <USBD_Get_USB_Status+0x10>
 8008026:	e8df f000 	tbb	[pc, r0]
 800802a:	0405      	.short	0x0405
 800802c:	02          	.byte	0x02
 800802d:	00          	.byte	0x00
    break;
    case HAL_ERROR :
      usb_status = USBD_FAIL;
    break;
    case HAL_BUSY :
      usb_status = USBD_BUSY;
 800802e:	2001      	movs	r0, #1
    break;
 8008030:	4770      	bx	lr
      usb_status = USBD_FAIL;
 8008032:	2002      	movs	r0, #2
    default :
      usb_status = USBD_FAIL;
    break;
  }
  return usb_status;
}
 8008034:	4770      	bx	lr
	...

08008038 <HAL_PCD_MspInit>:
  if(pcdHandle->Instance==USB)
 8008038:	6802      	ldr	r2, [r0, #0]
 800803a:	4b0e      	ldr	r3, [pc, #56]	; (8008074 <HAL_PCD_MspInit+0x3c>)
 800803c:	429a      	cmp	r2, r3
 800803e:	d000      	beq.n	8008042 <HAL_PCD_MspInit+0xa>
 8008040:	4770      	bx	lr
{
 8008042:	b500      	push	{lr}
 8008044:	b083      	sub	sp, #12
    __HAL_RCC_USB_CLK_ENABLE();
 8008046:	f503 33da 	add.w	r3, r3, #111616	; 0x1b400
 800804a:	69da      	ldr	r2, [r3, #28]
 800804c:	f442 0200 	orr.w	r2, r2, #8388608	; 0x800000
 8008050:	61da      	str	r2, [r3, #28]
 8008052:	69db      	ldr	r3, [r3, #28]
 8008054:	f403 0300 	and.w	r3, r3, #8388608	; 0x800000
 8008058:	9301      	str	r3, [sp, #4]
 800805a:	9b01      	ldr	r3, [sp, #4]
    HAL_NVIC_SetPriority(USB_LP_CAN1_RX0_IRQn, 2, 0);
 800805c:	2200      	movs	r2, #0
 800805e:	2102      	movs	r1, #2
 8008060:	2014      	movs	r0, #20
 8008062:	f7fb fba3 	bl	80037ac <HAL_NVIC_SetPriority>
    HAL_NVIC_EnableIRQ(USB_LP_CAN1_RX0_IRQn);
 8008066:	2014      	movs	r0, #20
 8008068:	f7fb fbd4 	bl	8003814 <HAL_NVIC_EnableIRQ>
}
 800806c:	b003      	add	sp, #12
 800806e:	f85d fb04 	ldr.w	pc, [sp], #4
 8008072:	bf00      	nop
 8008074:	40005c00 	.word	0x40005c00

08008078 <HAL_PCD_SetupStageCallback>:
{
 8008078:	b508      	push	{r3, lr}
  USBD_LL_SetupStage((USBD_HandleTypeDef*)hpcd->pData, (uint8_t *)hpcd->Setup);
 800807a:	f500 7126 	add.w	r1, r0, #664	; 0x298
 800807e:	f8d0 02d4 	ldr.w	r0, [r0, #724]	; 0x2d4
 8008082:	f7ff f95e 	bl	8007342 <USBD_LL_SetupStage>
}
 8008086:	bd08      	pop	{r3, pc}

08008088 <HAL_PCD_DataOutStageCallback>:
{
 8008088:	b508      	push	{r3, lr}
  USBD_LL_DataOutStage((USBD_HandleTypeDef*)hpcd->pData, epnum, hpcd->OUT_ep[epnum].xfer_buff);
 800808a:	eb01 0381 	add.w	r3, r1, r1, lsl #2
 800808e:	eb00 03c3 	add.w	r3, r0, r3, lsl #3
 8008092:	f8d3 2164 	ldr.w	r2, [r3, #356]	; 0x164
 8008096:	f8d0 02d4 	ldr.w	r0, [r0, #724]	; 0x2d4
 800809a:	f7ff f97f 	bl	800739c <USBD_LL_DataOutStage>
}
 800809e:	bd08      	pop	{r3, pc}

080080a0 <HAL_PCD_DataInStageCallback>:
{
 80080a0:	b508      	push	{r3, lr}
  USBD_LL_DataInStage((USBD_HandleTypeDef*)hpcd->pData, epnum, hpcd->IN_ep[epnum].xfer_buff);
 80080a2:	eb01 0381 	add.w	r3, r1, r1, lsl #2
 80080a6:	eb00 03c3 	add.w	r3, r0, r3, lsl #3
 80080aa:	6a5a      	ldr	r2, [r3, #36]	; 0x24
 80080ac:	f8d0 02d4 	ldr.w	r0, [r0, #724]	; 0x2d4
 80080b0:	f7ff f9ba 	bl	8007428 <USBD_LL_DataInStage>
}
 80080b4:	bd08      	pop	{r3, pc}

080080b6 <HAL_PCD_SOFCallback>:
{
 80080b6:	b508      	push	{r3, lr}
  USBD_LL_SOF((USBD_HandleTypeDef*)hpcd->pData);
 80080b8:	f8d0 02d4 	ldr.w	r0, [r0, #724]	; 0x2d4
 80080bc:	f7ff fa5b 	bl	8007576 <USBD_LL_SOF>
}
 80080c0:	bd08      	pop	{r3, pc}

080080c2 <HAL_PCD_ResetCallback>:
{
 80080c2:	b510      	push	{r4, lr}
 80080c4:	4604      	mov	r4, r0
  if ( hpcd->Init.speed != PCD_SPEED_FULL)
 80080c6:	7983      	ldrb	r3, [r0, #6]
 80080c8:	2b02      	cmp	r3, #2
 80080ca:	d109      	bne.n	80080e0 <HAL_PCD_ResetCallback+0x1e>
  USBD_LL_SetSpeed((USBD_HandleTypeDef*)hpcd->pData, speed);
 80080cc:	2101      	movs	r1, #1
 80080ce:	f8d4 02d4 	ldr.w	r0, [r4, #724]	; 0x2d4
 80080d2:	f7ff fa39 	bl	8007548 <USBD_LL_SetSpeed>
  USBD_LL_Reset((USBD_HandleTypeDef*)hpcd->pData);
 80080d6:	f8d4 02d4 	ldr.w	r0, [r4, #724]	; 0x2d4
 80080da:	f7ff fa0d 	bl	80074f8 <USBD_LL_Reset>
}
 80080de:	bd10      	pop	{r4, pc}
    Error_Handler();
 80080e0:	f7f8 fc5e 	bl	80009a0 <Error_Handler>
 80080e4:	e7f2      	b.n	80080cc <HAL_PCD_ResetCallback+0xa>
	...

080080e8 <HAL_PCD_SuspendCallback>:
{
 80080e8:	b510      	push	{r4, lr}
 80080ea:	4604      	mov	r4, r0
  USBD_LL_Suspend((USBD_HandleTypeDef*)hpcd->pData);
 80080ec:	f8d0 02d4 	ldr.w	r0, [r0, #724]	; 0x2d4
 80080f0:	f7ff fa2d 	bl	800754e <USBD_LL_Suspend>
  if (hpcd->Init.low_power_enable)
 80080f4:	7aa3      	ldrb	r3, [r4, #10]
 80080f6:	b123      	cbz	r3, 8008102 <HAL_PCD_SuspendCallback+0x1a>
    SCB->SCR |= (uint32_t)((uint32_t)(SCB_SCR_SLEEPDEEP_Msk | SCB_SCR_SLEEPONEXIT_Msk));
 80080f8:	4a02      	ldr	r2, [pc, #8]	; (8008104 <HAL_PCD_SuspendCallback+0x1c>)
 80080fa:	6913      	ldr	r3, [r2, #16]
 80080fc:	f043 0306 	orr.w	r3, r3, #6
 8008100:	6113      	str	r3, [r2, #16]
}
 8008102:	bd10      	pop	{r4, pc}
 8008104:	e000ed00 	.word	0xe000ed00

08008108 <HAL_PCD_ResumeCallback>:
{
 8008108:	b508      	push	{r3, lr}
  USBD_LL_Resume((USBD_HandleTypeDef*)hpcd->pData);
 800810a:	f8d0 02d4 	ldr.w	r0, [r0, #724]	; 0x2d4
 800810e:	f7ff fa27 	bl	8007560 <USBD_LL_Resume>
}
 8008112:	bd08      	pop	{r3, pc}

08008114 <USBD_LL_Init>:
{
 8008114:	b510      	push	{r4, lr}
 8008116:	4604      	mov	r4, r0
  hpcd_USB_FS.pData = pdev;
 8008118:	4821      	ldr	r0, [pc, #132]	; (80081a0 <USBD_LL_Init+0x8c>)
 800811a:	f8c0 42d4 	str.w	r4, [r0, #724]	; 0x2d4
  pdev->pData = &hpcd_USB_FS;
 800811e:	f8c4 02c0 	str.w	r0, [r4, #704]	; 0x2c0
  hpcd_USB_FS.Instance = USB;
 8008122:	4b20      	ldr	r3, [pc, #128]	; (80081a4 <USBD_LL_Init+0x90>)
 8008124:	6003      	str	r3, [r0, #0]
  hpcd_USB_FS.Init.dev_endpoints = 8;
 8008126:	2308      	movs	r3, #8
 8008128:	7103      	strb	r3, [r0, #4]
  hpcd_USB_FS.Init.speed = PCD_SPEED_FULL;
 800812a:	2302      	movs	r3, #2
 800812c:	7183      	strb	r3, [r0, #6]
  hpcd_USB_FS.Init.low_power_enable = DISABLE;
 800812e:	2300      	movs	r3, #0
 8008130:	7283      	strb	r3, [r0, #10]
  hpcd_USB_FS.Init.lpm_enable = DISABLE;
 8008132:	72c3      	strb	r3, [r0, #11]
  hpcd_USB_FS.Init.battery_charging_enable = DISABLE;
 8008134:	7303      	strb	r3, [r0, #12]
  if (HAL_PCD_Init(&hpcd_USB_FS) != HAL_OK)
 8008136:	f7fc f833 	bl	80041a0 <HAL_PCD_Init>
 800813a:	bb70      	cbnz	r0, 800819a <USBD_LL_Init+0x86>
  HAL_PCDEx_PMAConfig((PCD_HandleTypeDef*)pdev->pData , 0x00 , PCD_SNG_BUF, 0x40); // the following 4 EPs, 4EPs x 2Regs/EP x 4B/Reg = 4x2x4 = 32Bytes = 0x20
 800813c:	2340      	movs	r3, #64	; 0x40
 800813e:	2200      	movs	r2, #0
 8008140:	4611      	mov	r1, r2
 8008142:	f8d4 02c0 	ldr.w	r0, [r4, #704]	; 0x2c0
 8008146:	f7fc ff97 	bl	8005078 <HAL_PCDEx_PMAConfig>
  HAL_PCDEx_PMAConfig((PCD_HandleTypeDef*)pdev->pData , 0x80 , PCD_SNG_BUF, 0x80);
 800814a:	2380      	movs	r3, #128	; 0x80
 800814c:	2200      	movs	r2, #0
 800814e:	4619      	mov	r1, r3
 8008150:	f8d4 02c0 	ldr.w	r0, [r4, #704]	; 0x2c0
 8008154:	f7fc ff90 	bl	8005078 <HAL_PCDEx_PMAConfig>
  HAL_PCDEx_PMAConfig((PCD_HandleTypeDef*)pdev->pData , 0x01 , PCD_SNG_BUF, 0xC0); // EP1 CDC OUT: 0x01, 64Bytes
 8008158:	23c0      	movs	r3, #192	; 0xc0
 800815a:	2200      	movs	r2, #0
 800815c:	2101      	movs	r1, #1
 800815e:	f8d4 02c0 	ldr.w	r0, [r4, #704]	; 0x2c0
 8008162:	f7fc ff89 	bl	8005078 <HAL_PCDEx_PMAConfig>
  HAL_PCDEx_PMAConfig((PCD_HandleTypeDef*)pdev->pData , 0x81 , PCD_SNG_BUF, 0x100); // EP1 HID IN: 0x81, 64Bytes
 8008166:	f44f 7380 	mov.w	r3, #256	; 0x100
 800816a:	2200      	movs	r2, #0
 800816c:	2181      	movs	r1, #129	; 0x81
 800816e:	f8d4 02c0 	ldr.w	r0, [r4, #704]	; 0x2c0
 8008172:	f7fc ff81 	bl	8005078 <HAL_PCDEx_PMAConfig>
  HAL_PCDEx_PMAConfig((PCD_HandleTypeDef*)pdev->pData , 0x82 , PCD_SNG_BUF, 0x140); // EP2 CDC IN: 0x82, 64Bytes
 8008176:	f44f 73a0 	mov.w	r3, #320	; 0x140
 800817a:	2200      	movs	r2, #0
 800817c:	2182      	movs	r1, #130	; 0x82
 800817e:	f8d4 02c0 	ldr.w	r0, [r4, #704]	; 0x2c0
 8008182:	f7fc ff79 	bl	8005078 <HAL_PCDEx_PMAConfig>
  HAL_PCDEx_PMAConfig((PCD_HandleTypeDef*)pdev->pData , 0x83 , PCD_SNG_BUF, 0x180); // EP3 CDC IN: 0x83, 64Bytes
 8008186:	f44f 73c0 	mov.w	r3, #384	; 0x180
 800818a:	2200      	movs	r2, #0
 800818c:	2183      	movs	r1, #131	; 0x83
 800818e:	f8d4 02c0 	ldr.w	r0, [r4, #704]	; 0x2c0
 8008192:	f7fc ff71 	bl	8005078 <HAL_PCDEx_PMAConfig>
}
 8008196:	2000      	movs	r0, #0
 8008198:	bd10      	pop	{r4, pc}
    Error_Handler( );
 800819a:	f7f8 fc01 	bl	80009a0 <Error_Handler>
 800819e:	e7cd      	b.n	800813c <USBD_LL_Init+0x28>
 80081a0:	20002a74 	.word	0x20002a74
 80081a4:	40005c00 	.word	0x40005c00

080081a8 <USBD_LL_Start>:
{
 80081a8:	b508      	push	{r3, lr}
  hal_status = HAL_PCD_Start(pdev->pData);
 80081aa:	f8d0 02c0 	ldr.w	r0, [r0, #704]	; 0x2c0
 80081ae:	f7fc f86a 	bl	8004286 <HAL_PCD_Start>
  usb_status =  USBD_Get_USB_Status(hal_status);
 80081b2:	f7ff ff36 	bl	8008022 <USBD_Get_USB_Status>
}
 80081b6:	bd08      	pop	{r3, pc}

080081b8 <USBD_LL_OpenEP>:
{
 80081b8:	b510      	push	{r4, lr}
 80081ba:	4614      	mov	r4, r2
 80081bc:	461a      	mov	r2, r3
  hal_status = HAL_PCD_EP_Open(pdev->pData, ep_addr, ep_mps, ep_type);
 80081be:	4623      	mov	r3, r4
 80081c0:	f8d0 02c0 	ldr.w	r0, [r0, #704]	; 0x2c0
 80081c4:	f7fc fe1f 	bl	8004e06 <HAL_PCD_EP_Open>
  usb_status =  USBD_Get_USB_Status(hal_status);
 80081c8:	f7ff ff2b 	bl	8008022 <USBD_Get_USB_Status>
}
 80081cc:	bd10      	pop	{r4, pc}

080081ce <USBD_LL_CloseEP>:
{
 80081ce:	b508      	push	{r3, lr}
  hal_status = HAL_PCD_EP_Close(pdev->pData, ep_addr);
 80081d0:	f8d0 02c0 	ldr.w	r0, [r0, #704]	; 0x2c0
 80081d4:	f7fc fe54 	bl	8004e80 <HAL_PCD_EP_Close>
  usb_status =  USBD_Get_USB_Status(hal_status);
 80081d8:	f7ff ff23 	bl	8008022 <USBD_Get_USB_Status>
}
 80081dc:	bd08      	pop	{r3, pc}

080081de <USBD_LL_StallEP>:
{
 80081de:	b508      	push	{r3, lr}
  hal_status = HAL_PCD_EP_SetStall(pdev->pData, ep_addr);
 80081e0:	f8d0 02c0 	ldr.w	r0, [r0, #704]	; 0x2c0
 80081e4:	f7fc fec9 	bl	8004f7a <HAL_PCD_EP_SetStall>
  usb_status =  USBD_Get_USB_Status(hal_status);
 80081e8:	f7ff ff1b 	bl	8008022 <USBD_Get_USB_Status>
}
 80081ec:	bd08      	pop	{r3, pc}

080081ee <USBD_LL_ClearStallEP>:
{
 80081ee:	b508      	push	{r3, lr}
  hal_status = HAL_PCD_EP_ClrStall(pdev->pData, ep_addr);
 80081f0:	f8d0 02c0 	ldr.w	r0, [r0, #704]	; 0x2c0
 80081f4:	f7fc ff01 	bl	8004ffa <HAL_PCD_EP_ClrStall>
  usb_status =  USBD_Get_USB_Status(hal_status);
 80081f8:	f7ff ff13 	bl	8008022 <USBD_Get_USB_Status>
}
 80081fc:	bd08      	pop	{r3, pc}

080081fe <USBD_LL_IsStallEP>:
  PCD_HandleTypeDef *hpcd = (PCD_HandleTypeDef*) pdev->pData;
 80081fe:	f8d0 32c0 	ldr.w	r3, [r0, #704]	; 0x2c0
  if((ep_addr & 0x80) == 0x80)
 8008202:	f011 0f80 	tst.w	r1, #128	; 0x80
 8008206:	d108      	bne.n	800821a <USBD_LL_IsStallEP+0x1c>
    return hpcd->OUT_ep[ep_addr & 0x7F].is_stall;
 8008208:	f001 017f 	and.w	r1, r1, #127	; 0x7f
 800820c:	eb01 0181 	add.w	r1, r1, r1, lsl #2
 8008210:	eb03 01c1 	add.w	r1, r3, r1, lsl #3
 8008214:	f891 0152 	ldrb.w	r0, [r1, #338]	; 0x152
}
 8008218:	4770      	bx	lr
    return hpcd->IN_ep[ep_addr & 0x7F].is_stall;
 800821a:	f001 017f 	and.w	r1, r1, #127	; 0x7f
 800821e:	eb01 0181 	add.w	r1, r1, r1, lsl #2
 8008222:	eb03 01c1 	add.w	r1, r3, r1, lsl #3
 8008226:	7c88      	ldrb	r0, [r1, #18]
 8008228:	4770      	bx	lr

0800822a <USBD_LL_SetUSBAddress>:
{
 800822a:	b508      	push	{r3, lr}
  hal_status = HAL_PCD_SetAddress(pdev->pData, dev_addr);
 800822c:	f8d0 02c0 	ldr.w	r0, [r0, #704]	; 0x2c0
 8008230:	f7fc fcfe 	bl	8004c30 <HAL_PCD_SetAddress>
  usb_status =  USBD_Get_USB_Status(hal_status);
 8008234:	f7ff fef5 	bl	8008022 <USBD_Get_USB_Status>
}
 8008238:	bd08      	pop	{r3, pc}

0800823a <USBD_LL_Transmit>:
{
 800823a:	b508      	push	{r3, lr}
  hal_status = HAL_PCD_EP_Transmit(pdev->pData, ep_addr, pbuf, size);
 800823c:	f8d0 02c0 	ldr.w	r0, [r0, #704]	; 0x2c0
 8008240:	f7fc fe7a 	bl	8004f38 <HAL_PCD_EP_Transmit>
  usb_status =  USBD_Get_USB_Status(hal_status);
 8008244:	f7ff feed 	bl	8008022 <USBD_Get_USB_Status>
}
 8008248:	bd08      	pop	{r3, pc}

0800824a <USBD_LL_PrepareReceive>:
{
 800824a:	b508      	push	{r3, lr}
  hal_status = HAL_PCD_EP_Receive(pdev->pData, ep_addr, pbuf, size);
 800824c:	f8d0 02c0 	ldr.w	r0, [r0, #704]	; 0x2c0
 8008250:	f7fc fe4c 	bl	8004eec <HAL_PCD_EP_Receive>
  usb_status =  USBD_Get_USB_Status(hal_status);
 8008254:	f7ff fee5 	bl	8008022 <USBD_Get_USB_Status>
}
 8008258:	bd08      	pop	{r3, pc}

0800825a <USBD_LL_GetRxDataSize>:
{
 800825a:	b508      	push	{r3, lr}
  return HAL_PCD_EP_GetRxCount((PCD_HandleTypeDef*) pdev->pData, ep_addr);
 800825c:	f8d0 02c0 	ldr.w	r0, [r0, #704]	; 0x2c0
 8008260:	f7fc fe61 	bl	8004f26 <HAL_PCD_EP_GetRxCount>
}
 8008264:	bd08      	pop	{r3, pc}
	...

08008268 <USBD_static_malloc>:
}
 8008268:	4800      	ldr	r0, [pc, #0]	; (800826c <USBD_static_malloc+0x4>)
 800826a:	4770      	bx	lr
 800826c:	20001db0 	.word	0x20001db0

08008270 <USBD_static_free>:
}
 8008270:	4770      	bx	lr

08008272 <HAL_PCDEx_SetConnectionState>:
}
 8008272:	4770      	bx	lr

08008274 <__errno>:
 8008274:	4b01      	ldr	r3, [pc, #4]	; (800827c <__errno+0x8>)
 8008276:	6818      	ldr	r0, [r3, #0]
 8008278:	4770      	bx	lr
 800827a:	bf00      	nop
 800827c:	20000444 	.word	0x20000444

08008280 <__libc_init_array>:
 8008280:	b570      	push	{r4, r5, r6, lr}
 8008282:	2600      	movs	r6, #0
 8008284:	4d0c      	ldr	r5, [pc, #48]	; (80082b8 <__libc_init_array+0x38>)
 8008286:	4c0d      	ldr	r4, [pc, #52]	; (80082bc <__libc_init_array+0x3c>)
 8008288:	1b64      	subs	r4, r4, r5
 800828a:	10a4      	asrs	r4, r4, #2
 800828c:	42a6      	cmp	r6, r4
 800828e:	d109      	bne.n	80082a4 <__libc_init_array+0x24>
 8008290:	f000 fc8e 	bl	8008bb0 <_init>
 8008294:	2600      	movs	r6, #0
 8008296:	4d0a      	ldr	r5, [pc, #40]	; (80082c0 <__libc_init_array+0x40>)
 8008298:	4c0a      	ldr	r4, [pc, #40]	; (80082c4 <__libc_init_array+0x44>)
 800829a:	1b64      	subs	r4, r4, r5
 800829c:	10a4      	asrs	r4, r4, #2
 800829e:	42a6      	cmp	r6, r4
 80082a0:	d105      	bne.n	80082ae <__libc_init_array+0x2e>
 80082a2:	bd70      	pop	{r4, r5, r6, pc}
 80082a4:	f855 3b04 	ldr.w	r3, [r5], #4
 80082a8:	4798      	blx	r3
 80082aa:	3601      	adds	r6, #1
 80082ac:	e7ee      	b.n	800828c <__libc_init_array+0xc>
 80082ae:	f855 3b04 	ldr.w	r3, [r5], #4
 80082b2:	4798      	blx	r3
 80082b4:	3601      	adds	r6, #1
 80082b6:	e7f2      	b.n	800829e <__libc_init_array+0x1e>
 80082b8:	080099bc 	.word	0x080099bc
 80082bc:	080099bc 	.word	0x080099bc
 80082c0:	080099bc 	.word	0x080099bc
 80082c4:	080099c0 	.word	0x080099c0

080082c8 <memcpy>:
 80082c8:	440a      	add	r2, r1
 80082ca:	4291      	cmp	r1, r2
 80082cc:	f100 33ff 	add.w	r3, r0, #4294967295
 80082d0:	d100      	bne.n	80082d4 <memcpy+0xc>
 80082d2:	4770      	bx	lr
 80082d4:	b510      	push	{r4, lr}
 80082d6:	f811 4b01 	ldrb.w	r4, [r1], #1
 80082da:	4291      	cmp	r1, r2
 80082dc:	f803 4f01 	strb.w	r4, [r3, #1]!
 80082e0:	d1f9      	bne.n	80082d6 <memcpy+0xe>
 80082e2:	bd10      	pop	{r4, pc}

080082e4 <memset>:
 80082e4:	4603      	mov	r3, r0
 80082e6:	4402      	add	r2, r0
 80082e8:	4293      	cmp	r3, r2
 80082ea:	d100      	bne.n	80082ee <memset+0xa>
 80082ec:	4770      	bx	lr
 80082ee:	f803 1b01 	strb.w	r1, [r3], #1
 80082f2:	e7f9      	b.n	80082e8 <memset+0x4>

080082f4 <sniprintf>:
 80082f4:	b40c      	push	{r2, r3}
 80082f6:	b530      	push	{r4, r5, lr}
 80082f8:	4b17      	ldr	r3, [pc, #92]	; (8008358 <sniprintf+0x64>)
 80082fa:	1e0c      	subs	r4, r1, #0
 80082fc:	681d      	ldr	r5, [r3, #0]
 80082fe:	b09d      	sub	sp, #116	; 0x74
 8008300:	da08      	bge.n	8008314 <sniprintf+0x20>
 8008302:	238b      	movs	r3, #139	; 0x8b
 8008304:	f04f 30ff 	mov.w	r0, #4294967295
 8008308:	602b      	str	r3, [r5, #0]
 800830a:	b01d      	add	sp, #116	; 0x74
 800830c:	e8bd 4030 	ldmia.w	sp!, {r4, r5, lr}
 8008310:	b002      	add	sp, #8
 8008312:	4770      	bx	lr
 8008314:	f44f 7302 	mov.w	r3, #520	; 0x208
 8008318:	f8ad 3014 	strh.w	r3, [sp, #20]
 800831c:	bf0c      	ite	eq
 800831e:	4623      	moveq	r3, r4
 8008320:	f104 33ff 	addne.w	r3, r4, #4294967295
 8008324:	9304      	str	r3, [sp, #16]
 8008326:	9307      	str	r3, [sp, #28]
 8008328:	f64f 73ff 	movw	r3, #65535	; 0xffff
 800832c:	9002      	str	r0, [sp, #8]
 800832e:	9006      	str	r0, [sp, #24]
 8008330:	f8ad 3016 	strh.w	r3, [sp, #22]
 8008334:	4628      	mov	r0, r5
 8008336:	ab21      	add	r3, sp, #132	; 0x84
 8008338:	9a20      	ldr	r2, [sp, #128]	; 0x80
 800833a:	a902      	add	r1, sp, #8
 800833c:	9301      	str	r3, [sp, #4]
 800833e:	f000 f887 	bl	8008450 <_svfiprintf_r>
 8008342:	1c43      	adds	r3, r0, #1
 8008344:	bfbc      	itt	lt
 8008346:	238b      	movlt	r3, #139	; 0x8b
 8008348:	602b      	strlt	r3, [r5, #0]
 800834a:	2c00      	cmp	r4, #0
 800834c:	d0dd      	beq.n	800830a <sniprintf+0x16>
 800834e:	2200      	movs	r2, #0
 8008350:	9b02      	ldr	r3, [sp, #8]
 8008352:	701a      	strb	r2, [r3, #0]
 8008354:	e7d9      	b.n	800830a <sniprintf+0x16>
 8008356:	bf00      	nop
 8008358:	20000444 	.word	0x20000444

0800835c <strchr>:
 800835c:	4603      	mov	r3, r0
 800835e:	b2c9      	uxtb	r1, r1
 8008360:	4618      	mov	r0, r3
 8008362:	f813 2b01 	ldrb.w	r2, [r3], #1
 8008366:	b112      	cbz	r2, 800836e <strchr+0x12>
 8008368:	428a      	cmp	r2, r1
 800836a:	d1f9      	bne.n	8008360 <strchr+0x4>
 800836c:	4770      	bx	lr
 800836e:	2900      	cmp	r1, #0
 8008370:	bf18      	it	ne
 8008372:	2000      	movne	r0, #0
 8008374:	4770      	bx	lr

08008376 <strncmp>:
 8008376:	b510      	push	{r4, lr}
 8008378:	b16a      	cbz	r2, 8008396 <strncmp+0x20>
 800837a:	3901      	subs	r1, #1
 800837c:	1884      	adds	r4, r0, r2
 800837e:	f810 3b01 	ldrb.w	r3, [r0], #1
 8008382:	f811 2f01 	ldrb.w	r2, [r1, #1]!
 8008386:	4293      	cmp	r3, r2
 8008388:	d103      	bne.n	8008392 <strncmp+0x1c>
 800838a:	42a0      	cmp	r0, r4
 800838c:	d001      	beq.n	8008392 <strncmp+0x1c>
 800838e:	2b00      	cmp	r3, #0
 8008390:	d1f5      	bne.n	800837e <strncmp+0x8>
 8008392:	1a98      	subs	r0, r3, r2
 8008394:	bd10      	pop	{r4, pc}
 8008396:	4610      	mov	r0, r2
 8008398:	e7fc      	b.n	8008394 <strncmp+0x1e>

0800839a <__ssputs_r>:
 800839a:	e92d 47f0 	stmdb	sp!, {r4, r5, r6, r7, r8, r9, sl, lr}
 800839e:	688e      	ldr	r6, [r1, #8]
 80083a0:	4682      	mov	sl, r0
 80083a2:	429e      	cmp	r6, r3
 80083a4:	460c      	mov	r4, r1
 80083a6:	4690      	mov	r8, r2
 80083a8:	461f      	mov	r7, r3
 80083aa:	d838      	bhi.n	800841e <__ssputs_r+0x84>
 80083ac:	898a      	ldrh	r2, [r1, #12]
 80083ae:	f412 6f90 	tst.w	r2, #1152	; 0x480
 80083b2:	d032      	beq.n	800841a <__ssputs_r+0x80>
 80083b4:	6825      	ldr	r5, [r4, #0]
 80083b6:	6909      	ldr	r1, [r1, #16]
 80083b8:	3301      	adds	r3, #1
 80083ba:	eba5 0901 	sub.w	r9, r5, r1
 80083be:	6965      	ldr	r5, [r4, #20]
 80083c0:	444b      	add	r3, r9
 80083c2:	eb05 0545 	add.w	r5, r5, r5, lsl #1
 80083c6:	eb05 75d5 	add.w	r5, r5, r5, lsr #31
 80083ca:	106d      	asrs	r5, r5, #1
 80083cc:	429d      	cmp	r5, r3
 80083ce:	bf38      	it	cc
 80083d0:	461d      	movcc	r5, r3
 80083d2:	0553      	lsls	r3, r2, #21
 80083d4:	d531      	bpl.n	800843a <__ssputs_r+0xa0>
 80083d6:	4629      	mov	r1, r5
 80083d8:	f000 fb44 	bl	8008a64 <_malloc_r>
 80083dc:	4606      	mov	r6, r0
 80083de:	b950      	cbnz	r0, 80083f6 <__ssputs_r+0x5c>
 80083e0:	230c      	movs	r3, #12
 80083e2:	f04f 30ff 	mov.w	r0, #4294967295
 80083e6:	f8ca 3000 	str.w	r3, [sl]
 80083ea:	89a3      	ldrh	r3, [r4, #12]
 80083ec:	f043 0340 	orr.w	r3, r3, #64	; 0x40
 80083f0:	81a3      	strh	r3, [r4, #12]
 80083f2:	e8bd 87f0 	ldmia.w	sp!, {r4, r5, r6, r7, r8, r9, sl, pc}
 80083f6:	464a      	mov	r2, r9
 80083f8:	6921      	ldr	r1, [r4, #16]
 80083fa:	f7ff ff65 	bl	80082c8 <memcpy>
 80083fe:	89a3      	ldrh	r3, [r4, #12]
 8008400:	f423 6390 	bic.w	r3, r3, #1152	; 0x480
 8008404:	f043 0380 	orr.w	r3, r3, #128	; 0x80
 8008408:	81a3      	strh	r3, [r4, #12]
 800840a:	6126      	str	r6, [r4, #16]
 800840c:	444e      	add	r6, r9
 800840e:	6026      	str	r6, [r4, #0]
 8008410:	463e      	mov	r6, r7
 8008412:	6165      	str	r5, [r4, #20]
 8008414:	eba5 0509 	sub.w	r5, r5, r9
 8008418:	60a5      	str	r5, [r4, #8]
 800841a:	42be      	cmp	r6, r7
 800841c:	d900      	bls.n	8008420 <__ssputs_r+0x86>
 800841e:	463e      	mov	r6, r7
 8008420:	4632      	mov	r2, r6
 8008422:	4641      	mov	r1, r8
 8008424:	6820      	ldr	r0, [r4, #0]
 8008426:	f000 fab7 	bl	8008998 <memmove>
 800842a:	68a3      	ldr	r3, [r4, #8]
 800842c:	6822      	ldr	r2, [r4, #0]
 800842e:	1b9b      	subs	r3, r3, r6
 8008430:	4432      	add	r2, r6
 8008432:	2000      	movs	r0, #0
 8008434:	60a3      	str	r3, [r4, #8]
 8008436:	6022      	str	r2, [r4, #0]
 8008438:	e7db      	b.n	80083f2 <__ssputs_r+0x58>
 800843a:	462a      	mov	r2, r5
 800843c:	f000 fb6c 	bl	8008b18 <_realloc_r>
 8008440:	4606      	mov	r6, r0
 8008442:	2800      	cmp	r0, #0
 8008444:	d1e1      	bne.n	800840a <__ssputs_r+0x70>
 8008446:	4650      	mov	r0, sl
 8008448:	6921      	ldr	r1, [r4, #16]
 800844a:	f000 fabf 	bl	80089cc <_free_r>
 800844e:	e7c7      	b.n	80083e0 <__ssputs_r+0x46>

08008450 <_svfiprintf_r>:
 8008450:	e92d 4ff0 	stmdb	sp!, {r4, r5, r6, r7, r8, r9, sl, fp, lr}
 8008454:	4698      	mov	r8, r3
 8008456:	898b      	ldrh	r3, [r1, #12]
 8008458:	4607      	mov	r7, r0
 800845a:	061b      	lsls	r3, r3, #24
 800845c:	460d      	mov	r5, r1
 800845e:	4614      	mov	r4, r2
 8008460:	b09d      	sub	sp, #116	; 0x74
 8008462:	d50e      	bpl.n	8008482 <_svfiprintf_r+0x32>
 8008464:	690b      	ldr	r3, [r1, #16]
 8008466:	b963      	cbnz	r3, 8008482 <_svfiprintf_r+0x32>
 8008468:	2140      	movs	r1, #64	; 0x40
 800846a:	f000 fafb 	bl	8008a64 <_malloc_r>
 800846e:	6028      	str	r0, [r5, #0]
 8008470:	6128      	str	r0, [r5, #16]
 8008472:	b920      	cbnz	r0, 800847e <_svfiprintf_r+0x2e>
 8008474:	230c      	movs	r3, #12
 8008476:	603b      	str	r3, [r7, #0]
 8008478:	f04f 30ff 	mov.w	r0, #4294967295
 800847c:	e0d1      	b.n	8008622 <_svfiprintf_r+0x1d2>
 800847e:	2340      	movs	r3, #64	; 0x40
 8008480:	616b      	str	r3, [r5, #20]
 8008482:	2300      	movs	r3, #0
 8008484:	9309      	str	r3, [sp, #36]	; 0x24
 8008486:	2320      	movs	r3, #32
 8008488:	f88d 3029 	strb.w	r3, [sp, #41]	; 0x29
 800848c:	2330      	movs	r3, #48	; 0x30
 800848e:	f04f 0901 	mov.w	r9, #1
 8008492:	f8cd 800c 	str.w	r8, [sp, #12]
 8008496:	f8df 81a4 	ldr.w	r8, [pc, #420]	; 800863c <_svfiprintf_r+0x1ec>
 800849a:	f88d 302a 	strb.w	r3, [sp, #42]	; 0x2a
 800849e:	4623      	mov	r3, r4
 80084a0:	469a      	mov	sl, r3
 80084a2:	f813 2b01 	ldrb.w	r2, [r3], #1
 80084a6:	b10a      	cbz	r2, 80084ac <_svfiprintf_r+0x5c>
 80084a8:	2a25      	cmp	r2, #37	; 0x25
 80084aa:	d1f9      	bne.n	80084a0 <_svfiprintf_r+0x50>
 80084ac:	ebba 0b04 	subs.w	fp, sl, r4
 80084b0:	d00b      	beq.n	80084ca <_svfiprintf_r+0x7a>
 80084b2:	465b      	mov	r3, fp
 80084b4:	4622      	mov	r2, r4
 80084b6:	4629      	mov	r1, r5
 80084b8:	4638      	mov	r0, r7
 80084ba:	f7ff ff6e 	bl	800839a <__ssputs_r>
 80084be:	3001      	adds	r0, #1
 80084c0:	f000 80aa 	beq.w	8008618 <_svfiprintf_r+0x1c8>
 80084c4:	9a09      	ldr	r2, [sp, #36]	; 0x24
 80084c6:	445a      	add	r2, fp
 80084c8:	9209      	str	r2, [sp, #36]	; 0x24
 80084ca:	f89a 3000 	ldrb.w	r3, [sl]
 80084ce:	2b00      	cmp	r3, #0
 80084d0:	f000 80a2 	beq.w	8008618 <_svfiprintf_r+0x1c8>
 80084d4:	2300      	movs	r3, #0
 80084d6:	f04f 32ff 	mov.w	r2, #4294967295
 80084da:	e9cd 2305 	strd	r2, r3, [sp, #20]
 80084de:	f10a 0a01 	add.w	sl, sl, #1
 80084e2:	9304      	str	r3, [sp, #16]
 80084e4:	9307      	str	r3, [sp, #28]
 80084e6:	f88d 3053 	strb.w	r3, [sp, #83]	; 0x53
 80084ea:	931a      	str	r3, [sp, #104]	; 0x68
 80084ec:	4654      	mov	r4, sl
 80084ee:	2205      	movs	r2, #5
 80084f0:	f814 1b01 	ldrb.w	r1, [r4], #1
 80084f4:	4851      	ldr	r0, [pc, #324]	; (800863c <_svfiprintf_r+0x1ec>)
 80084f6:	f000 fa41 	bl	800897c <memchr>
 80084fa:	9a04      	ldr	r2, [sp, #16]
 80084fc:	b9d8      	cbnz	r0, 8008536 <_svfiprintf_r+0xe6>
 80084fe:	06d0      	lsls	r0, r2, #27
 8008500:	bf44      	itt	mi
 8008502:	2320      	movmi	r3, #32
 8008504:	f88d 3053 	strbmi.w	r3, [sp, #83]	; 0x53
 8008508:	0711      	lsls	r1, r2, #28
 800850a:	bf44      	itt	mi
 800850c:	232b      	movmi	r3, #43	; 0x2b
 800850e:	f88d 3053 	strbmi.w	r3, [sp, #83]	; 0x53
 8008512:	f89a 3000 	ldrb.w	r3, [sl]
 8008516:	2b2a      	cmp	r3, #42	; 0x2a
 8008518:	d015      	beq.n	8008546 <_svfiprintf_r+0xf6>
 800851a:	4654      	mov	r4, sl
 800851c:	2000      	movs	r0, #0
 800851e:	f04f 0c0a 	mov.w	ip, #10
 8008522:	9a07      	ldr	r2, [sp, #28]
 8008524:	4621      	mov	r1, r4
 8008526:	f811 3b01 	ldrb.w	r3, [r1], #1
 800852a:	3b30      	subs	r3, #48	; 0x30
 800852c:	2b09      	cmp	r3, #9
 800852e:	d94e      	bls.n	80085ce <_svfiprintf_r+0x17e>
 8008530:	b1b0      	cbz	r0, 8008560 <_svfiprintf_r+0x110>
 8008532:	9207      	str	r2, [sp, #28]
 8008534:	e014      	b.n	8008560 <_svfiprintf_r+0x110>
 8008536:	eba0 0308 	sub.w	r3, r0, r8
 800853a:	fa09 f303 	lsl.w	r3, r9, r3
 800853e:	4313      	orrs	r3, r2
 8008540:	46a2      	mov	sl, r4
 8008542:	9304      	str	r3, [sp, #16]
 8008544:	e7d2      	b.n	80084ec <_svfiprintf_r+0x9c>
 8008546:	9b03      	ldr	r3, [sp, #12]
 8008548:	1d19      	adds	r1, r3, #4
 800854a:	681b      	ldr	r3, [r3, #0]
 800854c:	9103      	str	r1, [sp, #12]
 800854e:	2b00      	cmp	r3, #0
 8008550:	bfbb      	ittet	lt
 8008552:	425b      	neglt	r3, r3
 8008554:	f042 0202 	orrlt.w	r2, r2, #2
 8008558:	9307      	strge	r3, [sp, #28]
 800855a:	9307      	strlt	r3, [sp, #28]
 800855c:	bfb8      	it	lt
 800855e:	9204      	strlt	r2, [sp, #16]
 8008560:	7823      	ldrb	r3, [r4, #0]
 8008562:	2b2e      	cmp	r3, #46	; 0x2e
 8008564:	d10c      	bne.n	8008580 <_svfiprintf_r+0x130>
 8008566:	7863      	ldrb	r3, [r4, #1]
 8008568:	2b2a      	cmp	r3, #42	; 0x2a
 800856a:	d135      	bne.n	80085d8 <_svfiprintf_r+0x188>
 800856c:	9b03      	ldr	r3, [sp, #12]
 800856e:	3402      	adds	r4, #2
 8008570:	1d1a      	adds	r2, r3, #4
 8008572:	681b      	ldr	r3, [r3, #0]
 8008574:	9203      	str	r2, [sp, #12]
 8008576:	2b00      	cmp	r3, #0
 8008578:	bfb8      	it	lt
 800857a:	f04f 33ff 	movlt.w	r3, #4294967295
 800857e:	9305      	str	r3, [sp, #20]
 8008580:	f8df a0c8 	ldr.w	sl, [pc, #200]	; 800864c <_svfiprintf_r+0x1fc>
 8008584:	2203      	movs	r2, #3
 8008586:	4650      	mov	r0, sl
 8008588:	7821      	ldrb	r1, [r4, #0]
 800858a:	f000 f9f7 	bl	800897c <memchr>
 800858e:	b140      	cbz	r0, 80085a2 <_svfiprintf_r+0x152>
 8008590:	2340      	movs	r3, #64	; 0x40
 8008592:	eba0 000a 	sub.w	r0, r0, sl
 8008596:	fa03 f000 	lsl.w	r0, r3, r0
 800859a:	9b04      	ldr	r3, [sp, #16]
 800859c:	3401      	adds	r4, #1
 800859e:	4303      	orrs	r3, r0
 80085a0:	9304      	str	r3, [sp, #16]
 80085a2:	f814 1b01 	ldrb.w	r1, [r4], #1
 80085a6:	2206      	movs	r2, #6
 80085a8:	4825      	ldr	r0, [pc, #148]	; (8008640 <_svfiprintf_r+0x1f0>)
 80085aa:	f88d 1028 	strb.w	r1, [sp, #40]	; 0x28
 80085ae:	f000 f9e5 	bl	800897c <memchr>
 80085b2:	2800      	cmp	r0, #0
 80085b4:	d038      	beq.n	8008628 <_svfiprintf_r+0x1d8>
 80085b6:	4b23      	ldr	r3, [pc, #140]	; (8008644 <_svfiprintf_r+0x1f4>)
 80085b8:	bb1b      	cbnz	r3, 8008602 <_svfiprintf_r+0x1b2>
 80085ba:	9b03      	ldr	r3, [sp, #12]
 80085bc:	3307      	adds	r3, #7
 80085be:	f023 0307 	bic.w	r3, r3, #7
 80085c2:	3308      	adds	r3, #8
 80085c4:	9303      	str	r3, [sp, #12]
 80085c6:	9b09      	ldr	r3, [sp, #36]	; 0x24
 80085c8:	4433      	add	r3, r6
 80085ca:	9309      	str	r3, [sp, #36]	; 0x24
 80085cc:	e767      	b.n	800849e <_svfiprintf_r+0x4e>
 80085ce:	460c      	mov	r4, r1
 80085d0:	2001      	movs	r0, #1
 80085d2:	fb0c 3202 	mla	r2, ip, r2, r3
 80085d6:	e7a5      	b.n	8008524 <_svfiprintf_r+0xd4>
 80085d8:	2300      	movs	r3, #0
 80085da:	f04f 0c0a 	mov.w	ip, #10
 80085de:	4619      	mov	r1, r3
 80085e0:	3401      	adds	r4, #1
 80085e2:	9305      	str	r3, [sp, #20]
 80085e4:	4620      	mov	r0, r4
 80085e6:	f810 2b01 	ldrb.w	r2, [r0], #1
 80085ea:	3a30      	subs	r2, #48	; 0x30
 80085ec:	2a09      	cmp	r2, #9
 80085ee:	d903      	bls.n	80085f8 <_svfiprintf_r+0x1a8>
 80085f0:	2b00      	cmp	r3, #0
 80085f2:	d0c5      	beq.n	8008580 <_svfiprintf_r+0x130>
 80085f4:	9105      	str	r1, [sp, #20]
 80085f6:	e7c3      	b.n	8008580 <_svfiprintf_r+0x130>
 80085f8:	4604      	mov	r4, r0
 80085fa:	2301      	movs	r3, #1
 80085fc:	fb0c 2101 	mla	r1, ip, r1, r2
 8008600:	e7f0      	b.n	80085e4 <_svfiprintf_r+0x194>
 8008602:	ab03      	add	r3, sp, #12
 8008604:	9300      	str	r3, [sp, #0]
 8008606:	462a      	mov	r2, r5
 8008608:	4638      	mov	r0, r7
 800860a:	4b0f      	ldr	r3, [pc, #60]	; (8008648 <_svfiprintf_r+0x1f8>)
 800860c:	a904      	add	r1, sp, #16
 800860e:	f3af 8000 	nop.w
 8008612:	1c42      	adds	r2, r0, #1
 8008614:	4606      	mov	r6, r0
 8008616:	d1d6      	bne.n	80085c6 <_svfiprintf_r+0x176>
 8008618:	89ab      	ldrh	r3, [r5, #12]
 800861a:	065b      	lsls	r3, r3, #25
 800861c:	f53f af2c 	bmi.w	8008478 <_svfiprintf_r+0x28>
 8008620:	9809      	ldr	r0, [sp, #36]	; 0x24
 8008622:	b01d      	add	sp, #116	; 0x74
 8008624:	e8bd 8ff0 	ldmia.w	sp!, {r4, r5, r6, r7, r8, r9, sl, fp, pc}
 8008628:	ab03      	add	r3, sp, #12
 800862a:	9300      	str	r3, [sp, #0]
 800862c:	462a      	mov	r2, r5
 800862e:	4638      	mov	r0, r7
 8008630:	4b05      	ldr	r3, [pc, #20]	; (8008648 <_svfiprintf_r+0x1f8>)
 8008632:	a904      	add	r1, sp, #16
 8008634:	f000 f87c 	bl	8008730 <_printf_i>
 8008638:	e7eb      	b.n	8008612 <_svfiprintf_r+0x1c2>
 800863a:	bf00      	nop
 800863c:	08009986 	.word	0x08009986
 8008640:	08009990 	.word	0x08009990
 8008644:	00000000 	.word	0x00000000
 8008648:	0800839b 	.word	0x0800839b
 800864c:	0800998c 	.word	0x0800998c

08008650 <_printf_common>:
 8008650:	e92d 47f0 	stmdb	sp!, {r4, r5, r6, r7, r8, r9, sl, lr}
 8008654:	4616      	mov	r6, r2
 8008656:	4699      	mov	r9, r3
 8008658:	688a      	ldr	r2, [r1, #8]
 800865a:	690b      	ldr	r3, [r1, #16]
 800865c:	4607      	mov	r7, r0
 800865e:	4293      	cmp	r3, r2
 8008660:	bfb8      	it	lt
 8008662:	4613      	movlt	r3, r2
 8008664:	6033      	str	r3, [r6, #0]
 8008666:	f891 2043 	ldrb.w	r2, [r1, #67]	; 0x43
 800866a:	460c      	mov	r4, r1
 800866c:	f8dd 8020 	ldr.w	r8, [sp, #32]
 8008670:	b10a      	cbz	r2, 8008676 <_printf_common+0x26>
 8008672:	3301      	adds	r3, #1
 8008674:	6033      	str	r3, [r6, #0]
 8008676:	6823      	ldr	r3, [r4, #0]
 8008678:	0699      	lsls	r1, r3, #26
 800867a:	bf42      	ittt	mi
 800867c:	6833      	ldrmi	r3, [r6, #0]
 800867e:	3302      	addmi	r3, #2
 8008680:	6033      	strmi	r3, [r6, #0]
 8008682:	6825      	ldr	r5, [r4, #0]
 8008684:	f015 0506 	ands.w	r5, r5, #6
 8008688:	d106      	bne.n	8008698 <_printf_common+0x48>
 800868a:	f104 0a19 	add.w	sl, r4, #25
 800868e:	68e3      	ldr	r3, [r4, #12]
 8008690:	6832      	ldr	r2, [r6, #0]
 8008692:	1a9b      	subs	r3, r3, r2
 8008694:	42ab      	cmp	r3, r5
 8008696:	dc28      	bgt.n	80086ea <_printf_common+0x9a>
 8008698:	f894 2043 	ldrb.w	r2, [r4, #67]	; 0x43
 800869c:	1e13      	subs	r3, r2, #0
 800869e:	6822      	ldr	r2, [r4, #0]
 80086a0:	bf18      	it	ne
 80086a2:	2301      	movne	r3, #1
 80086a4:	0692      	lsls	r2, r2, #26
 80086a6:	d42d      	bmi.n	8008704 <_printf_common+0xb4>
 80086a8:	4649      	mov	r1, r9
 80086aa:	4638      	mov	r0, r7
 80086ac:	f104 0243 	add.w	r2, r4, #67	; 0x43
 80086b0:	47c0      	blx	r8
 80086b2:	3001      	adds	r0, #1
 80086b4:	d020      	beq.n	80086f8 <_printf_common+0xa8>
 80086b6:	6823      	ldr	r3, [r4, #0]
 80086b8:	68e5      	ldr	r5, [r4, #12]
 80086ba:	f003 0306 	and.w	r3, r3, #6
 80086be:	2b04      	cmp	r3, #4
 80086c0:	bf18      	it	ne
 80086c2:	2500      	movne	r5, #0
 80086c4:	6832      	ldr	r2, [r6, #0]
 80086c6:	f04f 0600 	mov.w	r6, #0
 80086ca:	68a3      	ldr	r3, [r4, #8]
 80086cc:	bf08      	it	eq
 80086ce:	1aad      	subeq	r5, r5, r2
 80086d0:	6922      	ldr	r2, [r4, #16]
 80086d2:	bf08      	it	eq
 80086d4:	ea25 75e5 	biceq.w	r5, r5, r5, asr #31
 80086d8:	4293      	cmp	r3, r2
 80086da:	bfc4      	itt	gt
 80086dc:	1a9b      	subgt	r3, r3, r2
 80086de:	18ed      	addgt	r5, r5, r3
 80086e0:	341a      	adds	r4, #26
 80086e2:	42b5      	cmp	r5, r6
 80086e4:	d11a      	bne.n	800871c <_printf_common+0xcc>
 80086e6:	2000      	movs	r0, #0
 80086e8:	e008      	b.n	80086fc <_printf_common+0xac>
 80086ea:	2301      	movs	r3, #1
 80086ec:	4652      	mov	r2, sl
 80086ee:	4649      	mov	r1, r9
 80086f0:	4638      	mov	r0, r7
 80086f2:	47c0      	blx	r8
 80086f4:	3001      	adds	r0, #1
 80086f6:	d103      	bne.n	8008700 <_printf_common+0xb0>
 80086f8:	f04f 30ff 	mov.w	r0, #4294967295
 80086fc:	e8bd 87f0 	ldmia.w	sp!, {r4, r5, r6, r7, r8, r9, sl, pc}
 8008700:	3501      	adds	r5, #1
 8008702:	e7c4      	b.n	800868e <_printf_common+0x3e>
 8008704:	2030      	movs	r0, #48	; 0x30
 8008706:	18e1      	adds	r1, r4, r3
 8008708:	f881 0043 	strb.w	r0, [r1, #67]	; 0x43
 800870c:	1c5a      	adds	r2, r3, #1
 800870e:	f894 1045 	ldrb.w	r1, [r4, #69]	; 0x45
 8008712:	4422      	add	r2, r4
 8008714:	3302      	adds	r3, #2
 8008716:	f882 1043 	strb.w	r1, [r2, #67]	; 0x43
 800871a:	e7c5      	b.n	80086a8 <_printf_common+0x58>
 800871c:	2301      	movs	r3, #1
 800871e:	4622      	mov	r2, r4
 8008720:	4649      	mov	r1, r9
 8008722:	4638      	mov	r0, r7
 8008724:	47c0      	blx	r8
 8008726:	3001      	adds	r0, #1
 8008728:	d0e6      	beq.n	80086f8 <_printf_common+0xa8>
 800872a:	3601      	adds	r6, #1
 800872c:	e7d9      	b.n	80086e2 <_printf_common+0x92>
	...

08008730 <_printf_i>:
 8008730:	e92d 47ff 	stmdb	sp!, {r0, r1, r2, r3, r4, r5, r6, r7, r8, r9, sl, lr}
 8008734:	460c      	mov	r4, r1
 8008736:	7e27      	ldrb	r7, [r4, #24]
 8008738:	4691      	mov	r9, r2
 800873a:	2f78      	cmp	r7, #120	; 0x78
 800873c:	4680      	mov	r8, r0
 800873e:	469a      	mov	sl, r3
 8008740:	990c      	ldr	r1, [sp, #48]	; 0x30
 8008742:	f104 0243 	add.w	r2, r4, #67	; 0x43
 8008746:	d807      	bhi.n	8008758 <_printf_i+0x28>
 8008748:	2f62      	cmp	r7, #98	; 0x62
 800874a:	d80a      	bhi.n	8008762 <_printf_i+0x32>
 800874c:	2f00      	cmp	r7, #0
 800874e:	f000 80d9 	beq.w	8008904 <_printf_i+0x1d4>
 8008752:	2f58      	cmp	r7, #88	; 0x58
 8008754:	f000 80a4 	beq.w	80088a0 <_printf_i+0x170>
 8008758:	f104 0642 	add.w	r6, r4, #66	; 0x42
 800875c:	f884 7042 	strb.w	r7, [r4, #66]	; 0x42
 8008760:	e03a      	b.n	80087d8 <_printf_i+0xa8>
 8008762:	f1a7 0363 	sub.w	r3, r7, #99	; 0x63
 8008766:	2b15      	cmp	r3, #21
 8008768:	d8f6      	bhi.n	8008758 <_printf_i+0x28>
 800876a:	a001      	add	r0, pc, #4	; (adr r0, 8008770 <_printf_i+0x40>)
 800876c:	f850 f023 	ldr.w	pc, [r0, r3, lsl #2]
 8008770:	080087c9 	.word	0x080087c9
 8008774:	080087dd 	.word	0x080087dd
 8008778:	08008759 	.word	0x08008759
 800877c:	08008759 	.word	0x08008759
 8008780:	08008759 	.word	0x08008759
 8008784:	08008759 	.word	0x08008759
 8008788:	080087dd 	.word	0x080087dd
 800878c:	08008759 	.word	0x08008759
 8008790:	08008759 	.word	0x08008759
 8008794:	08008759 	.word	0x08008759
 8008798:	08008759 	.word	0x08008759
 800879c:	080088eb 	.word	0x080088eb
 80087a0:	0800880d 	.word	0x0800880d
 80087a4:	080088cd 	.word	0x080088cd
 80087a8:	08008759 	.word	0x08008759
 80087ac:	08008759 	.word	0x08008759
 80087b0:	0800890d 	.word	0x0800890d
 80087b4:	08008759 	.word	0x08008759
 80087b8:	0800880d 	.word	0x0800880d
 80087bc:	08008759 	.word	0x08008759
 80087c0:	08008759 	.word	0x08008759
 80087c4:	080088d5 	.word	0x080088d5
 80087c8:	680b      	ldr	r3, [r1, #0]
 80087ca:	f104 0642 	add.w	r6, r4, #66	; 0x42
 80087ce:	1d1a      	adds	r2, r3, #4
 80087d0:	681b      	ldr	r3, [r3, #0]
 80087d2:	600a      	str	r2, [r1, #0]
 80087d4:	f884 3042 	strb.w	r3, [r4, #66]	; 0x42
 80087d8:	2301      	movs	r3, #1
 80087da:	e0a4      	b.n	8008926 <_printf_i+0x1f6>
 80087dc:	6825      	ldr	r5, [r4, #0]
 80087de:	6808      	ldr	r0, [r1, #0]
 80087e0:	062e      	lsls	r6, r5, #24
 80087e2:	f100 0304 	add.w	r3, r0, #4
 80087e6:	d50a      	bpl.n	80087fe <_printf_i+0xce>
 80087e8:	6805      	ldr	r5, [r0, #0]
 80087ea:	600b      	str	r3, [r1, #0]
 80087ec:	2d00      	cmp	r5, #0
 80087ee:	da03      	bge.n	80087f8 <_printf_i+0xc8>
 80087f0:	232d      	movs	r3, #45	; 0x2d
 80087f2:	426d      	negs	r5, r5
 80087f4:	f884 3043 	strb.w	r3, [r4, #67]	; 0x43
 80087f8:	230a      	movs	r3, #10
 80087fa:	485e      	ldr	r0, [pc, #376]	; (8008974 <_printf_i+0x244>)
 80087fc:	e019      	b.n	8008832 <_printf_i+0x102>
 80087fe:	f015 0f40 	tst.w	r5, #64	; 0x40
 8008802:	6805      	ldr	r5, [r0, #0]
 8008804:	600b      	str	r3, [r1, #0]
 8008806:	bf18      	it	ne
 8008808:	b22d      	sxthne	r5, r5
 800880a:	e7ef      	b.n	80087ec <_printf_i+0xbc>
 800880c:	680b      	ldr	r3, [r1, #0]
 800880e:	6825      	ldr	r5, [r4, #0]
 8008810:	1d18      	adds	r0, r3, #4
 8008812:	6008      	str	r0, [r1, #0]
 8008814:	0628      	lsls	r0, r5, #24
 8008816:	d501      	bpl.n	800881c <_printf_i+0xec>
 8008818:	681d      	ldr	r5, [r3, #0]
 800881a:	e002      	b.n	8008822 <_printf_i+0xf2>
 800881c:	0669      	lsls	r1, r5, #25
 800881e:	d5fb      	bpl.n	8008818 <_printf_i+0xe8>
 8008820:	881d      	ldrh	r5, [r3, #0]
 8008822:	2f6f      	cmp	r7, #111	; 0x6f
 8008824:	bf0c      	ite	eq
 8008826:	2308      	moveq	r3, #8
 8008828:	230a      	movne	r3, #10
 800882a:	4852      	ldr	r0, [pc, #328]	; (8008974 <_printf_i+0x244>)
 800882c:	2100      	movs	r1, #0
 800882e:	f884 1043 	strb.w	r1, [r4, #67]	; 0x43
 8008832:	6866      	ldr	r6, [r4, #4]
 8008834:	2e00      	cmp	r6, #0
 8008836:	bfa8      	it	ge
 8008838:	6821      	ldrge	r1, [r4, #0]
 800883a:	60a6      	str	r6, [r4, #8]
 800883c:	bfa4      	itt	ge
 800883e:	f021 0104 	bicge.w	r1, r1, #4
 8008842:	6021      	strge	r1, [r4, #0]
 8008844:	b90d      	cbnz	r5, 800884a <_printf_i+0x11a>
 8008846:	2e00      	cmp	r6, #0
 8008848:	d04d      	beq.n	80088e6 <_printf_i+0x1b6>
 800884a:	4616      	mov	r6, r2
 800884c:	fbb5 f1f3 	udiv	r1, r5, r3
 8008850:	fb03 5711 	mls	r7, r3, r1, r5
 8008854:	5dc7      	ldrb	r7, [r0, r7]
 8008856:	f806 7d01 	strb.w	r7, [r6, #-1]!
 800885a:	462f      	mov	r7, r5
 800885c:	42bb      	cmp	r3, r7
 800885e:	460d      	mov	r5, r1
 8008860:	d9f4      	bls.n	800884c <_printf_i+0x11c>
 8008862:	2b08      	cmp	r3, #8
 8008864:	d10b      	bne.n	800887e <_printf_i+0x14e>
 8008866:	6823      	ldr	r3, [r4, #0]
 8008868:	07df      	lsls	r7, r3, #31
 800886a:	d508      	bpl.n	800887e <_printf_i+0x14e>
 800886c:	6923      	ldr	r3, [r4, #16]
 800886e:	6861      	ldr	r1, [r4, #4]
 8008870:	4299      	cmp	r1, r3
 8008872:	bfde      	ittt	le
 8008874:	2330      	movle	r3, #48	; 0x30
 8008876:	f806 3c01 	strble.w	r3, [r6, #-1]
 800887a:	f106 36ff 	addle.w	r6, r6, #4294967295
 800887e:	1b92      	subs	r2, r2, r6
 8008880:	6122      	str	r2, [r4, #16]
 8008882:	464b      	mov	r3, r9
 8008884:	4621      	mov	r1, r4
 8008886:	4640      	mov	r0, r8
 8008888:	f8cd a000 	str.w	sl, [sp]
 800888c:	aa03      	add	r2, sp, #12
 800888e:	f7ff fedf 	bl	8008650 <_printf_common>
 8008892:	3001      	adds	r0, #1
 8008894:	d14c      	bne.n	8008930 <_printf_i+0x200>
 8008896:	f04f 30ff 	mov.w	r0, #4294967295
 800889a:	b004      	add	sp, #16
 800889c:	e8bd 87f0 	ldmia.w	sp!, {r4, r5, r6, r7, r8, r9, sl, pc}
 80088a0:	4834      	ldr	r0, [pc, #208]	; (8008974 <_printf_i+0x244>)
 80088a2:	f884 7045 	strb.w	r7, [r4, #69]	; 0x45
 80088a6:	680e      	ldr	r6, [r1, #0]
 80088a8:	6823      	ldr	r3, [r4, #0]
 80088aa:	f856 5b04 	ldr.w	r5, [r6], #4
 80088ae:	061f      	lsls	r7, r3, #24
 80088b0:	600e      	str	r6, [r1, #0]
 80088b2:	d514      	bpl.n	80088de <_printf_i+0x1ae>
 80088b4:	07d9      	lsls	r1, r3, #31
 80088b6:	bf44      	itt	mi
 80088b8:	f043 0320 	orrmi.w	r3, r3, #32
 80088bc:	6023      	strmi	r3, [r4, #0]
 80088be:	b91d      	cbnz	r5, 80088c8 <_printf_i+0x198>
 80088c0:	6823      	ldr	r3, [r4, #0]
 80088c2:	f023 0320 	bic.w	r3, r3, #32
 80088c6:	6023      	str	r3, [r4, #0]
 80088c8:	2310      	movs	r3, #16
 80088ca:	e7af      	b.n	800882c <_printf_i+0xfc>
 80088cc:	6823      	ldr	r3, [r4, #0]
 80088ce:	f043 0320 	orr.w	r3, r3, #32
 80088d2:	6023      	str	r3, [r4, #0]
 80088d4:	2378      	movs	r3, #120	; 0x78
 80088d6:	4828      	ldr	r0, [pc, #160]	; (8008978 <_printf_i+0x248>)
 80088d8:	f884 3045 	strb.w	r3, [r4, #69]	; 0x45
 80088dc:	e7e3      	b.n	80088a6 <_printf_i+0x176>
 80088de:	065e      	lsls	r6, r3, #25
 80088e0:	bf48      	it	mi
 80088e2:	b2ad      	uxthmi	r5, r5
 80088e4:	e7e6      	b.n	80088b4 <_printf_i+0x184>
 80088e6:	4616      	mov	r6, r2
 80088e8:	e7bb      	b.n	8008862 <_printf_i+0x132>
 80088ea:	680b      	ldr	r3, [r1, #0]
 80088ec:	6826      	ldr	r6, [r4, #0]
 80088ee:	1d1d      	adds	r5, r3, #4
 80088f0:	6960      	ldr	r0, [r4, #20]
 80088f2:	600d      	str	r5, [r1, #0]
 80088f4:	0635      	lsls	r5, r6, #24
 80088f6:	681b      	ldr	r3, [r3, #0]
 80088f8:	d501      	bpl.n	80088fe <_printf_i+0x1ce>
 80088fa:	6018      	str	r0, [r3, #0]
 80088fc:	e002      	b.n	8008904 <_printf_i+0x1d4>
 80088fe:	0671      	lsls	r1, r6, #25
 8008900:	d5fb      	bpl.n	80088fa <_printf_i+0x1ca>
 8008902:	8018      	strh	r0, [r3, #0]
 8008904:	2300      	movs	r3, #0
 8008906:	4616      	mov	r6, r2
 8008908:	6123      	str	r3, [r4, #16]
 800890a:	e7ba      	b.n	8008882 <_printf_i+0x152>
 800890c:	680b      	ldr	r3, [r1, #0]
 800890e:	1d1a      	adds	r2, r3, #4
 8008910:	600a      	str	r2, [r1, #0]
 8008912:	681e      	ldr	r6, [r3, #0]
 8008914:	2100      	movs	r1, #0
 8008916:	4630      	mov	r0, r6
 8008918:	6862      	ldr	r2, [r4, #4]
 800891a:	f000 f82f 	bl	800897c <memchr>
 800891e:	b108      	cbz	r0, 8008924 <_printf_i+0x1f4>
 8008920:	1b80      	subs	r0, r0, r6
 8008922:	6060      	str	r0, [r4, #4]
 8008924:	6863      	ldr	r3, [r4, #4]
 8008926:	6123      	str	r3, [r4, #16]
 8008928:	2300      	movs	r3, #0
 800892a:	f884 3043 	strb.w	r3, [r4, #67]	; 0x43
 800892e:	e7a8      	b.n	8008882 <_printf_i+0x152>
 8008930:	4632      	mov	r2, r6
 8008932:	4649      	mov	r1, r9
 8008934:	4640      	mov	r0, r8
 8008936:	6923      	ldr	r3, [r4, #16]
 8008938:	47d0      	blx	sl
 800893a:	3001      	adds	r0, #1
 800893c:	d0ab      	beq.n	8008896 <_printf_i+0x166>
 800893e:	6823      	ldr	r3, [r4, #0]
 8008940:	079b      	lsls	r3, r3, #30
 8008942:	d413      	bmi.n	800896c <_printf_i+0x23c>
 8008944:	68e0      	ldr	r0, [r4, #12]
 8008946:	9b03      	ldr	r3, [sp, #12]
 8008948:	4298      	cmp	r0, r3
 800894a:	bfb8      	it	lt
 800894c:	4618      	movlt	r0, r3
 800894e:	e7a4      	b.n	800889a <_printf_i+0x16a>
 8008950:	2301      	movs	r3, #1
 8008952:	4632      	mov	r2, r6
 8008954:	4649      	mov	r1, r9
 8008956:	4640      	mov	r0, r8
 8008958:	47d0      	blx	sl
 800895a:	3001      	adds	r0, #1
 800895c:	d09b      	beq.n	8008896 <_printf_i+0x166>
 800895e:	3501      	adds	r5, #1
 8008960:	68e3      	ldr	r3, [r4, #12]
 8008962:	9903      	ldr	r1, [sp, #12]
 8008964:	1a5b      	subs	r3, r3, r1
 8008966:	42ab      	cmp	r3, r5
 8008968:	dcf2      	bgt.n	8008950 <_printf_i+0x220>
 800896a:	e7eb      	b.n	8008944 <_printf_i+0x214>
 800896c:	2500      	movs	r5, #0
 800896e:	f104 0619 	add.w	r6, r4, #25
 8008972:	e7f5      	b.n	8008960 <_printf_i+0x230>
 8008974:	08009997 	.word	0x08009997
 8008978:	080099a8 	.word	0x080099a8

0800897c <memchr>:
 800897c:	4603      	mov	r3, r0
 800897e:	b510      	push	{r4, lr}
 8008980:	b2c9      	uxtb	r1, r1
 8008982:	4402      	add	r2, r0
 8008984:	4293      	cmp	r3, r2
 8008986:	4618      	mov	r0, r3
 8008988:	d101      	bne.n	800898e <memchr+0x12>
 800898a:	2000      	movs	r0, #0
 800898c:	e003      	b.n	8008996 <memchr+0x1a>
 800898e:	7804      	ldrb	r4, [r0, #0]
 8008990:	3301      	adds	r3, #1
 8008992:	428c      	cmp	r4, r1
 8008994:	d1f6      	bne.n	8008984 <memchr+0x8>
 8008996:	bd10      	pop	{r4, pc}

08008998 <memmove>:
 8008998:	4288      	cmp	r0, r1
 800899a:	b510      	push	{r4, lr}
 800899c:	eb01 0402 	add.w	r4, r1, r2
 80089a0:	d902      	bls.n	80089a8 <memmove+0x10>
 80089a2:	4284      	cmp	r4, r0
 80089a4:	4623      	mov	r3, r4
 80089a6:	d807      	bhi.n	80089b8 <memmove+0x20>
 80089a8:	1e43      	subs	r3, r0, #1
 80089aa:	42a1      	cmp	r1, r4
 80089ac:	d008      	beq.n	80089c0 <memmove+0x28>
 80089ae:	f811 2b01 	ldrb.w	r2, [r1], #1
 80089b2:	f803 2f01 	strb.w	r2, [r3, #1]!
 80089b6:	e7f8      	b.n	80089aa <memmove+0x12>
 80089b8:	4601      	mov	r1, r0
 80089ba:	4402      	add	r2, r0
 80089bc:	428a      	cmp	r2, r1
 80089be:	d100      	bne.n	80089c2 <memmove+0x2a>
 80089c0:	bd10      	pop	{r4, pc}
 80089c2:	f813 4d01 	ldrb.w	r4, [r3, #-1]!
 80089c6:	f802 4d01 	strb.w	r4, [r2, #-1]!
 80089ca:	e7f7      	b.n	80089bc <memmove+0x24>

080089cc <_free_r>:
 80089cc:	b538      	push	{r3, r4, r5, lr}
 80089ce:	4605      	mov	r5, r0
 80089d0:	2900      	cmp	r1, #0
 80089d2:	d043      	beq.n	8008a5c <_free_r+0x90>
 80089d4:	f851 3c04 	ldr.w	r3, [r1, #-4]
 80089d8:	1f0c      	subs	r4, r1, #4
 80089da:	2b00      	cmp	r3, #0
 80089dc:	bfb8      	it	lt
 80089de:	18e4      	addlt	r4, r4, r3
 80089e0:	f000 f8d0 	bl	8008b84 <__malloc_lock>
 80089e4:	4a1e      	ldr	r2, [pc, #120]	; (8008a60 <_free_r+0x94>)
 80089e6:	6813      	ldr	r3, [r2, #0]
 80089e8:	4610      	mov	r0, r2
 80089ea:	b933      	cbnz	r3, 80089fa <_free_r+0x2e>
 80089ec:	6063      	str	r3, [r4, #4]
 80089ee:	6014      	str	r4, [r2, #0]
 80089f0:	4628      	mov	r0, r5
 80089f2:	e8bd 4038 	ldmia.w	sp!, {r3, r4, r5, lr}
 80089f6:	f000 b8cb 	b.w	8008b90 <__malloc_unlock>
 80089fa:	42a3      	cmp	r3, r4
 80089fc:	d90a      	bls.n	8008a14 <_free_r+0x48>
 80089fe:	6821      	ldr	r1, [r4, #0]
 8008a00:	1862      	adds	r2, r4, r1
 8008a02:	4293      	cmp	r3, r2
 8008a04:	bf01      	itttt	eq
 8008a06:	681a      	ldreq	r2, [r3, #0]
 8008a08:	685b      	ldreq	r3, [r3, #4]
 8008a0a:	1852      	addeq	r2, r2, r1
 8008a0c:	6022      	streq	r2, [r4, #0]
 8008a0e:	6063      	str	r3, [r4, #4]
 8008a10:	6004      	str	r4, [r0, #0]
 8008a12:	e7ed      	b.n	80089f0 <_free_r+0x24>
 8008a14:	461a      	mov	r2, r3
 8008a16:	685b      	ldr	r3, [r3, #4]
 8008a18:	b10b      	cbz	r3, 8008a1e <_free_r+0x52>
 8008a1a:	42a3      	cmp	r3, r4
 8008a1c:	d9fa      	bls.n	8008a14 <_free_r+0x48>
 8008a1e:	6811      	ldr	r1, [r2, #0]
 8008a20:	1850      	adds	r0, r2, r1
 8008a22:	42a0      	cmp	r0, r4
 8008a24:	d10b      	bne.n	8008a3e <_free_r+0x72>
 8008a26:	6820      	ldr	r0, [r4, #0]
 8008a28:	4401      	add	r1, r0
 8008a2a:	1850      	adds	r0, r2, r1
 8008a2c:	4283      	cmp	r3, r0
 8008a2e:	6011      	str	r1, [r2, #0]
 8008a30:	d1de      	bne.n	80089f0 <_free_r+0x24>
 8008a32:	6818      	ldr	r0, [r3, #0]
 8008a34:	685b      	ldr	r3, [r3, #4]
 8008a36:	4401      	add	r1, r0
 8008a38:	6011      	str	r1, [r2, #0]
 8008a3a:	6053      	str	r3, [r2, #4]
 8008a3c:	e7d8      	b.n	80089f0 <_free_r+0x24>
 8008a3e:	d902      	bls.n	8008a46 <_free_r+0x7a>
 8008a40:	230c      	movs	r3, #12
 8008a42:	602b      	str	r3, [r5, #0]
 8008a44:	e7d4      	b.n	80089f0 <_free_r+0x24>
 8008a46:	6820      	ldr	r0, [r4, #0]
 8008a48:	1821      	adds	r1, r4, r0
 8008a4a:	428b      	cmp	r3, r1
 8008a4c:	bf01      	itttt	eq
 8008a4e:	6819      	ldreq	r1, [r3, #0]
 8008a50:	685b      	ldreq	r3, [r3, #4]
 8008a52:	1809      	addeq	r1, r1, r0
 8008a54:	6021      	streq	r1, [r4, #0]
 8008a56:	6063      	str	r3, [r4, #4]
 8008a58:	6054      	str	r4, [r2, #4]
 8008a5a:	e7c9      	b.n	80089f0 <_free_r+0x24>
 8008a5c:	bd38      	pop	{r3, r4, r5, pc}
 8008a5e:	bf00      	nop
 8008a60:	20001fec 	.word	0x20001fec

08008a64 <_malloc_r>:
 8008a64:	b5f8      	push	{r3, r4, r5, r6, r7, lr}
 8008a66:	1ccd      	adds	r5, r1, #3
 8008a68:	f025 0503 	bic.w	r5, r5, #3
 8008a6c:	3508      	adds	r5, #8
 8008a6e:	2d0c      	cmp	r5, #12
 8008a70:	bf38      	it	cc
 8008a72:	250c      	movcc	r5, #12
 8008a74:	2d00      	cmp	r5, #0
 8008a76:	4606      	mov	r6, r0
 8008a78:	db01      	blt.n	8008a7e <_malloc_r+0x1a>
 8008a7a:	42a9      	cmp	r1, r5
 8008a7c:	d903      	bls.n	8008a86 <_malloc_r+0x22>
 8008a7e:	230c      	movs	r3, #12
 8008a80:	6033      	str	r3, [r6, #0]
 8008a82:	2000      	movs	r0, #0
 8008a84:	bdf8      	pop	{r3, r4, r5, r6, r7, pc}
 8008a86:	f000 f87d 	bl	8008b84 <__malloc_lock>
 8008a8a:	4921      	ldr	r1, [pc, #132]	; (8008b10 <_malloc_r+0xac>)
 8008a8c:	680a      	ldr	r2, [r1, #0]
 8008a8e:	4614      	mov	r4, r2
 8008a90:	b99c      	cbnz	r4, 8008aba <_malloc_r+0x56>
 8008a92:	4f20      	ldr	r7, [pc, #128]	; (8008b14 <_malloc_r+0xb0>)
 8008a94:	683b      	ldr	r3, [r7, #0]
 8008a96:	b923      	cbnz	r3, 8008aa2 <_malloc_r+0x3e>
 8008a98:	4621      	mov	r1, r4
 8008a9a:	4630      	mov	r0, r6
 8008a9c:	f000 f862 	bl	8008b64 <_sbrk_r>
 8008aa0:	6038      	str	r0, [r7, #0]
 8008aa2:	4629      	mov	r1, r5
 8008aa4:	4630      	mov	r0, r6
 8008aa6:	f000 f85d 	bl	8008b64 <_sbrk_r>
 8008aaa:	1c43      	adds	r3, r0, #1
 8008aac:	d123      	bne.n	8008af6 <_malloc_r+0x92>
 8008aae:	230c      	movs	r3, #12
 8008ab0:	4630      	mov	r0, r6
 8008ab2:	6033      	str	r3, [r6, #0]
 8008ab4:	f000 f86c 	bl	8008b90 <__malloc_unlock>
 8008ab8:	e7e3      	b.n	8008a82 <_malloc_r+0x1e>
 8008aba:	6823      	ldr	r3, [r4, #0]
 8008abc:	1b5b      	subs	r3, r3, r5
 8008abe:	d417      	bmi.n	8008af0 <_malloc_r+0x8c>
 8008ac0:	2b0b      	cmp	r3, #11
 8008ac2:	d903      	bls.n	8008acc <_malloc_r+0x68>
 8008ac4:	6023      	str	r3, [r4, #0]
 8008ac6:	441c      	add	r4, r3
 8008ac8:	6025      	str	r5, [r4, #0]
 8008aca:	e004      	b.n	8008ad6 <_malloc_r+0x72>
 8008acc:	6863      	ldr	r3, [r4, #4]
 8008ace:	42a2      	cmp	r2, r4
 8008ad0:	bf0c      	ite	eq
 8008ad2:	600b      	streq	r3, [r1, #0]
 8008ad4:	6053      	strne	r3, [r2, #4]
 8008ad6:	4630      	mov	r0, r6
 8008ad8:	f000 f85a 	bl	8008b90 <__malloc_unlock>
 8008adc:	f104 000b 	add.w	r0, r4, #11
 8008ae0:	1d23      	adds	r3, r4, #4
 8008ae2:	f020 0007 	bic.w	r0, r0, #7
 8008ae6:	1ac2      	subs	r2, r0, r3
 8008ae8:	d0cc      	beq.n	8008a84 <_malloc_r+0x20>
 8008aea:	1a1b      	subs	r3, r3, r0
 8008aec:	50a3      	str	r3, [r4, r2]
 8008aee:	e7c9      	b.n	8008a84 <_malloc_r+0x20>
 8008af0:	4622      	mov	r2, r4
 8008af2:	6864      	ldr	r4, [r4, #4]
 8008af4:	e7cc      	b.n	8008a90 <_malloc_r+0x2c>
 8008af6:	1cc4      	adds	r4, r0, #3
 8008af8:	f024 0403 	bic.w	r4, r4, #3
 8008afc:	42a0      	cmp	r0, r4
 8008afe:	d0e3      	beq.n	8008ac8 <_malloc_r+0x64>
 8008b00:	1a21      	subs	r1, r4, r0
 8008b02:	4630      	mov	r0, r6
 8008b04:	f000 f82e 	bl	8008b64 <_sbrk_r>
 8008b08:	3001      	adds	r0, #1
 8008b0a:	d1dd      	bne.n	8008ac8 <_malloc_r+0x64>
 8008b0c:	e7cf      	b.n	8008aae <_malloc_r+0x4a>
 8008b0e:	bf00      	nop
 8008b10:	20001fec 	.word	0x20001fec
 8008b14:	20001ff0 	.word	0x20001ff0

08008b18 <_realloc_r>:
 8008b18:	b5f8      	push	{r3, r4, r5, r6, r7, lr}
 8008b1a:	4607      	mov	r7, r0
 8008b1c:	4614      	mov	r4, r2
 8008b1e:	460e      	mov	r6, r1
 8008b20:	b921      	cbnz	r1, 8008b2c <_realloc_r+0x14>
 8008b22:	4611      	mov	r1, r2
 8008b24:	e8bd 40f8 	ldmia.w	sp!, {r3, r4, r5, r6, r7, lr}
 8008b28:	f7ff bf9c 	b.w	8008a64 <_malloc_r>
 8008b2c:	b922      	cbnz	r2, 8008b38 <_realloc_r+0x20>
 8008b2e:	f7ff ff4d 	bl	80089cc <_free_r>
 8008b32:	4625      	mov	r5, r4
 8008b34:	4628      	mov	r0, r5
 8008b36:	bdf8      	pop	{r3, r4, r5, r6, r7, pc}
 8008b38:	f000 f830 	bl	8008b9c <_malloc_usable_size_r>
 8008b3c:	42a0      	cmp	r0, r4
 8008b3e:	d20f      	bcs.n	8008b60 <_realloc_r+0x48>
 8008b40:	4621      	mov	r1, r4
 8008b42:	4638      	mov	r0, r7
 8008b44:	f7ff ff8e 	bl	8008a64 <_malloc_r>
 8008b48:	4605      	mov	r5, r0
 8008b4a:	2800      	cmp	r0, #0
 8008b4c:	d0f2      	beq.n	8008b34 <_realloc_r+0x1c>
 8008b4e:	4631      	mov	r1, r6
 8008b50:	4622      	mov	r2, r4
 8008b52:	f7ff fbb9 	bl	80082c8 <memcpy>
 8008b56:	4631      	mov	r1, r6
 8008b58:	4638      	mov	r0, r7
 8008b5a:	f7ff ff37 	bl	80089cc <_free_r>
 8008b5e:	e7e9      	b.n	8008b34 <_realloc_r+0x1c>
 8008b60:	4635      	mov	r5, r6
 8008b62:	e7e7      	b.n	8008b34 <_realloc_r+0x1c>

08008b64 <_sbrk_r>:
 8008b64:	b538      	push	{r3, r4, r5, lr}
 8008b66:	2300      	movs	r3, #0
 8008b68:	4d05      	ldr	r5, [pc, #20]	; (8008b80 <_sbrk_r+0x1c>)
 8008b6a:	4604      	mov	r4, r0
 8008b6c:	4608      	mov	r0, r1
 8008b6e:	602b      	str	r3, [r5, #0]
 8008b70:	f7f9 fd9e 	bl	80026b0 <_sbrk>
 8008b74:	1c43      	adds	r3, r0, #1
 8008b76:	d102      	bne.n	8008b7e <_sbrk_r+0x1a>
 8008b78:	682b      	ldr	r3, [r5, #0]
 8008b7a:	b103      	cbz	r3, 8008b7e <_sbrk_r+0x1a>
 8008b7c:	6023      	str	r3, [r4, #0]
 8008b7e:	bd38      	pop	{r3, r4, r5, pc}
 8008b80:	20002d4c 	.word	0x20002d4c

08008b84 <__malloc_lock>:
 8008b84:	4801      	ldr	r0, [pc, #4]	; (8008b8c <__malloc_lock+0x8>)
 8008b86:	f000 b811 	b.w	8008bac <__retarget_lock_acquire_recursive>
 8008b8a:	bf00      	nop
 8008b8c:	20002d54 	.word	0x20002d54

08008b90 <__malloc_unlock>:
 8008b90:	4801      	ldr	r0, [pc, #4]	; (8008b98 <__malloc_unlock+0x8>)
 8008b92:	f000 b80c 	b.w	8008bae <__retarget_lock_release_recursive>
 8008b96:	bf00      	nop
 8008b98:	20002d54 	.word	0x20002d54

08008b9c <_malloc_usable_size_r>:
 8008b9c:	f851 3c04 	ldr.w	r3, [r1, #-4]
 8008ba0:	1f18      	subs	r0, r3, #4
 8008ba2:	2b00      	cmp	r3, #0
 8008ba4:	bfbc      	itt	lt
 8008ba6:	580b      	ldrlt	r3, [r1, r0]
 8008ba8:	18c0      	addlt	r0, r0, r3
 8008baa:	4770      	bx	lr

08008bac <__retarget_lock_acquire_recursive>:
 8008bac:	4770      	bx	lr

08008bae <__retarget_lock_release_recursive>:
 8008bae:	4770      	bx	lr

08008bb0 <_init>:
 8008bb0:	b5f8      	push	{r3, r4, r5, r6, r7, lr}
 8008bb2:	bf00      	nop
 8008bb4:	bcf8      	pop	{r3, r4, r5, r6, r7}
 8008bb6:	bc08      	pop	{r3}
 8008bb8:	469e      	mov	lr, r3
 8008bba:	4770      	bx	lr

08008bbc <_fini>:
 8008bbc:	b5f8      	push	{r3, r4, r5, r6, r7, lr}
 8008bbe:	bf00      	nop
 8008bc0:	bcf8      	pop	{r3, r4, r5, r6, r7}
 8008bc2:	bc08      	pop	{r3}
 8008bc4:	469e      	mov	lr, r3
 8008bc6:	4770      	bx	lr
